

Microchip MPLAB XC8 Assembler V2.31 build 20201012212115 
                                                                                               Thu Feb 11 17:17:19 2021

Microchip MPLAB XC8 C Compiler v2.31 (Free license) build 20201012212115 Og1 
     1                           	processor	16F887
     2                           	pagewidth 120
     3                           	opt	flic
     4                           	psect	strings,global,class=STRING,delta=2,noexec
     5                           	psect	cinit,global,class=CODE,merge=1,delta=2
     6                           	psect	bssBANK0,global,class=BANK0,space=1,delta=1,noexec
     7                           	psect	cstackCOMMON,global,class=COMMON,space=1,delta=1,noexec
     8                           	psect	cstackBANK0,global,class=BANK0,space=1,delta=1,noexec
     9                           	psect	maintext,global,class=CODE,split=1,delta=2
    10                           	psect	text1,local,class=CODE,merge=1,delta=2
    11                           	psect	text2,local,class=CODE,merge=1,delta=2,group=1
    12                           	psect	text3,local,class=CODE,merge=1,delta=2,group=1
    13                           	psect	text4,local,class=CODE,merge=1,delta=2,group=1
    14                           	psect	text5,local,class=CODE,merge=1,delta=2
    15                           	psect	text6,local,class=CODE,merge=1,delta=2,group=1
    16                           	psect	text7,local,class=CODE,merge=1,delta=2,group=1
    17                           	psect	text8,local,class=CODE,merge=1,delta=2,group=1
    18                           	psect	text9,local,class=CODE,merge=1,delta=2,group=1
    19                           	psect	text10,local,class=CODE,merge=1,delta=2,group=1
    20                           	psect	text11,local,class=CODE,merge=1,delta=2,group=1
    21                           	psect	text12,local,class=CODE,merge=1,delta=2,group=1
    22                           	psect	text13,local,class=CODE,merge=1,delta=2
    23                           	psect	text14,local,class=CODE,merge=1,delta=2
    24                           	psect	text15,local,class=CODE,merge=1,delta=2
    25                           	psect	text16,local,class=CODE,merge=1,delta=2
    26                           	psect	text17,local,class=CODE,merge=1,delta=2
    27                           	psect	text18,local,class=CODE,merge=1,delta=2,group=1
    28                           	psect	text19,local,class=CODE,merge=1,delta=2
    29                           	psect	text20,local,class=CODE,merge=1,delta=2
    30                           	psect	text21,local,class=CODE,merge=1,delta=2
    31                           	psect	text22,local,class=CODE,merge=1,delta=2
    32                           	psect	text23,local,class=CODE,merge=1,delta=2
    33                           	psect	text24,local,class=CODE,merge=1,delta=2
    34                           	psect	text25,local,class=CODE,merge=1,delta=2
    35                           	psect	text26,local,class=CODE,merge=1,delta=2
    36                           	psect	config,global,abs,ovrld,class=CONFIG,space=4,delta=2,noexec
    37                           	dabs	1,0x7E,2
    38  0000                     
    39                           ; Version 2.20
    40                           ; Generated 12/02/2020 GMT
    41                           ; 
    42                           ; Copyright © 2020, Microchip Technology Inc. and its subsidiaries ("Microchip")
    43                           ; All rights reserved.
    44                           ; 
    45                           ; This software is developed by Microchip Technology Inc. and its subsidiaries ("Microch
      +                          ip").
    46                           ; 
    47                           ; Redistribution and use in source and binary forms, with or without modification, are
    48                           ; permitted provided that the following conditions are met:
    49                           ; 
    50                           ;     1. Redistributions of source code must retain the above copyright notice, this lis
      +                          t of
    51                           ;        conditions and the following disclaimer.
    52                           ; 
    53                           ;     2. Redistributions in binary form must reproduce the above copyright notice, this 
      +                          list
    54                           ;        of conditions and the following disclaimer in the documentation and/or other
    55                           ;        materials provided with the distribution.
    56                           ; 
    57                           ;     3. Microchip's name may not be used to endorse or promote products derived from th
      +                          is
    58                           ;        software without specific prior written permission.
    59                           ; 
    60                           ; THIS SOFTWARE IS PROVIDED BY MICROCHIP "AS IS" AND ANY EXPRESS OR IMPLIED WARRANTIES,
    61                           ; INCLUDING, BUT NOT LIMITED TO, THE IMPLIED WARRANTIES OF MERCHANTABILITY AND FITNESS F
      +                          OR
    62                           ; PURPOSE ARE DISCLAIMED.  IN NO EVENT SHALL MICROCHIP BE LIABLE FOR ANY DIRECT, INDIREC
      +                          T,
    63                           ; INCIDENTAL, SPECIAL, EXEMPLARY, OR CONSEQUENTIAL DAMAGES (INCLUDING BUT NOT LIMITED TO
    64                           ; PROCUREMENT OF SUBSTITUTE GOODS OR SERVICES; LOSS OF USE, DATA OR PROFITS; OR BUSINESS
    65                           ; INTERRUPTION) HOWSOEVER CAUSED AND ON ANY THEORY OF LIABILITY, WHETHER IN CONTRACT, ST
      +                          RICT
    66                           ; LIABILITY, OR TORT (INCLUDING NEGLIGENCE OR OTHERWISE) ARISING IN ANY WAY OUT OF THE U
      +                          SE OF
    67                           ; THIS SOFTWARE, EVEN IF ADVISED OF THE POSSIBILITY OF SUCH DAMAGE.
    68                           ; 
    69                           ; 
    70                           ; Code-generator required, PIC16F887 Definitions
    71                           ; 
    72                           ; SFR Addresses
    73  0000                     	;# 
    74  0001                     	;# 
    75  0002                     	;# 
    76  0003                     	;# 
    77  0004                     	;# 
    78  0005                     	;# 
    79  0006                     	;# 
    80  0007                     	;# 
    81  0008                     	;# 
    82  0009                     	;# 
    83  000A                     	;# 
    84  000B                     	;# 
    85  000C                     	;# 
    86  000D                     	;# 
    87  000E                     	;# 
    88  000E                     	;# 
    89  000F                     	;# 
    90  0010                     	;# 
    91  0011                     	;# 
    92  0012                     	;# 
    93  0013                     	;# 
    94  0014                     	;# 
    95  0015                     	;# 
    96  0015                     	;# 
    97  0016                     	;# 
    98  0017                     	;# 
    99  0018                     	;# 
   100  0019                     	;# 
   101  001A                     	;# 
   102  001B                     	;# 
   103  001B                     	;# 
   104  001C                     	;# 
   105  001D                     	;# 
   106  001E                     	;# 
   107  001F                     	;# 
   108  0081                     	;# 
   109  0085                     	;# 
   110  0086                     	;# 
   111  0087                     	;# 
   112  0088                     	;# 
   113  0089                     	;# 
   114  008C                     	;# 
   115  008D                     	;# 
   116  008E                     	;# 
   117  008F                     	;# 
   118  0090                     	;# 
   119  0091                     	;# 
   120  0092                     	;# 
   121  0093                     	;# 
   122  0093                     	;# 
   123  0093                     	;# 
   124  0094                     	;# 
   125  0095                     	;# 
   126  0096                     	;# 
   127  0097                     	;# 
   128  0098                     	;# 
   129  0099                     	;# 
   130  009A                     	;# 
   131  009B                     	;# 
   132  009C                     	;# 
   133  009D                     	;# 
   134  009E                     	;# 
   135  009F                     	;# 
   136  0105                     	;# 
   137  0107                     	;# 
   138  0108                     	;# 
   139  0109                     	;# 
   140  010C                     	;# 
   141  010C                     	;# 
   142  010D                     	;# 
   143  010E                     	;# 
   144  010F                     	;# 
   145  0185                     	;# 
   146  0187                     	;# 
   147  0188                     	;# 
   148  0189                     	;# 
   149  018C                     	;# 
   150  018D                     	;# 
   151  0000                     	;# 
   152  0001                     	;# 
   153  0002                     	;# 
   154  0003                     	;# 
   155  0004                     	;# 
   156  0005                     	;# 
   157  0006                     	;# 
   158  0007                     	;# 
   159  0008                     	;# 
   160  0009                     	;# 
   161  000A                     	;# 
   162  000B                     	;# 
   163  000C                     	;# 
   164  000D                     	;# 
   165  000E                     	;# 
   166  000E                     	;# 
   167  000F                     	;# 
   168  0010                     	;# 
   169  0011                     	;# 
   170  0012                     	;# 
   171  0013                     	;# 
   172  0014                     	;# 
   173  0015                     	;# 
   174  0015                     	;# 
   175  0016                     	;# 
   176  0017                     	;# 
   177  0018                     	;# 
   178  0019                     	;# 
   179  001A                     	;# 
   180  001B                     	;# 
   181  001B                     	;# 
   182  001C                     	;# 
   183  001D                     	;# 
   184  001E                     	;# 
   185  001F                     	;# 
   186  0081                     	;# 
   187  0085                     	;# 
   188  0086                     	;# 
   189  0087                     	;# 
   190  0088                     	;# 
   191  0089                     	;# 
   192  008C                     	;# 
   193  008D                     	;# 
   194  008E                     	;# 
   195  008F                     	;# 
   196  0090                     	;# 
   197  0091                     	;# 
   198  0092                     	;# 
   199  0093                     	;# 
   200  0093                     	;# 
   201  0093                     	;# 
   202  0094                     	;# 
   203  0095                     	;# 
   204  0096                     	;# 
   205  0097                     	;# 
   206  0098                     	;# 
   207  0099                     	;# 
   208  009A                     	;# 
   209  009B                     	;# 
   210  009C                     	;# 
   211  009D                     	;# 
   212  009E                     	;# 
   213  009F                     	;# 
   214  0105                     	;# 
   215  0107                     	;# 
   216  0108                     	;# 
   217  0109                     	;# 
   218  010C                     	;# 
   219  010C                     	;# 
   220  010D                     	;# 
   221  010E                     	;# 
   222  010F                     	;# 
   223  0185                     	;# 
   224  0187                     	;# 
   225  0188                     	;# 
   226  0189                     	;# 
   227  018C                     	;# 
   228  018D                     	;# 
   229  0000                     	;# 
   230  0001                     	;# 
   231  0002                     	;# 
   232  0003                     	;# 
   233  0004                     	;# 
   234  0005                     	;# 
   235  0006                     	;# 
   236  0007                     	;# 
   237  0008                     	;# 
   238  0009                     	;# 
   239  000A                     	;# 
   240  000B                     	;# 
   241  000C                     	;# 
   242  000D                     	;# 
   243  000E                     	;# 
   244  000E                     	;# 
   245  000F                     	;# 
   246  0010                     	;# 
   247  0011                     	;# 
   248  0012                     	;# 
   249  0013                     	;# 
   250  0014                     	;# 
   251  0015                     	;# 
   252  0015                     	;# 
   253  0016                     	;# 
   254  0017                     	;# 
   255  0018                     	;# 
   256  0019                     	;# 
   257  001A                     	;# 
   258  001B                     	;# 
   259  001B                     	;# 
   260  001C                     	;# 
   261  001D                     	;# 
   262  001E                     	;# 
   263  001F                     	;# 
   264  0081                     	;# 
   265  0085                     	;# 
   266  0086                     	;# 
   267  0087                     	;# 
   268  0088                     	;# 
   269  0089                     	;# 
   270  008C                     	;# 
   271  008D                     	;# 
   272  008E                     	;# 
   273  008F                     	;# 
   274  0090                     	;# 
   275  0091                     	;# 
   276  0092                     	;# 
   277  0093                     	;# 
   278  0093                     	;# 
   279  0093                     	;# 
   280  0094                     	;# 
   281  0095                     	;# 
   282  0096                     	;# 
   283  0097                     	;# 
   284  0098                     	;# 
   285  0099                     	;# 
   286  009A                     	;# 
   287  009B                     	;# 
   288  009C                     	;# 
   289  009D                     	;# 
   290  009E                     	;# 
   291  009F                     	;# 
   292  0105                     	;# 
   293  0107                     	;# 
   294  0108                     	;# 
   295  0109                     	;# 
   296  010C                     	;# 
   297  010C                     	;# 
   298  010D                     	;# 
   299  010E                     	;# 
   300  010F                     	;# 
   301  0185                     	;# 
   302  0187                     	;# 
   303  0188                     	;# 
   304  0189                     	;# 
   305  018C                     	;# 
   306  018D                     	;# 
   307  0000                     	;# 
   308  0001                     	;# 
   309  0002                     	;# 
   310  0003                     	;# 
   311  0004                     	;# 
   312  0005                     	;# 
   313  0006                     	;# 
   314  0007                     	;# 
   315  0008                     	;# 
   316  0009                     	;# 
   317  000A                     	;# 
   318  000B                     	;# 
   319  000C                     	;# 
   320  000D                     	;# 
   321  000E                     	;# 
   322  000E                     	;# 
   323  000F                     	;# 
   324  0010                     	;# 
   325  0011                     	;# 
   326  0012                     	;# 
   327  0013                     	;# 
   328  0014                     	;# 
   329  0015                     	;# 
   330  0015                     	;# 
   331  0016                     	;# 
   332  0017                     	;# 
   333  0018                     	;# 
   334  0019                     	;# 
   335  001A                     	;# 
   336  001B                     	;# 
   337  001B                     	;# 
   338  001C                     	;# 
   339  001D                     	;# 
   340  001E                     	;# 
   341  001F                     	;# 
   342  0081                     	;# 
   343  0085                     	;# 
   344  0086                     	;# 
   345  0087                     	;# 
   346  0088                     	;# 
   347  0089                     	;# 
   348  008C                     	;# 
   349  008D                     	;# 
   350  008E                     	;# 
   351  008F                     	;# 
   352  0090                     	;# 
   353  0091                     	;# 
   354  0092                     	;# 
   355  0093                     	;# 
   356  0093                     	;# 
   357  0093                     	;# 
   358  0094                     	;# 
   359  0095                     	;# 
   360  0096                     	;# 
   361  0097                     	;# 
   362  0098                     	;# 
   363  0099                     	;# 
   364  009A                     	;# 
   365  009B                     	;# 
   366  009C                     	;# 
   367  009D                     	;# 
   368  009E                     	;# 
   369  009F                     	;# 
   370  0105                     	;# 
   371  0107                     	;# 
   372  0108                     	;# 
   373  0109                     	;# 
   374  010C                     	;# 
   375  010C                     	;# 
   376  010D                     	;# 
   377  010E                     	;# 
   378  010F                     	;# 
   379  0185                     	;# 
   380  0187                     	;# 
   381  0188                     	;# 
   382  0189                     	;# 
   383  018C                     	;# 
   384  018D                     	;# 
   385  0000                     	;# 
   386  0001                     	;# 
   387  0002                     	;# 
   388  0003                     	;# 
   389  0004                     	;# 
   390  0005                     	;# 
   391  0006                     	;# 
   392  0007                     	;# 
   393  0008                     	;# 
   394  0009                     	;# 
   395  000A                     	;# 
   396  000B                     	;# 
   397  000C                     	;# 
   398  000D                     	;# 
   399  000E                     	;# 
   400  000E                     	;# 
   401  000F                     	;# 
   402  0010                     	;# 
   403  0011                     	;# 
   404  0012                     	;# 
   405  0013                     	;# 
   406  0014                     	;# 
   407  0015                     	;# 
   408  0015                     	;# 
   409  0016                     	;# 
   410  0017                     	;# 
   411  0018                     	;# 
   412  0019                     	;# 
   413  001A                     	;# 
   414  001B                     	;# 
   415  001B                     	;# 
   416  001C                     	;# 
   417  001D                     	;# 
   418  001E                     	;# 
   419  001F                     	;# 
   420  0081                     	;# 
   421  0085                     	;# 
   422  0086                     	;# 
   423  0087                     	;# 
   424  0088                     	;# 
   425  0089                     	;# 
   426  008C                     	;# 
   427  008D                     	;# 
   428  008E                     	;# 
   429  008F                     	;# 
   430  0090                     	;# 
   431  0091                     	;# 
   432  0092                     	;# 
   433  0093                     	;# 
   434  0093                     	;# 
   435  0093                     	;# 
   436  0094                     	;# 
   437  0095                     	;# 
   438  0096                     	;# 
   439  0097                     	;# 
   440  0098                     	;# 
   441  0099                     	;# 
   442  009A                     	;# 
   443  009B                     	;# 
   444  009C                     	;# 
   445  009D                     	;# 
   446  009E                     	;# 
   447  009F                     	;# 
   448  0105                     	;# 
   449  0107                     	;# 
   450  0108                     	;# 
   451  0109                     	;# 
   452  010C                     	;# 
   453  010C                     	;# 
   454  010D                     	;# 
   455  010E                     	;# 
   456  010F                     	;# 
   457  0185                     	;# 
   458  0187                     	;# 
   459  0188                     	;# 
   460  0189                     	;# 
   461  018C                     	;# 
   462  018D                     	;# 
   463  001A                     _RCREG	set	26
   464  000C                     _PIR1bits	set	12
   465  0019                     _TXREG	set	25
   466  0018                     _RCSTAbits	set	24
   467  0007                     _PORTCbits	set	7
   468  0008                     _PORTD	set	8
   469  0007                     _PORTC	set	7
   470  0005                     _PORTA	set	5
   471  0006                     _PORTB	set	6
   472  001F                     _ADCON0bits	set	31
   473  001E                     _ADRESH	set	30
   474  0066                     _ADIF	set	102
   475  008C                     _PIE1bits	set	140
   476  009F                     _ADCON1bits	set	159
   477  0098                     _TXSTAbits	set	152
   478  0099                     _SPBRG	set	153
   479  0087                     _TRISCbits	set	135
   480  0086                     _TRISB	set	134
   481  0087                     _TRISC	set	135
   482  0088                     _TRISD	set	136
   483  0085                     _TRISA	set	133
   484  0188                     _ANSELbits	set	392
   485  0189                     _ANSELH	set	393
   486  0188                     _ANSEL	set	392
   487                           
   488                           	psect	strings
   489  0003                     __pstrings:
   490  0003                     stringtab:
   491  0003                     __stringtab:
   492                           
   493                           ;	String table - string pointers are 1 byte each
   494  0003  1BFF               	btfsc	btemp+1,7
   495  0004  280D               	ljmp	stringcode
   496  0005  1383               	bcf	3,7
   497  0006  187F               	btfsc	btemp+1,0
   498  0007  1783               	bsf	3,7
   499  0008  0800               	movf	0,w
   500  0009  0A84               	incf	4,f
   501  000A  1903               	skipnz
   502  000B  0AFF               	incf	btemp+1,f
   503  000C  0008               	return
   504  000D                     stringcode:
   505  000D                     stringdir:
   506  000D  3000               	movlw	high stringdir
   507  000E  008A               	movwf	10
   508  000F  0804               	movf	4,w
   509  0010  0A84               	incf	4,f
   510  0011  0782               	addwf	2,f
   511  0012                     __stringbase:
   512  0012  3400               	retlw	0
   513  0013                     __end_of__stringtab:
   514  0013                     STR_1:
   515  0013  3453               	retlw	83	;'S'
   516  0014  3431               	retlw	49	;'1'
   517  0015  3400               	retlw	0
   518  0016                     STR_2:
   519  0016  3453               	retlw	83	;'S'
   520  0017  3432               	retlw	50	;'2'
   521  0018  3400               	retlw	0
   522  0019                     STR_3:
   523  0019  3453               	retlw	83	;'S'
   524  001A  3433               	retlw	51	;'3'
   525  001B  3400               	retlw	0
   526                           
   527                           	psect	cinit
   528  07F2                     start_initialization:	
   529                           ; #config settings
   530                           
   531  07F2                     __initialization:
   532                           
   533                           ; Clear objects allocated to BANK0
   534  07F2  1283               	bcf	3,5	;RP0=0, select bank0
   535  07F3  1303               	bcf	3,6	;RP1=0, select bank0
   536  07F4  01CC               	clrf	__pbssBANK0& (0+127)
   537  07F5  01CD               	clrf	(__pbssBANK0+1)& (0+127)
   538  07F6  01CE               	clrf	(__pbssBANK0+2)& (0+127)
   539  07F7  01CF               	clrf	(__pbssBANK0+3)& (0+127)
   540  07F8  01D0               	clrf	(__pbssBANK0+4)& (0+127)
   541  07F9  01D1               	clrf	(__pbssBANK0+5)& (0+127)
   542  07FA  01D2               	clrf	(__pbssBANK0+6)& (0+127)
   543  07FB  01D3               	clrf	(__pbssBANK0+7)& (0+127)
   544  07FC                     end_of_initialization:	
   545                           ;End of C runtime variable initialization code
   546                           
   547  07FC                     __end_of__initialization:
   548  07FC  0183               	clrf	3
   549  07FD  120A  158A  2ED4   	ljmp	_main	;jump to C main() function
   550                           
   551                           	psect	bssBANK0
   552  004C                     __pbssBANK0:
   553  004C                     _UARTstring:
   554  004C                     	ds	1
   555  004D                     _varUART:
   556  004D                     	ds	1
   557  004E                     _lectura:
   558  004E                     	ds	1
   559  004F                     _convertir2:
   560  004F                     	ds	1
   561  0050                     _convertir:
   562  0050                     	ds	1
   563  0051                     _bandera:
   564  0051                     	ds	1
   565  0052                     _varADC2:
   566  0052                     	ds	1
   567  0053                     _varADC1:
   568  0053                     	ds	1
   569                           
   570                           	psect	cstackCOMMON
   571  0070                     __pcstackCOMMON:
   572  0070                     ?_Setup:
   573  0070                     ??_Setup:	
   574                           ; 1 bytes @ 0x0
   575                           
   576  0070                     ?_Lcd_Init:	
   577                           ; 1 bytes @ 0x0
   578                           
   579  0070                     ?_Lcd_Clear:	
   580                           ; 1 bytes @ 0x0
   581                           
   582  0070                     ?_configADC:	
   583                           ; 1 bytes @ 0x0
   584                           
   585  0070                     ??_configADC:	
   586                           ; 1 bytes @ 0x0
   587                           
   588  0070                     ?_canalADC:	
   589                           ; 1 bytes @ 0x0
   590                           
   591  0070                     ??_canalADC:	
   592                           ; 1 bytes @ 0x0
   593                           
   594  0070                     ?_decimalASCII:	
   595                           ; 1 bytes @ 0x0
   596                           
   597  0070                     ?_UARTDataReady:	
   598                           ; 1 bytes @ 0x0
   599                           
   600  0070                     ??_UARTDataReady:	
   601                           ; 1 bytes @ 0x0
   602                           
   603  0070                     ?_UARTReadChar:	
   604                           ; 1 bytes @ 0x0
   605                           
   606  0070                     ?_intToString:	
   607                           ; 1 bytes @ 0x0
   608                           
   609  0070                     ?_main:	
   610                           ; 1 bytes @ 0x0
   611                           
   612  0070                     ?_Lcd_Port:	
   613                           ; 1 bytes @ 0x0
   614                           
   615  0070                     ??_Lcd_Port:	
   616                           ; 1 bytes @ 0x0
   617                           
   618  0070                     ?_Lcd_Cmd:	
   619                           ; 1 bytes @ 0x0
   620                           
   621  0070                     ?_Lcd_Write_Char:	
   622                           ; 1 bytes @ 0x0
   623                           
   624  0070                     ?___bmul:	
   625                           ; 1 bytes @ 0x0
   626                           
   627  0070                     ?__Umul8_16:	
   628                           ; 1 bytes @ 0x0
   629                           
   630  0070                     ?___awdiv:	
   631                           ; 2 bytes @ 0x0
   632                           
   633  0070                     ?___awmod:	
   634                           ; 2 bytes @ 0x0
   635                           
   636  0070                     ?___lldiv:	
   637                           ; 2 bytes @ 0x0
   638                           
   639  0070                     ?___fltol:	
   640                           ; 4 bytes @ 0x0
   641                           
   642  0070                     ?___fladd:	
   643                           ; 4 bytes @ 0x0
   644                           
   645  0070                     ?___xxtofl:	
   646                           ; 4 bytes @ 0x0
   647                           
   648  0070                     Lcd_Port@a:	
   649                           ; 4 bytes @ 0x0
   650                           
   651  0070                     canalADC@canal:	
   652                           ; 1 bytes @ 0x0
   653                           
   654  0070                     ___bmul@multiplicand:	
   655                           ; 1 bytes @ 0x0
   656                           
   657  0070                     __Umul8_16@multiplicand:	
   658                           ; 1 bytes @ 0x0
   659                           
   660  0070                     ___awdiv@divisor:	
   661                           ; 1 bytes @ 0x0
   662                           
   663  0070                     ___awmod@divisor:	
   664                           ; 2 bytes @ 0x0
   665                           
   666  0070                     ___lldiv@divisor:	
   667                           ; 2 bytes @ 0x0
   668                           
   669  0070                     ___fltol@f1:	
   670                           ; 4 bytes @ 0x0
   671                           
   672  0070                     ___fladd@b:	
   673                           ; 4 bytes @ 0x0
   674                           
   675  0070                     ___xxtofl@val:	
   676                           ; 4 bytes @ 0x0
   677                           
   678                           
   679                           ; 4 bytes @ 0x0
   680  0070                     	ds	1
   681  0071                     ??_UARTReadChar:
   682  0071                     ??_Lcd_Cmd:	
   683                           ; 1 bytes @ 0x1
   684                           
   685  0071                     ??_Lcd_Write_Char:	
   686                           ; 1 bytes @ 0x1
   687                           
   688  0071                     ??___bmul:	
   689                           ; 1 bytes @ 0x1
   690                           
   691                           
   692                           ; 1 bytes @ 0x1
   693  0071                     	ds	1
   694  0072                     ??__Umul8_16:
   695  0072                     Lcd_Cmd@a:	
   696                           ; 1 bytes @ 0x2
   697                           
   698  0072                     Lcd_Write_Char@a:	
   699                           ; 1 bytes @ 0x2
   700                           
   701  0072                     ___bmul@product:	
   702                           ; 1 bytes @ 0x2
   703                           
   704  0072                     ___awdiv@dividend:	
   705                           ; 1 bytes @ 0x2
   706                           
   707  0072                     ___awmod@dividend:	
   708                           ; 2 bytes @ 0x2
   709                           
   710                           
   711                           ; 2 bytes @ 0x2
   712  0072                     	ds	1
   713  0073                     ??_Lcd_Init:
   714  0073                     ??_Lcd_Clear:	
   715                           ; 1 bytes @ 0x3
   716                           
   717  0073                     ?_Lcd_Set_Cursor:	
   718                           ; 1 bytes @ 0x3
   719                           
   720  0073                     ?_Lcd_Write_String:	
   721                           ; 1 bytes @ 0x3
   722                           
   723  0073                     Lcd_Set_Cursor@b:	
   724                           ; 1 bytes @ 0x3
   725                           
   726  0073                     ___bmul@multiplier:	
   727                           ; 1 bytes @ 0x3
   728                           
   729  0073                     Lcd_Write_String@a:	
   730                           ; 1 bytes @ 0x3
   731                           
   732                           
   733                           ; 2 bytes @ 0x3
   734  0073                     	ds	1
   735  0074                     ??_Lcd_Set_Cursor:
   736  0074                     ??___awdiv:	
   737                           ; 1 bytes @ 0x4
   738                           
   739  0074                     ??___awmod:	
   740                           ; 1 bytes @ 0x4
   741                           
   742  0074                     ??___fltol:	
   743                           ; 1 bytes @ 0x4
   744                           
   745  0074                     ??___xxtofl:	
   746                           ; 1 bytes @ 0x4
   747                           
   748  0074                     __Umul8_16@product:	
   749                           ; 1 bytes @ 0x4
   750                           
   751  0074                     ___lldiv@dividend:	
   752                           ; 2 bytes @ 0x4
   753                           
   754  0074                     ___fladd@a:	
   755                           ; 4 bytes @ 0x4
   756                           
   757                           
   758                           ; 4 bytes @ 0x4
   759  0074                     	ds	1
   760  0075                     ??_Lcd_Write_String:
   761  0075                     Lcd_Set_Cursor@a:	
   762                           ; 1 bytes @ 0x5
   763                           
   764  0075                     ___awdiv@counter:	
   765                           ; 1 bytes @ 0x5
   766                           
   767  0075                     ___awmod@counter:	
   768                           ; 1 bytes @ 0x5
   769                           
   770  0075                     Lcd_Write_String@i:	
   771                           ; 1 bytes @ 0x5
   772                           
   773                           
   774                           ; 2 bytes @ 0x5
   775  0075                     	ds	1
   776  0076                     Lcd_Set_Cursor@temp:
   777  0076                     ___awdiv@sign:	
   778                           ; 1 bytes @ 0x6
   779                           
   780  0076                     ___awmod@sign:	
   781                           ; 1 bytes @ 0x6
   782                           
   783  0076                     __Umul8_16@word_mpld:	
   784                           ; 1 bytes @ 0x6
   785                           
   786                           
   787                           ; 2 bytes @ 0x6
   788  0076                     	ds	1
   789  0077                     ___awdiv@quotient:
   790                           
   791                           ; 2 bytes @ 0x7
   792  0077                     	ds	1
   793  0078                     ??___lldiv:
   794  0078                     ___fladd@signs:	
   795                           ; 1 bytes @ 0x8
   796                           
   797  0078                     __Umul8_16@multiplier:	
   798                           ; 1 bytes @ 0x8
   799                           
   800  0078                     ___xxtofl@sign:	
   801                           ; 1 bytes @ 0x8
   802                           
   803                           
   804                           ; 1 bytes @ 0x8
   805  0078                     	ds	1
   806  0079                     ??_intToString:
   807  0079                     ??___flmul:	
   808                           ; 1 bytes @ 0x9
   809                           
   810  0079                     ___fltol@sign1:	
   811                           ; 1 bytes @ 0x9
   812                           
   813  0079                     ___fladd@aexp:	
   814                           ; 1 bytes @ 0x9
   815                           
   816  0079                     ___xxtofl@exp:	
   817                           ; 1 bytes @ 0x9
   818                           
   819  0079                     ___lldiv@quotient:	
   820                           ; 1 bytes @ 0x9
   821                           
   822                           
   823                           ; 4 bytes @ 0x9
   824  0079                     	ds	1
   825  007A                     ___fltol@exp1:
   826  007A                     ___fladd@bexp:	
   827                           ; 1 bytes @ 0xA
   828                           
   829  007A                     ___xxtofl@arg:	
   830                           ; 1 bytes @ 0xA
   831                           
   832                           
   833                           ; 4 bytes @ 0xA
   834  007A                     	ds	1
   835  007B                     ___fladd@grs:
   836                           
   837                           ; 1 bytes @ 0xB
   838  007B                     	ds	2
   839  007D                     ___lldiv@counter:
   840                           
   841                           ; 1 bytes @ 0xD
   842  007D                     	ds	1
   843  007E                     ??___flsub:
   844                           
   845                           	psect	cstackBANK0
   846  0020                     __pcstackBANK0:	
   847                           ; 1 bytes @ 0xE
   848                           
   849  0020                     ?_UARTInit:
   850  0020                     ??___fladd:	
   851                           ; 1 bytes @ 0x0
   852                           
   853  0020                     ?___fldiv:	
   854                           ; 1 bytes @ 0x0
   855                           
   856  0020                     ?___flmul:	
   857                           ; 4 bytes @ 0x0
   858                           
   859  0020                     intToString@valor:	
   860                           ; 4 bytes @ 0x0
   861                           
   862  0020                     UARTInit@baud_rate:	
   863                           ; 4 bytes @ 0x0
   864                           
   865  0020                     ___fldiv@a:	
   866                           ; 4 bytes @ 0x0
   867                           
   868  0020                     ___flmul@b:	
   869                           ; 4 bytes @ 0x0
   870                           
   871                           
   872                           ; 4 bytes @ 0x0
   873  0020                     	ds	4
   874  0024                     intToString@entero:
   875  0024                     UARTInit@BRGH:	
   876                           ; 1 bytes @ 0x4
   877                           
   878  0024                     ___fldiv@b:	
   879                           ; 1 bytes @ 0x4
   880                           
   881  0024                     ___flmul@a:	
   882                           ; 4 bytes @ 0x4
   883                           
   884                           
   885                           ; 4 bytes @ 0x4
   886  0024                     	ds	1
   887  0025                     ??_UARTInit:
   888  0025                     intToString@value:	
   889                           ; 1 bytes @ 0x5
   890                           
   891                           
   892                           ; 1 bytes @ 0x5
   893  0025                     	ds	3
   894  0028                     ??___fldiv:
   895  0028                     ?___flsub:	
   896                           ; 1 bytes @ 0x8
   897                           
   898  0028                     ___flmul@sign:	
   899                           ; 4 bytes @ 0x8
   900                           
   901  0028                     ___flsub@a:	
   902                           ; 1 bytes @ 0x8
   903                           
   904                           
   905                           ; 4 bytes @ 0x8
   906  0028                     	ds	1
   907  0029                     ___flmul@grs:
   908                           
   909                           ; 4 bytes @ 0x9
   910  0029                     	ds	3
   911  002C                     ___flsub@b:
   912                           
   913                           ; 4 bytes @ 0xC
   914  002C                     	ds	1
   915  002D                     ___flmul@aexp:
   916  002D                     ___fldiv@rem:	
   917                           ; 1 bytes @ 0xD
   918                           
   919                           
   920                           ; 4 bytes @ 0xD
   921  002D                     	ds	1
   922  002E                     ___flmul@bexp:
   923                           
   924                           ; 1 bytes @ 0xE
   925  002E                     	ds	1
   926  002F                     ___flmul@prod:
   927                           
   928                           ; 4 bytes @ 0xF
   929  002F                     	ds	2
   930  0031                     ___fldiv@sign:
   931                           
   932                           ; 1 bytes @ 0x11
   933  0031                     	ds	1
   934  0032                     ___fldiv@new_exp:
   935                           
   936                           ; 2 bytes @ 0x12
   937  0032                     	ds	1
   938  0033                     ___flmul@temp:
   939                           
   940                           ; 2 bytes @ 0x13
   941  0033                     	ds	1
   942  0034                     ___fldiv@grs:
   943                           
   944                           ; 4 bytes @ 0x14
   945  0034                     	ds	4
   946  0038                     ___fldiv@bexp:
   947                           
   948                           ; 1 bytes @ 0x18
   949  0038                     	ds	1
   950  0039                     ___fldiv@aexp:
   951                           
   952                           ; 1 bytes @ 0x19
   953  0039                     	ds	1
   954  003A                     ??_decimalASCII:
   955                           
   956                           ; 1 bytes @ 0x1A
   957  003A                     	ds	4
   958  003E                     decimalASCII@lectura:
   959                           
   960                           ; 1 bytes @ 0x1E
   961  003E                     	ds	1
   962  003F                     decimalASCII@cadena:
   963                           
   964                           ; 5 bytes @ 0x1F
   965  003F                     	ds	5
   966  0044                     decimalASCII@entero:
   967                           
   968                           ; 1 bytes @ 0x24
   969  0044                     	ds	1
   970  0045                     decimalASCII@convertir3:
   971                           
   972                           ; 4 bytes @ 0x25
   973  0045                     	ds	4
   974  0049                     ??_main:
   975                           
   976                           ; 1 bytes @ 0x29
   977  0049                     	ds	2
   978  004B                     main@entrada:
   979                           
   980                           ; 1 bytes @ 0x2B
   981  004B                     	ds	1
   982                           
   983                           	psect	maintext
   984  0ED4                     __pmaintext:	
   985 ;;
   986 ;;Main: autosize = 0, tempsize = 2, incstack = 0, save=0
   987 ;;
   988 ;; *************** function _main *****************
   989 ;; Defined at:
   990 ;;		line 59 in file "main.c"
   991 ;; Parameters:    Size  Location     Type
   992 ;;		None
   993 ;; Auto vars:     Size  Location     Type
   994 ;;  entrada         1   43[BANK0 ] unsigned char 
   995 ;; Return value:  Size  Location     Type
   996 ;;                  1    wreg      void 
   997 ;; Registers used:
   998 ;;		wreg, fsr0l, fsr0h, status,2, status,0, btemp+1, pclath, cstack
   999 ;; Tracked objects:
  1000 ;;		On entry : B00/0
  1001 ;;		On exit  : 0/0
  1002 ;;		Unchanged: 0/0
  1003 ;; Data sizes:     COMMON   BANK0   BANK1   BANK3   BANK2
  1004 ;;      Params:         0       0       0       0       0
  1005 ;;      Locals:         0       1       0       0       0
  1006 ;;      Temps:          0       2       0       0       0
  1007 ;;      Totals:         0       3       0       0       0
  1008 ;;Total ram usage:        3 bytes
  1009 ;; Hardware stack levels required when called:    3
  1010 ;; This function calls:
  1011 ;;		_Lcd_Clear
  1012 ;;		_Lcd_Init
  1013 ;;		_Lcd_Set_Cursor
  1014 ;;		_Lcd_Write_String
  1015 ;;		_Setup
  1016 ;;		_UARTDataReady
  1017 ;;		_UARTInit
  1018 ;;		_UARTReadChar
  1019 ;;		_canalADC
  1020 ;;		_configADC
  1021 ;;		_decimalASCII
  1022 ;;		_intToString
  1023 ;; This function is called by:
  1024 ;;		Startup code after reset
  1025 ;; This function uses a non-reentrant model
  1026 ;;
  1027                           
  1028                           
  1029                           ;psect for function _main
  1030  0ED4                     _main:
  1031  0ED4                     l2756:	
  1032                           ;incstack = 0
  1033                           ; Regs used in _main: [wreg-fsr0h+status,2+status,0+btemp+1+pclath+cstack]
  1034                           
  1035                           
  1036                           ;main.c: 60:             ADIF = 0;
  1037  0ED4  120A  158A  20AF  120A  158A  	fcall	_Setup
  1038                           
  1039                           ;main.c: 61:             ADCON0bits.GO = 1;
  1040  0ED9  3000               	movlw	0
  1041  0EDA  1283               	bcf	3,5	;RP0=0, select bank0
  1042  0EDB  1303               	bcf	3,6	;RP1=0, select bank0
  1043  0EDC  00A3               	movwf	UARTInit@baud_rate+3
  1044  0EDD  3000               	movlw	0
  1045  0EDE  00A2               	movwf	UARTInit@baud_rate+2
  1046  0EDF  3025               	movlw	37
  1047  0EE0  00A1               	movwf	UARTInit@baud_rate+1
  1048  0EE1  3080               	movlw	128
  1049  0EE2  00A0               	movwf	UARTInit@baud_rate
  1050  0EE3  01A4               	clrf	UARTInit@BRGH
  1051  0EE4  0AA4               	incf	UARTInit@BRGH,f
  1052  0EE5  120A  158A  235A  120A  158A  	fcall	_UARTInit
  1053                           
  1054                           ;main.c: 62: 
  1055  0EEA  120A  158A  2190  120A  158A  	fcall	_Lcd_Init
  1056                           
  1057                           ;main.c: 63:         }
  1058  0EEF  120A  158A  206C  120A  158A  	fcall	_Lcd_Clear
  1059                           
  1060                           ;main.c: 65:         convertir = decimalASCII(varADC1);
  1061  0EF4  01F3               	clrf	Lcd_Set_Cursor@b
  1062  0EF5  0AF3               	incf	Lcd_Set_Cursor@b,f
  1063  0EF6  3001               	movlw	1
  1064  0EF7  120A  158A  20F1  120A  158A  	fcall	_Lcd_Set_Cursor
  1065  0EFC                     l2758:
  1066                           
  1067                           ;main.c: 66: 
  1068  0EFC  3001               	movlw	(low ((STR_1-__stringbase)| (0+32768)))& (0+255)
  1069  0EFD  00F3               	movwf	Lcd_Write_String@a
  1070  0EFE  3080               	movlw	128
  1071  0EFF  00F4               	movwf	Lcd_Write_String@a+1
  1072  0F00  120A  158A  2160  120A  158A  	fcall	_Lcd_Write_String
  1073  0F05                     l2760:
  1074                           
  1075                           ;main.c: 67:         Lcd_Set_Cursor(2, 1);
  1076  0F05  3008               	movlw	8
  1077  0F06  1283               	bcf	3,5	;RP0=0, select bank0
  1078  0F07  1303               	bcf	3,6	;RP1=0, select bank0
  1079  0F08  00C9               	movwf	??_main
  1080  0F09  0849               	movf	??_main,w
  1081  0F0A  00F3               	movwf	Lcd_Set_Cursor@b
  1082  0F0B  3001               	movlw	1
  1083  0F0C  120A  158A  20F1  120A  158A  	fcall	_Lcd_Set_Cursor
  1084                           
  1085                           ;main.c: 68:         Lcd_Write_String(convertir);
  1086  0F11  3004               	movlw	(low ((STR_2-__stringbase)| (0+32768)))& (0+255)
  1087  0F12  00F3               	movwf	Lcd_Write_String@a
  1088  0F13  3080               	movlw	128
  1089  0F14  00F4               	movwf	Lcd_Write_String@a+1
  1090  0F15  120A  158A  2160  120A  158A  	fcall	_Lcd_Write_String
  1091  0F1A                     l2762:
  1092                           
  1093                           ;main.c: 69: 
  1094  0F1A  300F               	movlw	15
  1095  0F1B  1283               	bcf	3,5	;RP0=0, select bank0
  1096  0F1C  1303               	bcf	3,6	;RP1=0, select bank0
  1097  0F1D  00C9               	movwf	??_main
  1098  0F1E  0849               	movf	??_main,w
  1099  0F1F  00F3               	movwf	Lcd_Set_Cursor@b
  1100  0F20  3001               	movlw	1
  1101  0F21  120A  158A  20F1  120A  158A  	fcall	_Lcd_Set_Cursor
  1102  0F26                     l2764:
  1103                           
  1104                           ;main.c: 70: 
  1105  0F26  3007               	movlw	(low ((STR_3-__stringbase)| (0+32768)))& (0+255)
  1106  0F27  00F3               	movwf	Lcd_Write_String@a
  1107  0F28  3080               	movlw	128
  1108  0F29  00F4               	movwf	Lcd_Write_String@a+1
  1109  0F2A  120A  158A  2160  120A  158A  	fcall	_Lcd_Write_String
  1110  0F2F                     l2766:
  1111                           
  1112                           ;main.c: 72:         convertir2 = decimalASCII(varADC2);
  1113  0F2F  120A  158A  2087  120A  158A  	fcall	_configADC
  1114  0F34                     l2768:
  1115                           
  1116                           ;main.c: 73:         Lcd_Set_Cursor(2, 8);
  1117  0F34  3000               	movlw	0
  1118  0F35  120A  158A  2443  120A  158A  	fcall	_canalADC
  1119  0F3A                     l2770:
  1120                           
  1121                           ;main.c: 78:         if (UARTDataReady()) {
  1122  0F3A  1283               	bcf	3,5	;RP0=0, select bank0
  1123  0F3B  1303               	bcf	3,6	;RP1=0, select bank0
  1124  0F3C  1F0C               	btfss	12,6	;volatile
  1125  0F3D  2F3F               	goto	u3901
  1126  0F3E  2F40               	goto	u3900
  1127  0F3F                     u3901:
  1128  0F3F  2F65               	goto	l2790
  1129  0F40                     u3900:
  1130  0F40                     l2772:
  1131                           
  1132                           ;main.c: 81:             if (entrada == '+') {
  1133  0F40  0851               	movf	_bandera,w
  1134  0F41  1D03               	btfss	3,2
  1135  0F42  2F44               	goto	u3911
  1136  0F43  2F45               	goto	u3910
  1137  0F44                     u3911:
  1138  0F44  2F56               	goto	l2780
  1139  0F45                     u3910:
  1140  0F45                     l2774:
  1141                           
  1142                           ;main.c: 82:                 varUART++;
  1143  0F45  081E               	movf	30,w	;volatile
  1144  0F46  00C9               	movwf	??_main
  1145  0F47  0849               	movf	??_main,w
  1146  0F48  00D3               	movwf	_varADC1
  1147  0F49                     l2776:
  1148                           
  1149                           ;main.c: 83:             } else if (entrada == '-') {
  1150  0F49  3001               	movlw	1
  1151  0F4A  120A  158A  2443  120A  158A  	fcall	_canalADC
  1152  0F4F                     l2778:
  1153                           
  1154                           ;main.c: 84:                 if (varUART == 0) {
  1155  0F4F  3001               	movlw	1
  1156  0F50  1283               	bcf	3,5	;RP0=0, select bank0
  1157  0F51  1303               	bcf	3,6	;RP1=0, select bank0
  1158  0F52  00C9               	movwf	??_main
  1159  0F53  0849               	movf	??_main,w
  1160  0F54  07D1               	addwf	_bandera,f
  1161                           
  1162                           ;main.c: 85:                     varUART = 0;
  1163  0F55  2F63               	goto	l2786
  1164  0F56                     l2780:
  1165                           
  1166                           ;main.c: 86:                 } else {
  1167  0F56  081E               	movf	30,w	;volatile
  1168  0F57  00C9               	movwf	??_main
  1169  0F58  0849               	movf	??_main,w
  1170  0F59  00D2               	movwf	_varADC2
  1171  0F5A                     l2782:
  1172                           
  1173                           ;main.c: 87:                     varUART--;
  1174  0F5A  3000               	movlw	0
  1175  0F5B  120A  158A  2443  120A  158A  	fcall	_canalADC
  1176  0F60                     l2784:
  1177                           
  1178                           ;main.c: 88:                 }
  1179  0F60  1283               	bcf	3,5	;RP0=0, select bank0
  1180  0F61  1303               	bcf	3,6	;RP1=0, select bank0
  1181  0F62  01D1               	clrf	_bandera
  1182  0F63                     l2786:
  1183                           
  1184                           ;main.c: 92:         PORTB = varUART;
  1185  0F63  130C               	bcf	12,6	;volatile
  1186  0F64                     l2788:
  1187                           
  1188                           ;main.c: 93: 
  1189  0F64  149F               	bsf	31,1	;volatile
  1190  0F65                     l2790:
  1191                           
  1192                           ;main.c: 97: 
  1193  0F65  0853               	movf	_varADC1,w
  1194  0F66  120A  158A  25A8  120A  158A  	fcall	_decimalASCII
  1195  0F6B  1283               	bcf	3,5	;RP0=0, select bank0
  1196  0F6C  1303               	bcf	3,6	;RP1=0, select bank0
  1197  0F6D  00C9               	movwf	??_main
  1198  0F6E  0849               	movf	??_main,w
  1199  0F6F  00D0               	movwf	_convertir
  1200  0F70                     l2792:
  1201                           
  1202                           ;main.c: 99: 
  1203  0F70  01F3               	clrf	Lcd_Set_Cursor@b
  1204  0F71  0AF3               	incf	Lcd_Set_Cursor@b,f
  1205  0F72  3002               	movlw	2
  1206  0F73  120A  158A  20F1  120A  158A  	fcall	_Lcd_Set_Cursor
  1207  0F78                     l2794:
  1208                           
  1209                           ;main.c: 100: 
  1210  0F78  1283               	bcf	3,5	;RP0=0, select bank0
  1211  0F79  1303               	bcf	3,6	;RP1=0, select bank0
  1212  0F7A  0850               	movf	_convertir,w
  1213  0F7B  00F3               	movwf	Lcd_Write_String@a
  1214  0F7C  3000               	movlw	0
  1215  0F7D  00F4               	movwf	Lcd_Write_String@a+1
  1216  0F7E  120A  158A  2160  120A  158A  	fcall	_Lcd_Write_String
  1217  0F83                     l2796:
  1218                           
  1219                           ;main.c: 104:     return;
  1220  0F83  1283               	bcf	3,5	;RP0=0, select bank0
  1221  0F84  1303               	bcf	3,6	;RP1=0, select bank0
  1222  0F85  0852               	movf	_varADC2,w
  1223  0F86  120A  158A  25A8  120A  158A  	fcall	_decimalASCII
  1224  0F8B  1283               	bcf	3,5	;RP0=0, select bank0
  1225  0F8C  1303               	bcf	3,6	;RP1=0, select bank0
  1226  0F8D  00C9               	movwf	??_main
  1227  0F8E  0849               	movf	??_main,w
  1228  0F8F  00CF               	movwf	_convertir2
  1229  0F90                     l2798:
  1230                           
  1231                           ;main.c: 105: }
  1232  0F90  3008               	movlw	8
  1233  0F91  00C9               	movwf	??_main
  1234  0F92  0849               	movf	??_main,w
  1235  0F93  00F3               	movwf	Lcd_Set_Cursor@b
  1236  0F94  3002               	movlw	2
  1237  0F95  120A  158A  20F1  120A  158A  	fcall	_Lcd_Set_Cursor
  1238  0F9A                     l2800:
  1239                           
  1240                           ;main.c: 106: 
  1241  0F9A  1283               	bcf	3,5	;RP0=0, select bank0
  1242  0F9B  1303               	bcf	3,6	;RP1=0, select bank0
  1243  0F9C  084F               	movf	_convertir2,w
  1244  0F9D  00F3               	movwf	Lcd_Write_String@a
  1245  0F9E  3000               	movlw	0
  1246  0F9F  00F4               	movwf	Lcd_Write_String@a+1
  1247  0FA0  120A  158A  2160  120A  158A  	fcall	_Lcd_Write_String
  1248  0FA5                     l2802:
  1249                           
  1250                           ;main.c: 110:     TRISD = 0;
  1251  0FA5  120A  158A  2065  120A  158A  	fcall	_UARTDataReady
  1252  0FAA  3A00               	xorlw	0
  1253  0FAB  1903               	skipnz
  1254  0FAC  2FAE               	goto	u3921
  1255  0FAD  2FAF               	goto	u3920
  1256  0FAE                     u3921:
  1257  0FAE  2FD5               	goto	l2820
  1258  0FAF                     u3920:
  1259  0FAF                     l2804:
  1260                           
  1261                           ;main.c: 111:     TRISC = 0;
  1262  0FAF  120A  158A  2079  120A  158A  	fcall	_UARTReadChar
  1263  0FB4  1283               	bcf	3,5	;RP0=0, select bank0
  1264  0FB5  1303               	bcf	3,6	;RP1=0, select bank0
  1265  0FB6  00C9               	movwf	??_main
  1266  0FB7  0849               	movf	??_main,w
  1267  0FB8  00CB               	movwf	main@entrada
  1268  0FB9                     l2806:
  1269                           
  1270                           ;main.c: 112:     TRISB = 0;
  1271  0FB9  30FF               	movlw	255
  1272  0FBA  0086               	movwf	6	;volatile
  1273  0FBB                     l2808:
  1274                           
  1275                           ;main.c: 113:     TRISCbits.TRISC7 = 1;
  1276  0FBB  302B               	movlw	43
  1277  0FBC  064B               	xorwf	main@entrada,w
  1278  0FBD  1D03               	btfss	3,2
  1279  0FBE  2FC0               	goto	u3931
  1280  0FBF  2FC1               	goto	u3930
  1281  0FC0                     u3931:
  1282  0FC0  2FC6               	goto	l2812
  1283  0FC1                     u3930:
  1284  0FC1                     l2810:
  1285                           
  1286                           ;main.c: 114: 
  1287  0FC1  3001               	movlw	1
  1288  0FC2  00C9               	movwf	??_main
  1289  0FC3  0849               	movf	??_main,w
  1290  0FC4  07CD               	addwf	_varUART,f
  1291                           
  1292                           ;main.c: 115:     PORTA = 0;
  1293  0FC5  2FD5               	goto	l2820
  1294  0FC6                     l2812:
  1295  0FC6  302D               	movlw	45
  1296  0FC7  064B               	xorwf	main@entrada,w
  1297  0FC8  1D03               	btfss	3,2
  1298  0FC9  2FCB               	goto	u3941
  1299  0FCA  2FCC               	goto	u3940
  1300  0FCB                     u3941:
  1301  0FCB  2FD5               	goto	l2820
  1302  0FCC                     u3940:
  1303  0FCC                     l2814:
  1304                           
  1305                           ;main.c: 116:     PORTC = 0;
  1306  0FCC  084D               	movf	_varUART,w
  1307  0FCD  1D03               	btfss	3,2
  1308  0FCE  2FD0               	goto	u3951
  1309  0FCF  2FD1               	goto	u3950
  1310  0FD0                     u3951:
  1311  0FD0  2FD3               	goto	l2818
  1312  0FD1                     u3950:
  1313  0FD1                     l2816:
  1314                           
  1315                           ;main.c: 117:     PORTD = 0;
  1316  0FD1  01CD               	clrf	_varUART
  1317                           
  1318                           ;main.c: 118:     PORTB = 0;
  1319  0FD2  2FD5               	goto	l2820
  1320  0FD3                     l2818:
  1321                           
  1322                           ;main.c: 119: 
  1323  0FD3  3001               	movlw	1
  1324  0FD4  02CD               	subwf	_varUART,f
  1325  0FD5                     l2820:
  1326                           
  1327                           ;main.c: 124: 
  1328  0FD5  1283               	bcf	3,5	;RP0=0, select bank0
  1329  0FD6  1303               	bcf	3,6	;RP1=0, select bank0
  1330  0FD7  084D               	movf	_varUART,w
  1331  0FD8  0086               	movwf	6	;volatile
  1332  0FD9                     l2822:
  1333                           
  1334                           ;main.c: 126: }
  1335  0FD9  300E               	movlw	14
  1336  0FDA  00C9               	movwf	??_main
  1337  0FDB  0849               	movf	??_main,w
  1338  0FDC  00F3               	movwf	Lcd_Set_Cursor@b
  1339  0FDD  3002               	movlw	2
  1340  0FDE  120A  158A  20F1  120A  158A  	fcall	_Lcd_Set_Cursor
  1341  0FE3                     l2824:
  1342                           
  1343                           ;main.c: 127: 
  1344  0FE3  1283               	bcf	3,5	;RP0=0, select bank0
  1345  0FE4  1303               	bcf	3,6	;RP1=0, select bank0
  1346  0FE5  084D               	movf	_varUART,w
  1347  0FE6  120A  158A  222E  120A  158A  	fcall	_intToString
  1348  0FEB  1283               	bcf	3,5	;RP0=0, select bank0
  1349  0FEC  1303               	bcf	3,6	;RP1=0, select bank0
  1350  0FED  00C9               	movwf	??_main
  1351  0FEE  0849               	movf	??_main,w
  1352  0FEF  00CC               	movwf	_UARTstring
  1353  0FF0                     l2826:
  1354                           
  1355                           ;main.c: 128: char* decimalASCII(uint8_t lectura) {
  1356  0FF0  084C               	movf	_UARTstring,w
  1357  0FF1  00C9               	movwf	??_main
  1358  0FF2  01CA               	clrf	??_main+1
  1359  0FF3  0849               	movf	??_main,w
  1360  0FF4  00F3               	movwf	Lcd_Write_String@a
  1361  0FF5  084A               	movf	??_main+1,w
  1362  0FF6  00F4               	movwf	Lcd_Write_String@a+1
  1363  0FF7  120A  158A  2160  120A  158A  	fcall	_Lcd_Write_String
  1364  0FFC  2F3A               	goto	l2770
  1365  0FFD  120A  118A  2800   	ljmp	start
  1366  1000                     __end_of_main:
  1367                           
  1368                           	psect	text1
  1369  0A2E                     __ptext1:	
  1370 ;; *************** function _intToString *****************
  1371 ;; Defined at:
  1372 ;;		line 182 in file "main.c"
  1373 ;; Parameters:    Size  Location     Type
  1374 ;;  value           1    wreg     unsigned char 
  1375 ;; Auto vars:     Size  Location     Type
  1376 ;;  value           1    5[BANK0 ] unsigned char 
  1377 ;;  valor           4    0[BANK0 ] unsigned char [4]
  1378 ;;  entero          1    4[BANK0 ] unsigned char 
  1379 ;; Return value:  Size  Location     Type
  1380 ;;                  1    wreg      PTR unsigned char 
  1381 ;; Registers used:
  1382 ;;		wreg, status,2, status,0, pclath, cstack
  1383 ;; Tracked objects:
  1384 ;;		On entry : 0/0
  1385 ;;		On exit  : 0/0
  1386 ;;		Unchanged: 0/0
  1387 ;; Data sizes:     COMMON   BANK0   BANK1   BANK3   BANK2
  1388 ;;      Params:         0       0       0       0       0
  1389 ;;      Locals:         0       6       0       0       0
  1390 ;;      Temps:          3       0       0       0       0
  1391 ;;      Totals:         3       6       0       0       0
  1392 ;;Total ram usage:        9 bytes
  1393 ;; Hardware stack levels used:    1
  1394 ;; Hardware stack levels required when called:    1
  1395 ;; This function calls:
  1396 ;;		___awdiv
  1397 ;;		___awmod
  1398 ;;		___bmul
  1399 ;; This function is called by:
  1400 ;;		_main
  1401 ;; This function uses a non-reentrant model
  1402 ;;
  1403                           
  1404                           
  1405                           ;psect for function _intToString
  1406  0A2E                     _intToString:
  1407                           
  1408                           ;incstack = 0
  1409                           ; Regs used in _intToString: [wreg+status,2+status,0+pclath+cstack]
  1410                           ;intToString@value stored from wreg
  1411  0A2E  1283               	bcf	3,5	;RP0=0, select bank0
  1412  0A2F  1303               	bcf	3,6	;RP1=0, select bank0
  1413  0A30  00A5               	movwf	intToString@value
  1414  0A31                     l2740:
  1415  0A31  3064               	movlw	100
  1416  0A32  00F0               	movwf	___awdiv@divisor
  1417  0A33  3000               	movlw	0
  1418  0A34  00F1               	movwf	___awdiv@divisor+1
  1419  0A35  0825               	movf	intToString@value,w
  1420  0A36  00F9               	movwf	??_intToString
  1421  0A37  01FA               	clrf	??_intToString+1
  1422  0A38  0879               	movf	??_intToString,w
  1423  0A39  00F2               	movwf	___awdiv@dividend
  1424  0A3A  087A               	movf	??_intToString+1,w
  1425  0A3B  00F3               	movwf	___awdiv@dividend+1
  1426  0A3C  120A  158A  22F3  120A  158A  	fcall	___awdiv
  1427  0A41  0870               	movf	?___awdiv,w
  1428  0A42  00FB               	movwf	??_intToString+2
  1429  0A43  087B               	movf	??_intToString+2,w
  1430  0A44  1283               	bcf	3,5	;RP0=0, select bank0
  1431  0A45  1303               	bcf	3,6	;RP1=0, select bank0
  1432  0A46  00A4               	movwf	intToString@entero
  1433  0A47                     l2742:
  1434  0A47  0824               	movf	intToString@entero,w
  1435  0A48  3E30               	addlw	48
  1436  0A49  00F9               	movwf	??_intToString
  1437  0A4A  0879               	movf	??_intToString,w
  1438  0A4B  00A0               	movwf	intToString@valor
  1439  0A4C                     l2744:
  1440  0A4C  309C               	movlw	156
  1441  0A4D  00F9               	movwf	??_intToString
  1442  0A4E  0879               	movf	??_intToString,w
  1443  0A4F  00F0               	movwf	___bmul@multiplicand
  1444  0A50  0824               	movf	intToString@entero,w
  1445  0A51  120A  158A  20C4  120A  158A  	fcall	___bmul
  1446  0A56  1283               	bcf	3,5	;RP0=0, select bank0
  1447  0A57  1303               	bcf	3,6	;RP1=0, select bank0
  1448  0A58  0725               	addwf	intToString@value,w
  1449  0A59  00FA               	movwf	??_intToString+1
  1450  0A5A  087A               	movf	??_intToString+1,w
  1451  0A5B  00A5               	movwf	intToString@value
  1452  0A5C                     l2746:
  1453  0A5C  300A               	movlw	10
  1454  0A5D  00F0               	movwf	___awdiv@divisor
  1455  0A5E  3000               	movlw	0
  1456  0A5F  00F1               	movwf	___awdiv@divisor+1
  1457  0A60  0825               	movf	intToString@value,w
  1458  0A61  00F9               	movwf	??_intToString
  1459  0A62  01FA               	clrf	??_intToString+1
  1460  0A63  0879               	movf	??_intToString,w
  1461  0A64  00F2               	movwf	___awdiv@dividend
  1462  0A65  087A               	movf	??_intToString+1,w
  1463  0A66  00F3               	movwf	___awdiv@dividend+1
  1464  0A67  120A  158A  22F3  120A  158A  	fcall	___awdiv
  1465  0A6C  0870               	movf	?___awdiv,w
  1466  0A6D  3E30               	addlw	48
  1467  0A6E  00FB               	movwf	??_intToString+2
  1468  0A6F  087B               	movf	??_intToString+2,w
  1469  0A70  1283               	bcf	3,5	;RP0=0, select bank0
  1470  0A71  1303               	bcf	3,6	;RP1=0, select bank0
  1471  0A72  00A1               	movwf	intToString@valor+1
  1472  0A73                     l2748:
  1473  0A73  300A               	movlw	10
  1474  0A74  00F0               	movwf	___awmod@divisor
  1475  0A75  3000               	movlw	0
  1476  0A76  00F1               	movwf	___awmod@divisor+1
  1477  0A77  0825               	movf	intToString@value,w
  1478  0A78  00F9               	movwf	??_intToString
  1479  0A79  01FA               	clrf	??_intToString+1
  1480  0A7A  0879               	movf	??_intToString,w
  1481  0A7B  00F2               	movwf	___awmod@dividend
  1482  0A7C  087A               	movf	??_intToString+1,w
  1483  0A7D  00F3               	movwf	___awmod@dividend+1
  1484  0A7E  120A  158A  21D5  120A  158A  	fcall	___awmod
  1485  0A83  0870               	movf	?___awmod,w
  1486  0A84  3E30               	addlw	48
  1487  0A85  00FB               	movwf	??_intToString+2
  1488  0A86  087B               	movf	??_intToString+2,w
  1489  0A87  1283               	bcf	3,5	;RP0=0, select bank0
  1490  0A88  1303               	bcf	3,6	;RP1=0, select bank0
  1491  0A89  00A2               	movwf	intToString@valor+2
  1492  0A8A                     l2750:
  1493  0A8A  01A3               	clrf	intToString@valor+3
  1494  0A8B                     l2752:
  1495  0A8B  3020               	movlw	(low (intToString@valor| 0))& (0+255)
  1496  0A8C                     l96:
  1497  0A8C  0008               	return
  1498  0A8D                     __end_of_intToString:
  1499                           
  1500                           	psect	text2
  1501  08C4                     __ptext2:	
  1502 ;; *************** function ___bmul *****************
  1503 ;; Defined at:
  1504 ;;		line 4 in file "C:\Program Files\Microchip\xc8\v2.31\pic\sources\c90\common\Umul8.c"
  1505 ;; Parameters:    Size  Location     Type
  1506 ;;  multiplier      1    wreg     unsigned char 
  1507 ;;  multiplicand    1    0[COMMON] unsigned char 
  1508 ;; Auto vars:     Size  Location     Type
  1509 ;;  multiplier      1    3[COMMON] unsigned char 
  1510 ;;  product         1    2[COMMON] unsigned char 
  1511 ;; Return value:  Size  Location     Type
  1512 ;;                  1    wreg      unsigned char 
  1513 ;; Registers used:
  1514 ;;		wreg, status,2, status,0
  1515 ;; Tracked objects:
  1516 ;;		On entry : 0/0
  1517 ;;		On exit  : 0/0
  1518 ;;		Unchanged: 0/0
  1519 ;; Data sizes:     COMMON   BANK0   BANK1   BANK3   BANK2
  1520 ;;      Params:         1       0       0       0       0
  1521 ;;      Locals:         2       0       0       0       0
  1522 ;;      Temps:          1       0       0       0       0
  1523 ;;      Totals:         4       0       0       0       0
  1524 ;;Total ram usage:        4 bytes
  1525 ;; Hardware stack levels used:    1
  1526 ;; This function calls:
  1527 ;;		Nothing
  1528 ;; This function is called by:
  1529 ;;		_intToString
  1530 ;; This function uses a non-reentrant model
  1531 ;;
  1532                           
  1533                           
  1534                           ;psect for function ___bmul
  1535  08C4                     ___bmul:
  1536                           
  1537                           ;incstack = 0
  1538                           ; Regs used in ___bmul: [wreg+status,2+status,0]
  1539                           ;___bmul@multiplier stored from wreg
  1540  08C4  00F3               	movwf	___bmul@multiplier
  1541  08C5                     l2068:
  1542  08C5  01F2               	clrf	___bmul@product
  1543  08C6                     l2070:
  1544  08C6  1C73               	btfss	___bmul@multiplier,0
  1545  08C7  28C9               	goto	u2511
  1546  08C8  28CA               	goto	u2510
  1547  08C9                     u2511:
  1548  08C9  28CE               	goto	l2074
  1549  08CA                     u2510:
  1550  08CA                     l2072:
  1551  08CA  0870               	movf	___bmul@multiplicand,w
  1552  08CB  00F1               	movwf	??___bmul
  1553  08CC  0871               	movf	??___bmul,w
  1554  08CD  07F2               	addwf	___bmul@product,f
  1555  08CE                     l2074:
  1556  08CE  1003               	clrc
  1557  08CF  0DF0               	rlf	___bmul@multiplicand,f
  1558  08D0                     l2076:
  1559  08D0  1003               	clrc
  1560  08D1  0CF3               	rrf	___bmul@multiplier,f
  1561  08D2  0873               	movf	___bmul@multiplier,w
  1562  08D3  1D03               	btfss	3,2
  1563  08D4  28D6               	goto	u2521
  1564  08D5  28D7               	goto	u2520
  1565  08D6                     u2521:
  1566  08D6  28C6               	goto	l2070
  1567  08D7                     u2520:
  1568  08D7                     l2078:
  1569  08D7  0872               	movf	___bmul@product,w
  1570  08D8                     l326:
  1571  08D8  0008               	return
  1572  08D9                     __end_of___bmul:
  1573                           
  1574                           	psect	text3
  1575  09D5                     __ptext3:	
  1576 ;; *************** function ___awmod *****************
  1577 ;; Defined at:
  1578 ;;		line 5 in file "C:\Program Files\Microchip\xc8\v2.31\pic\sources\c90\common\awmod.c"
  1579 ;; Parameters:    Size  Location     Type
  1580 ;;  divisor         2    0[COMMON] int 
  1581 ;;  dividend        2    2[COMMON] int 
  1582 ;; Auto vars:     Size  Location     Type
  1583 ;;  sign            1    6[COMMON] unsigned char 
  1584 ;;  counter         1    5[COMMON] unsigned char 
  1585 ;; Return value:  Size  Location     Type
  1586 ;;                  2    0[COMMON] int 
  1587 ;; Registers used:
  1588 ;;		wreg, status,2, status,0
  1589 ;; Tracked objects:
  1590 ;;		On entry : 0/0
  1591 ;;		On exit  : 0/0
  1592 ;;		Unchanged: 0/0
  1593 ;; Data sizes:     COMMON   BANK0   BANK1   BANK3   BANK2
  1594 ;;      Params:         4       0       0       0       0
  1595 ;;      Locals:         2       0       0       0       0
  1596 ;;      Temps:          1       0       0       0       0
  1597 ;;      Totals:         7       0       0       0       0
  1598 ;;Total ram usage:        7 bytes
  1599 ;; Hardware stack levels used:    1
  1600 ;; This function calls:
  1601 ;;		Nothing
  1602 ;; This function is called by:
  1603 ;;		_intToString
  1604 ;; This function uses a non-reentrant model
  1605 ;;
  1606                           
  1607                           
  1608                           ;psect for function ___awmod
  1609  09D5                     ___awmod:
  1610  09D5                     l2150:	
  1611                           ;incstack = 0
  1612                           ; Regs used in ___awmod: [wreg+status,2+status,0]
  1613                           
  1614  09D5  01F6               	clrf	___awmod@sign
  1615  09D6                     l2152:
  1616  09D6  1FF3               	btfss	___awmod@dividend+1,7
  1617  09D7  29D9               	goto	u2701
  1618  09D8  29DA               	goto	u2700
  1619  09D9                     u2701:
  1620  09D9  29E1               	goto	l2158
  1621  09DA                     u2700:
  1622  09DA                     l2154:
  1623  09DA  09F2               	comf	___awmod@dividend,f
  1624  09DB  09F3               	comf	___awmod@dividend+1,f
  1625  09DC  0AF2               	incf	___awmod@dividend,f
  1626  09DD  1903               	skipnz
  1627  09DE  0AF3               	incf	___awmod@dividend+1,f
  1628  09DF                     l2156:
  1629  09DF  01F6               	clrf	___awmod@sign
  1630  09E0  0AF6               	incf	___awmod@sign,f
  1631  09E1                     l2158:
  1632  09E1  1FF1               	btfss	___awmod@divisor+1,7
  1633  09E2  29E4               	goto	u2711
  1634  09E3  29E5               	goto	u2710
  1635  09E4                     u2711:
  1636  09E4  29EA               	goto	l2162
  1637  09E5                     u2710:
  1638  09E5                     l2160:
  1639  09E5  09F0               	comf	___awmod@divisor,f
  1640  09E6  09F1               	comf	___awmod@divisor+1,f
  1641  09E7  0AF0               	incf	___awmod@divisor,f
  1642  09E8  1903               	skipnz
  1643  09E9  0AF1               	incf	___awmod@divisor+1,f
  1644  09EA                     l2162:
  1645  09EA  0870               	movf	___awmod@divisor,w
  1646  09EB  0471               	iorwf	___awmod@divisor+1,w
  1647  09EC  1903               	btfsc	3,2
  1648  09ED  29EF               	goto	u2721
  1649  09EE  29F0               	goto	u2720
  1650  09EF                     u2721:
  1651  09EF  2A1F               	goto	l2180
  1652  09F0                     u2720:
  1653  09F0                     l2164:
  1654  09F0  01F5               	clrf	___awmod@counter
  1655  09F1  0AF5               	incf	___awmod@counter,f
  1656  09F2  29FE               	goto	l2170
  1657  09F3                     l2166:
  1658  09F3  3001               	movlw	1
  1659  09F4                     u2735:
  1660  09F4  1003               	clrc
  1661  09F5  0DF0               	rlf	___awmod@divisor,f
  1662  09F6  0DF1               	rlf	___awmod@divisor+1,f
  1663  09F7  3EFF               	addlw	-1
  1664  09F8  1D03               	skipz
  1665  09F9  29F4               	goto	u2735
  1666  09FA                     l2168:
  1667  09FA  3001               	movlw	1
  1668  09FB  00F4               	movwf	??___awmod
  1669  09FC  0874               	movf	??___awmod,w
  1670  09FD  07F5               	addwf	___awmod@counter,f
  1671  09FE                     l2170:
  1672  09FE  1FF1               	btfss	___awmod@divisor+1,7
  1673  09FF  2A01               	goto	u2741
  1674  0A00  2A02               	goto	u2740
  1675  0A01                     u2741:
  1676  0A01  29F3               	goto	l2166
  1677  0A02                     u2740:
  1678  0A02                     l2172:
  1679  0A02  0871               	movf	___awmod@divisor+1,w
  1680  0A03  0273               	subwf	___awmod@dividend+1,w
  1681  0A04  1D03               	skipz
  1682  0A05  2A08               	goto	u2755
  1683  0A06  0870               	movf	___awmod@divisor,w
  1684  0A07  0272               	subwf	___awmod@dividend,w
  1685  0A08                     u2755:
  1686  0A08  1C03               	skipc
  1687  0A09  2A0B               	goto	u2751
  1688  0A0A  2A0C               	goto	u2750
  1689  0A0B                     u2751:
  1690  0A0B  2A12               	goto	l2176
  1691  0A0C                     u2750:
  1692  0A0C                     l2174:
  1693  0A0C  0870               	movf	___awmod@divisor,w
  1694  0A0D  02F2               	subwf	___awmod@dividend,f
  1695  0A0E  0871               	movf	___awmod@divisor+1,w
  1696  0A0F  1C03               	skipc
  1697  0A10  03F3               	decf	___awmod@dividend+1,f
  1698  0A11  02F3               	subwf	___awmod@dividend+1,f
  1699  0A12                     l2176:
  1700  0A12  3001               	movlw	1
  1701  0A13                     u2765:
  1702  0A13  1003               	clrc
  1703  0A14  0CF1               	rrf	___awmod@divisor+1,f
  1704  0A15  0CF0               	rrf	___awmod@divisor,f
  1705  0A16  3EFF               	addlw	-1
  1706  0A17  1D03               	skipz
  1707  0A18  2A13               	goto	u2765
  1708  0A19                     l2178:
  1709  0A19  3001               	movlw	1
  1710  0A1A  02F5               	subwf	___awmod@counter,f
  1711  0A1B  1D03               	btfss	3,2
  1712  0A1C  2A1E               	goto	u2771
  1713  0A1D  2A1F               	goto	u2770
  1714  0A1E                     u2771:
  1715  0A1E  2A02               	goto	l2172
  1716  0A1F                     u2770:
  1717  0A1F                     l2180:
  1718  0A1F  0876               	movf	___awmod@sign,w
  1719  0A20  1903               	btfsc	3,2
  1720  0A21  2A23               	goto	u2781
  1721  0A22  2A24               	goto	u2780
  1722  0A23                     u2781:
  1723  0A23  2A29               	goto	l2184
  1724  0A24                     u2780:
  1725  0A24                     l2182:
  1726  0A24  09F2               	comf	___awmod@dividend,f
  1727  0A25  09F3               	comf	___awmod@dividend+1,f
  1728  0A26  0AF2               	incf	___awmod@dividend,f
  1729  0A27  1903               	skipnz
  1730  0A28  0AF3               	incf	___awmod@dividend+1,f
  1731  0A29                     l2184:
  1732  0A29  0873               	movf	___awmod@dividend+1,w
  1733  0A2A  00F1               	movwf	?___awmod+1
  1734  0A2B  0872               	movf	___awmod@dividend,w
  1735  0A2C  00F0               	movwf	?___awmod
  1736  0A2D                     l466:
  1737  0A2D  0008               	return
  1738  0A2E                     __end_of___awmod:
  1739                           
  1740                           	psect	text4
  1741  0AF3                     __ptext4:	
  1742 ;; *************** function ___awdiv *****************
  1743 ;; Defined at:
  1744 ;;		line 5 in file "C:\Program Files\Microchip\xc8\v2.31\pic\sources\c90\common\awdiv.c"
  1745 ;; Parameters:    Size  Location     Type
  1746 ;;  divisor         2    0[COMMON] int 
  1747 ;;  dividend        2    2[COMMON] int 
  1748 ;; Auto vars:     Size  Location     Type
  1749 ;;  quotient        2    7[COMMON] int 
  1750 ;;  sign            1    6[COMMON] unsigned char 
  1751 ;;  counter         1    5[COMMON] unsigned char 
  1752 ;; Return value:  Size  Location     Type
  1753 ;;                  2    0[COMMON] int 
  1754 ;; Registers used:
  1755 ;;		wreg, status,2, status,0
  1756 ;; Tracked objects:
  1757 ;;		On entry : 0/0
  1758 ;;		On exit  : 0/0
  1759 ;;		Unchanged: 0/0
  1760 ;; Data sizes:     COMMON   BANK0   BANK1   BANK3   BANK2
  1761 ;;      Params:         4       0       0       0       0
  1762 ;;      Locals:         4       0       0       0       0
  1763 ;;      Temps:          1       0       0       0       0
  1764 ;;      Totals:         9       0       0       0       0
  1765 ;;Total ram usage:        9 bytes
  1766 ;; Hardware stack levels used:    1
  1767 ;; This function calls:
  1768 ;;		Nothing
  1769 ;; This function is called by:
  1770 ;;		_intToString
  1771 ;; This function uses a non-reentrant model
  1772 ;;
  1773                           
  1774                           
  1775                           ;psect for function ___awdiv
  1776  0AF3                     ___awdiv:
  1777  0AF3                     l2106:	
  1778                           ;incstack = 0
  1779                           ; Regs used in ___awdiv: [wreg+status,2+status,0]
  1780                           
  1781  0AF3  01F6               	clrf	___awdiv@sign
  1782  0AF4                     l2108:
  1783  0AF4  1FF1               	btfss	___awdiv@divisor+1,7
  1784  0AF5  2AF7               	goto	u2601
  1785  0AF6  2AF8               	goto	u2600
  1786  0AF7                     u2601:
  1787  0AF7  2AFF               	goto	l2114
  1788  0AF8                     u2600:
  1789  0AF8                     l2110:
  1790  0AF8  09F0               	comf	___awdiv@divisor,f
  1791  0AF9  09F1               	comf	___awdiv@divisor+1,f
  1792  0AFA  0AF0               	incf	___awdiv@divisor,f
  1793  0AFB  1903               	skipnz
  1794  0AFC  0AF1               	incf	___awdiv@divisor+1,f
  1795  0AFD                     l2112:
  1796  0AFD  01F6               	clrf	___awdiv@sign
  1797  0AFE  0AF6               	incf	___awdiv@sign,f
  1798  0AFF                     l2114:
  1799  0AFF  1FF3               	btfss	___awdiv@dividend+1,7
  1800  0B00  2B02               	goto	u2611
  1801  0B01  2B03               	goto	u2610
  1802  0B02                     u2611:
  1803  0B02  2B0C               	goto	l2120
  1804  0B03                     u2610:
  1805  0B03                     l2116:
  1806  0B03  09F2               	comf	___awdiv@dividend,f
  1807  0B04  09F3               	comf	___awdiv@dividend+1,f
  1808  0B05  0AF2               	incf	___awdiv@dividend,f
  1809  0B06  1903               	skipnz
  1810  0B07  0AF3               	incf	___awdiv@dividend+1,f
  1811  0B08                     l2118:
  1812  0B08  3001               	movlw	1
  1813  0B09  00F4               	movwf	??___awdiv
  1814  0B0A  0874               	movf	??___awdiv,w
  1815  0B0B  06F6               	xorwf	___awdiv@sign,f
  1816  0B0C                     l2120:
  1817  0B0C  01F7               	clrf	___awdiv@quotient
  1818  0B0D  01F8               	clrf	___awdiv@quotient+1
  1819  0B0E                     l2122:
  1820  0B0E  0870               	movf	___awdiv@divisor,w
  1821  0B0F  0471               	iorwf	___awdiv@divisor+1,w
  1822  0B10  1903               	btfsc	3,2
  1823  0B11  2B13               	goto	u2621
  1824  0B12  2B14               	goto	u2620
  1825  0B13                     u2621:
  1826  0B13  2B4B               	goto	l2142
  1827  0B14                     u2620:
  1828  0B14                     l2124:
  1829  0B14  01F5               	clrf	___awdiv@counter
  1830  0B15  0AF5               	incf	___awdiv@counter,f
  1831  0B16  2B22               	goto	l2130
  1832  0B17                     l2126:
  1833  0B17  3001               	movlw	1
  1834  0B18                     u2635:
  1835  0B18  1003               	clrc
  1836  0B19  0DF0               	rlf	___awdiv@divisor,f
  1837  0B1A  0DF1               	rlf	___awdiv@divisor+1,f
  1838  0B1B  3EFF               	addlw	-1
  1839  0B1C  1D03               	skipz
  1840  0B1D  2B18               	goto	u2635
  1841  0B1E                     l2128:
  1842  0B1E  3001               	movlw	1
  1843  0B1F  00F4               	movwf	??___awdiv
  1844  0B20  0874               	movf	??___awdiv,w
  1845  0B21  07F5               	addwf	___awdiv@counter,f
  1846  0B22                     l2130:
  1847  0B22  1FF1               	btfss	___awdiv@divisor+1,7
  1848  0B23  2B25               	goto	u2641
  1849  0B24  2B26               	goto	u2640
  1850  0B25                     u2641:
  1851  0B25  2B17               	goto	l2126
  1852  0B26                     u2640:
  1853  0B26                     l2132:
  1854  0B26  3001               	movlw	1
  1855  0B27                     u2655:
  1856  0B27  1003               	clrc
  1857  0B28  0DF7               	rlf	___awdiv@quotient,f
  1858  0B29  0DF8               	rlf	___awdiv@quotient+1,f
  1859  0B2A  3EFF               	addlw	-1
  1860  0B2B  1D03               	skipz
  1861  0B2C  2B27               	goto	u2655
  1862  0B2D  0871               	movf	___awdiv@divisor+1,w
  1863  0B2E  0273               	subwf	___awdiv@dividend+1,w
  1864  0B2F  1D03               	skipz
  1865  0B30  2B33               	goto	u2665
  1866  0B31  0870               	movf	___awdiv@divisor,w
  1867  0B32  0272               	subwf	___awdiv@dividend,w
  1868  0B33                     u2665:
  1869  0B33  1C03               	skipc
  1870  0B34  2B36               	goto	u2661
  1871  0B35  2B37               	goto	u2660
  1872  0B36                     u2661:
  1873  0B36  2B3E               	goto	l2138
  1874  0B37                     u2660:
  1875  0B37                     l2134:
  1876  0B37  0870               	movf	___awdiv@divisor,w
  1877  0B38  02F2               	subwf	___awdiv@dividend,f
  1878  0B39  0871               	movf	___awdiv@divisor+1,w
  1879  0B3A  1C03               	skipc
  1880  0B3B  03F3               	decf	___awdiv@dividend+1,f
  1881  0B3C  02F3               	subwf	___awdiv@dividend+1,f
  1882  0B3D                     l2136:
  1883  0B3D  1477               	bsf	___awdiv@quotient,0
  1884  0B3E                     l2138:
  1885  0B3E  3001               	movlw	1
  1886  0B3F                     u2675:
  1887  0B3F  1003               	clrc
  1888  0B40  0CF1               	rrf	___awdiv@divisor+1,f
  1889  0B41  0CF0               	rrf	___awdiv@divisor,f
  1890  0B42  3EFF               	addlw	-1
  1891  0B43  1D03               	skipz
  1892  0B44  2B3F               	goto	u2675
  1893  0B45                     l2140:
  1894  0B45  3001               	movlw	1
  1895  0B46  02F5               	subwf	___awdiv@counter,f
  1896  0B47  1D03               	btfss	3,2
  1897  0B48  2B4A               	goto	u2681
  1898  0B49  2B4B               	goto	u2680
  1899  0B4A                     u2681:
  1900  0B4A  2B26               	goto	l2132
  1901  0B4B                     u2680:
  1902  0B4B                     l2142:
  1903  0B4B  0876               	movf	___awdiv@sign,w
  1904  0B4C  1903               	btfsc	3,2
  1905  0B4D  2B4F               	goto	u2691
  1906  0B4E  2B50               	goto	u2690
  1907  0B4F                     u2691:
  1908  0B4F  2B55               	goto	l2146
  1909  0B50                     u2690:
  1910  0B50                     l2144:
  1911  0B50  09F7               	comf	___awdiv@quotient,f
  1912  0B51  09F8               	comf	___awdiv@quotient+1,f
  1913  0B52  0AF7               	incf	___awdiv@quotient,f
  1914  0B53  1903               	skipnz
  1915  0B54  0AF8               	incf	___awdiv@quotient+1,f
  1916  0B55                     l2146:
  1917  0B55  0878               	movf	___awdiv@quotient+1,w
  1918  0B56  00F1               	movwf	?___awdiv+1
  1919  0B57  0877               	movf	___awdiv@quotient,w
  1920  0B58  00F0               	movwf	?___awdiv
  1921  0B59                     l453:
  1922  0B59  0008               	return
  1923  0B5A                     __end_of___awdiv:
  1924                           
  1925                           	psect	text5
  1926  0DA8                     __ptext5:	
  1927 ;; *************** function _decimalASCII *****************
  1928 ;; Defined at:
  1929 ;;		line 160 in file "main.c"
  1930 ;; Parameters:    Size  Location     Type
  1931 ;;  lectura         1    wreg     unsigned char 
  1932 ;; Auto vars:     Size  Location     Type
  1933 ;;  lectura         1   30[BANK0 ] unsigned char 
  1934 ;;  cadena          5   31[BANK0 ] unsigned char [5]
  1935 ;;  convertir3      4   37[BANK0 ] float 
  1936 ;;  entero          1   36[BANK0 ] unsigned char 
  1937 ;; Return value:  Size  Location     Type
  1938 ;;                  1    wreg      PTR unsigned char 
  1939 ;; Registers used:
  1940 ;;		wreg, status,2, status,0, btemp+1, pclath, cstack
  1941 ;; Tracked objects:
  1942 ;;		On entry : 0/0
  1943 ;;		On exit  : 0/0
  1944 ;;		Unchanged: 0/0
  1945 ;; Data sizes:     COMMON   BANK0   BANK1   BANK3   BANK2
  1946 ;;      Params:         0       0       0       0       0
  1947 ;;      Locals:         0      11       0       0       0
  1948 ;;      Temps:          0       4       0       0       0
  1949 ;;      Totals:         0      15       0       0       0
  1950 ;;Total ram usage:       15 bytes
  1951 ;; Hardware stack levels used:    1
  1952 ;; Hardware stack levels required when called:    2
  1953 ;; This function calls:
  1954 ;;		___fldiv
  1955 ;;		___flmul
  1956 ;;		___flsub
  1957 ;;		___fltol
  1958 ;;		___xxtofl
  1959 ;; This function is called by:
  1960 ;;		_main
  1961 ;; This function uses a non-reentrant model
  1962 ;;
  1963                           
  1964                           
  1965                           ;psect for function _decimalASCII
  1966  0DA8                     _decimalASCII:
  1967                           
  1968                           ;incstack = 0
  1969                           ; Regs used in _decimalASCII: [wreg+status,2+status,0+btemp+1+pclath+cstack]
  1970                           ;decimalASCII@lectura stored from wreg
  1971  0DA8  1283               	bcf	3,5	;RP0=0, select bank0
  1972  0DA9  1303               	bcf	3,6	;RP1=0, select bank0
  1973  0DAA  00BE               	movwf	decimalASCII@lectura
  1974  0DAB                     l2702:
  1975                           
  1976                           ;main.c: 161: 
  1977  0DAB  3042               	movlw	66
  1978  0DAC  00A3               	movwf	___fldiv@a+3
  1979  0DAD  304C               	movlw	76
  1980  0DAE  00A2               	movwf	___fldiv@a+2
  1981  0DAF  3000               	movlw	0
  1982  0DB0  00A1               	movwf	___fldiv@a+1
  1983  0DB1  3000               	movlw	0
  1984  0DB2  00A0               	movwf	___fldiv@a
  1985  0DB3  083E               	movf	decimalASCII@lectura,w
  1986  0DB4  00BA               	movwf	??_decimalASCII
  1987  0DB5  01BB               	clrf	??_decimalASCII+1
  1988  0DB6  01BC               	clrf	??_decimalASCII+2
  1989  0DB7  01BD               	clrf	??_decimalASCII+3
  1990  0DB8  083D               	movf	??_decimalASCII+3,w
  1991  0DB9  00F3               	movwf	___xxtofl@val+3
  1992  0DBA  083C               	movf	??_decimalASCII+2,w
  1993  0DBB  00F2               	movwf	___xxtofl@val+2
  1994  0DBC  083B               	movf	??_decimalASCII+1,w
  1995  0DBD  00F1               	movwf	___xxtofl@val+1
  1996  0DBE  083A               	movf	??_decimalASCII,w
  1997  0DBF  00F0               	movwf	___xxtofl@val
  1998  0DC0  3001               	movlw	1
  1999  0DC1  120A  158A  24EE  120A  158A  	fcall	___xxtofl
  2000  0DC6  0873               	movf	?___xxtofl+3,w
  2001  0DC7  1283               	bcf	3,5	;RP0=0, select bank0
  2002  0DC8  1303               	bcf	3,6	;RP1=0, select bank0
  2003  0DC9  00A7               	movwf	___fldiv@b+3
  2004  0DCA  0872               	movf	?___xxtofl+2,w
  2005  0DCB  00A6               	movwf	___fldiv@b+2
  2006  0DCC  0871               	movf	?___xxtofl+1,w
  2007  0DCD  00A5               	movwf	___fldiv@b+1
  2008  0DCE  0870               	movf	?___xxtofl,w
  2009  0DCF  00A4               	movwf	___fldiv@b
  2010  0DD0  120A  118A  201C  120A  158A  	fcall	___fldiv
  2011  0DD5  1283               	bcf	3,5	;RP0=0, select bank0
  2012  0DD6  1303               	bcf	3,6	;RP1=0, select bank0
  2013  0DD7  0823               	movf	?___fldiv+3,w
  2014  0DD8  00C8               	movwf	decimalASCII@convertir3+3
  2015  0DD9  0822               	movf	?___fldiv+2,w
  2016  0DDA  00C7               	movwf	decimalASCII@convertir3+2
  2017  0DDB  0821               	movf	?___fldiv+1,w
  2018  0DDC  00C6               	movwf	decimalASCII@convertir3+1
  2019  0DDD  0820               	movf	?___fldiv,w
  2020  0DDE  00C5               	movwf	decimalASCII@convertir3
  2021  0DDF                     l2704:
  2022                           
  2023                           ;main.c: 162:     return valor;;main.c: 163: 
  2024  0DDF  0848               	movf	decimalASCII@convertir3+3,w
  2025  0DE0  00F3               	movwf	___fltol@f1+3
  2026  0DE1  0847               	movf	decimalASCII@convertir3+2,w
  2027  0DE2  00F2               	movwf	___fltol@f1+2
  2028  0DE3  0846               	movf	decimalASCII@convertir3+1,w
  2029  0DE4  00F1               	movwf	___fltol@f1+1
  2030  0DE5  0845               	movf	decimalASCII@convertir3,w
  2031  0DE6  00F0               	movwf	___fltol@f1
  2032  0DE7  120A  158A  23C9  120A  158A  	fcall	___fltol
  2033  0DEC  0870               	movf	?___fltol,w
  2034  0DED  1283               	bcf	3,5	;RP0=0, select bank0
  2035  0DEE  1303               	bcf	3,6	;RP1=0, select bank0
  2036  0DEF  00BA               	movwf	??_decimalASCII
  2037  0DF0  083A               	movf	??_decimalASCII,w
  2038  0DF1  00C4               	movwf	decimalASCII@entero
  2039  0DF2                     l2706:
  2040                           
  2041                           ;main.c: 165: }
  2042  0DF2  0844               	movf	decimalASCII@entero,w
  2043  0DF3  3E30               	addlw	48
  2044  0DF4  00BA               	movwf	??_decimalASCII
  2045  0DF5  083A               	movf	??_decimalASCII,w
  2046  0DF6  00BF               	movwf	decimalASCII@cadena
  2047  0DF7                     l2708:
  2048  0DF7  302E               	movlw	46
  2049  0DF8  00BA               	movwf	??_decimalASCII
  2050  0DF9  083A               	movf	??_decimalASCII,w
  2051  0DFA  00C0               	movwf	decimalASCII@cadena+1
  2052  0DFB                     l2710:
  2053  0DFB  0844               	movf	decimalASCII@entero,w
  2054  0DFC  00BA               	movwf	??_decimalASCII
  2055  0DFD  01BB               	clrf	??_decimalASCII+1
  2056  0DFE  01BC               	clrf	??_decimalASCII+2
  2057  0DFF  01BD               	clrf	??_decimalASCII+3
  2058  0E00  083D               	movf	??_decimalASCII+3,w
  2059  0E01  00F3               	movwf	___xxtofl@val+3
  2060  0E02  083C               	movf	??_decimalASCII+2,w
  2061  0E03  00F2               	movwf	___xxtofl@val+2
  2062  0E04  083B               	movf	??_decimalASCII+1,w
  2063  0E05  00F1               	movwf	___xxtofl@val+1
  2064  0E06  083A               	movf	??_decimalASCII,w
  2065  0E07  00F0               	movwf	___xxtofl@val
  2066  0E08  3001               	movlw	1
  2067  0E09  120A  158A  24EE  120A  158A  	fcall	___xxtofl
  2068  0E0E  0873               	movf	?___xxtofl+3,w
  2069  0E0F  1283               	bcf	3,5	;RP0=0, select bank0
  2070  0E10  1303               	bcf	3,6	;RP1=0, select bank0
  2071  0E11  00AB               	movwf	___flsub@a+3
  2072  0E12  0872               	movf	?___xxtofl+2,w
  2073  0E13  00AA               	movwf	___flsub@a+2
  2074  0E14  0871               	movf	?___xxtofl+1,w
  2075  0E15  00A9               	movwf	___flsub@a+1
  2076  0E16  0870               	movf	?___xxtofl,w
  2077  0E17  00A8               	movwf	___flsub@a
  2078  0E18  0848               	movf	decimalASCII@convertir3+3,w
  2079  0E19  00AF               	movwf	___flsub@b+3
  2080  0E1A  0847               	movf	decimalASCII@convertir3+2,w
  2081  0E1B  00AE               	movwf	___flsub@b+2
  2082  0E1C  0846               	movf	decimalASCII@convertir3+1,w
  2083  0E1D  00AD               	movwf	___flsub@b+1
  2084  0E1E  0845               	movf	decimalASCII@convertir3,w
  2085  0E1F  00AC               	movwf	___flsub@b
  2086  0E20  120A  158A  2115  120A  158A  	fcall	___flsub
  2087  0E25  1283               	bcf	3,5	;RP0=0, select bank0
  2088  0E26  1303               	bcf	3,6	;RP1=0, select bank0
  2089  0E27  082B               	movf	?___flsub+3,w
  2090  0E28  00C8               	movwf	decimalASCII@convertir3+3
  2091  0E29  082A               	movf	?___flsub+2,w
  2092  0E2A  00C7               	movwf	decimalASCII@convertir3+2
  2093  0E2B  0829               	movf	?___flsub+1,w
  2094  0E2C  00C6               	movwf	decimalASCII@convertir3+1
  2095  0E2D  0828               	movf	?___flsub,w
  2096  0E2E  00C5               	movwf	decimalASCII@convertir3
  2097  0E2F                     l2712:
  2098  0E2F  3041               	movlw	65
  2099  0E30  00A3               	movwf	___flmul@b+3
  2100  0E31  3020               	movlw	32
  2101  0E32  00A2               	movwf	___flmul@b+2
  2102  0E33  3000               	movlw	0
  2103  0E34  00A1               	movwf	___flmul@b+1
  2104  0E35  3000               	movlw	0
  2105  0E36  00A0               	movwf	___flmul@b
  2106  0E37  0848               	movf	decimalASCII@convertir3+3,w
  2107  0E38  00A7               	movwf	___flmul@a+3
  2108  0E39  0847               	movf	decimalASCII@convertir3+2,w
  2109  0E3A  00A6               	movwf	___flmul@a+2
  2110  0E3B  0846               	movf	decimalASCII@convertir3+1,w
  2111  0E3C  00A5               	movwf	___flmul@a+1
  2112  0E3D  0845               	movf	decimalASCII@convertir3,w
  2113  0E3E  00A4               	movwf	___flmul@a
  2114  0E3F  120A  118A  2491  120A  158A  	fcall	___flmul
  2115  0E44  1283               	bcf	3,5	;RP0=0, select bank0
  2116  0E45  1303               	bcf	3,6	;RP1=0, select bank0
  2117  0E46  0823               	movf	?___flmul+3,w
  2118  0E47  00C8               	movwf	decimalASCII@convertir3+3
  2119  0E48  0822               	movf	?___flmul+2,w
  2120  0E49  00C7               	movwf	decimalASCII@convertir3+2
  2121  0E4A  0821               	movf	?___flmul+1,w
  2122  0E4B  00C6               	movwf	decimalASCII@convertir3+1
  2123  0E4C  0820               	movf	?___flmul,w
  2124  0E4D  00C5               	movwf	decimalASCII@convertir3
  2125  0E4E                     l2714:
  2126  0E4E  0848               	movf	decimalASCII@convertir3+3,w
  2127  0E4F  00F3               	movwf	___fltol@f1+3
  2128  0E50  0847               	movf	decimalASCII@convertir3+2,w
  2129  0E51  00F2               	movwf	___fltol@f1+2
  2130  0E52  0846               	movf	decimalASCII@convertir3+1,w
  2131  0E53  00F1               	movwf	___fltol@f1+1
  2132  0E54  0845               	movf	decimalASCII@convertir3,w
  2133  0E55  00F0               	movwf	___fltol@f1
  2134  0E56  120A  158A  23C9  120A  158A  	fcall	___fltol
  2135  0E5B  0870               	movf	?___fltol,w
  2136  0E5C  1283               	bcf	3,5	;RP0=0, select bank0
  2137  0E5D  1303               	bcf	3,6	;RP1=0, select bank0
  2138  0E5E  00BA               	movwf	??_decimalASCII
  2139  0E5F  083A               	movf	??_decimalASCII,w
  2140  0E60  00C4               	movwf	decimalASCII@entero
  2141  0E61                     l2716:
  2142  0E61  0844               	movf	decimalASCII@entero,w
  2143  0E62  3E30               	addlw	48
  2144  0E63  00BA               	movwf	??_decimalASCII
  2145  0E64  083A               	movf	??_decimalASCII,w
  2146  0E65  00C1               	movwf	decimalASCII@cadena+2
  2147  0E66                     l2718:
  2148  0E66  0844               	movf	decimalASCII@entero,w
  2149  0E67  00BA               	movwf	??_decimalASCII
  2150  0E68  01BB               	clrf	??_decimalASCII+1
  2151  0E69  01BC               	clrf	??_decimalASCII+2
  2152  0E6A  01BD               	clrf	??_decimalASCII+3
  2153  0E6B  083D               	movf	??_decimalASCII+3,w
  2154  0E6C  00F3               	movwf	___xxtofl@val+3
  2155  0E6D  083C               	movf	??_decimalASCII+2,w
  2156  0E6E  00F2               	movwf	___xxtofl@val+2
  2157  0E6F  083B               	movf	??_decimalASCII+1,w
  2158  0E70  00F1               	movwf	___xxtofl@val+1
  2159  0E71  083A               	movf	??_decimalASCII,w
  2160  0E72  00F0               	movwf	___xxtofl@val
  2161  0E73  3001               	movlw	1
  2162  0E74  120A  158A  24EE  120A  158A  	fcall	___xxtofl
  2163  0E79  0873               	movf	?___xxtofl+3,w
  2164  0E7A  1283               	bcf	3,5	;RP0=0, select bank0
  2165  0E7B  1303               	bcf	3,6	;RP1=0, select bank0
  2166  0E7C  00AB               	movwf	___flsub@a+3
  2167  0E7D  0872               	movf	?___xxtofl+2,w
  2168  0E7E  00AA               	movwf	___flsub@a+2
  2169  0E7F  0871               	movf	?___xxtofl+1,w
  2170  0E80  00A9               	movwf	___flsub@a+1
  2171  0E81  0870               	movf	?___xxtofl,w
  2172  0E82  00A8               	movwf	___flsub@a
  2173  0E83  0848               	movf	decimalASCII@convertir3+3,w
  2174  0E84  00AF               	movwf	___flsub@b+3
  2175  0E85  0847               	movf	decimalASCII@convertir3+2,w
  2176  0E86  00AE               	movwf	___flsub@b+2
  2177  0E87  0846               	movf	decimalASCII@convertir3+1,w
  2178  0E88  00AD               	movwf	___flsub@b+1
  2179  0E89  0845               	movf	decimalASCII@convertir3,w
  2180  0E8A  00AC               	movwf	___flsub@b
  2181  0E8B  120A  158A  2115  120A  158A  	fcall	___flsub
  2182  0E90  1283               	bcf	3,5	;RP0=0, select bank0
  2183  0E91  1303               	bcf	3,6	;RP1=0, select bank0
  2184  0E92  082B               	movf	?___flsub+3,w
  2185  0E93  00C8               	movwf	decimalASCII@convertir3+3
  2186  0E94  082A               	movf	?___flsub+2,w
  2187  0E95  00C7               	movwf	decimalASCII@convertir3+2
  2188  0E96  0829               	movf	?___flsub+1,w
  2189  0E97  00C6               	movwf	decimalASCII@convertir3+1
  2190  0E98  0828               	movf	?___flsub,w
  2191  0E99  00C5               	movwf	decimalASCII@convertir3
  2192  0E9A                     l2720:
  2193  0E9A  3041               	movlw	65
  2194  0E9B  00A3               	movwf	___flmul@b+3
  2195  0E9C  3020               	movlw	32
  2196  0E9D  00A2               	movwf	___flmul@b+2
  2197  0E9E  3000               	movlw	0
  2198  0E9F  00A1               	movwf	___flmul@b+1
  2199  0EA0  3000               	movlw	0
  2200  0EA1  00A0               	movwf	___flmul@b
  2201  0EA2  0848               	movf	decimalASCII@convertir3+3,w
  2202  0EA3  00A7               	movwf	___flmul@a+3
  2203  0EA4  0847               	movf	decimalASCII@convertir3+2,w
  2204  0EA5  00A6               	movwf	___flmul@a+2
  2205  0EA6  0846               	movf	decimalASCII@convertir3+1,w
  2206  0EA7  00A5               	movwf	___flmul@a+1
  2207  0EA8  0845               	movf	decimalASCII@convertir3,w
  2208  0EA9  00A4               	movwf	___flmul@a
  2209  0EAA  120A  118A  2491  120A  158A  	fcall	___flmul
  2210  0EAF  1283               	bcf	3,5	;RP0=0, select bank0
  2211  0EB0  1303               	bcf	3,6	;RP1=0, select bank0
  2212  0EB1  0823               	movf	?___flmul+3,w
  2213  0EB2  00C8               	movwf	decimalASCII@convertir3+3
  2214  0EB3  0822               	movf	?___flmul+2,w
  2215  0EB4  00C7               	movwf	decimalASCII@convertir3+2
  2216  0EB5  0821               	movf	?___flmul+1,w
  2217  0EB6  00C6               	movwf	decimalASCII@convertir3+1
  2218  0EB7  0820               	movf	?___flmul,w
  2219  0EB8  00C5               	movwf	decimalASCII@convertir3
  2220  0EB9                     l2722:
  2221  0EB9  0848               	movf	decimalASCII@convertir3+3,w
  2222  0EBA  00F3               	movwf	___fltol@f1+3
  2223  0EBB  0847               	movf	decimalASCII@convertir3+2,w
  2224  0EBC  00F2               	movwf	___fltol@f1+2
  2225  0EBD  0846               	movf	decimalASCII@convertir3+1,w
  2226  0EBE  00F1               	movwf	___fltol@f1+1
  2227  0EBF  0845               	movf	decimalASCII@convertir3,w
  2228  0EC0  00F0               	movwf	___fltol@f1
  2229  0EC1  120A  158A  23C9  120A  158A  	fcall	___fltol
  2230  0EC6  0870               	movf	?___fltol,w
  2231  0EC7  1283               	bcf	3,5	;RP0=0, select bank0
  2232  0EC8  1303               	bcf	3,6	;RP1=0, select bank0
  2233  0EC9  00BA               	movwf	??_decimalASCII
  2234  0ECA  083A               	movf	??_decimalASCII,w
  2235  0ECB  00C4               	movwf	decimalASCII@entero
  2236  0ECC                     l2724:
  2237  0ECC  0844               	movf	decimalASCII@entero,w
  2238  0ECD  3E30               	addlw	48
  2239  0ECE  00BA               	movwf	??_decimalASCII
  2240  0ECF  083A               	movf	??_decimalASCII,w
  2241  0ED0  00C2               	movwf	decimalASCII@cadena+3
  2242  0ED1                     l2726:
  2243  0ED1  01C3               	clrf	decimalASCII@cadena+4
  2244  0ED2                     l2728:
  2245  0ED2  303F               	movlw	(low (decimalASCII@cadena| 0))& (0+255)
  2246  0ED3                     l93:
  2247  0ED3  0008               	return
  2248  0ED4                     __end_of_decimalASCII:
  2249                           
  2250                           	psect	text6
  2251  0CEE                     __ptext6:	
  2252 ;; *************** function ___xxtofl *****************
  2253 ;; Defined at:
  2254 ;;		line 10 in file "C:\Program Files\Microchip\xc8\v2.31\pic\sources\c90\common\xxtofl.c"
  2255 ;; Parameters:    Size  Location     Type
  2256 ;;  sign            1    wreg     unsigned char 
  2257 ;;  val             4    0[COMMON] long 
  2258 ;; Auto vars:     Size  Location     Type
  2259 ;;  sign            1    8[COMMON] unsigned char 
  2260 ;;  arg             4   10[COMMON] unsigned long 
  2261 ;;  exp             1    9[COMMON] unsigned char 
  2262 ;; Return value:  Size  Location     Type
  2263 ;;                  4    0[COMMON] unsigned char 
  2264 ;; Registers used:
  2265 ;;		wreg, status,2, status,0
  2266 ;; Tracked objects:
  2267 ;;		On entry : 0/0
  2268 ;;		On exit  : 0/0
  2269 ;;		Unchanged: 0/0
  2270 ;; Data sizes:     COMMON   BANK0   BANK1   BANK3   BANK2
  2271 ;;      Params:         4       0       0       0       0
  2272 ;;      Locals:         6       0       0       0       0
  2273 ;;      Temps:          4       0       0       0       0
  2274 ;;      Totals:        14       0       0       0       0
  2275 ;;Total ram usage:       14 bytes
  2276 ;; Hardware stack levels used:    1
  2277 ;; This function calls:
  2278 ;;		Nothing
  2279 ;; This function is called by:
  2280 ;;		_decimalASCII
  2281 ;; This function uses a non-reentrant model
  2282 ;;
  2283                           
  2284                           
  2285                           ;psect for function ___xxtofl
  2286  0CEE                     ___xxtofl:
  2287                           
  2288                           ;incstack = 0
  2289                           ; Regs used in ___xxtofl: [wreg+status,2+status,0]
  2290                           ;___xxtofl@sign stored from wreg
  2291  0CEE  00F8               	movwf	___xxtofl@sign
  2292  0CEF                     l2512:
  2293  0CEF  0878               	movf	___xxtofl@sign,w
  2294  0CF0  1903               	btfsc	3,2
  2295  0CF1  2CF3               	goto	u3551
  2296  0CF2  2CF4               	goto	u3550
  2297  0CF3                     u3551:
  2298  0CF3  2D08               	goto	l2518
  2299  0CF4                     u3550:
  2300  0CF4                     l2514:
  2301  0CF4  1FF3               	btfss	___xxtofl@val+3,7
  2302  0CF5  2CF7               	goto	u3561
  2303  0CF6  2CF8               	goto	u3560
  2304  0CF7                     u3561:
  2305  0CF7  2D08               	goto	l2518
  2306  0CF8                     u3560:
  2307  0CF8                     l2516:
  2308  0CF8  0970               	comf	___xxtofl@val,w
  2309  0CF9  00FA               	movwf	___xxtofl@arg
  2310  0CFA  0971               	comf	___xxtofl@val+1,w
  2311  0CFB  00FB               	movwf	___xxtofl@arg+1
  2312  0CFC  0972               	comf	___xxtofl@val+2,w
  2313  0CFD  00FC               	movwf	___xxtofl@arg+2
  2314  0CFE  0973               	comf	___xxtofl@val+3,w
  2315  0CFF  00FD               	movwf	___xxtofl@arg+3
  2316  0D00  0AFA               	incf	___xxtofl@arg,f
  2317  0D01  1903               	skipnz
  2318  0D02  0AFB               	incf	___xxtofl@arg+1,f
  2319  0D03  1903               	skipnz
  2320  0D04  0AFC               	incf	___xxtofl@arg+2,f
  2321  0D05  1903               	skipnz
  2322  0D06  0AFD               	incf	___xxtofl@arg+3,f
  2323  0D07  2D10               	goto	l733
  2324  0D08                     l2518:
  2325  0D08  0873               	movf	___xxtofl@val+3,w
  2326  0D09  00FD               	movwf	___xxtofl@arg+3
  2327  0D0A  0872               	movf	___xxtofl@val+2,w
  2328  0D0B  00FC               	movwf	___xxtofl@arg+2
  2329  0D0C  0871               	movf	___xxtofl@val+1,w
  2330  0D0D  00FB               	movwf	___xxtofl@arg+1
  2331  0D0E  0870               	movf	___xxtofl@val,w
  2332  0D0F  00FA               	movwf	___xxtofl@arg
  2333  0D10                     l733:
  2334  0D10  0873               	movf	___xxtofl@val+3,w
  2335  0D11  0472               	iorwf	___xxtofl@val+2,w
  2336  0D12  0471               	iorwf	___xxtofl@val+1,w
  2337  0D13  0470               	iorwf	___xxtofl@val,w
  2338  0D14  1D03               	skipz
  2339  0D15  2D17               	goto	u3571
  2340  0D16  2D18               	goto	u3570
  2341  0D17                     u3571:
  2342  0D17  2D21               	goto	l2524
  2343  0D18                     u3570:
  2344  0D18                     l2520:
  2345  0D18  3000               	movlw	0
  2346  0D19  00F3               	movwf	?___xxtofl+3
  2347  0D1A  3000               	movlw	0
  2348  0D1B  00F2               	movwf	?___xxtofl+2
  2349  0D1C  3000               	movlw	0
  2350  0D1D  00F1               	movwf	?___xxtofl+1
  2351  0D1E  3000               	movlw	0
  2352  0D1F  00F0               	movwf	?___xxtofl
  2353  0D20  2DA7               	goto	l735
  2354  0D21                     l2524:
  2355  0D21  3096               	movlw	150
  2356  0D22  00F4               	movwf	??___xxtofl
  2357  0D23  0874               	movf	??___xxtofl,w
  2358  0D24  00F9               	movwf	___xxtofl@exp
  2359  0D25  2D33               	goto	l2528
  2360  0D26                     l2526:
  2361  0D26  3001               	movlw	1
  2362  0D27  00F4               	movwf	??___xxtofl
  2363  0D28  0874               	movf	??___xxtofl,w
  2364  0D29  07F9               	addwf	___xxtofl@exp,f
  2365  0D2A  3001               	movlw	1
  2366  0D2B                     u3585:
  2367  0D2B  1003               	clrc
  2368  0D2C  0CFD               	rrf	___xxtofl@arg+3,f
  2369  0D2D  0CFC               	rrf	___xxtofl@arg+2,f
  2370  0D2E  0CFB               	rrf	___xxtofl@arg+1,f
  2371  0D2F  0CFA               	rrf	___xxtofl@arg,f
  2372  0D30  3EFF               	addlw	-1
  2373  0D31  1D03               	skipz
  2374  0D32  2D2B               	goto	u3585
  2375  0D33                     l2528:
  2376  0D33  30FE               	movlw	254
  2377  0D34  057D               	andwf	___xxtofl@arg+3,w
  2378  0D35  1D03               	btfss	3,2
  2379  0D36  2D38               	goto	u3591
  2380  0D37  2D39               	goto	u3590
  2381  0D38                     u3591:
  2382  0D38  2D26               	goto	l2526
  2383  0D39                     u3590:
  2384  0D39  2D55               	goto	l739
  2385  0D3A                     l2530:
  2386  0D3A  3001               	movlw	1
  2387  0D3B  00F4               	movwf	??___xxtofl
  2388  0D3C  0874               	movf	??___xxtofl,w
  2389  0D3D  07F9               	addwf	___xxtofl@exp,f
  2390  0D3E                     l2532:
  2391  0D3E  3001               	movlw	1
  2392  0D3F  07FA               	addwf	___xxtofl@arg,f
  2393  0D40  3000               	movlw	0
  2394  0D41  1803               	skipnc
  2395  0D42  3001               	movlw	1
  2396  0D43  07FB               	addwf	___xxtofl@arg+1,f
  2397  0D44  3000               	movlw	0
  2398  0D45  1803               	skipnc
  2399  0D46  3001               	movlw	1
  2400  0D47  07FC               	addwf	___xxtofl@arg+2,f
  2401  0D48  3000               	movlw	0
  2402  0D49  1803               	skipnc
  2403  0D4A  3001               	movlw	1
  2404  0D4B  07FD               	addwf	___xxtofl@arg+3,f
  2405  0D4C                     l2534:
  2406  0D4C  3001               	movlw	1
  2407  0D4D                     u3605:
  2408  0D4D  1003               	clrc
  2409  0D4E  0CFD               	rrf	___xxtofl@arg+3,f
  2410  0D4F  0CFC               	rrf	___xxtofl@arg+2,f
  2411  0D50  0CFB               	rrf	___xxtofl@arg+1,f
  2412  0D51  0CFA               	rrf	___xxtofl@arg,f
  2413  0D52  3EFF               	addlw	-1
  2414  0D53  1D03               	skipz
  2415  0D54  2D4D               	goto	u3605
  2416  0D55                     l739:
  2417  0D55  30FF               	movlw	255
  2418  0D56  057D               	andwf	___xxtofl@arg+3,w
  2419  0D57  1D03               	btfss	3,2
  2420  0D58  2D5A               	goto	u3611
  2421  0D59  2D5B               	goto	u3610
  2422  0D5A                     u3611:
  2423  0D5A  2D3A               	goto	l2530
  2424  0D5B                     u3610:
  2425  0D5B  2D67               	goto	l2538
  2426  0D5C                     l2536:
  2427  0D5C  3001               	movlw	1
  2428  0D5D  02F9               	subwf	___xxtofl@exp,f
  2429  0D5E  3001               	movlw	1
  2430  0D5F  00F4               	movwf	??___xxtofl
  2431  0D60                     u3625:
  2432  0D60  1003               	clrc
  2433  0D61  0DFA               	rlf	___xxtofl@arg,f
  2434  0D62  0DFB               	rlf	___xxtofl@arg+1,f
  2435  0D63  0DFC               	rlf	___xxtofl@arg+2,f
  2436  0D64  0DFD               	rlf	___xxtofl@arg+3,f
  2437  0D65  0BF4               	decfsz	??___xxtofl,f
  2438  0D66  2D60               	goto	u3625
  2439  0D67                     l2538:
  2440  0D67  1BFC               	btfsc	___xxtofl@arg+2,7
  2441  0D68  2D6A               	goto	u3631
  2442  0D69  2D6B               	goto	u3630
  2443  0D6A                     u3631:
  2444  0D6A  2D71               	goto	l746
  2445  0D6B                     u3630:
  2446  0D6B                     l2540:
  2447  0D6B  3002               	movlw	2
  2448  0D6C  0279               	subwf	___xxtofl@exp,w
  2449  0D6D  1803               	skipnc
  2450  0D6E  2D70               	goto	u3641
  2451  0D6F  2D71               	goto	u3640
  2452  0D70                     u3641:
  2453  0D70  2D5C               	goto	l2536
  2454  0D71                     u3640:
  2455  0D71                     l746:
  2456  0D71  1879               	btfsc	___xxtofl@exp,0
  2457  0D72  2D74               	goto	u3651
  2458  0D73  2D75               	goto	u3650
  2459  0D74                     u3651:
  2460  0D74  2D7D               	goto	l747
  2461  0D75                     u3650:
  2462  0D75                     l2542:
  2463  0D75  30FF               	movlw	255
  2464  0D76  05FA               	andwf	___xxtofl@arg,f
  2465  0D77  30FF               	movlw	255
  2466  0D78  05FB               	andwf	___xxtofl@arg+1,f
  2467  0D79  307F               	movlw	127
  2468  0D7A  05FC               	andwf	___xxtofl@arg+2,f
  2469  0D7B  30FF               	movlw	255
  2470  0D7C  05FD               	andwf	___xxtofl@arg+3,f
  2471  0D7D                     l747:
  2472  0D7D  1003               	clrc
  2473  0D7E  0CF9               	rrf	___xxtofl@exp,f
  2474  0D7F                     l2544:
  2475  0D7F  0879               	movf	___xxtofl@exp,w
  2476  0D80  00F4               	movwf	??___xxtofl
  2477  0D81  01F5               	clrf	??___xxtofl+1
  2478  0D82  01F6               	clrf	??___xxtofl+2
  2479  0D83  01F7               	clrf	??___xxtofl+3
  2480  0D84  3018               	movlw	24
  2481  0D85                     u3665:
  2482  0D85  1003               	clrc
  2483  0D86  0DF4               	rlf	??___xxtofl,f
  2484  0D87  0DF5               	rlf	??___xxtofl+1,f
  2485  0D88  0DF6               	rlf	??___xxtofl+2,f
  2486  0D89  0DF7               	rlf	??___xxtofl+3,f
  2487  0D8A                     u3660:
  2488  0D8A  3EFF               	addlw	-1
  2489  0D8B  1D03               	skipz
  2490  0D8C  2D85               	goto	u3665
  2491  0D8D  0874               	movf	??___xxtofl,w
  2492  0D8E  04FA               	iorwf	___xxtofl@arg,f
  2493  0D8F  0875               	movf	??___xxtofl+1,w
  2494  0D90  04FB               	iorwf	___xxtofl@arg+1,f
  2495  0D91  0876               	movf	??___xxtofl+2,w
  2496  0D92  04FC               	iorwf	___xxtofl@arg+2,f
  2497  0D93  0877               	movf	??___xxtofl+3,w
  2498  0D94  04FD               	iorwf	___xxtofl@arg+3,f
  2499  0D95                     l2546:
  2500  0D95  0878               	movf	___xxtofl@sign,w
  2501  0D96  1903               	btfsc	3,2
  2502  0D97  2D99               	goto	u3671
  2503  0D98  2D9A               	goto	u3670
  2504  0D99                     u3671:
  2505  0D99  2D9F               	goto	l2552
  2506  0D9A                     u3670:
  2507  0D9A                     l2548:
  2508  0D9A  1FF3               	btfss	___xxtofl@val+3,7
  2509  0D9B  2D9D               	goto	u3681
  2510  0D9C  2D9E               	goto	u3680
  2511  0D9D                     u3681:
  2512  0D9D  2D9F               	goto	l2552
  2513  0D9E                     u3680:
  2514  0D9E                     l2550:
  2515  0D9E  17FD               	bsf	___xxtofl@arg+3,7
  2516  0D9F                     l2552:
  2517  0D9F  087D               	movf	___xxtofl@arg+3,w
  2518  0DA0  00F3               	movwf	?___xxtofl+3
  2519  0DA1  087C               	movf	___xxtofl@arg+2,w
  2520  0DA2  00F2               	movwf	?___xxtofl+2
  2521  0DA3  087B               	movf	___xxtofl@arg+1,w
  2522  0DA4  00F1               	movwf	?___xxtofl+1
  2523  0DA5  087A               	movf	___xxtofl@arg,w
  2524  0DA6  00F0               	movwf	?___xxtofl
  2525  0DA7                     l735:
  2526  0DA7  0008               	return
  2527  0DA8                     __end_of___xxtofl:
  2528                           
  2529                           	psect	text7
  2530  0BC9                     __ptext7:	
  2531 ;; *************** function ___fltol *****************
  2532 ;; Defined at:
  2533 ;;		line 43 in file "C:\Program Files\Microchip\xc8\v2.31\pic\sources\c90\common\fltol.c"
  2534 ;; Parameters:    Size  Location     Type
  2535 ;;  f1              4    0[COMMON] unsigned char 
  2536 ;; Auto vars:     Size  Location     Type
  2537 ;;  exp1            1   10[COMMON] unsigned char 
  2538 ;;  sign1           1    9[COMMON] unsigned char 
  2539 ;; Return value:  Size  Location     Type
  2540 ;;                  4    0[COMMON] long 
  2541 ;; Registers used:
  2542 ;;		wreg, status,2, status,0
  2543 ;; Tracked objects:
  2544 ;;		On entry : 0/0
  2545 ;;		On exit  : 0/0
  2546 ;;		Unchanged: 0/0
  2547 ;; Data sizes:     COMMON   BANK0   BANK1   BANK3   BANK2
  2548 ;;      Params:         4       0       0       0       0
  2549 ;;      Locals:         2       0       0       0       0
  2550 ;;      Temps:          5       0       0       0       0
  2551 ;;      Totals:        11       0       0       0       0
  2552 ;;Total ram usage:       11 bytes
  2553 ;; Hardware stack levels used:    1
  2554 ;; This function calls:
  2555 ;;		Nothing
  2556 ;; This function is called by:
  2557 ;;		_decimalASCII
  2558 ;; This function uses a non-reentrant model
  2559 ;;
  2560                           
  2561                           
  2562                           ;psect for function ___fltol
  2563  0BC9                     ___fltol:
  2564  0BC9                     l2188:	
  2565                           ;incstack = 0
  2566                           ; Regs used in ___fltol: [wreg+status,2+status,0]
  2567                           
  2568  0BC9  1003               	clrc
  2569  0BCA  0D72               	rlf	___fltol@f1+2,w
  2570  0BCB  0D73               	rlf	___fltol@f1+3,w
  2571  0BCC  00F4               	movwf	??___fltol
  2572  0BCD  0874               	movf	??___fltol,w
  2573  0BCE  00FA               	movwf	___fltol@exp1
  2574  0BCF  087A               	movf	___fltol@exp1,w
  2575  0BD0  1D03               	btfss	3,2
  2576  0BD1  2BD3               	goto	u2791
  2577  0BD2  2BD4               	goto	u2790
  2578  0BD3                     u2791:
  2579  0BD3  2BDD               	goto	l2194
  2580  0BD4                     u2790:
  2581  0BD4                     l2190:
  2582  0BD4  3000               	movlw	0
  2583  0BD5  00F3               	movwf	?___fltol+3
  2584  0BD6  3000               	movlw	0
  2585  0BD7  00F2               	movwf	?___fltol+2
  2586  0BD8  3000               	movlw	0
  2587  0BD9  00F1               	movwf	?___fltol+1
  2588  0BDA  3000               	movlw	0
  2589  0BDB  00F0               	movwf	?___fltol
  2590  0BDC  2C42               	goto	l486
  2591  0BDD                     l2194:
  2592  0BDD  0870               	movf	___fltol@f1,w
  2593  0BDE  00F4               	movwf	??___fltol
  2594  0BDF  0871               	movf	___fltol@f1+1,w
  2595  0BE0  00F5               	movwf	??___fltol+1
  2596  0BE1  0872               	movf	___fltol@f1+2,w
  2597  0BE2  00F6               	movwf	??___fltol+2
  2598  0BE3  0873               	movf	___fltol@f1+3,w
  2599  0BE4  00F7               	movwf	??___fltol+3
  2600  0BE5  301F               	movlw	31
  2601  0BE6                     u2805:
  2602  0BE6  1003               	clrc
  2603  0BE7  0CF7               	rrf	??___fltol+3,f
  2604  0BE8  0CF6               	rrf	??___fltol+2,f
  2605  0BE9  0CF5               	rrf	??___fltol+1,f
  2606  0BEA  0CF4               	rrf	??___fltol,f
  2607  0BEB                     u2800:
  2608  0BEB  3EFF               	addlw	-1
  2609  0BEC  1D03               	skipz
  2610  0BED  2BE6               	goto	u2805
  2611  0BEE  0874               	movf	??___fltol,w
  2612  0BEF  00F8               	movwf	??___fltol+4
  2613  0BF0  0878               	movf	??___fltol+4,w
  2614  0BF1  00F9               	movwf	___fltol@sign1
  2615  0BF2                     l2196:
  2616  0BF2  17F2               	bsf	___fltol@f1+2,7
  2617  0BF3                     l2198:
  2618  0BF3  30FF               	movlw	255
  2619  0BF4  05F0               	andwf	___fltol@f1,f
  2620  0BF5  30FF               	movlw	255
  2621  0BF6  05F1               	andwf	___fltol@f1+1,f
  2622  0BF7  30FF               	movlw	255
  2623  0BF8  05F2               	andwf	___fltol@f1+2,f
  2624  0BF9  3000               	movlw	0
  2625  0BFA  05F3               	andwf	___fltol@f1+3,f
  2626  0BFB                     l2200:
  2627  0BFB  3096               	movlw	150
  2628  0BFC  02FA               	subwf	___fltol@exp1,f
  2629  0BFD                     l2202:
  2630  0BFD  1FFA               	btfss	___fltol@exp1,7
  2631  0BFE  2C00               	goto	u2811
  2632  0BFF  2C01               	goto	u2810
  2633  0C00                     u2811:
  2634  0C00  2C1B               	goto	l2212
  2635  0C01                     u2810:
  2636  0C01                     l2204:
  2637  0C01  087A               	movf	___fltol@exp1,w
  2638  0C02  3A80               	xorlw	128
  2639  0C03  3E97               	addlw	151
  2640  0C04  1803               	skipnc
  2641  0C05  2C07               	goto	u2821
  2642  0C06  2C08               	goto	u2820
  2643  0C07                     u2821:
  2644  0C07  2C09               	goto	l2210
  2645  0C08                     u2820:
  2646  0C08  2BD4               	goto	l2190
  2647  0C09                     l2210:
  2648  0C09  3001               	movlw	1
  2649  0C0A                     u2835:
  2650  0C0A  1003               	clrc
  2651  0C0B  0CF3               	rrf	___fltol@f1+3,f
  2652  0C0C  0CF2               	rrf	___fltol@f1+2,f
  2653  0C0D  0CF1               	rrf	___fltol@f1+1,f
  2654  0C0E  0CF0               	rrf	___fltol@f1,f
  2655  0C0F  3EFF               	addlw	-1
  2656  0C10  1D03               	skipz
  2657  0C11  2C0A               	goto	u2835
  2658  0C12  3001               	movlw	1
  2659  0C13  00F4               	movwf	??___fltol
  2660  0C14  0874               	movf	??___fltol,w
  2661  0C15  07FA               	addwf	___fltol@exp1,f
  2662  0C16  1D03               	btfss	3,2
  2663  0C17  2C19               	goto	u2841
  2664  0C18  2C1A               	goto	u2840
  2665  0C19                     u2841:
  2666  0C19  2C09               	goto	l2210
  2667  0C1A                     u2840:
  2668  0C1A  2C32               	goto	l2220
  2669  0C1B                     l2212:
  2670  0C1B  3020               	movlw	32
  2671  0C1C  027A               	subwf	___fltol@exp1,w
  2672  0C1D  1C03               	skipc
  2673  0C1E  2C20               	goto	u2851
  2674  0C1F  2C21               	goto	u2850
  2675  0C20                     u2851:
  2676  0C20  2C2D               	goto	l493
  2677  0C21                     u2850:
  2678  0C21  2BD4               	goto	l2190
  2679  0C22                     l2218:
  2680  0C22  3001               	movlw	1
  2681  0C23  00F4               	movwf	??___fltol
  2682  0C24                     u2865:
  2683  0C24  1003               	clrc
  2684  0C25  0DF0               	rlf	___fltol@f1,f
  2685  0C26  0DF1               	rlf	___fltol@f1+1,f
  2686  0C27  0DF2               	rlf	___fltol@f1+2,f
  2687  0C28  0DF3               	rlf	___fltol@f1+3,f
  2688  0C29  0BF4               	decfsz	??___fltol,f
  2689  0C2A  2C24               	goto	u2865
  2690  0C2B  3001               	movlw	1
  2691  0C2C  02FA               	subwf	___fltol@exp1,f
  2692  0C2D                     l493:
  2693  0C2D  087A               	movf	___fltol@exp1,w
  2694  0C2E  1D03               	btfss	3,2
  2695  0C2F  2C31               	goto	u2871
  2696  0C30  2C32               	goto	u2870
  2697  0C31                     u2871:
  2698  0C31  2C22               	goto	l2218
  2699  0C32                     u2870:
  2700  0C32                     l2220:
  2701  0C32  0879               	movf	___fltol@sign1,w
  2702  0C33  1903               	btfsc	3,2
  2703  0C34  2C36               	goto	u2881
  2704  0C35  2C37               	goto	u2880
  2705  0C36                     u2881:
  2706  0C36  2C42               	goto	l496
  2707  0C37                     u2880:
  2708  0C37                     l2222:
  2709  0C37  09F0               	comf	___fltol@f1,f
  2710  0C38  09F1               	comf	___fltol@f1+1,f
  2711  0C39  09F2               	comf	___fltol@f1+2,f
  2712  0C3A  09F3               	comf	___fltol@f1+3,f
  2713  0C3B  0AF0               	incf	___fltol@f1,f
  2714  0C3C  1903               	skipnz
  2715  0C3D  0AF1               	incf	___fltol@f1+1,f
  2716  0C3E  1903               	skipnz
  2717  0C3F  0AF2               	incf	___fltol@f1+2,f
  2718  0C40  1903               	skipnz
  2719  0C41  0AF3               	incf	___fltol@f1+3,f
  2720  0C42                     l496:
  2721  0C42                     l486:
  2722  0C42  0008               	return
  2723  0C43                     __end_of___fltol:
  2724                           
  2725                           	psect	text8
  2726  0915                     __ptext8:	
  2727 ;; *************** function ___flsub *****************
  2728 ;; Defined at:
  2729 ;;		line 242 in file "C:\Program Files\Microchip\xc8\v2.31\pic\sources\c90\common\sprcadd.c"
  2730 ;; Parameters:    Size  Location     Type
  2731 ;;  a               4    8[BANK0 ] long 
  2732 ;;  b               4   12[BANK0 ] long 
  2733 ;; Auto vars:     Size  Location     Type
  2734 ;;		None
  2735 ;; Return value:  Size  Location     Type
  2736 ;;                  4    8[BANK0 ] long 
  2737 ;; Registers used:
  2738 ;;		wreg, status,2, status,0, btemp+1, pclath, cstack
  2739 ;; Tracked objects:
  2740 ;;		On entry : 0/0
  2741 ;;		On exit  : 0/0
  2742 ;;		Unchanged: 0/0
  2743 ;; Data sizes:     COMMON   BANK0   BANK1   BANK3   BANK2
  2744 ;;      Params:         0       8       0       0       0
  2745 ;;      Locals:         0       0       0       0       0
  2746 ;;      Temps:          0       0       0       0       0
  2747 ;;      Totals:         0       8       0       0       0
  2748 ;;Total ram usage:        8 bytes
  2749 ;; Hardware stack levels used:    1
  2750 ;; Hardware stack levels required when called:    1
  2751 ;; This function calls:
  2752 ;;		___fladd
  2753 ;; This function is called by:
  2754 ;;		_decimalASCII
  2755 ;; This function uses a non-reentrant model
  2756 ;;
  2757                           
  2758                           
  2759                           ;psect for function ___flsub
  2760  0915                     ___flsub:
  2761  0915                     l2224:	
  2762                           ;incstack = 0
  2763                           ; Regs used in ___flsub: [wreg+status,2+status,0+btemp+1+pclath+cstack]
  2764                           
  2765  0915  3080               	movlw	128
  2766  0916  1283               	bcf	3,5	;RP0=0, select bank0
  2767  0917  1303               	bcf	3,6	;RP1=0, select bank0
  2768  0918  06AB               	xorwf	___flsub@a+3,f
  2769  0919                     l2226:
  2770  0919  082F               	movf	___flsub@b+3,w
  2771  091A  00F3               	movwf	___fladd@b+3
  2772  091B  082E               	movf	___flsub@b+2,w
  2773  091C  00F2               	movwf	___fladd@b+2
  2774  091D  082D               	movf	___flsub@b+1,w
  2775  091E  00F1               	movwf	___fladd@b+1
  2776  091F  082C               	movf	___flsub@b,w
  2777  0920  00F0               	movwf	___fladd@b
  2778  0921  082B               	movf	___flsub@a+3,w
  2779  0922  00F7               	movwf	___fladd@a+3
  2780  0923  082A               	movf	___flsub@a+2,w
  2781  0924  00F6               	movwf	___fladd@a+2
  2782  0925  0829               	movf	___flsub@a+1,w
  2783  0926  00F5               	movwf	___fladd@a+1
  2784  0927  0828               	movf	___flsub@a,w
  2785  0928  00F4               	movwf	___fladd@a
  2786  0929  120A  118A  21F9  120A  158A  	fcall	___fladd
  2787  092E  0873               	movf	?___fladd+3,w
  2788  092F  1283               	bcf	3,5	;RP0=0, select bank0
  2789  0930  1303               	bcf	3,6	;RP1=0, select bank0
  2790  0931  00AB               	movwf	?___flsub+3
  2791  0932  0872               	movf	?___fladd+2,w
  2792  0933  00AA               	movwf	?___flsub+2
  2793  0934  0871               	movf	?___fladd+1,w
  2794  0935  00A9               	movwf	?___flsub+1
  2795  0936  0870               	movf	?___fladd,w
  2796  0937  00A8               	movwf	?___flsub
  2797  0938                     l639:
  2798  0938  0008               	return
  2799  0939                     __end_of___flsub:
  2800                           
  2801                           	psect	text9
  2802  01F9                     __ptext9:	
  2803 ;; *************** function ___fladd *****************
  2804 ;; Defined at:
  2805 ;;		line 10 in file "C:\Program Files\Microchip\xc8\v2.31\pic\sources\c90\common\sprcadd.c"
  2806 ;; Parameters:    Size  Location     Type
  2807 ;;  b               4    0[COMMON] long 
  2808 ;;  a               4    4[COMMON] long 
  2809 ;; Auto vars:     Size  Location     Type
  2810 ;;  grs             1   11[COMMON] unsigned char 
  2811 ;;  bexp            1   10[COMMON] unsigned char 
  2812 ;;  aexp            1    9[COMMON] unsigned char 
  2813 ;;  signs           1    8[COMMON] unsigned char 
  2814 ;; Return value:  Size  Location     Type
  2815 ;;                  4    0[COMMON] unsigned char 
  2816 ;; Registers used:
  2817 ;;		wreg, status,2, status,0, btemp+1
  2818 ;; Tracked objects:
  2819 ;;		On entry : 0/0
  2820 ;;		On exit  : 0/0
  2821 ;;		Unchanged: 0/0
  2822 ;; Data sizes:     COMMON   BANK0   BANK1   BANK3   BANK2
  2823 ;;      Params:         8       0       0       0       0
  2824 ;;      Locals:         4       0       0       0       0
  2825 ;;      Temps:          0       8       0       0       0
  2826 ;;      Totals:        12       8       0       0       0
  2827 ;;Total ram usage:       20 bytes
  2828 ;; Hardware stack levels used:    1
  2829 ;; This function calls:
  2830 ;;		Nothing
  2831 ;; This function is called by:
  2832 ;;		___flsub
  2833 ;; This function uses a non-reentrant model
  2834 ;;
  2835                           
  2836                           
  2837                           ;psect for function ___fladd
  2838  01F9                     ___fladd:
  2839  01F9                     l1836:	
  2840                           ;incstack = 0
  2841                           ; Regs used in ___fladd: [wreg+status,2+status,0+btemp+1]
  2842                           
  2843  01F9  0873               	movf	___fladd@b+3,w
  2844  01FA  3980               	andlw	128
  2845  01FB  1283               	bcf	3,5	;RP0=0, select bank0
  2846  01FC  1303               	bcf	3,6	;RP1=0, select bank0
  2847  01FD  00A0               	movwf	??___fladd
  2848  01FE  0820               	movf	??___fladd,w
  2849  01FF  00F8               	movwf	___fladd@signs
  2850  0200                     l1838:
  2851  0200  0873               	movf	___fladd@b+3,w
  2852  0201  00A0               	movwf	??___fladd
  2853  0202  0720               	addwf	??___fladd,w
  2854  0203  00A1               	movwf	??___fladd+1
  2855  0204  0821               	movf	??___fladd+1,w
  2856  0205  00FA               	movwf	___fladd@bexp
  2857  0206                     l1840:
  2858  0206  1FF2               	btfss	___fladd@b+2,7
  2859  0207  2A09               	goto	u2021
  2860  0208  2A0A               	goto	u2020
  2861  0209                     u2021:
  2862  0209  2A0B               	goto	l1844
  2863  020A                     u2020:
  2864  020A                     l1842:
  2865  020A  147A               	bsf	___fladd@bexp,0
  2866  020B                     l1844:
  2867  020B  087A               	movf	___fladd@bexp,w
  2868  020C  1903               	btfsc	3,2
  2869  020D  2A0F               	goto	u2031
  2870  020E  2A10               	goto	u2030
  2871  020F                     u2031:
  2872  020F  2A20               	goto	l1854
  2873  0210                     u2030:
  2874  0210                     l1846:
  2875  0210  0A7A               	incf	___fladd@bexp,w
  2876  0211  1D03               	btfss	3,2
  2877  0212  2A14               	goto	u2041
  2878  0213  2A15               	goto	u2040
  2879  0214                     u2041:
  2880  0214  2A1D               	goto	l1850
  2881  0215                     u2040:
  2882  0215                     l1848:
  2883  0215  3000               	movlw	0
  2884  0216  00F3               	movwf	___fladd@b+3
  2885  0217  3000               	movlw	0
  2886  0218  00F2               	movwf	___fladd@b+2
  2887  0219  3000               	movlw	0
  2888  021A  00F1               	movwf	___fladd@b+1
  2889  021B  3000               	movlw	0
  2890  021C  00F0               	movwf	___fladd@b
  2891  021D                     l1850:
  2892  021D  17F2               	bsf	___fladd@b+2,7
  2893  021E                     l1852:
  2894  021E  01F3               	clrf	___fladd@b+3
  2895  021F  2A28               	goto	l1856
  2896  0220                     l1854:
  2897  0220  3000               	movlw	0
  2898  0221  00F3               	movwf	___fladd@b+3
  2899  0222  3000               	movlw	0
  2900  0223  00F2               	movwf	___fladd@b+2
  2901  0224  3000               	movlw	0
  2902  0225  00F1               	movwf	___fladd@b+1
  2903  0226  3000               	movlw	0
  2904  0227  00F0               	movwf	___fladd@b
  2905  0228                     l1856:
  2906  0228  0877               	movf	___fladd@a+3,w
  2907  0229  3980               	andlw	128
  2908  022A  00A0               	movwf	??___fladd
  2909  022B  0820               	movf	??___fladd,w
  2910  022C  00F9               	movwf	___fladd@aexp
  2911  022D                     l1858:
  2912  022D  0879               	movf	___fladd@aexp,w
  2913  022E  0678               	xorwf	___fladd@signs,w
  2914  022F  1903               	skipnz
  2915  0230  2A32               	goto	u2051
  2916  0231  2A33               	goto	u2050
  2917  0232                     u2051:
  2918  0232  2A34               	goto	l1862
  2919  0233                     u2050:
  2920  0233                     l1860:
  2921  0233  1778               	bsf	___fladd@signs,6
  2922  0234                     l1862:
  2923  0234  0877               	movf	___fladd@a+3,w
  2924  0235  00A0               	movwf	??___fladd
  2925  0236  0720               	addwf	??___fladd,w
  2926  0237  00A1               	movwf	??___fladd+1
  2927  0238  0821               	movf	??___fladd+1,w
  2928  0239  00F9               	movwf	___fladd@aexp
  2929  023A                     l1864:
  2930  023A  1FF6               	btfss	___fladd@a+2,7
  2931  023B  2A3D               	goto	u2061
  2932  023C  2A3E               	goto	u2060
  2933  023D                     u2061:
  2934  023D  2A3F               	goto	l1868
  2935  023E                     u2060:
  2936  023E                     l1866:
  2937  023E  1479               	bsf	___fladd@aexp,0
  2938  023F                     l1868:
  2939  023F  0879               	movf	___fladd@aexp,w
  2940  0240  1903               	btfsc	3,2
  2941  0241  2A43               	goto	u2071
  2942  0242  2A44               	goto	u2070
  2943  0243                     u2071:
  2944  0243  2A54               	goto	l1878
  2945  0244                     u2070:
  2946  0244                     l1870:
  2947  0244  0A79               	incf	___fladd@aexp,w
  2948  0245  1D03               	btfss	3,2
  2949  0246  2A48               	goto	u2081
  2950  0247  2A49               	goto	u2080
  2951  0248                     u2081:
  2952  0248  2A51               	goto	l1874
  2953  0249                     u2080:
  2954  0249                     l1872:
  2955  0249  3000               	movlw	0
  2956  024A  00F7               	movwf	___fladd@a+3
  2957  024B  3000               	movlw	0
  2958  024C  00F6               	movwf	___fladd@a+2
  2959  024D  3000               	movlw	0
  2960  024E  00F5               	movwf	___fladd@a+1
  2961  024F  3000               	movlw	0
  2962  0250  00F4               	movwf	___fladd@a
  2963  0251                     l1874:
  2964  0251  17F6               	bsf	___fladd@a+2,7
  2965  0252                     l1876:
  2966  0252  01F7               	clrf	___fladd@a+3
  2967  0253  2A5C               	goto	l593
  2968  0254                     l1878:
  2969  0254  3000               	movlw	0
  2970  0255  00F7               	movwf	___fladd@a+3
  2971  0256  3000               	movlw	0
  2972  0257  00F6               	movwf	___fladd@a+2
  2973  0258  3000               	movlw	0
  2974  0259  00F5               	movwf	___fladd@a+1
  2975  025A  3000               	movlw	0
  2976  025B  00F4               	movwf	___fladd@a
  2977  025C                     l593:
  2978  025C  087A               	movf	___fladd@bexp,w
  2979  025D  0279               	subwf	___fladd@aexp,w
  2980  025E  1803               	skipnc
  2981  025F  2A61               	goto	u2091
  2982  0260  2A62               	goto	u2090
  2983  0261                     u2091:
  2984  0261  2AA6               	goto	l1914
  2985  0262                     u2090:
  2986  0262                     l1880:
  2987  0262  1F78               	btfss	___fladd@signs,6
  2988  0263  2A65               	goto	u2101
  2989  0264  2A66               	goto	u2100
  2990  0265                     u2101:
  2991  0265  2A6A               	goto	l1884
  2992  0266                     u2100:
  2993  0266                     l1882:
  2994  0266  3080               	movlw	128
  2995  0267  00A0               	movwf	??___fladd
  2996  0268  0820               	movf	??___fladd,w
  2997  0269  06F8               	xorwf	___fladd@signs,f
  2998  026A                     l1884:
  2999  026A  087A               	movf	___fladd@bexp,w
  3000  026B  00A0               	movwf	??___fladd
  3001  026C  0820               	movf	??___fladd,w
  3002  026D  00FB               	movwf	___fladd@grs
  3003  026E                     l1886:
  3004  026E  0879               	movf	___fladd@aexp,w
  3005  026F  00A0               	movwf	??___fladd
  3006  0270  0820               	movf	??___fladd,w
  3007  0271  00FA               	movwf	___fladd@bexp
  3008  0272                     l1888:
  3009  0272  087B               	movf	___fladd@grs,w
  3010  0273  00A0               	movwf	??___fladd
  3011  0274  0820               	movf	??___fladd,w
  3012  0275  00F9               	movwf	___fladd@aexp
  3013  0276                     l1890:
  3014  0276  0870               	movf	___fladd@b,w
  3015  0277  00A0               	movwf	??___fladd
  3016  0278  0820               	movf	??___fladd,w
  3017  0279  00FB               	movwf	___fladd@grs
  3018  027A                     l1892:
  3019  027A  0874               	movf	___fladd@a,w
  3020  027B  00A0               	movwf	??___fladd
  3021  027C  0820               	movf	??___fladd,w
  3022  027D  00F0               	movwf	___fladd@b
  3023  027E                     l1894:
  3024  027E  087B               	movf	___fladd@grs,w
  3025  027F  00A0               	movwf	??___fladd
  3026  0280  0820               	movf	??___fladd,w
  3027  0281  00F4               	movwf	___fladd@a
  3028  0282                     l1896:
  3029  0282  0871               	movf	___fladd@b+1,w
  3030  0283  00A0               	movwf	??___fladd
  3031  0284  0820               	movf	??___fladd,w
  3032  0285  00FB               	movwf	___fladd@grs
  3033  0286                     l1898:
  3034  0286  0875               	movf	___fladd@a+1,w
  3035  0287  00A0               	movwf	??___fladd
  3036  0288  0820               	movf	??___fladd,w
  3037  0289  00F1               	movwf	___fladd@b+1
  3038  028A                     l1900:
  3039  028A  087B               	movf	___fladd@grs,w
  3040  028B  00A0               	movwf	??___fladd
  3041  028C  0820               	movf	??___fladd,w
  3042  028D  00F5               	movwf	___fladd@a+1
  3043  028E                     l1902:
  3044  028E  0872               	movf	___fladd@b+2,w
  3045  028F  00A0               	movwf	??___fladd
  3046  0290  0820               	movf	??___fladd,w
  3047  0291  00FB               	movwf	___fladd@grs
  3048  0292                     l1904:
  3049  0292  0876               	movf	___fladd@a+2,w
  3050  0293  00A0               	movwf	??___fladd
  3051  0294  0820               	movf	??___fladd,w
  3052  0295  00F2               	movwf	___fladd@b+2
  3053  0296                     l1906:
  3054  0296  087B               	movf	___fladd@grs,w
  3055  0297  00A0               	movwf	??___fladd
  3056  0298  0820               	movf	??___fladd,w
  3057  0299  00F6               	movwf	___fladd@a+2
  3058  029A                     l1908:
  3059  029A  0873               	movf	___fladd@b+3,w
  3060  029B  00A0               	movwf	??___fladd
  3061  029C  0820               	movf	??___fladd,w
  3062  029D  00FB               	movwf	___fladd@grs
  3063  029E                     l1910:
  3064  029E  0877               	movf	___fladd@a+3,w
  3065  029F  00A0               	movwf	??___fladd
  3066  02A0  0820               	movf	??___fladd,w
  3067  02A1  00F3               	movwf	___fladd@b+3
  3068  02A2                     l1912:
  3069  02A2  087B               	movf	___fladd@grs,w
  3070  02A3  00A0               	movwf	??___fladd
  3071  02A4  0820               	movf	??___fladd,w
  3072  02A5  00F7               	movwf	___fladd@a+3
  3073  02A6                     l1914:
  3074  02A6  01FB               	clrf	___fladd@grs
  3075  02A7                     l1916:
  3076  02A7  0879               	movf	___fladd@aexp,w
  3077  02A8  00A0               	movwf	??___fladd
  3078  02A9  01A1               	clrf	??___fladd+1
  3079  02AA  0821               	movf	??___fladd+1,w
  3080  02AB  00A3               	movwf	??___fladd+3
  3081  02AC  087A               	movf	___fladd@bexp,w
  3082  02AD  0220               	subwf	??___fladd,w
  3083  02AE  00A2               	movwf	??___fladd+2
  3084  02AF  1C03               	skipc
  3085  02B0  03A3               	decf	??___fladd+3,f
  3086  02B1  0823               	movf	??___fladd+3,w
  3087  02B2  3A80               	xorlw	128
  3088  02B3  00FF               	movwf	btemp+1
  3089  02B4  3080               	movlw	128
  3090  02B5  027F               	subwf	btemp+1,w
  3091  02B6  1D03               	skipz
  3092  02B7  2ABA               	goto	u2115
  3093  02B8  301A               	movlw	26
  3094  02B9  0222               	subwf	??___fladd+2,w
  3095  02BA                     u2115:
  3096  02BA  1C03               	skipc
  3097  02BB  2ABD               	goto	u2111
  3098  02BC  2ABE               	goto	u2110
  3099  02BD                     u2111:
  3100  02BD  2AFF               	goto	l1932
  3101  02BE                     u2110:
  3102  02BE                     l1918:
  3103  02BE  0873               	movf	___fladd@b+3,w
  3104  02BF  0472               	iorwf	___fladd@b+2,w
  3105  02C0  0471               	iorwf	___fladd@b+1,w
  3106  02C1  0470               	iorwf	___fladd@b,w
  3107  02C2  1D03               	skipz
  3108  02C3  2AC5               	goto	u2121
  3109  02C4  2AC7               	goto	u2120
  3110  02C5                     u2121:
  3111  02C5  3001               	movlw	1
  3112  02C6  2AC8               	goto	u2130
  3113  02C7                     u2120:
  3114  02C7  3000               	movlw	0
  3115  02C8                     u2130:
  3116  02C8  1283               	bcf	3,5	;RP0=0, select bank0
  3117  02C9  1303               	bcf	3,6	;RP1=0, select bank0
  3118  02CA  00A0               	movwf	??___fladd
  3119  02CB  0820               	movf	??___fladd,w
  3120  02CC  00FB               	movwf	___fladd@grs
  3121  02CD  3000               	movlw	0
  3122  02CE  00F3               	movwf	___fladd@b+3
  3123  02CF  3000               	movlw	0
  3124  02D0  00F2               	movwf	___fladd@b+2
  3125  02D1  3000               	movlw	0
  3126  02D2  00F1               	movwf	___fladd@b+1
  3127  02D3  3000               	movlw	0
  3128  02D4  00F0               	movwf	___fladd@b
  3129  02D5  0879               	movf	___fladd@aexp,w
  3130  02D6  00A0               	movwf	??___fladd
  3131  02D7  0820               	movf	??___fladd,w
  3132  02D8  00FA               	movwf	___fladd@bexp
  3133  02D9  2B05               	goto	l597
  3134  02DA                     l599:
  3135  02DA  1C7B               	btfss	___fladd@grs,0
  3136  02DB  2ADD               	goto	u2141
  3137  02DC  2ADE               	goto	u2140
  3138  02DD                     u2141:
  3139  02DD  2AE9               	goto	l1922
  3140  02DE                     u2140:
  3141  02DE                     l1920:
  3142  02DE  087B               	movf	___fladd@grs,w
  3143  02DF  1283               	bcf	3,5	;RP0=0, select bank0
  3144  02E0  1303               	bcf	3,6	;RP1=0, select bank0
  3145  02E1  00A0               	movwf	??___fladd
  3146  02E2  1003               	clrc
  3147  02E3  0C20               	rrf	??___fladd,w
  3148  02E4  3801               	iorlw	1
  3149  02E5  00A1               	movwf	??___fladd+1
  3150  02E6  0821               	movf	??___fladd+1,w
  3151  02E7  00FB               	movwf	___fladd@grs
  3152  02E8  2AEB               	goto	l1924
  3153  02E9                     l1922:
  3154  02E9  1003               	clrc
  3155  02EA  0CFB               	rrf	___fladd@grs,f
  3156  02EB                     l1924:
  3157  02EB  1C70               	btfss	___fladd@b,0
  3158  02EC  2AEE               	goto	u2151
  3159  02ED  2AEF               	goto	u2150
  3160  02EE                     u2151:
  3161  02EE  2AF0               	goto	l1928
  3162  02EF                     u2150:
  3163  02EF                     l1926:
  3164  02EF  17FB               	bsf	___fladd@grs,7
  3165  02F0                     l1928:
  3166  02F0  3001               	movlw	1
  3167  02F1  1283               	bcf	3,5	;RP0=0, select bank0
  3168  02F2  1303               	bcf	3,6	;RP1=0, select bank0
  3169  02F3  00A0               	movwf	??___fladd
  3170  02F4                     u2165:
  3171  02F4  0D73               	rlf	___fladd@b+3,w
  3172  02F5  0CF3               	rrf	___fladd@b+3,f
  3173  02F6  0CF2               	rrf	___fladd@b+2,f
  3174  02F7  0CF1               	rrf	___fladd@b+1,f
  3175  02F8  0CF0               	rrf	___fladd@b,f
  3176  02F9  0BA0               	decfsz	??___fladd& (0+127),f
  3177  02FA  2AF4               	goto	u2165
  3178  02FB                     l1930:
  3179  02FB  3001               	movlw	1
  3180  02FC  00A0               	movwf	??___fladd
  3181  02FD  0820               	movf	??___fladd,w
  3182  02FE  07FA               	addwf	___fladd@bexp,f
  3183  02FF                     l1932:
  3184  02FF  0879               	movf	___fladd@aexp,w
  3185  0300  027A               	subwf	___fladd@bexp,w
  3186  0301  1C03               	skipc
  3187  0302  2B04               	goto	u2171
  3188  0303  2B05               	goto	u2170
  3189  0304                     u2171:
  3190  0304  2ADA               	goto	l599
  3191  0305                     u2170:
  3192  0305                     l597:
  3193  0305  1B78               	btfsc	___fladd@signs,6
  3194  0306  2B08               	goto	u2181
  3195  0307  2B09               	goto	u2180
  3196  0308                     u2181:
  3197  0308  2B58               	goto	l1958
  3198  0309                     u2180:
  3199  0309                     l1934:
  3200  0309  087A               	movf	___fladd@bexp,w
  3201  030A  1D03               	btfss	3,2
  3202  030B  2B0D               	goto	u2191
  3203  030C  2B0E               	goto	u2190
  3204  030D                     u2191:
  3205  030D  2B17               	goto	l1940
  3206  030E                     u2190:
  3207  030E                     l1936:
  3208  030E  3000               	movlw	0
  3209  030F  00F3               	movwf	?___fladd+3
  3210  0310  3000               	movlw	0
  3211  0311  00F2               	movwf	?___fladd+2
  3212  0312  3000               	movlw	0
  3213  0313  00F1               	movwf	?___fladd+1
  3214  0314  3000               	movlw	0
  3215  0315  00F0               	movwf	?___fladd
  3216  0316  2C90               	goto	l606
  3217  0317                     l1940:
  3218  0317  0874               	movf	___fladd@a,w
  3219  0318  07F0               	addwf	___fladd@b,f
  3220  0319  0875               	movf	___fladd@a+1,w
  3221  031A  1103               	clrz
  3222  031B  1803               	skipnc
  3223  031C  3E01               	addlw	1
  3224  031D  1903               	skipnz
  3225  031E  2B20               	goto	u2201
  3226  031F  07F1               	addwf	___fladd@b+1,f
  3227  0320                     u2201:
  3228  0320  0876               	movf	___fladd@a+2,w
  3229  0321  1103               	clrz
  3230  0322  1803               	skipnc
  3231  0323  3E01               	addlw	1
  3232  0324  1903               	skipnz
  3233  0325  2B27               	goto	u2202
  3234  0326  07F2               	addwf	___fladd@b+2,f
  3235  0327                     u2202:
  3236  0327  0877               	movf	___fladd@a+3,w
  3237  0328  1103               	clrz
  3238  0329  1803               	skipnc
  3239  032A  3E01               	addlw	1
  3240  032B  1903               	skipnz
  3241  032C  2B2E               	goto	u2203
  3242  032D  07F3               	addwf	___fladd@b+3,f
  3243  032E                     u2203:
  3244  032E                     l1942:
  3245  032E  1C73               	btfss	___fladd@b+3,0
  3246  032F  2B31               	goto	u2211
  3247  0330  2B32               	goto	u2210
  3248  0331                     u2211:
  3249  0331  2C10               	goto	l1992
  3250  0332                     u2210:
  3251  0332                     l1944:
  3252  0332  1C7B               	btfss	___fladd@grs,0
  3253  0333  2B35               	goto	u2221
  3254  0334  2B36               	goto	u2220
  3255  0335                     u2221:
  3256  0335  2B41               	goto	l1948
  3257  0336                     u2220:
  3258  0336                     l1946:
  3259  0336  087B               	movf	___fladd@grs,w
  3260  0337  1283               	bcf	3,5	;RP0=0, select bank0
  3261  0338  1303               	bcf	3,6	;RP1=0, select bank0
  3262  0339  00A0               	movwf	??___fladd
  3263  033A  1003               	clrc
  3264  033B  0C20               	rrf	??___fladd,w
  3265  033C  3801               	iorlw	1
  3266  033D  00A1               	movwf	??___fladd+1
  3267  033E  0821               	movf	??___fladd+1,w
  3268  033F  00FB               	movwf	___fladd@grs
  3269  0340  2B43               	goto	l1950
  3270  0341                     l1948:
  3271  0341  1003               	clrc
  3272  0342  0CFB               	rrf	___fladd@grs,f
  3273  0343                     l1950:
  3274  0343  1C70               	btfss	___fladd@b,0
  3275  0344  2B46               	goto	u2231
  3276  0345  2B47               	goto	u2230
  3277  0346                     u2231:
  3278  0346  2B48               	goto	l1954
  3279  0347                     u2230:
  3280  0347                     l1952:
  3281  0347  17FB               	bsf	___fladd@grs,7
  3282  0348                     l1954:
  3283  0348  3001               	movlw	1
  3284  0349  1283               	bcf	3,5	;RP0=0, select bank0
  3285  034A  1303               	bcf	3,6	;RP1=0, select bank0
  3286  034B  00A0               	movwf	??___fladd
  3287  034C                     u2245:
  3288  034C  0D73               	rlf	___fladd@b+3,w
  3289  034D  0CF3               	rrf	___fladd@b+3,f
  3290  034E  0CF2               	rrf	___fladd@b+2,f
  3291  034F  0CF1               	rrf	___fladd@b+1,f
  3292  0350  0CF0               	rrf	___fladd@b,f
  3293  0351  0BA0               	decfsz	??___fladd& (0+127),f
  3294  0352  2B4C               	goto	u2245
  3295  0353                     l1956:
  3296  0353  3001               	movlw	1
  3297  0354  00A0               	movwf	??___fladd
  3298  0355  0820               	movf	??___fladd,w
  3299  0356  07FA               	addwf	___fladd@bexp,f
  3300  0357  2C10               	goto	l1992
  3301  0358                     l1958:
  3302  0358  0873               	movf	___fladd@b+3,w
  3303  0359  3A80               	xorlw	128
  3304  035A  00FF               	movwf	btemp+1
  3305  035B  0877               	movf	___fladd@a+3,w
  3306  035C  3A80               	xorlw	128
  3307  035D  027F               	subwf	btemp+1,w
  3308  035E  1D03               	skipz
  3309  035F  2B6A               	goto	u2253
  3310  0360  0876               	movf	___fladd@a+2,w
  3311  0361  0272               	subwf	___fladd@b+2,w
  3312  0362  1D03               	skipz
  3313  0363  2B6A               	goto	u2253
  3314  0364  0875               	movf	___fladd@a+1,w
  3315  0365  0271               	subwf	___fladd@b+1,w
  3316  0366  1D03               	skipz
  3317  0367  2B6A               	goto	u2253
  3318  0368  0874               	movf	___fladd@a,w
  3319  0369  0270               	subwf	___fladd@b,w
  3320  036A                     u2253:
  3321  036A  1803               	skipnc
  3322  036B  2B6D               	goto	u2251
  3323  036C  2B6E               	goto	u2250
  3324  036D                     u2251:
  3325  036D  2BC8               	goto	l1968
  3326  036E                     u2250:
  3327  036E                     l1960:
  3328  036E  30FF               	movlw	255
  3329  036F  1283               	bcf	3,5	;RP0=0, select bank0
  3330  0370  1303               	bcf	3,6	;RP1=0, select bank0
  3331  0371  00A0               	movwf	??___fladd
  3332  0372  30FF               	movlw	255
  3333  0373  00A1               	movwf	??___fladd+1
  3334  0374  30FF               	movlw	255
  3335  0375  00A2               	movwf	??___fladd+2
  3336  0376  30FF               	movlw	255
  3337  0377  00A3               	movwf	??___fladd+3
  3338  0378  0874               	movf	___fladd@a,w
  3339  0379  00A4               	movwf	??___fladd+4
  3340  037A  0875               	movf	___fladd@a+1,w
  3341  037B  00A5               	movwf	??___fladd+5
  3342  037C  0876               	movf	___fladd@a+2,w
  3343  037D  00A6               	movwf	??___fladd+6
  3344  037E  0877               	movf	___fladd@a+3,w
  3345  037F  00A7               	movwf	??___fladd+7
  3346  0380  0870               	movf	___fladd@b,w
  3347  0381  02A4               	subwf	??___fladd+4,f
  3348  0382  0871               	movf	___fladd@b+1,w
  3349  0383  1C03               	skipc
  3350  0384  0F71               	incfsz	___fladd@b+1,w
  3351  0385  2B87               	goto	u2261
  3352  0386  2B88               	goto	u2262
  3353  0387                     u2261:
  3354  0387  02A5               	subwf	??___fladd+5,f
  3355  0388                     u2262:
  3356  0388  0872               	movf	___fladd@b+2,w
  3357  0389  1C03               	skipc
  3358  038A  0F72               	incfsz	___fladd@b+2,w
  3359  038B  2B8D               	goto	u2263
  3360  038C  2B8E               	goto	u2264
  3361  038D                     u2263:
  3362  038D  02A6               	subwf	??___fladd+6,f
  3363  038E                     u2264:
  3364  038E  0873               	movf	___fladd@b+3,w
  3365  038F  1C03               	skipc
  3366  0390  0F73               	incfsz	___fladd@b+3,w
  3367  0391  2B93               	goto	u2265
  3368  0392  2B94               	goto	u2266
  3369  0393                     u2265:
  3370  0393  02A7               	subwf	??___fladd+7,f
  3371  0394                     u2266:
  3372  0394  0824               	movf	??___fladd+4,w
  3373  0395  07A0               	addwf	??___fladd,f
  3374  0396  0825               	movf	??___fladd+5,w
  3375  0397  1803               	skipnc
  3376  0398  0F25               	incfsz	??___fladd+5,w
  3377  0399  2B9B               	goto	u2270
  3378  039A  2B9C               	goto	u2271
  3379  039B                     u2270:
  3380  039B  07A1               	addwf	??___fladd+1,f
  3381  039C                     u2271:
  3382  039C  0826               	movf	??___fladd+6,w
  3383  039D  1803               	skipnc
  3384  039E  0F26               	incfsz	??___fladd+6,w
  3385  039F  2BA1               	goto	u2272
  3386  03A0  2BA2               	goto	u2273
  3387  03A1                     u2272:
  3388  03A1  07A2               	addwf	??___fladd+2,f
  3389  03A2                     u2273:
  3390  03A2  0827               	movf	??___fladd+7,w
  3391  03A3  1803               	skipnc
  3392  03A4  0A27               	incf	??___fladd+7,w
  3393  03A5  07A3               	addwf	??___fladd+3,f
  3394  03A6  0823               	movf	??___fladd+3,w
  3395  03A7  00F3               	movwf	___fladd@b+3
  3396  03A8  0822               	movf	??___fladd+2,w
  3397  03A9  00F2               	movwf	___fladd@b+2
  3398  03AA  0821               	movf	??___fladd+1,w
  3399  03AB  00F1               	movwf	___fladd@b+1
  3400  03AC  0820               	movf	??___fladd,w
  3401  03AD  00F0               	movwf	___fladd@b
  3402  03AE                     l1962:
  3403  03AE  3080               	movlw	128
  3404  03AF  00A0               	movwf	??___fladd
  3405  03B0  0820               	movf	??___fladd,w
  3406  03B1  06F8               	xorwf	___fladd@signs,f
  3407  03B2  09FB               	comf	___fladd@grs,f
  3408  03B3  0AFB               	incf	___fladd@grs,f
  3409  03B4                     l1964:
  3410  03B4  087B               	movf	___fladd@grs,w
  3411  03B5  1D03               	btfss	3,2
  3412  03B6  2BB8               	goto	u2281
  3413  03B7  2BB9               	goto	u2280
  3414  03B8                     u2281:
  3415  03B8  2BD6               	goto	l614
  3416  03B9                     u2280:
  3417  03B9                     l1966:
  3418  03B9  3001               	movlw	1
  3419  03BA  07F0               	addwf	___fladd@b,f
  3420  03BB  3000               	movlw	0
  3421  03BC  1803               	skipnc
  3422  03BD  3001               	movlw	1
  3423  03BE  07F1               	addwf	___fladd@b+1,f
  3424  03BF  3000               	movlw	0
  3425  03C0  1803               	skipnc
  3426  03C1  3001               	movlw	1
  3427  03C2  07F2               	addwf	___fladd@b+2,f
  3428  03C3  3000               	movlw	0
  3429  03C4  1803               	skipnc
  3430  03C5  3001               	movlw	1
  3431  03C6  07F3               	addwf	___fladd@b+3,f
  3432  03C7  2BD6               	goto	l614
  3433  03C8                     l1968:
  3434  03C8  0874               	movf	___fladd@a,w
  3435  03C9  02F0               	subwf	___fladd@b,f
  3436  03CA  0875               	movf	___fladd@a+1,w
  3437  03CB  1C03               	skipc
  3438  03CC  0F75               	incfsz	___fladd@a+1,w
  3439  03CD  02F1               	subwf	___fladd@b+1,f
  3440  03CE  0876               	movf	___fladd@a+2,w
  3441  03CF  1C03               	skipc
  3442  03D0  0F76               	incfsz	___fladd@a+2,w
  3443  03D1  02F2               	subwf	___fladd@b+2,f
  3444  03D2  0877               	movf	___fladd@a+3,w
  3445  03D3  1C03               	skipc
  3446  03D4  0F77               	incfsz	___fladd@a+3,w
  3447  03D5  02F3               	subwf	___fladd@b+3,f
  3448  03D6                     l614:
  3449  03D6  0873               	movf	___fladd@b+3,w
  3450  03D7  0472               	iorwf	___fladd@b+2,w
  3451  03D8  0471               	iorwf	___fladd@b+1,w
  3452  03D9  0470               	iorwf	___fladd@b,w
  3453  03DA  1D03               	skipz
  3454  03DB  2BDD               	goto	u2291
  3455  03DC  2BDE               	goto	u2290
  3456  03DD                     u2291:
  3457  03DD  2C0C               	goto	l1990
  3458  03DE                     u2290:
  3459  03DE                     l1970:
  3460  03DE  087B               	movf	___fladd@grs,w
  3461  03DF  1D03               	btfss	3,2
  3462  03E0  2BE2               	goto	u2301
  3463  03E1  2BE3               	goto	u2300
  3464  03E2                     u2301:
  3465  03E2  2C0C               	goto	l1990
  3466  03E3                     u2300:
  3467  03E3                     l1972:
  3468  03E3  3000               	movlw	0
  3469  03E4  00F3               	movwf	?___fladd+3
  3470  03E5  3000               	movlw	0
  3471  03E6  00F2               	movwf	?___fladd+2
  3472  03E7  3000               	movlw	0
  3473  03E8  00F1               	movwf	?___fladd+1
  3474  03E9  3000               	movlw	0
  3475  03EA  00F0               	movwf	?___fladd
  3476  03EB  2C90               	goto	l606
  3477  03EC                     l1976:
  3478  03EC  3001               	movlw	1
  3479  03ED  1283               	bcf	3,5	;RP0=0, select bank0
  3480  03EE  1303               	bcf	3,6	;RP1=0, select bank0
  3481  03EF  00A0               	movwf	??___fladd
  3482  03F0                     u2315:
  3483  03F0  1003               	clrc
  3484  03F1  0DF0               	rlf	___fladd@b,f
  3485  03F2  0DF1               	rlf	___fladd@b+1,f
  3486  03F3  0DF2               	rlf	___fladd@b+2,f
  3487  03F4  0DF3               	rlf	___fladd@b+3,f
  3488  03F5  0BA0               	decfsz	??___fladd,f
  3489  03F6  2BF0               	goto	u2315
  3490  03F7                     l1978:
  3491  03F7  1FFB               	btfss	___fladd@grs,7
  3492  03F8  2BFA               	goto	u2321
  3493  03F9  2BFB               	goto	u2320
  3494  03FA                     u2321:
  3495  03FA  2BFC               	goto	l618
  3496  03FB                     u2320:
  3497  03FB                     l1980:
  3498  03FB  1470               	bsf	___fladd@b,0
  3499  03FC                     l618:
  3500  03FC  1C7B               	btfss	___fladd@grs,0
  3501  03FD  2BFF               	goto	u2331
  3502  03FE  2C00               	goto	u2330
  3503  03FF                     u2331:
  3504  03FF  2C03               	goto	l1984
  3505  0400                     u2330:
  3506  0400                     l1982:
  3507  0400  1403               	setc
  3508  0401  0DFB               	rlf	___fladd@grs,f
  3509  0402  2C05               	goto	l1986
  3510  0403                     l1984:
  3511  0403  1003               	clrc
  3512  0404  0DFB               	rlf	___fladd@grs,f
  3513  0405                     l1986:
  3514  0405  087A               	movf	___fladd@bexp,w
  3515  0406  1903               	btfsc	3,2
  3516  0407  2C09               	goto	u2341
  3517  0408  2C0A               	goto	u2340
  3518  0409                     u2341:
  3519  0409  2C0C               	goto	l1990
  3520  040A                     u2340:
  3521  040A                     l1988:
  3522  040A  3001               	movlw	1
  3523  040B  02FA               	subwf	___fladd@bexp,f
  3524  040C                     l1990:
  3525  040C  1FF2               	btfss	___fladd@b+2,7
  3526  040D  2C0F               	goto	u2351
  3527  040E  2C10               	goto	u2350
  3528  040F                     u2351:
  3529  040F  2BEC               	goto	l1976
  3530  0410                     u2350:
  3531  0410                     l1992:
  3532  0410  01F9               	clrf	___fladd@aexp
  3533  0411                     l1994:
  3534  0411  1FFB               	btfss	___fladd@grs,7
  3535  0412  2C14               	goto	u2361
  3536  0413  2C15               	goto	u2360
  3537  0414                     u2361:
  3538  0414  2C23               	goto	l2002
  3539  0415                     u2360:
  3540  0415                     l1996:
  3541  0415  087B               	movf	___fladd@grs,w
  3542  0416  397F               	andlw	127
  3543  0417  1903               	btfsc	3,2
  3544  0418  2C1A               	goto	u2371
  3545  0419  2C1B               	goto	u2370
  3546  041A                     u2371:
  3547  041A  2C1E               	goto	l624
  3548  041B                     u2370:
  3549  041B                     l1998:
  3550  041B  01F9               	clrf	___fladd@aexp
  3551  041C  0AF9               	incf	___fladd@aexp,f
  3552  041D  2C23               	goto	l2002
  3553  041E                     l624:
  3554  041E  1C70               	btfss	___fladd@b,0
  3555  041F  2C21               	goto	u2381
  3556  0420  2C22               	goto	u2380
  3557  0421                     u2381:
  3558  0421  2C23               	goto	l2002
  3559  0422                     u2380:
  3560  0422  2C1B               	goto	l1998
  3561  0423                     l2002:
  3562  0423  0879               	movf	___fladd@aexp,w
  3563  0424  1903               	btfsc	3,2
  3564  0425  2C27               	goto	u2391
  3565  0426  2C28               	goto	u2390
  3566  0427                     u2391:
  3567  0427  2C5E               	goto	l627
  3568  0428                     u2390:
  3569  0428                     l2004:
  3570  0428  3001               	movlw	1
  3571  0429  07F0               	addwf	___fladd@b,f
  3572  042A  3000               	movlw	0
  3573  042B  1803               	skipnc
  3574  042C  3001               	movlw	1
  3575  042D  07F1               	addwf	___fladd@b+1,f
  3576  042E  3000               	movlw	0
  3577  042F  1803               	skipnc
  3578  0430  3001               	movlw	1
  3579  0431  07F2               	addwf	___fladd@b+2,f
  3580  0432  3000               	movlw	0
  3581  0433  1803               	skipnc
  3582  0434  3001               	movlw	1
  3583  0435  07F3               	addwf	___fladd@b+3,f
  3584  0436                     l2006:
  3585  0436  1C73               	btfss	___fladd@b+3,0
  3586  0437  2C39               	goto	u2401
  3587  0438  2C3A               	goto	u2400
  3588  0439                     u2401:
  3589  0439  2C5E               	goto	l627
  3590  043A                     u2400:
  3591  043A                     l2008:
  3592  043A  0870               	movf	___fladd@b,w
  3593  043B  1283               	bcf	3,5	;RP0=0, select bank0
  3594  043C  1303               	bcf	3,6	;RP1=0, select bank0
  3595  043D  00A0               	movwf	??___fladd
  3596  043E  0871               	movf	___fladd@b+1,w
  3597  043F  00A1               	movwf	??___fladd+1
  3598  0440  0872               	movf	___fladd@b+2,w
  3599  0441  00A2               	movwf	??___fladd+2
  3600  0442  0873               	movf	___fladd@b+3,w
  3601  0443  00A3               	movwf	??___fladd+3
  3602  0444  3001               	movlw	1
  3603  0445  00A4               	movwf	??___fladd+4
  3604  0446                     u2415:
  3605  0446  0D23               	rlf	??___fladd+3,w
  3606  0447  0CA3               	rrf	??___fladd+3,f
  3607  0448  0CA2               	rrf	??___fladd+2,f
  3608  0449  0CA1               	rrf	??___fladd+1,f
  3609  044A  0CA0               	rrf	??___fladd,f
  3610  044B                     u2410:
  3611  044B  0BA4               	decfsz	??___fladd+4,f
  3612  044C  2C46               	goto	u2415
  3613  044D  0823               	movf	??___fladd+3,w
  3614  044E  00F3               	movwf	___fladd@b+3
  3615  044F  0822               	movf	??___fladd+2,w
  3616  0450  00F2               	movwf	___fladd@b+2
  3617  0451  0821               	movf	??___fladd+1,w
  3618  0452  00F1               	movwf	___fladd@b+1
  3619  0453  0820               	movf	??___fladd,w
  3620  0454  00F0               	movwf	___fladd@b
  3621  0455  0A7A               	incf	___fladd@bexp,w
  3622  0456  1903               	btfsc	3,2
  3623  0457  2C59               	goto	u2421
  3624  0458  2C5A               	goto	u2420
  3625  0459                     u2421:
  3626  0459  2C5E               	goto	l627
  3627  045A                     u2420:
  3628  045A                     l2010:
  3629  045A  3001               	movlw	1
  3630  045B  00A0               	movwf	??___fladd
  3631  045C  0820               	movf	??___fladd,w
  3632  045D  07FA               	addwf	___fladd@bexp,f
  3633  045E                     l627:
  3634  045E  0A7A               	incf	___fladd@bexp,w
  3635  045F  1903               	btfsc	3,2
  3636  0460  2C62               	goto	u2431
  3637  0461  2C63               	goto	u2430
  3638  0462                     u2431:
  3639  0462  2C68               	goto	l2014
  3640  0463                     u2430:
  3641  0463                     l2012:
  3642  0463  087A               	movf	___fladd@bexp,w
  3643  0464  1D03               	btfss	3,2
  3644  0465  2C67               	goto	u2441
  3645  0466  2C68               	goto	u2440
  3646  0467                     u2441:
  3647  0467  2C76               	goto	l2020
  3648  0468                     u2440:
  3649  0468                     l2014:
  3650  0468  3000               	movlw	0
  3651  0469  00F3               	movwf	___fladd@b+3
  3652  046A  3000               	movlw	0
  3653  046B  00F2               	movwf	___fladd@b+2
  3654  046C  3000               	movlw	0
  3655  046D  00F1               	movwf	___fladd@b+1
  3656  046E  3000               	movlw	0
  3657  046F  00F0               	movwf	___fladd@b
  3658  0470                     l2016:
  3659  0470  087A               	movf	___fladd@bexp,w
  3660  0471  1D03               	btfss	3,2
  3661  0472  2C74               	goto	u2451
  3662  0473  2C75               	goto	u2450
  3663  0474                     u2451:
  3664  0474  2C76               	goto	l2020
  3665  0475                     u2450:
  3666  0475                     l2018:
  3667  0475  01F8               	clrf	___fladd@signs
  3668  0476                     l2020:
  3669  0476  1C7A               	btfss	___fladd@bexp,0
  3670  0477  2C79               	goto	u2461
  3671  0478  2C7A               	goto	u2460
  3672  0479                     u2461:
  3673  0479  2C7C               	goto	l2024
  3674  047A                     u2460:
  3675  047A                     l2022:
  3676  047A  17F2               	bsf	___fladd@b+2,7
  3677  047B  2C82               	goto	l635
  3678  047C                     l2024:
  3679  047C  307F               	movlw	127
  3680  047D  1283               	bcf	3,5	;RP0=0, select bank0
  3681  047E  1303               	bcf	3,6	;RP1=0, select bank0
  3682  047F  00A0               	movwf	??___fladd
  3683  0480  0820               	movf	??___fladd,w
  3684  0481  05F2               	andwf	___fladd@b+2,f
  3685  0482                     l635:
  3686  0482  087A               	movf	___fladd@bexp,w
  3687  0483  1283               	bcf	3,5	;RP0=0, select bank0
  3688  0484  1303               	bcf	3,6	;RP1=0, select bank0
  3689  0485  00A0               	movwf	??___fladd
  3690  0486  1003               	clrc
  3691  0487  0C20               	rrf	??___fladd,w
  3692  0488  00A1               	movwf	??___fladd+1
  3693  0489  0821               	movf	??___fladd+1,w
  3694  048A  00F3               	movwf	___fladd@b+3
  3695  048B                     l2026:
  3696  048B  1FF8               	btfss	___fladd@signs,7
  3697  048C  2C8E               	goto	u2471
  3698  048D  2C8F               	goto	u2470
  3699  048E                     u2471:
  3700  048E  2C90               	goto	l636
  3701  048F                     u2470:
  3702  048F                     l2028:
  3703  048F  17F3               	bsf	___fladd@b+3,7
  3704  0490                     l636:
  3705  0490                     l606:
  3706  0490  0008               	return
  3707  0491                     __end_of___fladd:
  3708                           
  3709                           	psect	text10
  3710  0491                     __ptext10:	
  3711 ;; *************** function ___flmul *****************
  3712 ;; Defined at:
  3713 ;;		line 8 in file "C:\Program Files\Microchip\xc8\v2.31\pic\sources\c90\common\sprcmul.c"
  3714 ;; Parameters:    Size  Location     Type
  3715 ;;  b               4    0[BANK0 ] unsigned char 
  3716 ;;  a               4    4[BANK0 ] unsigned char 
  3717 ;; Auto vars:     Size  Location     Type
  3718 ;;  prod            4   15[BANK0 ] struct .
  3719 ;;  grs             4    9[BANK0 ] unsigned long 
  3720 ;;  temp            2   19[BANK0 ] struct .
  3721 ;;  bexp            1   14[BANK0 ] unsigned char 
  3722 ;;  aexp            1   13[BANK0 ] unsigned char 
  3723 ;;  sign            1    8[BANK0 ] unsigned char 
  3724 ;; Return value:  Size  Location     Type
  3725 ;;                  4    0[BANK0 ] unsigned char 
  3726 ;; Registers used:
  3727 ;;		wreg, status,2, status,0, btemp+1, pclath, cstack
  3728 ;; Tracked objects:
  3729 ;;		On entry : 0/0
  3730 ;;		On exit  : 0/0
  3731 ;;		Unchanged: 0/0
  3732 ;; Data sizes:     COMMON   BANK0   BANK1   BANK3   BANK2
  3733 ;;      Params:         0       8       0       0       0
  3734 ;;      Locals:         0      13       0       0       0
  3735 ;;      Temps:          5       0       0       0       0
  3736 ;;      Totals:         5      21       0       0       0
  3737 ;;Total ram usage:       26 bytes
  3738 ;; Hardware stack levels used:    1
  3739 ;; Hardware stack levels required when called:    1
  3740 ;; This function calls:
  3741 ;;		__Umul8_16
  3742 ;; This function is called by:
  3743 ;;		_decimalASCII
  3744 ;; This function uses a non-reentrant model
  3745 ;;
  3746                           
  3747                           
  3748                           ;psect for function ___flmul
  3749  0491                     ___flmul:
  3750  0491                     l2372:	
  3751                           ;incstack = 0
  3752                           ; Regs used in ___flmul: [wreg+status,2+status,0+btemp+1+pclath+cstack]
  3753                           
  3754  0491  1283               	bcf	3,5	;RP0=0, select bank0
  3755  0492  1303               	bcf	3,6	;RP1=0, select bank0
  3756  0493  0823               	movf	___flmul@b+3,w
  3757  0494  3980               	andlw	128
  3758  0495  00F9               	movwf	??___flmul
  3759  0496  0879               	movf	??___flmul,w
  3760  0497  00A8               	movwf	___flmul@sign
  3761  0498                     l2374:
  3762  0498  0823               	movf	___flmul@b+3,w
  3763  0499  00F9               	movwf	??___flmul
  3764  049A  0779               	addwf	??___flmul,w
  3765  049B  00FA               	movwf	??___flmul+1
  3766  049C  087A               	movf	??___flmul+1,w
  3767  049D  00AE               	movwf	___flmul@bexp
  3768  049E                     l2376:
  3769  049E  1FA2               	btfss	___flmul@b+2,7
  3770  049F  2CA1               	goto	u3181
  3771  04A0  2CA2               	goto	u3180
  3772  04A1                     u3181:
  3773  04A1  2CA3               	goto	l2380
  3774  04A2                     u3180:
  3775  04A2                     l2378:
  3776  04A2  142E               	bsf	___flmul@bexp,0
  3777  04A3                     l2380:
  3778  04A3  082E               	movf	___flmul@bexp,w
  3779  04A4  1903               	btfsc	3,2
  3780  04A5  2CA7               	goto	u3191
  3781  04A6  2CA8               	goto	u3190
  3782  04A7                     u3191:
  3783  04A7  2CB7               	goto	l2388
  3784  04A8                     u3190:
  3785  04A8                     l2382:
  3786  04A8  0A2E               	incf	___flmul@bexp,w
  3787  04A9  1D03               	btfss	3,2
  3788  04AA  2CAC               	goto	u3201
  3789  04AB  2CAD               	goto	u3200
  3790  04AC                     u3201:
  3791  04AC  2CB5               	goto	l2386
  3792  04AD                     u3200:
  3793  04AD                     l2384:
  3794  04AD  3000               	movlw	0
  3795  04AE  00A3               	movwf	___flmul@b+3
  3796  04AF  3000               	movlw	0
  3797  04B0  00A2               	movwf	___flmul@b+2
  3798  04B1  3000               	movlw	0
  3799  04B2  00A1               	movwf	___flmul@b+1
  3800  04B3  3000               	movlw	0
  3801  04B4  00A0               	movwf	___flmul@b
  3802  04B5                     l2386:
  3803  04B5  17A2               	bsf	___flmul@b+2,7
  3804  04B6  2CBF               	goto	l2390
  3805  04B7                     l2388:
  3806  04B7  3000               	movlw	0
  3807  04B8  00A3               	movwf	___flmul@b+3
  3808  04B9  3000               	movlw	0
  3809  04BA  00A2               	movwf	___flmul@b+2
  3810  04BB  3000               	movlw	0
  3811  04BC  00A1               	movwf	___flmul@b+1
  3812  04BD  3000               	movlw	0
  3813  04BE  00A0               	movwf	___flmul@b
  3814  04BF                     l2390:
  3815  04BF  0827               	movf	___flmul@a+3,w
  3816  04C0  3980               	andlw	128
  3817  04C1  00F9               	movwf	??___flmul
  3818  04C2  0879               	movf	??___flmul,w
  3819  04C3  06A8               	xorwf	___flmul@sign,f
  3820  04C4                     l2392:
  3821  04C4  0827               	movf	___flmul@a+3,w
  3822  04C5  00F9               	movwf	??___flmul
  3823  04C6  0779               	addwf	??___flmul,w
  3824  04C7  00FA               	movwf	??___flmul+1
  3825  04C8  087A               	movf	??___flmul+1,w
  3826  04C9  00AD               	movwf	___flmul@aexp
  3827  04CA                     l2394:
  3828  04CA  1FA6               	btfss	___flmul@a+2,7
  3829  04CB  2CCD               	goto	u3211
  3830  04CC  2CCE               	goto	u3210
  3831  04CD                     u3211:
  3832  04CD  2CCF               	goto	l2398
  3833  04CE                     u3210:
  3834  04CE                     l2396:
  3835  04CE  142D               	bsf	___flmul@aexp,0
  3836  04CF                     l2398:
  3837  04CF  082D               	movf	___flmul@aexp,w
  3838  04D0  1903               	btfsc	3,2
  3839  04D1  2CD3               	goto	u3221
  3840  04D2  2CD4               	goto	u3220
  3841  04D3                     u3221:
  3842  04D3  2CE3               	goto	l2406
  3843  04D4                     u3220:
  3844  04D4                     l2400:
  3845  04D4  0A2D               	incf	___flmul@aexp,w
  3846  04D5  1D03               	btfss	3,2
  3847  04D6  2CD8               	goto	u3231
  3848  04D7  2CD9               	goto	u3230
  3849  04D8                     u3231:
  3850  04D8  2CE1               	goto	l2404
  3851  04D9                     u3230:
  3852  04D9                     l2402:
  3853  04D9  3000               	movlw	0
  3854  04DA  00A7               	movwf	___flmul@a+3
  3855  04DB  3000               	movlw	0
  3856  04DC  00A6               	movwf	___flmul@a+2
  3857  04DD  3000               	movlw	0
  3858  04DE  00A5               	movwf	___flmul@a+1
  3859  04DF  3000               	movlw	0
  3860  04E0  00A4               	movwf	___flmul@a
  3861  04E1                     l2404:
  3862  04E1  17A6               	bsf	___flmul@a+2,7
  3863  04E2  2CEB               	goto	l2408
  3864  04E3                     l2406:
  3865  04E3  3000               	movlw	0
  3866  04E4  00A7               	movwf	___flmul@a+3
  3867  04E5  3000               	movlw	0
  3868  04E6  00A6               	movwf	___flmul@a+2
  3869  04E7  3000               	movlw	0
  3870  04E8  00A5               	movwf	___flmul@a+1
  3871  04E9  3000               	movlw	0
  3872  04EA  00A4               	movwf	___flmul@a
  3873  04EB                     l2408:
  3874  04EB  082D               	movf	___flmul@aexp,w
  3875  04EC  1903               	btfsc	3,2
  3876  04ED  2CEF               	goto	u3241
  3877  04EE  2CF0               	goto	u3240
  3878  04EF                     u3241:
  3879  04EF  2CF5               	goto	l2412
  3880  04F0                     u3240:
  3881  04F0                     l2410:
  3882  04F0  082E               	movf	___flmul@bexp,w
  3883  04F1  1D03               	btfss	3,2
  3884  04F2  2CF4               	goto	u3251
  3885  04F3  2CF5               	goto	u3250
  3886  04F4                     u3251:
  3887  04F4  2CFE               	goto	l2416
  3888  04F5                     u3250:
  3889  04F5                     l2412:
  3890  04F5  3000               	movlw	0
  3891  04F6  00A3               	movwf	?___flmul+3
  3892  04F7  3000               	movlw	0
  3893  04F8  00A2               	movwf	?___flmul+2
  3894  04F9  3000               	movlw	0
  3895  04FA  00A1               	movwf	?___flmul+1
  3896  04FB  3000               	movlw	0
  3897  04FC  00A0               	movwf	?___flmul
  3898  04FD  2FF1               	goto	l689
  3899  04FE                     l2416:
  3900  04FE  0820               	movf	___flmul@b,w
  3901  04FF  00F9               	movwf	??___flmul
  3902  0500  0879               	movf	??___flmul,w
  3903  0501  00F0               	movwf	__Umul8_16@multiplicand
  3904  0502  0826               	movf	___flmul@a+2,w
  3905  0503  120A  158A  2139  120A  118A  	fcall	__Umul8_16
  3906  0508  0871               	movf	?__Umul8_16+1,w
  3907  0509  1283               	bcf	3,5	;RP0=0, select bank0
  3908  050A  1303               	bcf	3,6	;RP1=0, select bank0
  3909  050B  00B4               	movwf	___flmul@temp+1
  3910  050C  0870               	movf	?__Umul8_16,w
  3911  050D  00B3               	movwf	___flmul@temp
  3912  050E                     l2418:
  3913  050E  0833               	movf	___flmul@temp,w
  3914  050F  00F9               	movwf	??___flmul
  3915  0510  01FA               	clrf	??___flmul+1
  3916  0511  01FB               	clrf	??___flmul+2
  3917  0512  01FC               	clrf	??___flmul+3
  3918  0513  087C               	movf	??___flmul+3,w
  3919  0514  00AC               	movwf	___flmul@grs+3
  3920  0515  087B               	movf	??___flmul+2,w
  3921  0516  00AB               	movwf	___flmul@grs+2
  3922  0517  087A               	movf	??___flmul+1,w
  3923  0518  00AA               	movwf	___flmul@grs+1
  3924  0519  0879               	movf	??___flmul,w
  3925  051A  00A9               	movwf	___flmul@grs
  3926  051B                     l2420:
  3927  051B  0834               	movf	___flmul@temp+1,w
  3928  051C  00F9               	movwf	??___flmul
  3929  051D  01FA               	clrf	??___flmul+1
  3930  051E  01FB               	clrf	??___flmul+2
  3931  051F  01FC               	clrf	??___flmul+3
  3932  0520  087C               	movf	??___flmul+3,w
  3933  0521  00B2               	movwf	___flmul@prod+3
  3934  0522  087B               	movf	??___flmul+2,w
  3935  0523  00B1               	movwf	___flmul@prod+2
  3936  0524  087A               	movf	??___flmul+1,w
  3937  0525  00B0               	movwf	___flmul@prod+1
  3938  0526  0879               	movf	??___flmul,w
  3939  0527  00AF               	movwf	___flmul@prod
  3940  0528  0821               	movf	___flmul@b+1,w
  3941  0529  00F9               	movwf	??___flmul
  3942  052A  0879               	movf	??___flmul,w
  3943  052B  00F0               	movwf	__Umul8_16@multiplicand
  3944  052C  0825               	movf	___flmul@a+1,w
  3945  052D  120A  158A  2139  120A  118A  	fcall	__Umul8_16
  3946  0532  0871               	movf	?__Umul8_16+1,w
  3947  0533  1283               	bcf	3,5	;RP0=0, select bank0
  3948  0534  1303               	bcf	3,6	;RP1=0, select bank0
  3949  0535  00B4               	movwf	___flmul@temp+1
  3950  0536  0870               	movf	?__Umul8_16,w
  3951  0537  00B3               	movwf	___flmul@temp
  3952  0538                     l2422:
  3953  0538  0833               	movf	___flmul@temp,w
  3954  0539  00F9               	movwf	??___flmul
  3955  053A  01FA               	clrf	??___flmul+1
  3956  053B  01FB               	clrf	??___flmul+2
  3957  053C  01FC               	clrf	??___flmul+3
  3958  053D  0879               	movf	??___flmul,w
  3959  053E  07A9               	addwf	___flmul@grs,f
  3960  053F  087A               	movf	??___flmul+1,w
  3961  0540  1103               	clrz
  3962  0541  1803               	skipnc
  3963  0542  3E01               	addlw	1
  3964  0543  1903               	skipnz
  3965  0544  2D46               	goto	u3261
  3966  0545  07AA               	addwf	___flmul@grs+1,f
  3967  0546                     u3261:
  3968  0546  087B               	movf	??___flmul+2,w
  3969  0547  1103               	clrz
  3970  0548  1803               	skipnc
  3971  0549  3E01               	addlw	1
  3972  054A  1903               	skipnz
  3973  054B  2D4D               	goto	u3262
  3974  054C  07AB               	addwf	___flmul@grs+2,f
  3975  054D                     u3262:
  3976  054D  087C               	movf	??___flmul+3,w
  3977  054E  1103               	clrz
  3978  054F  1803               	skipnc
  3979  0550  3E01               	addlw	1
  3980  0551  1903               	skipnz
  3981  0552  2D54               	goto	u3263
  3982  0553  07AC               	addwf	___flmul@grs+3,f
  3983  0554                     u3263:
  3984  0554                     l2424:
  3985  0554  0834               	movf	___flmul@temp+1,w
  3986  0555  00F9               	movwf	??___flmul
  3987  0556  01FA               	clrf	??___flmul+1
  3988  0557  01FB               	clrf	??___flmul+2
  3989  0558  01FC               	clrf	??___flmul+3
  3990  0559  0879               	movf	??___flmul,w
  3991  055A  07AF               	addwf	___flmul@prod,f
  3992  055B  087A               	movf	??___flmul+1,w
  3993  055C  1103               	clrz
  3994  055D  1803               	skipnc
  3995  055E  3E01               	addlw	1
  3996  055F  1903               	skipnz
  3997  0560  2D62               	goto	u3271
  3998  0561  07B0               	addwf	___flmul@prod+1,f
  3999  0562                     u3271:
  4000  0562  087B               	movf	??___flmul+2,w
  4001  0563  1103               	clrz
  4002  0564  1803               	skipnc
  4003  0565  3E01               	addlw	1
  4004  0566  1903               	skipnz
  4005  0567  2D69               	goto	u3272
  4006  0568  07B1               	addwf	___flmul@prod+2,f
  4007  0569                     u3272:
  4008  0569  087C               	movf	??___flmul+3,w
  4009  056A  1103               	clrz
  4010  056B  1803               	skipnc
  4011  056C  3E01               	addlw	1
  4012  056D  1903               	skipnz
  4013  056E  2D70               	goto	u3273
  4014  056F  07B2               	addwf	___flmul@prod+3,f
  4015  0570                     u3273:
  4016  0570  0822               	movf	___flmul@b+2,w
  4017  0571  00F9               	movwf	??___flmul
  4018  0572  0879               	movf	??___flmul,w
  4019  0573  00F0               	movwf	__Umul8_16@multiplicand
  4020  0574  0824               	movf	___flmul@a,w
  4021  0575  120A  158A  2139  120A  118A  	fcall	__Umul8_16
  4022  057A  0871               	movf	?__Umul8_16+1,w
  4023  057B  1283               	bcf	3,5	;RP0=0, select bank0
  4024  057C  1303               	bcf	3,6	;RP1=0, select bank0
  4025  057D  00B4               	movwf	___flmul@temp+1
  4026  057E  0870               	movf	?__Umul8_16,w
  4027  057F  00B3               	movwf	___flmul@temp
  4028  0580                     l2426:
  4029  0580  0833               	movf	___flmul@temp,w
  4030  0581  00F9               	movwf	??___flmul
  4031  0582  01FA               	clrf	??___flmul+1
  4032  0583  01FB               	clrf	??___flmul+2
  4033  0584  01FC               	clrf	??___flmul+3
  4034  0585  0879               	movf	??___flmul,w
  4035  0586  07A9               	addwf	___flmul@grs,f
  4036  0587  087A               	movf	??___flmul+1,w
  4037  0588  1103               	clrz
  4038  0589  1803               	skipnc
  4039  058A  3E01               	addlw	1
  4040  058B  1903               	skipnz
  4041  058C  2D8E               	goto	u3281
  4042  058D  07AA               	addwf	___flmul@grs+1,f
  4043  058E                     u3281:
  4044  058E  087B               	movf	??___flmul+2,w
  4045  058F  1103               	clrz
  4046  0590  1803               	skipnc
  4047  0591  3E01               	addlw	1
  4048  0592  1903               	skipnz
  4049  0593  2D95               	goto	u3282
  4050  0594  07AB               	addwf	___flmul@grs+2,f
  4051  0595                     u3282:
  4052  0595  087C               	movf	??___flmul+3,w
  4053  0596  1103               	clrz
  4054  0597  1803               	skipnc
  4055  0598  3E01               	addlw	1
  4056  0599  1903               	skipnz
  4057  059A  2D9C               	goto	u3283
  4058  059B  07AC               	addwf	___flmul@grs+3,f
  4059  059C                     u3283:
  4060  059C                     l2428:
  4061  059C  0834               	movf	___flmul@temp+1,w
  4062  059D  00F9               	movwf	??___flmul
  4063  059E  01FA               	clrf	??___flmul+1
  4064  059F  01FB               	clrf	??___flmul+2
  4065  05A0  01FC               	clrf	??___flmul+3
  4066  05A1  0879               	movf	??___flmul,w
  4067  05A2  07AF               	addwf	___flmul@prod,f
  4068  05A3  087A               	movf	??___flmul+1,w
  4069  05A4  1103               	clrz
  4070  05A5  1803               	skipnc
  4071  05A6  3E01               	addlw	1
  4072  05A7  1903               	skipnz
  4073  05A8  2DAA               	goto	u3291
  4074  05A9  07B0               	addwf	___flmul@prod+1,f
  4075  05AA                     u3291:
  4076  05AA  087B               	movf	??___flmul+2,w
  4077  05AB  1103               	clrz
  4078  05AC  1803               	skipnc
  4079  05AD  3E01               	addlw	1
  4080  05AE  1903               	skipnz
  4081  05AF  2DB1               	goto	u3292
  4082  05B0  07B1               	addwf	___flmul@prod+2,f
  4083  05B1                     u3292:
  4084  05B1  087C               	movf	??___flmul+3,w
  4085  05B2  1103               	clrz
  4086  05B3  1803               	skipnc
  4087  05B4  3E01               	addlw	1
  4088  05B5  1903               	skipnz
  4089  05B6  2DB8               	goto	u3293
  4090  05B7  07B2               	addwf	___flmul@prod+3,f
  4091  05B8                     u3293:
  4092  05B8                     l2430:
  4093  05B8  3008               	movlw	8
  4094  05B9  00F9               	movwf	??___flmul
  4095  05BA                     u3305:
  4096  05BA  1003               	clrc
  4097  05BB  0DA9               	rlf	___flmul@grs,f
  4098  05BC  0DAA               	rlf	___flmul@grs+1,f
  4099  05BD  0DAB               	rlf	___flmul@grs+2,f
  4100  05BE  0DAC               	rlf	___flmul@grs+3,f
  4101  05BF  0BF9               	decfsz	??___flmul,f
  4102  05C0  2DBA               	goto	u3305
  4103  05C1                     l2432:
  4104  05C1  0821               	movf	___flmul@b+1,w
  4105  05C2  00F9               	movwf	??___flmul
  4106  05C3  0879               	movf	??___flmul,w
  4107  05C4  00F0               	movwf	__Umul8_16@multiplicand
  4108  05C5  0824               	movf	___flmul@a,w
  4109  05C6  120A  158A  2139  120A  118A  	fcall	__Umul8_16
  4110  05CB  0871               	movf	?__Umul8_16+1,w
  4111  05CC  1283               	bcf	3,5	;RP0=0, select bank0
  4112  05CD  1303               	bcf	3,6	;RP1=0, select bank0
  4113  05CE  00B4               	movwf	___flmul@temp+1
  4114  05CF  0870               	movf	?__Umul8_16,w
  4115  05D0  00B3               	movwf	___flmul@temp
  4116  05D1                     l2434:
  4117  05D1  0833               	movf	___flmul@temp,w
  4118  05D2  00F9               	movwf	??___flmul
  4119  05D3  0834               	movf	___flmul@temp+1,w
  4120  05D4  00FA               	movwf	??___flmul+1
  4121  05D5  01FB               	clrf	??___flmul+2
  4122  05D6  01FC               	clrf	??___flmul+3
  4123  05D7  0879               	movf	??___flmul,w
  4124  05D8  07A9               	addwf	___flmul@grs,f
  4125  05D9  087A               	movf	??___flmul+1,w
  4126  05DA  1103               	clrz
  4127  05DB  1803               	skipnc
  4128  05DC  3E01               	addlw	1
  4129  05DD  1903               	skipnz
  4130  05DE  2DE0               	goto	u3311
  4131  05DF  07AA               	addwf	___flmul@grs+1,f
  4132  05E0                     u3311:
  4133  05E0  087B               	movf	??___flmul+2,w
  4134  05E1  1103               	clrz
  4135  05E2  1803               	skipnc
  4136  05E3  3E01               	addlw	1
  4137  05E4  1903               	skipnz
  4138  05E5  2DE7               	goto	u3312
  4139  05E6  07AB               	addwf	___flmul@grs+2,f
  4140  05E7                     u3312:
  4141  05E7  087C               	movf	??___flmul+3,w
  4142  05E8  1103               	clrz
  4143  05E9  1803               	skipnc
  4144  05EA  3E01               	addlw	1
  4145  05EB  1903               	skipnz
  4146  05EC  2DEE               	goto	u3313
  4147  05ED  07AC               	addwf	___flmul@grs+3,f
  4148  05EE                     u3313:
  4149  05EE                     l2436:
  4150  05EE  0820               	movf	___flmul@b,w
  4151  05EF  00F9               	movwf	??___flmul
  4152  05F0  0879               	movf	??___flmul,w
  4153  05F1  00F0               	movwf	__Umul8_16@multiplicand
  4154  05F2  0825               	movf	___flmul@a+1,w
  4155  05F3  120A  158A  2139  120A  118A  	fcall	__Umul8_16
  4156  05F8  0871               	movf	?__Umul8_16+1,w
  4157  05F9  1283               	bcf	3,5	;RP0=0, select bank0
  4158  05FA  1303               	bcf	3,6	;RP1=0, select bank0
  4159  05FB  00B4               	movwf	___flmul@temp+1
  4160  05FC  0870               	movf	?__Umul8_16,w
  4161  05FD  00B3               	movwf	___flmul@temp
  4162  05FE                     l2438:
  4163  05FE  0833               	movf	___flmul@temp,w
  4164  05FF  00F9               	movwf	??___flmul
  4165  0600  0834               	movf	___flmul@temp+1,w
  4166  0601  00FA               	movwf	??___flmul+1
  4167  0602  01FB               	clrf	??___flmul+2
  4168  0603  01FC               	clrf	??___flmul+3
  4169  0604  0879               	movf	??___flmul,w
  4170  0605  07A9               	addwf	___flmul@grs,f
  4171  0606  087A               	movf	??___flmul+1,w
  4172  0607  1103               	clrz
  4173  0608  1803               	skipnc
  4174  0609  3E01               	addlw	1
  4175  060A  1903               	skipnz
  4176  060B  2E0D               	goto	u3321
  4177  060C  07AA               	addwf	___flmul@grs+1,f
  4178  060D                     u3321:
  4179  060D  087B               	movf	??___flmul+2,w
  4180  060E  1103               	clrz
  4181  060F  1803               	skipnc
  4182  0610  3E01               	addlw	1
  4183  0611  1903               	skipnz
  4184  0612  2E14               	goto	u3322
  4185  0613  07AB               	addwf	___flmul@grs+2,f
  4186  0614                     u3322:
  4187  0614  087C               	movf	??___flmul+3,w
  4188  0615  1103               	clrz
  4189  0616  1803               	skipnc
  4190  0617  3E01               	addlw	1
  4191  0618  1903               	skipnz
  4192  0619  2E1B               	goto	u3323
  4193  061A  07AC               	addwf	___flmul@grs+3,f
  4194  061B                     u3323:
  4195  061B                     l2440:
  4196  061B  3008               	movlw	8
  4197  061C  00F9               	movwf	??___flmul
  4198  061D                     u3335:
  4199  061D  1003               	clrc
  4200  061E  0DA9               	rlf	___flmul@grs,f
  4201  061F  0DAA               	rlf	___flmul@grs+1,f
  4202  0620  0DAB               	rlf	___flmul@grs+2,f
  4203  0621  0DAC               	rlf	___flmul@grs+3,f
  4204  0622  0BF9               	decfsz	??___flmul,f
  4205  0623  2E1D               	goto	u3335
  4206  0624  0820               	movf	___flmul@b,w
  4207  0625  00F9               	movwf	??___flmul
  4208  0626  0879               	movf	??___flmul,w
  4209  0627  00F0               	movwf	__Umul8_16@multiplicand
  4210  0628  0824               	movf	___flmul@a,w
  4211  0629  120A  158A  2139  120A  118A  	fcall	__Umul8_16
  4212  062E  0871               	movf	?__Umul8_16+1,w
  4213  062F  1283               	bcf	3,5	;RP0=0, select bank0
  4214  0630  1303               	bcf	3,6	;RP1=0, select bank0
  4215  0631  00B4               	movwf	___flmul@temp+1
  4216  0632  0870               	movf	?__Umul8_16,w
  4217  0633  00B3               	movwf	___flmul@temp
  4218  0634                     l2442:
  4219  0634  0833               	movf	___flmul@temp,w
  4220  0635  00F9               	movwf	??___flmul
  4221  0636  0834               	movf	___flmul@temp+1,w
  4222  0637  00FA               	movwf	??___flmul+1
  4223  0638  01FB               	clrf	??___flmul+2
  4224  0639  01FC               	clrf	??___flmul+3
  4225  063A  0879               	movf	??___flmul,w
  4226  063B  07A9               	addwf	___flmul@grs,f
  4227  063C  087A               	movf	??___flmul+1,w
  4228  063D  1103               	clrz
  4229  063E  1803               	skipnc
  4230  063F  3E01               	addlw	1
  4231  0640  1903               	skipnz
  4232  0641  2E43               	goto	u3341
  4233  0642  07AA               	addwf	___flmul@grs+1,f
  4234  0643                     u3341:
  4235  0643  087B               	movf	??___flmul+2,w
  4236  0644  1103               	clrz
  4237  0645  1803               	skipnc
  4238  0646  3E01               	addlw	1
  4239  0647  1903               	skipnz
  4240  0648  2E4A               	goto	u3342
  4241  0649  07AB               	addwf	___flmul@grs+2,f
  4242  064A                     u3342:
  4243  064A  087C               	movf	??___flmul+3,w
  4244  064B  1103               	clrz
  4245  064C  1803               	skipnc
  4246  064D  3E01               	addlw	1
  4247  064E  1903               	skipnz
  4248  064F  2E51               	goto	u3343
  4249  0650  07AC               	addwf	___flmul@grs+3,f
  4250  0651                     u3343:
  4251  0651                     l2444:
  4252  0651  0821               	movf	___flmul@b+1,w
  4253  0652  00F9               	movwf	??___flmul
  4254  0653  0879               	movf	??___flmul,w
  4255  0654  00F0               	movwf	__Umul8_16@multiplicand
  4256  0655  0826               	movf	___flmul@a+2,w
  4257  0656  120A  158A  2139  120A  118A  	fcall	__Umul8_16
  4258  065B  0871               	movf	?__Umul8_16+1,w
  4259  065C  1283               	bcf	3,5	;RP0=0, select bank0
  4260  065D  1303               	bcf	3,6	;RP1=0, select bank0
  4261  065E  00B4               	movwf	___flmul@temp+1
  4262  065F  0870               	movf	?__Umul8_16,w
  4263  0660  00B3               	movwf	___flmul@temp
  4264  0661  0833               	movf	___flmul@temp,w
  4265  0662  00F9               	movwf	??___flmul
  4266  0663  0834               	movf	___flmul@temp+1,w
  4267  0664  00FA               	movwf	??___flmul+1
  4268  0665  01FB               	clrf	??___flmul+2
  4269  0666  01FC               	clrf	??___flmul+3
  4270  0667  0879               	movf	??___flmul,w
  4271  0668  07AF               	addwf	___flmul@prod,f
  4272  0669  087A               	movf	??___flmul+1,w
  4273  066A  1103               	clrz
  4274  066B  1803               	skipnc
  4275  066C  3E01               	addlw	1
  4276  066D  1903               	skipnz
  4277  066E  2E70               	goto	u3351
  4278  066F  07B0               	addwf	___flmul@prod+1,f
  4279  0670                     u3351:
  4280  0670  087B               	movf	??___flmul+2,w
  4281  0671  1103               	clrz
  4282  0672  1803               	skipnc
  4283  0673  3E01               	addlw	1
  4284  0674  1903               	skipnz
  4285  0675  2E77               	goto	u3352
  4286  0676  07B1               	addwf	___flmul@prod+2,f
  4287  0677                     u3352:
  4288  0677  087C               	movf	??___flmul+3,w
  4289  0678  1103               	clrz
  4290  0679  1803               	skipnc
  4291  067A  3E01               	addlw	1
  4292  067B  1903               	skipnz
  4293  067C  2E7E               	goto	u3353
  4294  067D  07B2               	addwf	___flmul@prod+3,f
  4295  067E                     u3353:
  4296  067E                     l2446:
  4297  067E  0822               	movf	___flmul@b+2,w
  4298  067F  00F9               	movwf	??___flmul
  4299  0680  0879               	movf	??___flmul,w
  4300  0681  00F0               	movwf	__Umul8_16@multiplicand
  4301  0682  0825               	movf	___flmul@a+1,w
  4302  0683  120A  158A  2139  120A  118A  	fcall	__Umul8_16
  4303  0688  0871               	movf	?__Umul8_16+1,w
  4304  0689  1283               	bcf	3,5	;RP0=0, select bank0
  4305  068A  1303               	bcf	3,6	;RP1=0, select bank0
  4306  068B  00B4               	movwf	___flmul@temp+1
  4307  068C  0870               	movf	?__Umul8_16,w
  4308  068D  00B3               	movwf	___flmul@temp
  4309  068E                     l2448:
  4310  068E  0833               	movf	___flmul@temp,w
  4311  068F  00F9               	movwf	??___flmul
  4312  0690  0834               	movf	___flmul@temp+1,w
  4313  0691  00FA               	movwf	??___flmul+1
  4314  0692  01FB               	clrf	??___flmul+2
  4315  0693  01FC               	clrf	??___flmul+3
  4316  0694  0879               	movf	??___flmul,w
  4317  0695  07AF               	addwf	___flmul@prod,f
  4318  0696  087A               	movf	??___flmul+1,w
  4319  0697  1103               	clrz
  4320  0698  1803               	skipnc
  4321  0699  3E01               	addlw	1
  4322  069A  1903               	skipnz
  4323  069B  2E9D               	goto	u3361
  4324  069C  07B0               	addwf	___flmul@prod+1,f
  4325  069D                     u3361:
  4326  069D  087B               	movf	??___flmul+2,w
  4327  069E  1103               	clrz
  4328  069F  1803               	skipnc
  4329  06A0  3E01               	addlw	1
  4330  06A1  1903               	skipnz
  4331  06A2  2EA4               	goto	u3362
  4332  06A3  07B1               	addwf	___flmul@prod+2,f
  4333  06A4                     u3362:
  4334  06A4  087C               	movf	??___flmul+3,w
  4335  06A5  1103               	clrz
  4336  06A6  1803               	skipnc
  4337  06A7  3E01               	addlw	1
  4338  06A8  1903               	skipnz
  4339  06A9  2EAB               	goto	u3363
  4340  06AA  07B2               	addwf	___flmul@prod+3,f
  4341  06AB                     u3363:
  4342  06AB  0822               	movf	___flmul@b+2,w
  4343  06AC  00F9               	movwf	??___flmul
  4344  06AD  0879               	movf	??___flmul,w
  4345  06AE  00F0               	movwf	__Umul8_16@multiplicand
  4346  06AF  0826               	movf	___flmul@a+2,w
  4347  06B0  120A  158A  2139  120A  118A  	fcall	__Umul8_16
  4348  06B5  0871               	movf	?__Umul8_16+1,w
  4349  06B6  1283               	bcf	3,5	;RP0=0, select bank0
  4350  06B7  1303               	bcf	3,6	;RP1=0, select bank0
  4351  06B8  00B4               	movwf	___flmul@temp+1
  4352  06B9  0870               	movf	?__Umul8_16,w
  4353  06BA  00B3               	movwf	___flmul@temp
  4354  06BB                     l2450:
  4355  06BB  0833               	movf	___flmul@temp,w
  4356  06BC  00F9               	movwf	??___flmul
  4357  06BD  0834               	movf	___flmul@temp+1,w
  4358  06BE  00FA               	movwf	??___flmul+1
  4359  06BF  01FB               	clrf	??___flmul+2
  4360  06C0  01FC               	clrf	??___flmul+3
  4361  06C1  3008               	movlw	8
  4362  06C2                     u3375:
  4363  06C2  1003               	clrc
  4364  06C3  0DF9               	rlf	??___flmul,f
  4365  06C4  0DFA               	rlf	??___flmul+1,f
  4366  06C5  0DFB               	rlf	??___flmul+2,f
  4367  06C6  0DFC               	rlf	??___flmul+3,f
  4368  06C7                     u3370:
  4369  06C7  3EFF               	addlw	-1
  4370  06C8  1D03               	skipz
  4371  06C9  2EC2               	goto	u3375
  4372  06CA  0879               	movf	??___flmul,w
  4373  06CB  07AF               	addwf	___flmul@prod,f
  4374  06CC  087A               	movf	??___flmul+1,w
  4375  06CD  1103               	clrz
  4376  06CE  1803               	skipnc
  4377  06CF  3E01               	addlw	1
  4378  06D0  1903               	skipnz
  4379  06D1  2ED3               	goto	u3381
  4380  06D2  07B0               	addwf	___flmul@prod+1,f
  4381  06D3                     u3381:
  4382  06D3  087B               	movf	??___flmul+2,w
  4383  06D4  1103               	clrz
  4384  06D5  1803               	skipnc
  4385  06D6  3E01               	addlw	1
  4386  06D7  1903               	skipnz
  4387  06D8  2EDA               	goto	u3382
  4388  06D9  07B1               	addwf	___flmul@prod+2,f
  4389  06DA                     u3382:
  4390  06DA  087C               	movf	??___flmul+3,w
  4391  06DB  1103               	clrz
  4392  06DC  1803               	skipnc
  4393  06DD  3E01               	addlw	1
  4394  06DE  1903               	skipnz
  4395  06DF  2EE1               	goto	u3383
  4396  06E0  07B2               	addwf	___flmul@prod+3,f
  4397  06E1                     u3383:
  4398  06E1                     l2452:
  4399  06E1  0829               	movf	___flmul@grs,w
  4400  06E2  00F9               	movwf	??___flmul
  4401  06E3  082A               	movf	___flmul@grs+1,w
  4402  06E4  00FA               	movwf	??___flmul+1
  4403  06E5  082B               	movf	___flmul@grs+2,w
  4404  06E6  00FB               	movwf	??___flmul+2
  4405  06E7  082C               	movf	___flmul@grs+3,w
  4406  06E8  00FC               	movwf	??___flmul+3
  4407  06E9  3018               	movlw	24
  4408  06EA                     u3395:
  4409  06EA  1003               	clrc
  4410  06EB  0CFC               	rrf	??___flmul+3,f
  4411  06EC  0CFB               	rrf	??___flmul+2,f
  4412  06ED  0CFA               	rrf	??___flmul+1,f
  4413  06EE  0CF9               	rrf	??___flmul,f
  4414  06EF                     u3390:
  4415  06EF  3EFF               	addlw	-1
  4416  06F0  1D03               	skipz
  4417  06F1  2EEA               	goto	u3395
  4418  06F2  0879               	movf	??___flmul,w
  4419  06F3  07AF               	addwf	___flmul@prod,f
  4420  06F4  087A               	movf	??___flmul+1,w
  4421  06F5  1103               	clrz
  4422  06F6  1803               	skipnc
  4423  06F7  3E01               	addlw	1
  4424  06F8  1903               	skipnz
  4425  06F9  2EFB               	goto	u3401
  4426  06FA  07B0               	addwf	___flmul@prod+1,f
  4427  06FB                     u3401:
  4428  06FB  087B               	movf	??___flmul+2,w
  4429  06FC  1103               	clrz
  4430  06FD  1803               	skipnc
  4431  06FE  3E01               	addlw	1
  4432  06FF  1903               	skipnz
  4433  0700  2F02               	goto	u3402
  4434  0701  07B1               	addwf	___flmul@prod+2,f
  4435  0702                     u3402:
  4436  0702  087C               	movf	??___flmul+3,w
  4437  0703  1103               	clrz
  4438  0704  1803               	skipnc
  4439  0705  3E01               	addlw	1
  4440  0706  1903               	skipnz
  4441  0707  2F09               	goto	u3403
  4442  0708  07B2               	addwf	___flmul@prod+3,f
  4443  0709                     u3403:
  4444  0709                     l2454:
  4445  0709  3008               	movlw	8
  4446  070A  00F9               	movwf	??___flmul
  4447  070B                     u3415:
  4448  070B  1003               	clrc
  4449  070C  0DA9               	rlf	___flmul@grs,f
  4450  070D  0DAA               	rlf	___flmul@grs+1,f
  4451  070E  0DAB               	rlf	___flmul@grs+2,f
  4452  070F  0DAC               	rlf	___flmul@grs+3,f
  4453  0710  0BF9               	decfsz	??___flmul,f
  4454  0711  2F0B               	goto	u3415
  4455  0712                     l2456:
  4456  0712  082E               	movf	___flmul@bexp,w
  4457  0713  072D               	addwf	___flmul@aexp,w
  4458  0714  00F9               	movwf	??___flmul
  4459  0715  01FA               	clrf	??___flmul+1
  4460  0716  0DFA               	rlf	??___flmul+1,f
  4461  0717  0879               	movf	??___flmul,w
  4462  0718  3E82               	addlw	130
  4463  0719  00B3               	movwf	___flmul@temp
  4464  071A  087A               	movf	??___flmul+1,w
  4465  071B  1803               	skipnc
  4466  071C  3E01               	addlw	1
  4467  071D  3EFF               	addlw	255
  4468  071E  00B4               	movwf	___flmul@temp+1
  4469  071F  2F3D               	goto	l2468
  4470  0720                     l2458:
  4471  0720  3001               	movlw	1
  4472  0721  00F9               	movwf	??___flmul
  4473  0722                     u3425:
  4474  0722  1003               	clrc
  4475  0723  0DAF               	rlf	___flmul@prod,f
  4476  0724  0DB0               	rlf	___flmul@prod+1,f
  4477  0725  0DB1               	rlf	___flmul@prod+2,f
  4478  0726  0DB2               	rlf	___flmul@prod+3,f
  4479  0727  0BF9               	decfsz	??___flmul,f
  4480  0728  2F22               	goto	u3425
  4481  0729                     l2460:
  4482  0729  1FAC               	btfss	___flmul@grs+3,7
  4483  072A  2F2C               	goto	u3431
  4484  072B  2F2D               	goto	u3430
  4485  072C                     u3431:
  4486  072C  2F2E               	goto	l2464
  4487  072D                     u3430:
  4488  072D                     l2462:
  4489  072D  142F               	bsf	___flmul@prod,0
  4490  072E                     l2464:
  4491  072E  3001               	movlw	1
  4492  072F  00F9               	movwf	??___flmul
  4493  0730                     u3445:
  4494  0730  1003               	clrc
  4495  0731  0DA9               	rlf	___flmul@grs,f
  4496  0732  0DAA               	rlf	___flmul@grs+1,f
  4497  0733  0DAB               	rlf	___flmul@grs+2,f
  4498  0734  0DAC               	rlf	___flmul@grs+3,f
  4499  0735  0BF9               	decfsz	??___flmul,f
  4500  0736  2F30               	goto	u3445
  4501  0737                     l2466:
  4502  0737  30FF               	movlw	255
  4503  0738  07B3               	addwf	___flmul@temp,f
  4504  0739  1803               	skipnc
  4505  073A  0AB4               	incf	___flmul@temp+1,f
  4506  073B  30FF               	movlw	255
  4507  073C  07B4               	addwf	___flmul@temp+1,f
  4508  073D                     l2468:
  4509  073D  1FB1               	btfss	___flmul@prod+2,7
  4510  073E  2F40               	goto	u3451
  4511  073F  2F41               	goto	u3450
  4512  0740                     u3451:
  4513  0740  2F20               	goto	l2458
  4514  0741                     u3450:
  4515  0741                     l2470:
  4516  0741  01AD               	clrf	___flmul@aexp
  4517  0742                     l2472:
  4518  0742  1FAC               	btfss	___flmul@grs+3,7
  4519  0743  2F45               	goto	u3461
  4520  0744  2F46               	goto	u3460
  4521  0745                     u3461:
  4522  0745  2F62               	goto	l2480
  4523  0746                     u3460:
  4524  0746                     l2474:
  4525  0746  30FF               	movlw	255
  4526  0747  0529               	andwf	___flmul@grs,w
  4527  0748  00F9               	movwf	??___flmul
  4528  0749  30FF               	movlw	255
  4529  074A  052A               	andwf	___flmul@grs+1,w
  4530  074B  00FA               	movwf	??___flmul+1
  4531  074C  30FF               	movlw	255
  4532  074D  052B               	andwf	___flmul@grs+2,w
  4533  074E  00FB               	movwf	??___flmul+2
  4534  074F  307F               	movlw	127
  4535  0750  052C               	andwf	___flmul@grs+3,w
  4536  0751  00FC               	movwf	??___flmul+3
  4537  0752  087C               	movf	??___flmul+3,w
  4538  0753  047B               	iorwf	??___flmul+2,w
  4539  0754  047A               	iorwf	??___flmul+1,w
  4540  0755  0479               	iorwf	??___flmul,w
  4541  0756  1903               	skipnz
  4542  0757  2F59               	goto	u3471
  4543  0758  2F5A               	goto	u3470
  4544  0759                     u3471:
  4545  0759  2F5D               	goto	l695
  4546  075A                     u3470:
  4547  075A                     l2476:
  4548  075A  01AD               	clrf	___flmul@aexp
  4549  075B  0AAD               	incf	___flmul@aexp,f
  4550  075C  2F62               	goto	l2480
  4551  075D                     l695:
  4552  075D  1C2F               	btfss	___flmul@prod,0
  4553  075E  2F60               	goto	u3481
  4554  075F  2F61               	goto	u3480
  4555  0760                     u3481:
  4556  0760  2F62               	goto	l2480
  4557  0761                     u3480:
  4558  0761  2F5A               	goto	l2476
  4559  0762                     l2480:
  4560  0762  082D               	movf	___flmul@aexp,w
  4561  0763  1903               	btfsc	3,2
  4562  0764  2F66               	goto	u3491
  4563  0765  2F67               	goto	u3490
  4564  0766                     u3491:
  4565  0766  2F98               	goto	l2490
  4566  0767                     u3490:
  4567  0767                     l2482:
  4568  0767  3001               	movlw	1
  4569  0768  07AF               	addwf	___flmul@prod,f
  4570  0769  3000               	movlw	0
  4571  076A  1803               	skipnc
  4572  076B  3001               	movlw	1
  4573  076C  07B0               	addwf	___flmul@prod+1,f
  4574  076D  3000               	movlw	0
  4575  076E  1803               	skipnc
  4576  076F  3001               	movlw	1
  4577  0770  07B1               	addwf	___flmul@prod+2,f
  4578  0771  3000               	movlw	0
  4579  0772  1803               	skipnc
  4580  0773  3001               	movlw	1
  4581  0774  07B2               	addwf	___flmul@prod+3,f
  4582  0775                     l2484:
  4583  0775  1C32               	btfss	___flmul@prod+3,0
  4584  0776  2F78               	goto	u3501
  4585  0777  2F79               	goto	u3500
  4586  0778                     u3501:
  4587  0778  2F98               	goto	l2490
  4588  0779                     u3500:
  4589  0779                     l2486:
  4590  0779  082F               	movf	___flmul@prod,w
  4591  077A  00F9               	movwf	??___flmul
  4592  077B  0830               	movf	___flmul@prod+1,w
  4593  077C  00FA               	movwf	??___flmul+1
  4594  077D  0831               	movf	___flmul@prod+2,w
  4595  077E  00FB               	movwf	??___flmul+2
  4596  077F  0832               	movf	___flmul@prod+3,w
  4597  0780  00FC               	movwf	??___flmul+3
  4598  0781  3001               	movlw	1
  4599  0782  00FD               	movwf	??___flmul+4
  4600  0783                     u3515:
  4601  0783  0D7C               	rlf	??___flmul+3,w
  4602  0784  0CFC               	rrf	??___flmul+3,f
  4603  0785  0CFB               	rrf	??___flmul+2,f
  4604  0786  0CFA               	rrf	??___flmul+1,f
  4605  0787  0CF9               	rrf	??___flmul,f
  4606  0788                     u3510:
  4607  0788  0BFD               	decfsz	??___flmul+4,f
  4608  0789  2F83               	goto	u3515
  4609  078A  087C               	movf	??___flmul+3,w
  4610  078B  00B2               	movwf	___flmul@prod+3
  4611  078C  087B               	movf	??___flmul+2,w
  4612  078D  00B1               	movwf	___flmul@prod+2
  4613  078E  087A               	movf	??___flmul+1,w
  4614  078F  00B0               	movwf	___flmul@prod+1
  4615  0790  0879               	movf	??___flmul,w
  4616  0791  00AF               	movwf	___flmul@prod
  4617  0792                     l2488:
  4618  0792  3001               	movlw	1
  4619  0793  07B3               	addwf	___flmul@temp,f
  4620  0794  1803               	skipnc
  4621  0795  0AB4               	incf	___flmul@temp+1,f
  4622  0796  3000               	movlw	0
  4623  0797  07B4               	addwf	___flmul@temp+1,f
  4624  0798                     l2490:
  4625  0798  0834               	movf	___flmul@temp+1,w
  4626  0799  3A80               	xorlw	128
  4627  079A  00FF               	movwf	btemp+1
  4628  079B  3080               	movlw	128
  4629  079C  027F               	subwf	btemp+1,w
  4630  079D  1D03               	skipz
  4631  079E  2FA1               	goto	u3525
  4632  079F  30FF               	movlw	255
  4633  07A0  0233               	subwf	___flmul@temp,w
  4634  07A1                     u3525:
  4635  07A1  1C03               	skipc
  4636  07A2  2FA4               	goto	u3521
  4637  07A3  2FA5               	goto	u3520
  4638  07A4                     u3521:
  4639  07A4  2FB0               	goto	l2494
  4640  07A5                     u3520:
  4641  07A5                     l2492:
  4642  07A5  307F               	movlw	127
  4643  07A6  1283               	bcf	3,5	;RP0=0, select bank0
  4644  07A7  1303               	bcf	3,6	;RP1=0, select bank0
  4645  07A8  00B2               	movwf	___flmul@prod+3
  4646  07A9  3080               	movlw	128
  4647  07AA  00B1               	movwf	___flmul@prod+2
  4648  07AB  3000               	movlw	0
  4649  07AC  00B0               	movwf	___flmul@prod+1
  4650  07AD  3000               	movlw	0
  4651  07AE  00AF               	movwf	___flmul@prod
  4652  07AF  2FE5               	goto	l701
  4653  07B0                     l2494:
  4654  07B0  1283               	bcf	3,5	;RP0=0, select bank0
  4655  07B1  1303               	bcf	3,6	;RP1=0, select bank0
  4656  07B2  0834               	movf	___flmul@temp+1,w
  4657  07B3  3A80               	xorlw	128
  4658  07B4  00FF               	movwf	btemp+1
  4659  07B5  3080               	movlw	128
  4660  07B6  027F               	subwf	btemp+1,w
  4661  07B7  1D03               	skipz
  4662  07B8  2FBB               	goto	u3535
  4663  07B9  3001               	movlw	1
  4664  07BA  0233               	subwf	___flmul@temp,w
  4665  07BB                     u3535:
  4666  07BB  1803               	skipnc
  4667  07BC  2FBE               	goto	u3531
  4668  07BD  2FBF               	goto	u3530
  4669  07BE                     u3531:
  4670  07BE  2FCB               	goto	l2500
  4671  07BF                     u3530:
  4672  07BF                     l2496:
  4673  07BF  3000               	movlw	0
  4674  07C0  1283               	bcf	3,5	;RP0=0, select bank0
  4675  07C1  1303               	bcf	3,6	;RP1=0, select bank0
  4676  07C2  00B2               	movwf	___flmul@prod+3
  4677  07C3  3000               	movlw	0
  4678  07C4  00B1               	movwf	___flmul@prod+2
  4679  07C5  3000               	movlw	0
  4680  07C6  00B0               	movwf	___flmul@prod+1
  4681  07C7  3000               	movlw	0
  4682  07C8  00AF               	movwf	___flmul@prod
  4683  07C9                     l2498:
  4684  07C9  01A8               	clrf	___flmul@sign
  4685  07CA  2FE5               	goto	l701
  4686  07CB                     l2500:
  4687  07CB  1283               	bcf	3,5	;RP0=0, select bank0
  4688  07CC  1303               	bcf	3,6	;RP1=0, select bank0
  4689  07CD  0833               	movf	___flmul@temp,w
  4690  07CE  00F9               	movwf	??___flmul
  4691  07CF  0879               	movf	??___flmul,w
  4692  07D0  00AE               	movwf	___flmul@bexp
  4693  07D1  30FF               	movlw	255
  4694  07D2  05AF               	andwf	___flmul@prod,f
  4695  07D3  30FF               	movlw	255
  4696  07D4  05B0               	andwf	___flmul@prod+1,f
  4697  07D5  307F               	movlw	127
  4698  07D6  05B1               	andwf	___flmul@prod+2,f
  4699  07D7  3000               	movlw	0
  4700  07D8  05B2               	andwf	___flmul@prod+3,f
  4701  07D9                     l2502:
  4702  07D9  1C2E               	btfss	___flmul@bexp,0
  4703  07DA  2FDC               	goto	u3541
  4704  07DB  2FDD               	goto	u3540
  4705  07DC                     u3541:
  4706  07DC  2FDE               	goto	l2506
  4707  07DD                     u3540:
  4708  07DD                     l2504:
  4709  07DD  17B1               	bsf	___flmul@prod+2,7
  4710  07DE                     l2506:
  4711  07DE  082E               	movf	___flmul@bexp,w
  4712  07DF  00F9               	movwf	??___flmul
  4713  07E0  1003               	clrc
  4714  07E1  0C79               	rrf	??___flmul,w
  4715  07E2  00FA               	movwf	??___flmul+1
  4716  07E3  087A               	movf	??___flmul+1,w
  4717  07E4  00B2               	movwf	___flmul@prod+3
  4718  07E5                     l701:
  4719  07E5  0828               	movf	___flmul@sign,w
  4720  07E6  00F9               	movwf	??___flmul
  4721  07E7  0879               	movf	??___flmul,w
  4722  07E8  04B2               	iorwf	___flmul@prod+3,f
  4723  07E9                     l2508:
  4724  07E9  0832               	movf	___flmul@prod+3,w
  4725  07EA  00A3               	movwf	?___flmul+3
  4726  07EB  0831               	movf	___flmul@prod+2,w
  4727  07EC  00A2               	movwf	?___flmul+2
  4728  07ED  0830               	movf	___flmul@prod+1,w
  4729  07EE  00A1               	movwf	?___flmul+1
  4730  07EF  082F               	movf	___flmul@prod,w
  4731  07F0  00A0               	movwf	?___flmul
  4732  07F1                     l689:
  4733  07F1  0008               	return
  4734  07F2                     __end_of___flmul:
  4735                           
  4736                           	psect	text11
  4737  0939                     __ptext11:	
  4738 ;; *************** function __Umul8_16 *****************
  4739 ;; Defined at:
  4740 ;;		line 4 in file "C:\Program Files\Microchip\xc8\v2.31\pic\sources\c90\common\Umul8_16.c"
  4741 ;; Parameters:    Size  Location     Type
  4742 ;;  multiplier      1    wreg     unsigned char 
  4743 ;;  multiplicand    1    0[COMMON] unsigned char 
  4744 ;; Auto vars:     Size  Location     Type
  4745 ;;  multiplier      1    8[COMMON] unsigned char 
  4746 ;;  word_mpld       2    6[COMMON] unsigned int 
  4747 ;;  product         2    4[COMMON] unsigned int 
  4748 ;; Return value:  Size  Location     Type
  4749 ;;                  2    0[COMMON] unsigned int 
  4750 ;; Registers used:
  4751 ;;		wreg, status,2, status,0
  4752 ;; Tracked objects:
  4753 ;;		On entry : 0/0
  4754 ;;		On exit  : 0/0
  4755 ;;		Unchanged: 0/0
  4756 ;; Data sizes:     COMMON   BANK0   BANK1   BANK3   BANK2
  4757 ;;      Params:         2       0       0       0       0
  4758 ;;      Locals:         5       0       0       0       0
  4759 ;;      Temps:          2       0       0       0       0
  4760 ;;      Totals:         9       0       0       0       0
  4761 ;;Total ram usage:        9 bytes
  4762 ;; Hardware stack levels used:    1
  4763 ;; This function calls:
  4764 ;;		Nothing
  4765 ;; This function is called by:
  4766 ;;		___flmul
  4767 ;; This function uses a non-reentrant model
  4768 ;;
  4769                           
  4770                           
  4771                           ;psect for function __Umul8_16
  4772  0939                     __Umul8_16:
  4773                           
  4774                           ;incstack = 0
  4775                           ; Regs used in __Umul8_16: [wreg+status,2+status,0]
  4776                           ;__Umul8_16@multiplier stored from wreg
  4777  0939  00F8               	movwf	__Umul8_16@multiplier
  4778  093A                     l2030:
  4779  093A  01F4               	clrf	__Umul8_16@product
  4780  093B  01F5               	clrf	__Umul8_16@product+1
  4781  093C                     l2032:
  4782  093C  0870               	movf	__Umul8_16@multiplicand,w
  4783  093D  00F2               	movwf	??__Umul8_16
  4784  093E  01F3               	clrf	??__Umul8_16+1
  4785  093F  0872               	movf	??__Umul8_16,w
  4786  0940  00F6               	movwf	__Umul8_16@word_mpld
  4787  0941  0873               	movf	??__Umul8_16+1,w
  4788  0942  00F7               	movwf	__Umul8_16@word_mpld+1
  4789  0943                     l2034:
  4790  0943  1C78               	btfss	__Umul8_16@multiplier,0
  4791  0944  2946               	goto	u2481
  4792  0945  2947               	goto	u2480
  4793  0946                     u2481:
  4794  0946  294D               	goto	l708
  4795  0947                     u2480:
  4796  0947                     l2036:
  4797  0947  0876               	movf	__Umul8_16@word_mpld,w
  4798  0948  07F4               	addwf	__Umul8_16@product,f
  4799  0949  1803               	skipnc
  4800  094A  0AF5               	incf	__Umul8_16@product+1,f
  4801  094B  0877               	movf	__Umul8_16@word_mpld+1,w
  4802  094C  07F5               	addwf	__Umul8_16@product+1,f
  4803  094D                     l708:
  4804  094D  3001               	movlw	1
  4805  094E                     u2495:
  4806  094E  1003               	clrc
  4807  094F  0DF6               	rlf	__Umul8_16@word_mpld,f
  4808  0950  0DF7               	rlf	__Umul8_16@word_mpld+1,f
  4809  0951  3EFF               	addlw	-1
  4810  0952  1D03               	skipz
  4811  0953  294E               	goto	u2495
  4812  0954  1003               	clrc
  4813  0955  0CF8               	rrf	__Umul8_16@multiplier,f
  4814  0956                     l2038:
  4815  0956  0878               	movf	__Umul8_16@multiplier,w
  4816  0957  1D03               	btfss	3,2
  4817  0958  295A               	goto	u2501
  4818  0959  295B               	goto	u2500
  4819  095A                     u2501:
  4820  095A  2943               	goto	l2034
  4821  095B                     u2500:
  4822  095B                     l2040:
  4823  095B  0875               	movf	__Umul8_16@product+1,w
  4824  095C  00F1               	movwf	?__Umul8_16+1
  4825  095D  0874               	movf	__Umul8_16@product,w
  4826  095E  00F0               	movwf	?__Umul8_16
  4827  095F                     l710:
  4828  095F  0008               	return
  4829  0960                     __end_of__Umul8_16:
  4830                           
  4831                           	psect	text12
  4832  001C                     __ptext12:	
  4833 ;; *************** function ___fldiv *****************
  4834 ;; Defined at:
  4835 ;;		line 8 in file "C:\Program Files\Microchip\xc8\v2.31\pic\sources\c90\common\sprcdiv.c"
  4836 ;; Parameters:    Size  Location     Type
  4837 ;;  a               4    0[BANK0 ] unsigned int 
  4838 ;;  b               4    4[BANK0 ] unsigned int 
  4839 ;; Auto vars:     Size  Location     Type
  4840 ;;  grs             4   20[BANK0 ] unsigned long 
  4841 ;;  rem             4   13[BANK0 ] unsigned long 
  4842 ;;  new_exp         2   18[BANK0 ] int 
  4843 ;;  aexp            1   25[BANK0 ] unsigned char 
  4844 ;;  bexp            1   24[BANK0 ] unsigned char 
  4845 ;;  sign            1   17[BANK0 ] unsigned char 
  4846 ;; Return value:  Size  Location     Type
  4847 ;;                  4    0[BANK0 ] unsigned char 
  4848 ;; Registers used:
  4849 ;;		wreg, status,2, status,0, btemp+1
  4850 ;; Tracked objects:
  4851 ;;		On entry : 0/0
  4852 ;;		On exit  : 0/0
  4853 ;;		Unchanged: 0/0
  4854 ;; Data sizes:     COMMON   BANK0   BANK1   BANK3   BANK2
  4855 ;;      Params:         0       8       0       0       0
  4856 ;;      Locals:         0      13       0       0       0
  4857 ;;      Temps:          0       5       0       0       0
  4858 ;;      Totals:         0      26       0       0       0
  4859 ;;Total ram usage:       26 bytes
  4860 ;; Hardware stack levels used:    1
  4861 ;; This function calls:
  4862 ;;		Nothing
  4863 ;; This function is called by:
  4864 ;;		_decimalASCII
  4865 ;; This function uses a non-reentrant model
  4866 ;;
  4867                           
  4868                           
  4869                           ;psect for function ___fldiv
  4870  001C                     ___fldiv:
  4871  001C                     l2230:	
  4872                           ;incstack = 0
  4873                           ; Regs used in ___fldiv: [wreg+status,2+status,0+btemp+1]
  4874                           
  4875  001C  1283               	bcf	3,5	;RP0=0, select bank0
  4876  001D  1303               	bcf	3,6	;RP1=0, select bank0
  4877  001E  0827               	movf	___fldiv@b+3,w
  4878  001F  3980               	andlw	128
  4879  0020  00A8               	movwf	??___fldiv
  4880  0021  0828               	movf	??___fldiv,w
  4881  0022  00B1               	movwf	___fldiv@sign
  4882  0023                     l2232:
  4883  0023  0827               	movf	___fldiv@b+3,w
  4884  0024  00A8               	movwf	??___fldiv
  4885  0025  0728               	addwf	??___fldiv,w
  4886  0026  00A9               	movwf	??___fldiv+1
  4887  0027  0829               	movf	??___fldiv+1,w
  4888  0028  00B8               	movwf	___fldiv@bexp
  4889  0029                     l2234:
  4890  0029  1FA6               	btfss	___fldiv@b+2,7
  4891  002A  282C               	goto	u2891
  4892  002B  282D               	goto	u2890
  4893  002C                     u2891:
  4894  002C  282E               	goto	l2238
  4895  002D                     u2890:
  4896  002D                     l2236:
  4897  002D  1438               	bsf	___fldiv@bexp,0
  4898  002E                     l2238:
  4899  002E  0838               	movf	___fldiv@bexp,w
  4900  002F  1903               	btfsc	3,2
  4901  0030  2832               	goto	u2901
  4902  0031  2833               	goto	u2900
  4903  0032                     u2901:
  4904  0032  2843               	goto	l2248
  4905  0033                     u2900:
  4906  0033                     l2240:
  4907  0033  0A38               	incf	___fldiv@bexp,w
  4908  0034  1D03               	btfss	3,2
  4909  0035  2837               	goto	u2911
  4910  0036  2838               	goto	u2910
  4911  0037                     u2911:
  4912  0037  2840               	goto	l2244
  4913  0038                     u2910:
  4914  0038                     l2242:
  4915  0038  3000               	movlw	0
  4916  0039  00A7               	movwf	___fldiv@b+3
  4917  003A  3000               	movlw	0
  4918  003B  00A6               	movwf	___fldiv@b+2
  4919  003C  3000               	movlw	0
  4920  003D  00A5               	movwf	___fldiv@b+1
  4921  003E  3000               	movlw	0
  4922  003F  00A4               	movwf	___fldiv@b
  4923  0040                     l2244:
  4924  0040  17A6               	bsf	___fldiv@b+2,7
  4925  0041                     l2246:
  4926  0041  01A7               	clrf	___fldiv@b+3
  4927  0042  284B               	goto	l2250
  4928  0043                     l2248:
  4929  0043  3000               	movlw	0
  4930  0044  00A7               	movwf	___fldiv@b+3
  4931  0045  3000               	movlw	0
  4932  0046  00A6               	movwf	___fldiv@b+2
  4933  0047  3000               	movlw	0
  4934  0048  00A5               	movwf	___fldiv@b+1
  4935  0049  3000               	movlw	0
  4936  004A  00A4               	movwf	___fldiv@b
  4937  004B                     l2250:
  4938  004B  0823               	movf	___fldiv@a+3,w
  4939  004C  3980               	andlw	128
  4940  004D  00A8               	movwf	??___fldiv
  4941  004E  0828               	movf	??___fldiv,w
  4942  004F  06B1               	xorwf	___fldiv@sign,f
  4943  0050                     l2252:
  4944  0050  0823               	movf	___fldiv@a+3,w
  4945  0051  00A8               	movwf	??___fldiv
  4946  0052  0728               	addwf	??___fldiv,w
  4947  0053  00A9               	movwf	??___fldiv+1
  4948  0054  0829               	movf	??___fldiv+1,w
  4949  0055  00B9               	movwf	___fldiv@aexp
  4950  0056                     l2254:
  4951  0056  1FA2               	btfss	___fldiv@a+2,7
  4952  0057  2859               	goto	u2921
  4953  0058  285A               	goto	u2920
  4954  0059                     u2921:
  4955  0059  285B               	goto	l2258
  4956  005A                     u2920:
  4957  005A                     l2256:
  4958  005A  1439               	bsf	___fldiv@aexp,0
  4959  005B                     l2258:
  4960  005B  0839               	movf	___fldiv@aexp,w
  4961  005C  1903               	btfsc	3,2
  4962  005D  285F               	goto	u2931
  4963  005E  2860               	goto	u2930
  4964  005F                     u2931:
  4965  005F  2870               	goto	l2268
  4966  0060                     u2930:
  4967  0060                     l2260:
  4968  0060  0A39               	incf	___fldiv@aexp,w
  4969  0061  1D03               	btfss	3,2
  4970  0062  2864               	goto	u2941
  4971  0063  2865               	goto	u2940
  4972  0064                     u2941:
  4973  0064  286D               	goto	l2264
  4974  0065                     u2940:
  4975  0065                     l2262:
  4976  0065  3000               	movlw	0
  4977  0066  00A3               	movwf	___fldiv@a+3
  4978  0067  3000               	movlw	0
  4979  0068  00A2               	movwf	___fldiv@a+2
  4980  0069  3000               	movlw	0
  4981  006A  00A1               	movwf	___fldiv@a+1
  4982  006B  3000               	movlw	0
  4983  006C  00A0               	movwf	___fldiv@a
  4984  006D                     l2264:
  4985  006D  17A2               	bsf	___fldiv@a+2,7
  4986  006E                     l2266:
  4987  006E  01A3               	clrf	___fldiv@a+3
  4988  006F  2878               	goto	l649
  4989  0070                     l2268:
  4990  0070  3000               	movlw	0
  4991  0071  00A3               	movwf	___fldiv@a+3
  4992  0072  3000               	movlw	0
  4993  0073  00A2               	movwf	___fldiv@a+2
  4994  0074  3000               	movlw	0
  4995  0075  00A1               	movwf	___fldiv@a+1
  4996  0076  3000               	movlw	0
  4997  0077  00A0               	movwf	___fldiv@a
  4998  0078                     l649:
  4999  0078  0823               	movf	___fldiv@a+3,w
  5000  0079  0422               	iorwf	___fldiv@a+2,w
  5001  007A  0421               	iorwf	___fldiv@a+1,w
  5002  007B  0420               	iorwf	___fldiv@a,w
  5003  007C  1D03               	skipz
  5004  007D  287F               	goto	u2951
  5005  007E  2880               	goto	u2950
  5006  007F                     u2951:
  5007  007F  2899               	goto	l2278
  5008  0080                     u2950:
  5009  0080                     l2270:
  5010  0080  3000               	movlw	0
  5011  0081  00A7               	movwf	___fldiv@b+3
  5012  0082  3000               	movlw	0
  5013  0083  00A6               	movwf	___fldiv@b+2
  5014  0084  3000               	movlw	0
  5015  0085  00A5               	movwf	___fldiv@b+1
  5016  0086  3000               	movlw	0
  5017  0087  00A4               	movwf	___fldiv@b
  5018  0088  3080               	movlw	128
  5019  0089  04A6               	iorwf	___fldiv@b+2,f
  5020  008A  307F               	movlw	127
  5021  008B  04A7               	iorwf	___fldiv@b+3,f
  5022  008C                     l2272:
  5023  008C  0831               	movf	___fldiv@sign,w
  5024  008D  00A8               	movwf	??___fldiv
  5025  008E  0828               	movf	??___fldiv,w
  5026  008F  04A7               	iorwf	___fldiv@b+3,f
  5027  0090                     l2274:
  5028  0090  0827               	movf	___fldiv@b+3,w
  5029  0091  00A3               	movwf	?___fldiv+3
  5030  0092  0826               	movf	___fldiv@b+2,w
  5031  0093  00A2               	movwf	?___fldiv+2
  5032  0094  0825               	movf	___fldiv@b+1,w
  5033  0095  00A1               	movwf	?___fldiv+1
  5034  0096  0824               	movf	___fldiv@b,w
  5035  0097  00A0               	movwf	?___fldiv
  5036  0098  29F8               	goto	l651
  5037  0099                     l2278:
  5038  0099  0838               	movf	___fldiv@bexp,w
  5039  009A  1D03               	btfss	3,2
  5040  009B  289D               	goto	u2961
  5041  009C  289E               	goto	u2960
  5042  009D                     u2961:
  5043  009D  28A7               	goto	l2284
  5044  009E                     u2960:
  5045  009E                     l2280:
  5046  009E  3000               	movlw	0
  5047  009F  00A3               	movwf	?___fldiv+3
  5048  00A0  3000               	movlw	0
  5049  00A1  00A2               	movwf	?___fldiv+2
  5050  00A2  3000               	movlw	0
  5051  00A3  00A1               	movwf	?___fldiv+1
  5052  00A4  3000               	movlw	0
  5053  00A5  00A0               	movwf	?___fldiv
  5054  00A6  29F8               	goto	l651
  5055  00A7                     l2284:
  5056  00A7  0838               	movf	___fldiv@bexp,w
  5057  00A8  00A8               	movwf	??___fldiv
  5058  00A9  01A9               	clrf	??___fldiv+1
  5059  00AA  0829               	movf	??___fldiv+1,w
  5060  00AB  00AB               	movwf	??___fldiv+3
  5061  00AC  0839               	movf	___fldiv@aexp,w
  5062  00AD  0228               	subwf	??___fldiv,w
  5063  00AE  00AA               	movwf	??___fldiv+2
  5064  00AF  1C03               	skipc
  5065  00B0  03AB               	decf	??___fldiv+3,f
  5066  00B1  082A               	movf	??___fldiv+2,w
  5067  00B2  3E7F               	addlw	127
  5068  00B3  00B2               	movwf	___fldiv@new_exp
  5069  00B4  082B               	movf	??___fldiv+3,w
  5070  00B5  1803               	skipnc
  5071  00B6  3E01               	addlw	1
  5072  00B7  3E00               	addlw	0
  5073  00B8  00B3               	movwf	___fldiv@new_exp+1
  5074  00B9                     l2286:
  5075  00B9  0827               	movf	___fldiv@b+3,w
  5076  00BA  00B0               	movwf	___fldiv@rem+3
  5077  00BB  0826               	movf	___fldiv@b+2,w
  5078  00BC  00AF               	movwf	___fldiv@rem+2
  5079  00BD  0825               	movf	___fldiv@b+1,w
  5080  00BE  00AE               	movwf	___fldiv@rem+1
  5081  00BF  0824               	movf	___fldiv@b,w
  5082  00C0  00AD               	movwf	___fldiv@rem
  5083  00C1                     l2288:
  5084  00C1  3000               	movlw	0
  5085  00C2  00A7               	movwf	___fldiv@b+3
  5086  00C3  3000               	movlw	0
  5087  00C4  00A6               	movwf	___fldiv@b+2
  5088  00C5  3000               	movlw	0
  5089  00C6  00A5               	movwf	___fldiv@b+1
  5090  00C7  3000               	movlw	0
  5091  00C8  00A4               	movwf	___fldiv@b
  5092  00C9                     l2290:
  5093  00C9  3000               	movlw	0
  5094  00CA  00B7               	movwf	___fldiv@grs+3
  5095  00CB  3000               	movlw	0
  5096  00CC  00B6               	movwf	___fldiv@grs+2
  5097  00CD  3000               	movlw	0
  5098  00CE  00B5               	movwf	___fldiv@grs+1
  5099  00CF  3000               	movlw	0
  5100  00D0  00B4               	movwf	___fldiv@grs
  5101  00D1                     l2292:
  5102  00D1  01B9               	clrf	___fldiv@aexp
  5103  00D2  291D               	goto	l2312
  5104  00D3                     l2294:
  5105  00D3  0839               	movf	___fldiv@aexp,w
  5106  00D4  1903               	btfsc	3,2
  5107  00D5  28D7               	goto	u2971
  5108  00D6  28D8               	goto	u2970
  5109  00D7                     u2971:
  5110  00D7  28F8               	goto	l2304
  5111  00D8                     u2970:
  5112  00D8                     l2296:
  5113  00D8  3001               	movlw	1
  5114  00D9  00A8               	movwf	??___fldiv
  5115  00DA                     u2985:
  5116  00DA  1003               	clrc
  5117  00DB  0DAD               	rlf	___fldiv@rem,f
  5118  00DC  0DAE               	rlf	___fldiv@rem+1,f
  5119  00DD  0DAF               	rlf	___fldiv@rem+2,f
  5120  00DE  0DB0               	rlf	___fldiv@rem+3,f
  5121  00DF  0BA8               	decfsz	??___fldiv,f
  5122  00E0  28DA               	goto	u2985
  5123  00E1  3001               	movlw	1
  5124  00E2  00A8               	movwf	??___fldiv
  5125  00E3                     u2995:
  5126  00E3  1003               	clrc
  5127  00E4  0DA4               	rlf	___fldiv@b,f
  5128  00E5  0DA5               	rlf	___fldiv@b+1,f
  5129  00E6  0DA6               	rlf	___fldiv@b+2,f
  5130  00E7  0DA7               	rlf	___fldiv@b+3,f
  5131  00E8  0BA8               	decfsz	??___fldiv,f
  5132  00E9  28E3               	goto	u2995
  5133  00EA                     l2298:
  5134  00EA  1FB7               	btfss	___fldiv@grs+3,7
  5135  00EB  28ED               	goto	u3001
  5136  00EC  28EE               	goto	u3000
  5137  00ED                     u3001:
  5138  00ED  28EF               	goto	l2302
  5139  00EE                     u3000:
  5140  00EE                     l2300:
  5141  00EE  1424               	bsf	___fldiv@b,0
  5142  00EF                     l2302:
  5143  00EF  3001               	movlw	1
  5144  00F0  00A8               	movwf	??___fldiv
  5145  00F1                     u3015:
  5146  00F1  1003               	clrc
  5147  00F2  0DB4               	rlf	___fldiv@grs,f
  5148  00F3  0DB5               	rlf	___fldiv@grs+1,f
  5149  00F4  0DB6               	rlf	___fldiv@grs+2,f
  5150  00F5  0DB7               	rlf	___fldiv@grs+3,f
  5151  00F6  0BA8               	decfsz	??___fldiv,f
  5152  00F7  28F1               	goto	u3015
  5153  00F8                     l2304:
  5154  00F8  0823               	movf	___fldiv@a+3,w
  5155  00F9  0230               	subwf	___fldiv@rem+3,w
  5156  00FA  1D03               	skipz
  5157  00FB  2906               	goto	u3025
  5158  00FC  0822               	movf	___fldiv@a+2,w
  5159  00FD  022F               	subwf	___fldiv@rem+2,w
  5160  00FE  1D03               	skipz
  5161  00FF  2906               	goto	u3025
  5162  0100  0821               	movf	___fldiv@a+1,w
  5163  0101  022E               	subwf	___fldiv@rem+1,w
  5164  0102  1D03               	skipz
  5165  0103  2906               	goto	u3025
  5166  0104  0820               	movf	___fldiv@a,w
  5167  0105  022D               	subwf	___fldiv@rem,w
  5168  0106                     u3025:
  5169  0106  1C03               	skipc
  5170  0107  2909               	goto	u3021
  5171  0108  290A               	goto	u3020
  5172  0109                     u3021:
  5173  0109  2919               	goto	l2310
  5174  010A                     u3020:
  5175  010A                     l2306:
  5176  010A  1737               	bsf	___fldiv@grs+3,6
  5177  010B                     l2308:
  5178  010B  0820               	movf	___fldiv@a,w
  5179  010C  02AD               	subwf	___fldiv@rem,f
  5180  010D  0821               	movf	___fldiv@a+1,w
  5181  010E  1C03               	skipc
  5182  010F  0F21               	incfsz	___fldiv@a+1,w
  5183  0110  02AE               	subwf	___fldiv@rem+1,f
  5184  0111  0822               	movf	___fldiv@a+2,w
  5185  0112  1C03               	skipc
  5186  0113  0F22               	incfsz	___fldiv@a+2,w
  5187  0114  02AF               	subwf	___fldiv@rem+2,f
  5188  0115  0823               	movf	___fldiv@a+3,w
  5189  0116  1C03               	skipc
  5190  0117  0F23               	incfsz	___fldiv@a+3,w
  5191  0118  02B0               	subwf	___fldiv@rem+3,f
  5192  0119                     l2310:
  5193  0119  3001               	movlw	1
  5194  011A  00A8               	movwf	??___fldiv
  5195  011B  0828               	movf	??___fldiv,w
  5196  011C  07B9               	addwf	___fldiv@aexp,f
  5197  011D                     l2312:
  5198  011D  301A               	movlw	26
  5199  011E  0239               	subwf	___fldiv@aexp,w
  5200  011F  1C03               	skipc
  5201  0120  2922               	goto	u3031
  5202  0121  2923               	goto	u3030
  5203  0122                     u3031:
  5204  0122  28D3               	goto	l2294
  5205  0123                     u3030:
  5206  0123                     l2314:
  5207  0123  0830               	movf	___fldiv@rem+3,w
  5208  0124  042F               	iorwf	___fldiv@rem+2,w
  5209  0125  042E               	iorwf	___fldiv@rem+1,w
  5210  0126  042D               	iorwf	___fldiv@rem,w
  5211  0127  1903               	skipnz
  5212  0128  292A               	goto	u3041
  5213  0129  292B               	goto	u3040
  5214  012A                     u3041:
  5215  012A  294A               	goto	l2328
  5216  012B                     u3040:
  5217  012B                     l2316:
  5218  012B  1434               	bsf	___fldiv@grs,0
  5219  012C  294A               	goto	l2328
  5220  012D                     l2318:
  5221  012D  3001               	movlw	1
  5222  012E  00A8               	movwf	??___fldiv
  5223  012F                     u3055:
  5224  012F  1003               	clrc
  5225  0130  0DA4               	rlf	___fldiv@b,f
  5226  0131  0DA5               	rlf	___fldiv@b+1,f
  5227  0132  0DA6               	rlf	___fldiv@b+2,f
  5228  0133  0DA7               	rlf	___fldiv@b+3,f
  5229  0134  0BA8               	decfsz	??___fldiv,f
  5230  0135  292F               	goto	u3055
  5231  0136                     l2320:
  5232  0136  1FB7               	btfss	___fldiv@grs+3,7
  5233  0137  2939               	goto	u3061
  5234  0138  293A               	goto	u3060
  5235  0139                     u3061:
  5236  0139  293B               	goto	l2324
  5237  013A                     u3060:
  5238  013A                     l2322:
  5239  013A  1424               	bsf	___fldiv@b,0
  5240  013B                     l2324:
  5241  013B  3001               	movlw	1
  5242  013C  00A8               	movwf	??___fldiv
  5243  013D                     u3075:
  5244  013D  1003               	clrc
  5245  013E  0DB4               	rlf	___fldiv@grs,f
  5246  013F  0DB5               	rlf	___fldiv@grs+1,f
  5247  0140  0DB6               	rlf	___fldiv@grs+2,f
  5248  0141  0DB7               	rlf	___fldiv@grs+3,f
  5249  0142  0BA8               	decfsz	??___fldiv,f
  5250  0143  293D               	goto	u3075
  5251  0144                     l2326:
  5252  0144  30FF               	movlw	255
  5253  0145  07B2               	addwf	___fldiv@new_exp,f
  5254  0146  1803               	skipnc
  5255  0147  0AB3               	incf	___fldiv@new_exp+1,f
  5256  0148  30FF               	movlw	255
  5257  0149  07B3               	addwf	___fldiv@new_exp+1,f
  5258  014A                     l2328:
  5259  014A  1FA6               	btfss	___fldiv@b+2,7
  5260  014B  294D               	goto	u3081
  5261  014C  294E               	goto	u3080
  5262  014D                     u3081:
  5263  014D  292D               	goto	l2318
  5264  014E                     u3080:
  5265  014E                     l2330:
  5266  014E  01B9               	clrf	___fldiv@aexp
  5267  014F                     l2332:
  5268  014F  1FB7               	btfss	___fldiv@grs+3,7
  5269  0150  2952               	goto	u3091
  5270  0151  2953               	goto	u3090
  5271  0152                     u3091:
  5272  0152  296F               	goto	l2340
  5273  0153                     u3090:
  5274  0153                     l2334:
  5275  0153  30FF               	movlw	255
  5276  0154  0534               	andwf	___fldiv@grs,w
  5277  0155  00A8               	movwf	??___fldiv
  5278  0156  30FF               	movlw	255
  5279  0157  0535               	andwf	___fldiv@grs+1,w
  5280  0158  00A9               	movwf	??___fldiv+1
  5281  0159  30FF               	movlw	255
  5282  015A  0536               	andwf	___fldiv@grs+2,w
  5283  015B  00AA               	movwf	??___fldiv+2
  5284  015C  307F               	movlw	127
  5285  015D  0537               	andwf	___fldiv@grs+3,w
  5286  015E  00AB               	movwf	??___fldiv+3
  5287  015F  082B               	movf	??___fldiv+3,w
  5288  0160  042A               	iorwf	??___fldiv+2,w
  5289  0161  0429               	iorwf	??___fldiv+1,w
  5290  0162  0428               	iorwf	??___fldiv,w
  5291  0163  1903               	skipnz
  5292  0164  2966               	goto	u3101
  5293  0165  2967               	goto	u3100
  5294  0166                     u3101:
  5295  0166  296A               	goto	l665
  5296  0167                     u3100:
  5297  0167                     l2336:
  5298  0167  01B9               	clrf	___fldiv@aexp
  5299  0168  0AB9               	incf	___fldiv@aexp,f
  5300  0169  296F               	goto	l2340
  5301  016A                     l665:
  5302  016A  1C24               	btfss	___fldiv@b,0
  5303  016B  296D               	goto	u3111
  5304  016C  296E               	goto	u3110
  5305  016D                     u3111:
  5306  016D  296F               	goto	l2340
  5307  016E                     u3110:
  5308  016E  2967               	goto	l2336
  5309  016F                     l2340:
  5310  016F  0839               	movf	___fldiv@aexp,w
  5311  0170  1903               	btfsc	3,2
  5312  0171  2973               	goto	u3121
  5313  0172  2974               	goto	u3120
  5314  0173                     u3121:
  5315  0173  29A5               	goto	l2350
  5316  0174                     u3120:
  5317  0174                     l2342:
  5318  0174  3001               	movlw	1
  5319  0175  07A4               	addwf	___fldiv@b,f
  5320  0176  3000               	movlw	0
  5321  0177  1803               	skipnc
  5322  0178  3001               	movlw	1
  5323  0179  07A5               	addwf	___fldiv@b+1,f
  5324  017A  3000               	movlw	0
  5325  017B  1803               	skipnc
  5326  017C  3001               	movlw	1
  5327  017D  07A6               	addwf	___fldiv@b+2,f
  5328  017E  3000               	movlw	0
  5329  017F  1803               	skipnc
  5330  0180  3001               	movlw	1
  5331  0181  07A7               	addwf	___fldiv@b+3,f
  5332  0182                     l2344:
  5333  0182  1C27               	btfss	___fldiv@b+3,0
  5334  0183  2985               	goto	u3131
  5335  0184  2986               	goto	u3130
  5336  0185                     u3131:
  5337  0185  29A5               	goto	l2350
  5338  0186                     u3130:
  5339  0186                     l2346:
  5340  0186  0824               	movf	___fldiv@b,w
  5341  0187  00A8               	movwf	??___fldiv
  5342  0188  0825               	movf	___fldiv@b+1,w
  5343  0189  00A9               	movwf	??___fldiv+1
  5344  018A  0826               	movf	___fldiv@b+2,w
  5345  018B  00AA               	movwf	??___fldiv+2
  5346  018C  0827               	movf	___fldiv@b+3,w
  5347  018D  00AB               	movwf	??___fldiv+3
  5348  018E  3001               	movlw	1
  5349  018F  00AC               	movwf	??___fldiv+4
  5350  0190                     u3145:
  5351  0190  0D2B               	rlf	??___fldiv+3,w
  5352  0191  0CAB               	rrf	??___fldiv+3,f
  5353  0192  0CAA               	rrf	??___fldiv+2,f
  5354  0193  0CA9               	rrf	??___fldiv+1,f
  5355  0194  0CA8               	rrf	??___fldiv,f
  5356  0195                     u3140:
  5357  0195  0BAC               	decfsz	??___fldiv+4,f
  5358  0196  2990               	goto	u3145
  5359  0197  082B               	movf	??___fldiv+3,w
  5360  0198  00A7               	movwf	___fldiv@b+3
  5361  0199  082A               	movf	??___fldiv+2,w
  5362  019A  00A6               	movwf	___fldiv@b+2
  5363  019B  0829               	movf	??___fldiv+1,w
  5364  019C  00A5               	movwf	___fldiv@b+1
  5365  019D  0828               	movf	??___fldiv,w
  5366  019E  00A4               	movwf	___fldiv@b
  5367  019F                     l2348:
  5368  019F  3001               	movlw	1
  5369  01A0  07B2               	addwf	___fldiv@new_exp,f
  5370  01A1  1803               	skipnc
  5371  01A2  0AB3               	incf	___fldiv@new_exp+1,f
  5372  01A3  3000               	movlw	0
  5373  01A4  07B3               	addwf	___fldiv@new_exp+1,f
  5374  01A5                     l2350:
  5375  01A5  0833               	movf	___fldiv@new_exp+1,w
  5376  01A6  3A80               	xorlw	128
  5377  01A7  00FF               	movwf	btemp+1
  5378  01A8  3080               	movlw	128
  5379  01A9  027F               	subwf	btemp+1,w
  5380  01AA  1D03               	skipz
  5381  01AB  29AE               	goto	u3155
  5382  01AC  30FF               	movlw	255
  5383  01AD  0232               	subwf	___fldiv@new_exp,w
  5384  01AE                     u3155:
  5385  01AE  1C03               	skipc
  5386  01AF  29B1               	goto	u3151
  5387  01B0  29B2               	goto	u3150
  5388  01B1                     u3151:
  5389  01B1  29C0               	goto	l2354
  5390  01B2                     u3150:
  5391  01B2                     l2352:
  5392  01B2  30FF               	movlw	255
  5393  01B3  1283               	bcf	3,5	;RP0=0, select bank0
  5394  01B4  1303               	bcf	3,6	;RP1=0, select bank0
  5395  01B5  00B2               	movwf	___fldiv@new_exp
  5396  01B6  3000               	movlw	0
  5397  01B7  00B3               	movwf	___fldiv@new_exp+1
  5398  01B8  3000               	movlw	0
  5399  01B9  00A7               	movwf	___fldiv@b+3
  5400  01BA  3000               	movlw	0
  5401  01BB  00A6               	movwf	___fldiv@b+2
  5402  01BC  3000               	movlw	0
  5403  01BD  00A5               	movwf	___fldiv@b+1
  5404  01BE  3000               	movlw	0
  5405  01BF  00A4               	movwf	___fldiv@b
  5406  01C0                     l2354:
  5407  01C0  1283               	bcf	3,5	;RP0=0, select bank0
  5408  01C1  1303               	bcf	3,6	;RP1=0, select bank0
  5409  01C2  0833               	movf	___fldiv@new_exp+1,w
  5410  01C3  3A80               	xorlw	128
  5411  01C4  00FF               	movwf	btemp+1
  5412  01C5  3080               	movlw	128
  5413  01C6  027F               	subwf	btemp+1,w
  5414  01C7  1D03               	skipz
  5415  01C8  29CB               	goto	u3165
  5416  01C9  3001               	movlw	1
  5417  01CA  0232               	subwf	___fldiv@new_exp,w
  5418  01CB                     u3165:
  5419  01CB  1803               	skipnc
  5420  01CC  29CE               	goto	u3161
  5421  01CD  29CF               	goto	u3160
  5422  01CE                     u3161:
  5423  01CE  29DC               	goto	l671
  5424  01CF                     u3160:
  5425  01CF                     l2356:
  5426  01CF  1283               	bcf	3,5	;RP0=0, select bank0
  5427  01D0  1303               	bcf	3,6	;RP1=0, select bank0
  5428  01D1  01B2               	clrf	___fldiv@new_exp
  5429  01D2  01B3               	clrf	___fldiv@new_exp+1
  5430  01D3                     l2358:
  5431  01D3  3000               	movlw	0
  5432  01D4  00A7               	movwf	___fldiv@b+3
  5433  01D5  3000               	movlw	0
  5434  01D6  00A6               	movwf	___fldiv@b+2
  5435  01D7  3000               	movlw	0
  5436  01D8  00A5               	movwf	___fldiv@b+1
  5437  01D9  3000               	movlw	0
  5438  01DA  00A4               	movwf	___fldiv@b
  5439  01DB                     l2360:
  5440  01DB  01B1               	clrf	___fldiv@sign
  5441  01DC                     l671:
  5442  01DC  1283               	bcf	3,5	;RP0=0, select bank0
  5443  01DD  1303               	bcf	3,6	;RP1=0, select bank0
  5444  01DE  0832               	movf	___fldiv@new_exp,w
  5445  01DF  00A8               	movwf	??___fldiv
  5446  01E0  0828               	movf	??___fldiv,w
  5447  01E1  00B8               	movwf	___fldiv@bexp
  5448  01E2                     l2362:
  5449  01E2  1C38               	btfss	___fldiv@bexp,0
  5450  01E3  29E5               	goto	u3171
  5451  01E4  29E6               	goto	u3170
  5452  01E5                     u3171:
  5453  01E5  29E8               	goto	l2366
  5454  01E6                     u3170:
  5455  01E6                     l2364:
  5456  01E6  17A6               	bsf	___fldiv@b+2,7
  5457  01E7  29EC               	goto	l673
  5458  01E8                     l2366:
  5459  01E8  307F               	movlw	127
  5460  01E9  00A8               	movwf	??___fldiv
  5461  01EA  0828               	movf	??___fldiv,w
  5462  01EB  05A6               	andwf	___fldiv@b+2,f
  5463  01EC                     l673:
  5464  01EC  0838               	movf	___fldiv@bexp,w
  5465  01ED  00A8               	movwf	??___fldiv
  5466  01EE  1003               	clrc
  5467  01EF  0C28               	rrf	??___fldiv,w
  5468  01F0  00A9               	movwf	??___fldiv+1
  5469  01F1  0829               	movf	??___fldiv+1,w
  5470  01F2  00A7               	movwf	___fldiv@b+3
  5471  01F3  0831               	movf	___fldiv@sign,w
  5472  01F4  00A8               	movwf	??___fldiv
  5473  01F5  0828               	movf	??___fldiv,w
  5474  01F6  04A7               	iorwf	___fldiv@b+3,f
  5475  01F7  2890               	goto	l2274
  5476  01F8                     l651:
  5477  01F8  0008               	return
  5478  01F9                     __end_of___fldiv:
  5479                           
  5480                           	psect	text13
  5481  0887                     __ptext13:	
  5482 ;; *************** function _configADC *****************
  5483 ;; Defined at:
  5484 ;;		line 141 in file "ADC.c"
  5485 ;; Parameters:    Size  Location     Type
  5486 ;;		None
  5487 ;; Auto vars:     Size  Location     Type
  5488 ;;		None
  5489 ;; Return value:  Size  Location     Type
  5490 ;;                  1    wreg      void 
  5491 ;; Registers used:
  5492 ;;		None
  5493 ;; Tracked objects:
  5494 ;;		On entry : 0/0
  5495 ;;		On exit  : 0/0
  5496 ;;		Unchanged: 0/0
  5497 ;; Data sizes:     COMMON   BANK0   BANK1   BANK3   BANK2
  5498 ;;      Params:         0       0       0       0       0
  5499 ;;      Locals:         0       0       0       0       0
  5500 ;;      Temps:          0       0       0       0       0
  5501 ;;      Totals:         0       0       0       0       0
  5502 ;;Total ram usage:        0 bytes
  5503 ;; Hardware stack levels used:    1
  5504 ;; This function calls:
  5505 ;;		Nothing
  5506 ;; This function is called by:
  5507 ;;		_main
  5508 ;; This function uses a non-reentrant model
  5509 ;;
  5510                           
  5511                           
  5512                           ;psect for function _configADC
  5513  0887                     _configADC:
  5514  0887                     l2644:	
  5515                           ;incstack = 0
  5516                           ; Regs used in _configADC: []
  5517                           
  5518                           
  5519                           ;ADC.c: 143:     ADCON0bits.ADCS0 = 1;
  5520  0887  1283               	bcf	3,5	;RP0=0, select bank0
  5521  0888  1303               	bcf	3,6	;RP1=0, select bank0
  5522  0889  171F               	bsf	31,6	;volatile
  5523                           
  5524                           ;ADC.c: 144:     ADCON0bits.ADCS1 = 0;
  5525  088A  139F               	bcf	31,7	;volatile
  5526                           
  5527                           ;ADC.c: 146:     ADCON1bits.VCFG0 = 0;
  5528  088B  1683               	bsf	3,5	;RP0=1, select bank1
  5529  088C  1303               	bcf	3,6	;RP1=0, select bank1
  5530  088D  121F               	bcf	31,4	;volatile
  5531                           
  5532                           ;ADC.c: 147:     ADCON1bits.VCFG1 = 0;
  5533  088E  129F               	bcf	31,5	;volatile
  5534                           
  5535                           ;ADC.c: 149:     ADCON1bits.ADFM = 0;
  5536  088F  139F               	bcf	31,7	;volatile
  5537                           
  5538                           ;ADC.c: 151:     PIR1bits.ADIF = 0;
  5539  0890  1283               	bcf	3,5	;RP0=0, select bank0
  5540  0891  1303               	bcf	3,6	;RP1=0, select bank0
  5541  0892  130C               	bcf	12,6	;volatile
  5542                           
  5543                           ;ADC.c: 152:     PIE1bits.ADIE = 1;
  5544  0893  1683               	bsf	3,5	;RP0=1, select bank1
  5545  0894  1303               	bcf	3,6	;RP1=0, select bank1
  5546  0895  170C               	bsf	12,6	;volatile
  5547                           
  5548                           ;ADC.c: 154:     ADCON0bits.ADON = 1;
  5549  0896  1283               	bcf	3,5	;RP0=0, select bank0
  5550  0897  1303               	bcf	3,6	;RP1=0, select bank0
  5551  0898  141F               	bsf	31,0	;volatile
  5552  0899                     l214:
  5553  0899  0008               	return
  5554  089A                     __end_of_configADC:
  5555                           
  5556                           	psect	text14
  5557  0C43                     __ptext14:	
  5558 ;; *************** function _canalADC *****************
  5559 ;; Defined at:
  5560 ;;		line 13 in file "ADC.c"
  5561 ;; Parameters:    Size  Location     Type
  5562 ;;  canal           1    wreg     unsigned char 
  5563 ;; Auto vars:     Size  Location     Type
  5564 ;;  canal           1    0[COMMON] unsigned char 
  5565 ;; Return value:  Size  Location     Type
  5566 ;;                  1    wreg      void 
  5567 ;; Registers used:
  5568 ;;		wreg, status,2, status,0
  5569 ;; Tracked objects:
  5570 ;;		On entry : 0/0
  5571 ;;		On exit  : 0/0
  5572 ;;		Unchanged: 0/0
  5573 ;; Data sizes:     COMMON   BANK0   BANK1   BANK3   BANK2
  5574 ;;      Params:         0       0       0       0       0
  5575 ;;      Locals:         1       0       0       0       0
  5576 ;;      Temps:          0       0       0       0       0
  5577 ;;      Totals:         1       0       0       0       0
  5578 ;;Total ram usage:        1 bytes
  5579 ;; Hardware stack levels used:    1
  5580 ;; This function calls:
  5581 ;;		Nothing
  5582 ;; This function is called by:
  5583 ;;		_main
  5584 ;; This function uses a non-reentrant model
  5585 ;;
  5586                           
  5587                           
  5588                           ;psect for function _canalADC
  5589  0C43                     _canalADC:
  5590                           
  5591                           ;incstack = 0
  5592                           ; Regs used in _canalADC: [wreg+status,2+status,0]
  5593                           ;canalADC@canal stored from wreg
  5594  0C43  00F0               	movwf	canalADC@canal
  5595  0C44                     l2646:
  5596                           
  5597                           ;ADC.c: 15:     if (canal == 0) {
  5598  0C44  0870               	movf	canalADC@canal,w
  5599  0C45  1D03               	btfss	3,2
  5600  0C46  2C48               	goto	u3751
  5601  0C47  2C49               	goto	u3750
  5602  0C48                     u3751:
  5603  0C48  2C4F               	goto	l2650
  5604  0C49                     u3750:
  5605  0C49                     l2648:
  5606                           
  5607                           ;ADC.c: 16:         ADCON0bits.CHS3 = 0;
  5608  0C49  1283               	bcf	3,5	;RP0=0, select bank0
  5609  0C4A  1303               	bcf	3,6	;RP1=0, select bank0
  5610  0C4B  129F               	bcf	31,5	;volatile
  5611                           
  5612                           ;ADC.c: 17:         ADCON0bits.CHS2 = 0;
  5613  0C4C  121F               	bcf	31,4	;volatile
  5614                           
  5615                           ;ADC.c: 18:         ADCON0bits.CHS1 = 0;
  5616  0C4D  119F               	bcf	31,3	;volatile
  5617                           
  5618                           ;ADC.c: 19:         ADCON0bits.CHS0 = 0;
  5619  0C4E  111F               	bcf	31,2	;volatile
  5620  0C4F                     l2650:
  5621                           
  5622                           ;ADC.c: 23:     if (canal == 1) {
  5623  0C4F  0370               	decf	canalADC@canal,w
  5624  0C50  1D03               	btfss	3,2
  5625  0C51  2C53               	goto	u3761
  5626  0C52  2C54               	goto	u3760
  5627  0C53                     u3761:
  5628  0C53  2C5A               	goto	l2654
  5629  0C54                     u3760:
  5630  0C54                     l2652:
  5631                           
  5632                           ;ADC.c: 24:         ADCON0bits.CHS3 = 0;
  5633  0C54  1283               	bcf	3,5	;RP0=0, select bank0
  5634  0C55  1303               	bcf	3,6	;RP1=0, select bank0
  5635  0C56  129F               	bcf	31,5	;volatile
  5636                           
  5637                           ;ADC.c: 25:         ADCON0bits.CHS2 = 0;
  5638  0C57  121F               	bcf	31,4	;volatile
  5639                           
  5640                           ;ADC.c: 26:         ADCON0bits.CHS1 = 0;
  5641  0C58  119F               	bcf	31,3	;volatile
  5642                           
  5643                           ;ADC.c: 27:         ADCON0bits.CHS0 = 1;
  5644  0C59  151F               	bsf	31,2	;volatile
  5645  0C5A                     l2654:
  5646                           
  5647                           ;ADC.c: 32:     if (canal == 2) {
  5648  0C5A  3002               	movlw	2
  5649  0C5B  0670               	xorwf	canalADC@canal,w
  5650  0C5C  1D03               	btfss	3,2
  5651  0C5D  2C5F               	goto	u3771
  5652  0C5E  2C60               	goto	u3770
  5653  0C5F                     u3771:
  5654  0C5F  2C66               	goto	l2658
  5655  0C60                     u3770:
  5656  0C60                     l2656:
  5657                           
  5658                           ;ADC.c: 33:         ADCON0bits.CHS3 = 0;
  5659  0C60  1283               	bcf	3,5	;RP0=0, select bank0
  5660  0C61  1303               	bcf	3,6	;RP1=0, select bank0
  5661  0C62  129F               	bcf	31,5	;volatile
  5662                           
  5663                           ;ADC.c: 34:         ADCON0bits.CHS2 = 0;
  5664  0C63  121F               	bcf	31,4	;volatile
  5665                           
  5666                           ;ADC.c: 35:         ADCON0bits.CHS1 = 1;
  5667  0C64  159F               	bsf	31,3	;volatile
  5668                           
  5669                           ;ADC.c: 36:         ADCON0bits.CHS0 = 0;
  5670  0C65  111F               	bcf	31,2	;volatile
  5671  0C66                     l2658:
  5672                           
  5673                           ;ADC.c: 41:     if (canal == 3) {
  5674  0C66  3003               	movlw	3
  5675  0C67  0670               	xorwf	canalADC@canal,w
  5676  0C68  1D03               	btfss	3,2
  5677  0C69  2C6B               	goto	u3781
  5678  0C6A  2C6C               	goto	u3780
  5679  0C6B                     u3781:
  5680  0C6B  2C72               	goto	l2662
  5681  0C6C                     u3780:
  5682  0C6C                     l2660:
  5683                           
  5684                           ;ADC.c: 42:         ADCON0bits.CHS3 = 0;
  5685  0C6C  1283               	bcf	3,5	;RP0=0, select bank0
  5686  0C6D  1303               	bcf	3,6	;RP1=0, select bank0
  5687  0C6E  129F               	bcf	31,5	;volatile
  5688                           
  5689                           ;ADC.c: 43:         ADCON0bits.CHS2 = 0;
  5690  0C6F  121F               	bcf	31,4	;volatile
  5691                           
  5692                           ;ADC.c: 44:         ADCON0bits.CHS1 = 1;
  5693  0C70  159F               	bsf	31,3	;volatile
  5694                           
  5695                           ;ADC.c: 45:         ADCON0bits.CHS0 = 1;
  5696  0C71  151F               	bsf	31,2	;volatile
  5697  0C72                     l2662:
  5698                           
  5699                           ;ADC.c: 50:     if (canal == 4) {
  5700  0C72  3004               	movlw	4
  5701  0C73  0670               	xorwf	canalADC@canal,w
  5702  0C74  1D03               	btfss	3,2
  5703  0C75  2C77               	goto	u3791
  5704  0C76  2C78               	goto	u3790
  5705  0C77                     u3791:
  5706  0C77  2C7E               	goto	l2666
  5707  0C78                     u3790:
  5708  0C78                     l2664:
  5709                           
  5710                           ;ADC.c: 51:         ADCON0bits.CHS3 = 0;
  5711  0C78  1283               	bcf	3,5	;RP0=0, select bank0
  5712  0C79  1303               	bcf	3,6	;RP1=0, select bank0
  5713  0C7A  129F               	bcf	31,5	;volatile
  5714                           
  5715                           ;ADC.c: 52:         ADCON0bits.CHS2 = 1;
  5716  0C7B  161F               	bsf	31,4	;volatile
  5717                           
  5718                           ;ADC.c: 53:         ADCON0bits.CHS1 = 0;
  5719  0C7C  119F               	bcf	31,3	;volatile
  5720                           
  5721                           ;ADC.c: 54:         ADCON0bits.CHS0 = 0;
  5722  0C7D  111F               	bcf	31,2	;volatile
  5723  0C7E                     l2666:
  5724                           
  5725                           ;ADC.c: 59:     if (canal == 5) {
  5726  0C7E  3005               	movlw	5
  5727  0C7F  0670               	xorwf	canalADC@canal,w
  5728  0C80  1D03               	btfss	3,2
  5729  0C81  2C83               	goto	u3801
  5730  0C82  2C84               	goto	u3800
  5731  0C83                     u3801:
  5732  0C83  2C8A               	goto	l2670
  5733  0C84                     u3800:
  5734  0C84                     l2668:
  5735                           
  5736                           ;ADC.c: 60:         ADCON0bits.CHS3 = 0;
  5737  0C84  1283               	bcf	3,5	;RP0=0, select bank0
  5738  0C85  1303               	bcf	3,6	;RP1=0, select bank0
  5739  0C86  129F               	bcf	31,5	;volatile
  5740                           
  5741                           ;ADC.c: 61:         ADCON0bits.CHS2 = 1;
  5742  0C87  161F               	bsf	31,4	;volatile
  5743                           
  5744                           ;ADC.c: 62:         ADCON0bits.CHS1 = 0;
  5745  0C88  119F               	bcf	31,3	;volatile
  5746                           
  5747                           ;ADC.c: 63:         ADCON0bits.CHS0 = 1;
  5748  0C89  151F               	bsf	31,2	;volatile
  5749  0C8A                     l2670:
  5750                           
  5751                           ;ADC.c: 68:     if (canal == 6) {
  5752  0C8A  3006               	movlw	6
  5753  0C8B  0670               	xorwf	canalADC@canal,w
  5754  0C8C  1D03               	btfss	3,2
  5755  0C8D  2C8F               	goto	u3811
  5756  0C8E  2C90               	goto	u3810
  5757  0C8F                     u3811:
  5758  0C8F  2C96               	goto	l2674
  5759  0C90                     u3810:
  5760  0C90                     l2672:
  5761                           
  5762                           ;ADC.c: 69:         ADCON0bits.CHS3 = 0;
  5763  0C90  1283               	bcf	3,5	;RP0=0, select bank0
  5764  0C91  1303               	bcf	3,6	;RP1=0, select bank0
  5765  0C92  129F               	bcf	31,5	;volatile
  5766                           
  5767                           ;ADC.c: 70:         ADCON0bits.CHS2 = 1;
  5768  0C93  161F               	bsf	31,4	;volatile
  5769                           
  5770                           ;ADC.c: 71:         ADCON0bits.CHS1 = 1;
  5771  0C94  159F               	bsf	31,3	;volatile
  5772                           
  5773                           ;ADC.c: 72:         ADCON0bits.CHS0 = 0;
  5774  0C95  111F               	bcf	31,2	;volatile
  5775  0C96                     l2674:
  5776                           
  5777                           ;ADC.c: 77:     if (canal == 7) {
  5778  0C96  3007               	movlw	7
  5779  0C97  0670               	xorwf	canalADC@canal,w
  5780  0C98  1D03               	btfss	3,2
  5781  0C99  2C9B               	goto	u3821
  5782  0C9A  2C9C               	goto	u3820
  5783  0C9B                     u3821:
  5784  0C9B  2CA2               	goto	l2678
  5785  0C9C                     u3820:
  5786  0C9C                     l2676:
  5787                           
  5788                           ;ADC.c: 78:         ADCON0bits.CHS3 = 0;
  5789  0C9C  1283               	bcf	3,5	;RP0=0, select bank0
  5790  0C9D  1303               	bcf	3,6	;RP1=0, select bank0
  5791  0C9E  129F               	bcf	31,5	;volatile
  5792                           
  5793                           ;ADC.c: 79:         ADCON0bits.CHS2 = 1;
  5794  0C9F  161F               	bsf	31,4	;volatile
  5795                           
  5796                           ;ADC.c: 80:         ADCON0bits.CHS1 = 1;
  5797  0CA0  159F               	bsf	31,3	;volatile
  5798                           
  5799                           ;ADC.c: 81:         ADCON0bits.CHS0 = 1;
  5800  0CA1  151F               	bsf	31,2	;volatile
  5801  0CA2                     l2678:
  5802                           
  5803                           ;ADC.c: 86:     if (canal == 8) {
  5804  0CA2  3008               	movlw	8
  5805  0CA3  0670               	xorwf	canalADC@canal,w
  5806  0CA4  1D03               	btfss	3,2
  5807  0CA5  2CA7               	goto	u3831
  5808  0CA6  2CA8               	goto	u3830
  5809  0CA7                     u3831:
  5810  0CA7  2CAE               	goto	l2682
  5811  0CA8                     u3830:
  5812  0CA8                     l2680:
  5813                           
  5814                           ;ADC.c: 87:         ADCON0bits.CHS3 = 1;
  5815  0CA8  1283               	bcf	3,5	;RP0=0, select bank0
  5816  0CA9  1303               	bcf	3,6	;RP1=0, select bank0
  5817  0CAA  169F               	bsf	31,5	;volatile
  5818                           
  5819                           ;ADC.c: 88:         ADCON0bits.CHS2 = 0;
  5820  0CAB  121F               	bcf	31,4	;volatile
  5821                           
  5822                           ;ADC.c: 89:         ADCON0bits.CHS1 = 0;
  5823  0CAC  119F               	bcf	31,3	;volatile
  5824                           
  5825                           ;ADC.c: 90:         ADCON0bits.CHS0 = 0;
  5826  0CAD  111F               	bcf	31,2	;volatile
  5827  0CAE                     l2682:
  5828                           
  5829                           ;ADC.c: 94:     if (canal == 9) {
  5830  0CAE  3009               	movlw	9
  5831  0CAF  0670               	xorwf	canalADC@canal,w
  5832  0CB0  1D03               	btfss	3,2
  5833  0CB1  2CB3               	goto	u3841
  5834  0CB2  2CB4               	goto	u3840
  5835  0CB3                     u3841:
  5836  0CB3  2CBA               	goto	l2686
  5837  0CB4                     u3840:
  5838  0CB4                     l2684:
  5839                           
  5840                           ;ADC.c: 95:         ADCON0bits.CHS3 = 1;
  5841  0CB4  1283               	bcf	3,5	;RP0=0, select bank0
  5842  0CB5  1303               	bcf	3,6	;RP1=0, select bank0
  5843  0CB6  169F               	bsf	31,5	;volatile
  5844                           
  5845                           ;ADC.c: 96:         ADCON0bits.CHS2 = 0;
  5846  0CB7  121F               	bcf	31,4	;volatile
  5847                           
  5848                           ;ADC.c: 97:         ADCON0bits.CHS1 = 0;
  5849  0CB8  119F               	bcf	31,3	;volatile
  5850                           
  5851                           ;ADC.c: 98:         ADCON0bits.CHS0 = 1;
  5852  0CB9  151F               	bsf	31,2	;volatile
  5853  0CBA                     l2686:
  5854                           
  5855                           ;ADC.c: 102:     if (canal == 10) {
  5856  0CBA  300A               	movlw	10
  5857  0CBB  0670               	xorwf	canalADC@canal,w
  5858  0CBC  1D03               	btfss	3,2
  5859  0CBD  2CBF               	goto	u3851
  5860  0CBE  2CC0               	goto	u3850
  5861  0CBF                     u3851:
  5862  0CBF  2CC6               	goto	l2690
  5863  0CC0                     u3850:
  5864  0CC0                     l2688:
  5865                           
  5866                           ;ADC.c: 103:         ADCON0bits.CHS3 = 1;
  5867  0CC0  1283               	bcf	3,5	;RP0=0, select bank0
  5868  0CC1  1303               	bcf	3,6	;RP1=0, select bank0
  5869  0CC2  169F               	bsf	31,5	;volatile
  5870                           
  5871                           ;ADC.c: 104:         ADCON0bits.CHS2 = 0;
  5872  0CC3  121F               	bcf	31,4	;volatile
  5873                           
  5874                           ;ADC.c: 105:         ADCON0bits.CHS1 = 1;
  5875  0CC4  159F               	bsf	31,3	;volatile
  5876                           
  5877                           ;ADC.c: 106:         ADCON0bits.CHS0 = 0;
  5878  0CC5  111F               	bcf	31,2	;volatile
  5879  0CC6                     l2690:
  5880                           
  5881                           ;ADC.c: 111:     if (canal == 11) {
  5882  0CC6  300B               	movlw	11
  5883  0CC7  0670               	xorwf	canalADC@canal,w
  5884  0CC8  1D03               	btfss	3,2
  5885  0CC9  2CCB               	goto	u3861
  5886  0CCA  2CCC               	goto	u3860
  5887  0CCB                     u3861:
  5888  0CCB  2CD2               	goto	l2694
  5889  0CCC                     u3860:
  5890  0CCC                     l2692:
  5891                           
  5892                           ;ADC.c: 112:         ADCON0bits.CHS3 = 1;
  5893  0CCC  1283               	bcf	3,5	;RP0=0, select bank0
  5894  0CCD  1303               	bcf	3,6	;RP1=0, select bank0
  5895  0CCE  169F               	bsf	31,5	;volatile
  5896                           
  5897                           ;ADC.c: 113:         ADCON0bits.CHS2 = 0;
  5898  0CCF  121F               	bcf	31,4	;volatile
  5899                           
  5900                           ;ADC.c: 114:         ADCON0bits.CHS1 = 1;
  5901  0CD0  159F               	bsf	31,3	;volatile
  5902                           
  5903                           ;ADC.c: 115:         ADCON0bits.CHS0 = 1;
  5904  0CD1  151F               	bsf	31,2	;volatile
  5905  0CD2                     l2694:
  5906                           
  5907                           ;ADC.c: 120:     if (canal == 12) {
  5908  0CD2  300C               	movlw	12
  5909  0CD3  0670               	xorwf	canalADC@canal,w
  5910  0CD4  1D03               	btfss	3,2
  5911  0CD5  2CD7               	goto	u3871
  5912  0CD6  2CD8               	goto	u3870
  5913  0CD7                     u3871:
  5914  0CD7  2CDE               	goto	l2698
  5915  0CD8                     u3870:
  5916  0CD8                     l2696:
  5917                           
  5918                           ;ADC.c: 121:         ADCON0bits.CHS3 = 1;
  5919  0CD8  1283               	bcf	3,5	;RP0=0, select bank0
  5920  0CD9  1303               	bcf	3,6	;RP1=0, select bank0
  5921  0CDA  169F               	bsf	31,5	;volatile
  5922                           
  5923                           ;ADC.c: 122:         ADCON0bits.CHS2 = 1;
  5924  0CDB  161F               	bsf	31,4	;volatile
  5925                           
  5926                           ;ADC.c: 123:         ADCON0bits.CHS1 = 0;
  5927  0CDC  119F               	bcf	31,3	;volatile
  5928                           
  5929                           ;ADC.c: 124:         ADCON0bits.CHS0 = 0;
  5930  0CDD  111F               	bcf	31,2	;volatile
  5931  0CDE                     l2698:
  5932                           
  5933                           ;ADC.c: 129:     if (canal == 13) {
  5934  0CDE  300D               	movlw	13
  5935  0CDF  0670               	xorwf	canalADC@canal,w
  5936  0CE0  1D03               	btfss	3,2
  5937  0CE1  2CE3               	goto	u3881
  5938  0CE2  2CE4               	goto	u3880
  5939  0CE3                     u3881:
  5940  0CE3  2CEA               	goto	l210
  5941  0CE4                     u3880:
  5942  0CE4                     l2700:
  5943                           
  5944                           ;ADC.c: 130:         ADCON0bits.CHS3 = 1;
  5945  0CE4  1283               	bcf	3,5	;RP0=0, select bank0
  5946  0CE5  1303               	bcf	3,6	;RP1=0, select bank0
  5947  0CE6  169F               	bsf	31,5	;volatile
  5948                           
  5949                           ;ADC.c: 131:         ADCON0bits.CHS2 = 1;
  5950  0CE7  161F               	bsf	31,4	;volatile
  5951                           
  5952                           ;ADC.c: 132:         ADCON0bits.CHS1 = 0;
  5953  0CE8  119F               	bcf	31,3	;volatile
  5954                           
  5955                           ;ADC.c: 133:         ADCON0bits.CHS0 = 1;
  5956  0CE9  151F               	bsf	31,2	;volatile
  5957  0CEA                     l210:	
  5958                           ;ADC.c: 135:     }
  5959                           
  5960                           
  5961                           ;ADC.c: 137:     ADCON0bits.GO = 1;
  5962  0CEA  1283               	bcf	3,5	;RP0=0, select bank0
  5963  0CEB  1303               	bcf	3,6	;RP1=0, select bank0
  5964  0CEC  149F               	bsf	31,1	;volatile
  5965  0CED                     l211:	
  5966                           ;ADC.c: 138:     return;
  5967                           
  5968  0CED  0008               	return
  5969  0CEE                     __end_of_canalADC:
  5970                           
  5971                           	psect	text15
  5972  0879                     __ptext15:	
  5973 ;; *************** function _UARTReadChar *****************
  5974 ;; Defined at:
  5975 ;;		line 69 in file "UART.c"
  5976 ;; Parameters:    Size  Location     Type
  5977 ;;		None
  5978 ;; Auto vars:     Size  Location     Type
  5979 ;;		None
  5980 ;; Return value:  Size  Location     Type
  5981 ;;                  1    wreg      unsigned char 
  5982 ;; Registers used:
  5983 ;;		wreg, status,2, status,0, pclath, cstack
  5984 ;; Tracked objects:
  5985 ;;		On entry : 0/0
  5986 ;;		On exit  : 0/0
  5987 ;;		Unchanged: 0/0
  5988 ;; Data sizes:     COMMON   BANK0   BANK1   BANK3   BANK2
  5989 ;;      Params:         0       0       0       0       0
  5990 ;;      Locals:         0       0       0       0       0
  5991 ;;      Temps:          0       0       0       0       0
  5992 ;;      Totals:         0       0       0       0       0
  5993 ;;Total ram usage:        0 bytes
  5994 ;; Hardware stack levels used:    1
  5995 ;; Hardware stack levels required when called:    1
  5996 ;; This function calls:
  5997 ;;		_UARTDataReady
  5998 ;; This function is called by:
  5999 ;;		_main
  6000 ;;		_UARTReadString
  6001 ;; This function uses a non-reentrant model
  6002 ;;
  6003                           
  6004                           
  6005                           ;psect for function _UARTReadChar
  6006  0879                     _UARTReadChar:
  6007  0879                     l2732:	
  6008                           ;incstack = 0
  6009                           ; Regs used in _UARTReadChar: [wreg+status,2+status,0+pclath+cstack]
  6010                           
  6011  0879                     l2734:	
  6012                           ;UART.c: 70:     while (!UARTDataReady());
  6013                           
  6014  0879  120A  158A  2065  120A  158A  	fcall	_UARTDataReady
  6015  087E  3A00               	xorlw	0
  6016  087F  1903               	skipnz
  6017  0880  2882               	goto	u3891
  6018  0881  2883               	goto	u3890
  6019  0882                     u3891:
  6020  0882  2879               	goto	l2734
  6021  0883                     u3890:
  6022  0883                     l2736:
  6023                           
  6024                           ;UART.c: 71:     return RCREG;
  6025  0883  1283               	bcf	3,5	;RP0=0, select bank0
  6026  0884  1303               	bcf	3,6	;RP1=0, select bank0
  6027  0885  081A               	movf	26,w	;volatile
  6028  0886                     l177:
  6029  0886  0008               	return
  6030  0887                     __end_of_UARTReadChar:
  6031                           
  6032                           	psect	text16
  6033  0865                     __ptext16:	
  6034 ;; *************** function _UARTDataReady *****************
  6035 ;; Defined at:
  6036 ;;		line 61 in file "UART.c"
  6037 ;; Parameters:    Size  Location     Type
  6038 ;;		None
  6039 ;; Auto vars:     Size  Location     Type
  6040 ;;		None
  6041 ;; Return value:  Size  Location     Type
  6042 ;;                  1    wreg      unsigned char 
  6043 ;; Registers used:
  6044 ;;		wreg, status,2, status,0
  6045 ;; Tracked objects:
  6046 ;;		On entry : 0/0
  6047 ;;		On exit  : 0/0
  6048 ;;		Unchanged: 0/0
  6049 ;; Data sizes:     COMMON   BANK0   BANK1   BANK3   BANK2
  6050 ;;      Params:         0       0       0       0       0
  6051 ;;      Locals:         0       0       0       0       0
  6052 ;;      Temps:          1       0       0       0       0
  6053 ;;      Totals:         1       0       0       0       0
  6054 ;;Total ram usage:        1 bytes
  6055 ;; Hardware stack levels used:    1
  6056 ;; This function calls:
  6057 ;;		Nothing
  6058 ;; This function is called by:
  6059 ;;		_main
  6060 ;;		_UARTReadChar
  6061 ;; This function uses a non-reentrant model
  6062 ;;
  6063                           
  6064                           
  6065                           ;psect for function _UARTDataReady
  6066  0865                     _UARTDataReady:
  6067  0865                     l2044:	
  6068                           ;incstack = 0
  6069                           ; Regs used in _UARTDataReady: [wreg+status,2+status,0]
  6070                           
  6071                           
  6072                           ;UART.c: 62:     return PIR1bits.RCIF;
  6073  0865  1283               	bcf	3,5	;RP0=0, select bank0
  6074  0866  1303               	bcf	3,6	;RP1=0, select bank0
  6075  0867  0E0C               	swapf	12,w	;volatile
  6076  0868  00F0               	movwf	??_UARTDataReady
  6077  0869  0C70               	rrf	??_UARTDataReady,w
  6078  086A  3901               	andlw	1
  6079  086B                     l171:
  6080  086B  0008               	return
  6081  086C                     __end_of_UARTDataReady:
  6082                           
  6083                           	psect	text17
  6084  0B5A                     __ptext17:	
  6085 ;; *************** function _UARTInit *****************
  6086 ;; Defined at:
  6087 ;;		line 9 in file "UART.c"
  6088 ;; Parameters:    Size  Location     Type
  6089 ;;  baud_rate       4    0[BANK0 ] const unsigned long 
  6090 ;;  BRGH            1    4[BANK0 ] const unsigned char 
  6091 ;; Auto vars:     Size  Location     Type
  6092 ;;		None
  6093 ;; Return value:  Size  Location     Type
  6094 ;;                  1    wreg      void 
  6095 ;; Registers used:
  6096 ;;		wreg, status,2, status,0, pclath, cstack
  6097 ;; Tracked objects:
  6098 ;;		On entry : 0/0
  6099 ;;		On exit  : 0/0
  6100 ;;		Unchanged: 0/0
  6101 ;; Data sizes:     COMMON   BANK0   BANK1   BANK3   BANK2
  6102 ;;      Params:         0       5       0       0       0
  6103 ;;      Locals:         0       0       0       0       0
  6104 ;;      Temps:          0       4       0       0       0
  6105 ;;      Totals:         0       9       0       0       0
  6106 ;;Total ram usage:        9 bytes
  6107 ;; Hardware stack levels used:    1
  6108 ;; Hardware stack levels required when called:    1
  6109 ;; This function calls:
  6110 ;;		___lldiv
  6111 ;; This function is called by:
  6112 ;;		_main
  6113 ;; This function uses a non-reentrant model
  6114 ;;
  6115                           
  6116                           
  6117                           ;psect for function _UARTInit
  6118  0B5A                     _UARTInit:
  6119  0B5A                     l2582:	
  6120                           ;incstack = 0
  6121                           ; Regs used in _UARTInit: [wreg+status,2+status,0+pclath+cstack]
  6122                           
  6123                           
  6124                           ;UART.c: 11:     if (BRGH == 0) {
  6125  0B5A  1283               	bcf	3,5	;RP0=0, select bank0
  6126  0B5B  1303               	bcf	3,6	;RP1=0, select bank0
  6127  0B5C  0824               	movf	UARTInit@BRGH,w
  6128  0B5D  1D03               	btfss	3,2
  6129  0B5E  2B60               	goto	u3691
  6130  0B5F  2B61               	goto	u3690
  6131  0B60                     u3691:
  6132  0B60  2B8E               	goto	l2588
  6133  0B61                     u3690:
  6134  0B61                     l2584:
  6135                           
  6136                           ;UART.c: 12:         SPBRG = 4000000/(64*baud_rate) - 1;
  6137  0B61  0820               	movf	UARTInit@baud_rate,w
  6138  0B62  00A5               	movwf	??_UARTInit
  6139  0B63  0821               	movf	UARTInit@baud_rate+1,w
  6140  0B64  00A6               	movwf	??_UARTInit+1
  6141  0B65  0822               	movf	UARTInit@baud_rate+2,w
  6142  0B66  00A7               	movwf	??_UARTInit+2
  6143  0B67  0823               	movf	UARTInit@baud_rate+3,w
  6144  0B68  00A8               	movwf	??_UARTInit+3
  6145  0B69  3006               	movlw	6
  6146  0B6A                     u3705:
  6147  0B6A  1003               	clrc
  6148  0B6B  0DA5               	rlf	??_UARTInit,f
  6149  0B6C  0DA6               	rlf	??_UARTInit+1,f
  6150  0B6D  0DA7               	rlf	??_UARTInit+2,f
  6151  0B6E  0DA8               	rlf	??_UARTInit+3,f
  6152  0B6F                     u3700:
  6153  0B6F  3EFF               	addlw	-1
  6154  0B70  1D03               	skipz
  6155  0B71  2B6A               	goto	u3705
  6156  0B72  0828               	movf	??_UARTInit+3,w
  6157  0B73  00F3               	movwf	___lldiv@divisor+3
  6158  0B74  0827               	movf	??_UARTInit+2,w
  6159  0B75  00F2               	movwf	___lldiv@divisor+2
  6160  0B76  0826               	movf	??_UARTInit+1,w
  6161  0B77  00F1               	movwf	___lldiv@divisor+1
  6162  0B78  0825               	movf	??_UARTInit,w
  6163  0B79  00F0               	movwf	___lldiv@divisor
  6164  0B7A  3000               	movlw	0
  6165  0B7B  00F7               	movwf	___lldiv@dividend+3
  6166  0B7C  303D               	movlw	61
  6167  0B7D  00F6               	movwf	___lldiv@dividend+2
  6168  0B7E  3009               	movlw	9
  6169  0B7F  00F5               	movwf	___lldiv@dividend+1
  6170  0B80  3000               	movlw	0
  6171  0B81  00F4               	movwf	___lldiv@dividend
  6172  0B82  120A  158A  228D  120A  158A  	fcall	___lldiv
  6173  0B87  0870               	movf	?___lldiv,w
  6174  0B88  3EFF               	addlw	255
  6175  0B89  1683               	bsf	3,5	;RP0=1, select bank1
  6176  0B8A  1303               	bcf	3,6	;RP1=0, select bank1
  6177  0B8B  0099               	movwf	25	;volatile
  6178  0B8C                     l2586:
  6179                           
  6180                           ;UART.c: 13:         TXSTAbits.BRGH = 0;
  6181  0B8C  1118               	bcf	24,2	;volatile
  6182                           
  6183                           ;UART.c: 14:     } else {
  6184  0B8D  2BBA               	goto	l2592
  6185  0B8E                     l2588:
  6186                           
  6187                           ;UART.c: 15:         SPBRG = 4000000/(16*baud_rate) - 1;
  6188  0B8E  0820               	movf	UARTInit@baud_rate,w
  6189  0B8F  00A5               	movwf	??_UARTInit
  6190  0B90  0821               	movf	UARTInit@baud_rate+1,w
  6191  0B91  00A6               	movwf	??_UARTInit+1
  6192  0B92  0822               	movf	UARTInit@baud_rate+2,w
  6193  0B93  00A7               	movwf	??_UARTInit+2
  6194  0B94  0823               	movf	UARTInit@baud_rate+3,w
  6195  0B95  00A8               	movwf	??_UARTInit+3
  6196  0B96  3004               	movlw	4
  6197  0B97                     u3715:
  6198  0B97  1003               	clrc
  6199  0B98  0DA5               	rlf	??_UARTInit,f
  6200  0B99  0DA6               	rlf	??_UARTInit+1,f
  6201  0B9A  0DA7               	rlf	??_UARTInit+2,f
  6202  0B9B  0DA8               	rlf	??_UARTInit+3,f
  6203  0B9C                     u3710:
  6204  0B9C  3EFF               	addlw	-1
  6205  0B9D  1D03               	skipz
  6206  0B9E  2B97               	goto	u3715
  6207  0B9F  0828               	movf	??_UARTInit+3,w
  6208  0BA0  00F3               	movwf	___lldiv@divisor+3
  6209  0BA1  0827               	movf	??_UARTInit+2,w
  6210  0BA2  00F2               	movwf	___lldiv@divisor+2
  6211  0BA3  0826               	movf	??_UARTInit+1,w
  6212  0BA4  00F1               	movwf	___lldiv@divisor+1
  6213  0BA5  0825               	movf	??_UARTInit,w
  6214  0BA6  00F0               	movwf	___lldiv@divisor
  6215  0BA7  3000               	movlw	0
  6216  0BA8  00F7               	movwf	___lldiv@dividend+3
  6217  0BA9  303D               	movlw	61
  6218  0BAA  00F6               	movwf	___lldiv@dividend+2
  6219  0BAB  3009               	movlw	9
  6220  0BAC  00F5               	movwf	___lldiv@dividend+1
  6221  0BAD  3000               	movlw	0
  6222  0BAE  00F4               	movwf	___lldiv@dividend
  6223  0BAF  120A  158A  228D  120A  158A  	fcall	___lldiv
  6224  0BB4  0870               	movf	?___lldiv,w
  6225  0BB5  3EFF               	addlw	255
  6226  0BB6  1683               	bsf	3,5	;RP0=1, select bank1
  6227  0BB7  1303               	bcf	3,6	;RP1=0, select bank1
  6228  0BB8  0099               	movwf	25	;volatile
  6229  0BB9                     l2590:
  6230                           
  6231                           ;UART.c: 16:         TXSTAbits.BRGH = 1;
  6232  0BB9  1518               	bsf	24,2	;volatile
  6233  0BBA                     l2592:
  6234                           
  6235                           ;UART.c: 20:     TXSTAbits.TX9 = 0;
  6236  0BBA  1318               	bcf	24,6	;volatile
  6237  0BBB                     l2594:
  6238                           
  6239                           ;UART.c: 21:     TXSTAbits.TXEN = 1;
  6240  0BBB  1698               	bsf	24,5	;volatile
  6241  0BBC                     l2596:
  6242                           
  6243                           ;UART.c: 22:     TXSTAbits.SYNC = 0;
  6244  0BBC  1218               	bcf	24,4	;volatile
  6245  0BBD                     l2598:
  6246                           
  6247                           ;UART.c: 25:     RCSTAbits.SPEN = 1;
  6248  0BBD  1283               	bcf	3,5	;RP0=0, select bank0
  6249  0BBE  1303               	bcf	3,6	;RP1=0, select bank0
  6250  0BBF  1798               	bsf	24,7	;volatile
  6251  0BC0                     l2600:
  6252                           
  6253                           ;UART.c: 26:     RCSTAbits.RX9 = 0;
  6254  0BC0  1318               	bcf	24,6	;volatile
  6255  0BC1                     l2602:
  6256                           
  6257                           ;UART.c: 27:     RCSTAbits.CREN = 1;
  6258  0BC1  1618               	bsf	24,4	;volatile
  6259  0BC2                     l2604:
  6260                           
  6261                           ;UART.c: 28:     RCSTAbits.FERR = 0;
  6262  0BC2  1118               	bcf	24,2	;volatile
  6263  0BC3                     l2606:
  6264                           
  6265                           ;UART.c: 29:     RCSTAbits.OERR = 0;
  6266  0BC3  1098               	bcf	24,1	;volatile
  6267  0BC4                     l2608:
  6268                           
  6269                           ;UART.c: 32:     TRISCbits.TRISC7 = 1;
  6270  0BC4  1683               	bsf	3,5	;RP0=1, select bank1
  6271  0BC5  1303               	bcf	3,6	;RP1=0, select bank1
  6272  0BC6  1787               	bsf	7,7	;volatile
  6273  0BC7                     l2610:
  6274                           
  6275                           ;UART.c: 33:     TRISCbits.TRISC6 = 0;
  6276  0BC7  1307               	bcf	7,6	;volatile
  6277  0BC8                     l154:
  6278  0BC8  0008               	return
  6279  0BC9                     __end_of_UARTInit:
  6280                           
  6281                           	psect	text18
  6282  0A8D                     __ptext18:	
  6283 ;; *************** function ___lldiv *****************
  6284 ;; Defined at:
  6285 ;;		line 5 in file "C:\Program Files\Microchip\xc8\v2.31\pic\sources\c90\common\__lldiv.c"
  6286 ;; Parameters:    Size  Location     Type
  6287 ;;  divisor         4    0[COMMON] unsigned long 
  6288 ;;  dividend        4    4[COMMON] unsigned long 
  6289 ;; Auto vars:     Size  Location     Type
  6290 ;;  quotient        4    9[COMMON] unsigned long 
  6291 ;;  counter         1   13[COMMON] unsigned char 
  6292 ;; Return value:  Size  Location     Type
  6293 ;;                  4    0[COMMON] unsigned long 
  6294 ;; Registers used:
  6295 ;;		wreg, status,2, status,0
  6296 ;; Tracked objects:
  6297 ;;		On entry : 0/0
  6298 ;;		On exit  : 0/0
  6299 ;;		Unchanged: 0/0
  6300 ;; Data sizes:     COMMON   BANK0   BANK1   BANK3   BANK2
  6301 ;;      Params:         8       0       0       0       0
  6302 ;;      Locals:         5       0       0       0       0
  6303 ;;      Temps:          1       0       0       0       0
  6304 ;;      Totals:        14       0       0       0       0
  6305 ;;Total ram usage:       14 bytes
  6306 ;; Hardware stack levels used:    1
  6307 ;; This function calls:
  6308 ;;		Nothing
  6309 ;; This function is called by:
  6310 ;;		_UARTInit
  6311 ;; This function uses a non-reentrant model
  6312 ;;
  6313                           
  6314                           
  6315                           ;psect for function ___lldiv
  6316  0A8D                     ___lldiv:
  6317  0A8D                     l2082:	
  6318                           ;incstack = 0
  6319                           ; Regs used in ___lldiv: [wreg+status,2+status,0]
  6320                           
  6321  0A8D  3000               	movlw	0
  6322  0A8E  00FC               	movwf	___lldiv@quotient+3
  6323  0A8F  3000               	movlw	0
  6324  0A90  00FB               	movwf	___lldiv@quotient+2
  6325  0A91  3000               	movlw	0
  6326  0A92  00FA               	movwf	___lldiv@quotient+1
  6327  0A93  3000               	movlw	0
  6328  0A94  00F9               	movwf	___lldiv@quotient
  6329  0A95  0873               	movf	___lldiv@divisor+3,w
  6330  0A96  0472               	iorwf	___lldiv@divisor+2,w
  6331  0A97  0471               	iorwf	___lldiv@divisor+1,w
  6332  0A98  0470               	iorwf	___lldiv@divisor,w
  6333  0A99  1903               	skipnz
  6334  0A9A  2A9C               	goto	u2531
  6335  0A9B  2A9D               	goto	u2530
  6336  0A9C                     u2531:
  6337  0A9C  2AEA               	goto	l2102
  6338  0A9D                     u2530:
  6339  0A9D                     l2084:
  6340  0A9D  01FD               	clrf	___lldiv@counter
  6341  0A9E  0AFD               	incf	___lldiv@counter,f
  6342  0A9F  2AAD               	goto	l2088
  6343  0AA0                     l2086:
  6344  0AA0  3001               	movlw	1
  6345  0AA1  00F8               	movwf	??___lldiv
  6346  0AA2                     u2545:
  6347  0AA2  1003               	clrc
  6348  0AA3  0DF0               	rlf	___lldiv@divisor,f
  6349  0AA4  0DF1               	rlf	___lldiv@divisor+1,f
  6350  0AA5  0DF2               	rlf	___lldiv@divisor+2,f
  6351  0AA6  0DF3               	rlf	___lldiv@divisor+3,f
  6352  0AA7  0BF8               	decfsz	??___lldiv,f
  6353  0AA8  2AA2               	goto	u2545
  6354  0AA9  3001               	movlw	1
  6355  0AAA  00F8               	movwf	??___lldiv
  6356  0AAB  0878               	movf	??___lldiv,w
  6357  0AAC  07FD               	addwf	___lldiv@counter,f
  6358  0AAD                     l2088:
  6359  0AAD  1FF3               	btfss	___lldiv@divisor+3,7
  6360  0AAE  2AB0               	goto	u2551
  6361  0AAF  2AB1               	goto	u2550
  6362  0AB0                     u2551:
  6363  0AB0  2AA0               	goto	l2086
  6364  0AB1                     u2550:
  6365  0AB1                     l2090:
  6366  0AB1  3001               	movlw	1
  6367  0AB2  00F8               	movwf	??___lldiv
  6368  0AB3                     u2565:
  6369  0AB3  1003               	clrc
  6370  0AB4  0DF9               	rlf	___lldiv@quotient,f
  6371  0AB5  0DFA               	rlf	___lldiv@quotient+1,f
  6372  0AB6  0DFB               	rlf	___lldiv@quotient+2,f
  6373  0AB7  0DFC               	rlf	___lldiv@quotient+3,f
  6374  0AB8  0BF8               	decfsz	??___lldiv,f
  6375  0AB9  2AB3               	goto	u2565
  6376  0ABA                     l2092:
  6377  0ABA  0873               	movf	___lldiv@divisor+3,w
  6378  0ABB  0277               	subwf	___lldiv@dividend+3,w
  6379  0ABC  1D03               	skipz
  6380  0ABD  2AC8               	goto	u2575
  6381  0ABE  0872               	movf	___lldiv@divisor+2,w
  6382  0ABF  0276               	subwf	___lldiv@dividend+2,w
  6383  0AC0  1D03               	skipz
  6384  0AC1  2AC8               	goto	u2575
  6385  0AC2  0871               	movf	___lldiv@divisor+1,w
  6386  0AC3  0275               	subwf	___lldiv@dividend+1,w
  6387  0AC4  1D03               	skipz
  6388  0AC5  2AC8               	goto	u2575
  6389  0AC6  0870               	movf	___lldiv@divisor,w
  6390  0AC7  0274               	subwf	___lldiv@dividend,w
  6391  0AC8                     u2575:
  6392  0AC8  1C03               	skipc
  6393  0AC9  2ACB               	goto	u2571
  6394  0ACA  2ACC               	goto	u2570
  6395  0ACB                     u2571:
  6396  0ACB  2ADB               	goto	l2098
  6397  0ACC                     u2570:
  6398  0ACC                     l2094:
  6399  0ACC  0870               	movf	___lldiv@divisor,w
  6400  0ACD  02F4               	subwf	___lldiv@dividend,f
  6401  0ACE  0871               	movf	___lldiv@divisor+1,w
  6402  0ACF  1C03               	skipc
  6403  0AD0  0F71               	incfsz	___lldiv@divisor+1,w
  6404  0AD1  02F5               	subwf	___lldiv@dividend+1,f
  6405  0AD2  0872               	movf	___lldiv@divisor+2,w
  6406  0AD3  1C03               	skipc
  6407  0AD4  0F72               	incfsz	___lldiv@divisor+2,w
  6408  0AD5  02F6               	subwf	___lldiv@dividend+2,f
  6409  0AD6  0873               	movf	___lldiv@divisor+3,w
  6410  0AD7  1C03               	skipc
  6411  0AD8  0F73               	incfsz	___lldiv@divisor+3,w
  6412  0AD9  02F7               	subwf	___lldiv@dividend+3,f
  6413  0ADA                     l2096:
  6414  0ADA  1479               	bsf	___lldiv@quotient,0
  6415  0ADB                     l2098:
  6416  0ADB  3001               	movlw	1
  6417  0ADC                     u2585:
  6418  0ADC  1003               	clrc
  6419  0ADD  0CF3               	rrf	___lldiv@divisor+3,f
  6420  0ADE  0CF2               	rrf	___lldiv@divisor+2,f
  6421  0ADF  0CF1               	rrf	___lldiv@divisor+1,f
  6422  0AE0  0CF0               	rrf	___lldiv@divisor,f
  6423  0AE1  3EFF               	addlw	-1
  6424  0AE2  1D03               	skipz
  6425  0AE3  2ADC               	goto	u2585
  6426  0AE4                     l2100:
  6427  0AE4  3001               	movlw	1
  6428  0AE5  02FD               	subwf	___lldiv@counter,f
  6429  0AE6  1D03               	btfss	3,2
  6430  0AE7  2AE9               	goto	u2591
  6431  0AE8  2AEA               	goto	u2590
  6432  0AE9                     u2591:
  6433  0AE9  2AB1               	goto	l2090
  6434  0AEA                     u2590:
  6435  0AEA                     l2102:
  6436  0AEA  087C               	movf	___lldiv@quotient+3,w
  6437  0AEB  00F3               	movwf	?___lldiv+3
  6438  0AEC  087B               	movf	___lldiv@quotient+2,w
  6439  0AED  00F2               	movwf	?___lldiv+2
  6440  0AEE  087A               	movf	___lldiv@quotient+1,w
  6441  0AEF  00F1               	movwf	?___lldiv+1
  6442  0AF0  0879               	movf	___lldiv@quotient,w
  6443  0AF1  00F0               	movwf	?___lldiv
  6444  0AF2                     l336:
  6445  0AF2  0008               	return
  6446  0AF3                     __end_of___lldiv:
  6447                           
  6448                           	psect	text19
  6449  08AF                     __ptext19:	
  6450 ;; *************** function _Setup *****************
  6451 ;; Defined at:
  6452 ;;		line 139 in file "main.c"
  6453 ;; Parameters:    Size  Location     Type
  6454 ;;		None
  6455 ;; Auto vars:     Size  Location     Type
  6456 ;;		None
  6457 ;; Return value:  Size  Location     Type
  6458 ;;                  1    wreg      void 
  6459 ;; Registers used:
  6460 ;;		wreg, status,2
  6461 ;; Tracked objects:
  6462 ;;		On entry : 0/0
  6463 ;;		On exit  : 0/0
  6464 ;;		Unchanged: 0/0
  6465 ;; Data sizes:     COMMON   BANK0   BANK1   BANK3   BANK2
  6466 ;;      Params:         0       0       0       0       0
  6467 ;;      Locals:         0       0       0       0       0
  6468 ;;      Temps:          0       0       0       0       0
  6469 ;;      Totals:         0       0       0       0       0
  6470 ;;Total ram usage:        0 bytes
  6471 ;; Hardware stack levels used:    1
  6472 ;; This function calls:
  6473 ;;		Nothing
  6474 ;; This function is called by:
  6475 ;;		_main
  6476 ;; This function uses a non-reentrant model
  6477 ;;
  6478                           
  6479                           
  6480                           ;psect for function _Setup
  6481  08AF                     _Setup:
  6482  08AF                     l2556:	
  6483                           ;incstack = 0
  6484                           ; Regs used in _Setup: [wreg+status,2]
  6485                           
  6486                           
  6487                           ;main.c: 141:     convertir3 -= entero;
  6488  08AF  30FF               	movlw	255
  6489  08B0  1683               	bsf	3,5	;RP0=1, select bank1
  6490  08B1  1303               	bcf	3,6	;RP1=0, select bank1
  6491  08B2  0085               	movwf	5	;volatile
  6492  08B3                     l2558:
  6493                           
  6494                           ;main.c: 142:     convertir3 *= 10;
  6495  08B3  0188               	clrf	8	;volatile
  6496  08B4                     l2560:
  6497                           
  6498                           ;main.c: 143: 
  6499  08B4  0187               	clrf	7	;volatile
  6500  08B5                     l2562:
  6501                           
  6502                           ;main.c: 144:     entero = convertir3;
  6503  08B5  0186               	clrf	6	;volatile
  6504  08B6                     l2564:
  6505                           
  6506                           ;main.c: 145:     cadena[3] = entero + 48;
  6507  08B6  1787               	bsf	7,7	;volatile
  6508  08B7                     l2566:
  6509                           
  6510                           ;main.c: 147:     return cadena;
  6511  08B7  1283               	bcf	3,5	;RP0=0, select bank0
  6512  08B8  1303               	bcf	3,6	;RP1=0, select bank0
  6513  08B9  0185               	clrf	5	;volatile
  6514  08BA                     l2568:
  6515                           
  6516                           ;main.c: 148: }
  6517  08BA  0187               	clrf	7	;volatile
  6518  08BB                     l2570:
  6519                           
  6520                           ;main.c: 149: 
  6521  08BB  0188               	clrf	8	;volatile
  6522  08BC                     l2572:
  6523                           
  6524                           ;main.c: 150: char* intToString(uint8_t value) {
  6525  08BC  0186               	clrf	6	;volatile
  6526  08BD                     l2574:
  6527                           
  6528                           ;main.c: 152: 
  6529  08BD  1683               	bsf	3,5	;RP0=1, select bank3
  6530  08BE  1703               	bsf	3,6	;RP1=1, select bank3
  6531  08BF  0188               	clrf	8	;volatile
  6532  08C0                     l2576:
  6533                           
  6534                           ;main.c: 153:     uint8_t entero = value / 100;
  6535  08C0  0189               	clrf	9	;volatile
  6536  08C1                     l2578:
  6537                           
  6538                           ;main.c: 154:     valor[0] = entero + 48;
  6539  08C1  1408               	bsf	8,0	;volatile
  6540  08C2                     l2580:
  6541                           
  6542                           ;main.c: 155: 
  6543  08C2  1488               	bsf	8,1	;volatile
  6544  08C3                     l90:
  6545  08C3  0008               	return
  6546  08C4                     __end_of_Setup:
  6547                           
  6548                           	psect	text20
  6549  0960                     __ptext20:	
  6550 ;; *************** function _Lcd_Write_String *****************
  6551 ;; Defined at:
  6552 ;;		line 58 in file "LCD8bits.c"
  6553 ;; Parameters:    Size  Location     Type
  6554 ;;  a               2    3[COMMON] PTR unsigned char 
  6555 ;;		 -> NULL(0), decimalASCII@cadena(5), RAM(512), STR_3(3), 
  6556 ;;		 -> STR_2(3), STR_1(3), 
  6557 ;; Auto vars:     Size  Location     Type
  6558 ;;  i               2    5[COMMON] int 
  6559 ;; Return value:  Size  Location     Type
  6560 ;;                  1    wreg      void 
  6561 ;; Registers used:
  6562 ;;		wreg, fsr0l, fsr0h, status,2, status,0, btemp+1, pclath, cstack
  6563 ;; Tracked objects:
  6564 ;;		On entry : 0/0
  6565 ;;		On exit  : 0/0
  6566 ;;		Unchanged: 0/0
  6567 ;; Data sizes:     COMMON   BANK0   BANK1   BANK3   BANK2
  6568 ;;      Params:         2       0       0       0       0
  6569 ;;      Locals:         2       0       0       0       0
  6570 ;;      Temps:          0       0       0       0       0
  6571 ;;      Totals:         4       0       0       0       0
  6572 ;;Total ram usage:        4 bytes
  6573 ;; Hardware stack levels used:    1
  6574 ;; Hardware stack levels required when called:    2
  6575 ;; This function calls:
  6576 ;;		_Lcd_Write_Char
  6577 ;; This function is called by:
  6578 ;;		_main
  6579 ;; This function uses a non-reentrant model
  6580 ;;
  6581                           
  6582                           
  6583                           ;psect for function _Lcd_Write_String
  6584  0960                     _Lcd_Write_String:
  6585  0960                     l2636:	
  6586                           ;incstack = 0
  6587                           ; Regs used in _Lcd_Write_String: [wreg-fsr0h+status,2+status,0+btemp+1+pclath+cstack]
  6588                           
  6589                           
  6590                           ;LCD8bits.c: 59:     int i;;LCD8bits.c: 60:     for (i = 0; a[i] != '\0'; i++)
  6591  0960  01F5               	clrf	Lcd_Write_String@i
  6592  0961  01F6               	clrf	Lcd_Write_String@i+1
  6593  0962  297B               	goto	l2642
  6594  0963                     l2638:
  6595                           
  6596                           ;LCD8bits.c: 61:         Lcd_Write_Char(a[i]);
  6597  0963  0875               	movf	Lcd_Write_String@i,w
  6598  0964  0773               	addwf	Lcd_Write_String@a,w
  6599  0965  0084               	movwf	4
  6600  0966  0876               	movf	Lcd_Write_String@i+1,w
  6601  0967  1803               	skipnc
  6602  0968  0A76               	incf	Lcd_Write_String@i+1,w
  6603  0969  0774               	addwf	Lcd_Write_String@a+1,w
  6604  096A  00FF               	movwf	btemp+1
  6605  096B  120A  118A  2003  120A  158A  	fcall	stringtab
  6606  0970  120A  158A  209A  120A  158A  	fcall	_Lcd_Write_Char
  6607  0975                     l2640:
  6608  0975  3001               	movlw	1
  6609  0976  07F5               	addwf	Lcd_Write_String@i,f
  6610  0977  1803               	skipnc
  6611  0978  0AF6               	incf	Lcd_Write_String@i+1,f
  6612  0979  3000               	movlw	0
  6613  097A  07F6               	addwf	Lcd_Write_String@i+1,f
  6614  097B                     l2642:
  6615  097B  0875               	movf	Lcd_Write_String@i,w
  6616  097C  0773               	addwf	Lcd_Write_String@a,w
  6617  097D  0084               	movwf	4
  6618  097E  0876               	movf	Lcd_Write_String@i+1,w
  6619  097F  1803               	skipnc
  6620  0980  0A76               	incf	Lcd_Write_String@i+1,w
  6621  0981  0774               	addwf	Lcd_Write_String@a+1,w
  6622  0982  1283               	bcf	3,5	;RP0=0, select bank0
  6623  0983  1303               	bcf	3,6	;RP1=0, select bank0
  6624  0984  00FF               	movwf	btemp+1
  6625  0985  120A  118A  2003  120A  158A  	fcall	stringtab
  6626  098A  3A00               	xorlw	0
  6627  098B  1D03               	skipz
  6628  098C  298E               	goto	u3741
  6629  098D  298F               	goto	u3740
  6630  098E                     u3741:
  6631  098E  2963               	goto	l2638
  6632  098F                     u3740:
  6633  098F                     l129:
  6634  098F  0008               	return
  6635  0990                     __end_of_Lcd_Write_String:
  6636                           
  6637                           	psect	text21
  6638  089A                     __ptext21:	
  6639 ;; *************** function _Lcd_Write_Char *****************
  6640 ;; Defined at:
  6641 ;;		line 50 in file "LCD8bits.c"
  6642 ;; Parameters:    Size  Location     Type
  6643 ;;  a               1    wreg     unsigned char 
  6644 ;; Auto vars:     Size  Location     Type
  6645 ;;  a               1    2[COMMON] unsigned char 
  6646 ;; Return value:  Size  Location     Type
  6647 ;;                  1    wreg      void 
  6648 ;; Registers used:
  6649 ;;		wreg, status,2, status,0, pclath, cstack
  6650 ;; Tracked objects:
  6651 ;;		On entry : 0/0
  6652 ;;		On exit  : 0/0
  6653 ;;		Unchanged: 0/0
  6654 ;; Data sizes:     COMMON   BANK0   BANK1   BANK3   BANK2
  6655 ;;      Params:         0       0       0       0       0
  6656 ;;      Locals:         1       0       0       0       0
  6657 ;;      Temps:          1       0       0       0       0
  6658 ;;      Totals:         2       0       0       0       0
  6659 ;;Total ram usage:        2 bytes
  6660 ;; Hardware stack levels used:    1
  6661 ;; Hardware stack levels required when called:    1
  6662 ;; This function calls:
  6663 ;;		_Lcd_Port
  6664 ;; This function is called by:
  6665 ;;		_Lcd_Write_String
  6666 ;; This function uses a non-reentrant model
  6667 ;;
  6668                           
  6669                           
  6670                           ;psect for function _Lcd_Write_Char
  6671  089A                     _Lcd_Write_Char:
  6672                           
  6673                           ;incstack = 0
  6674                           ; Regs used in _Lcd_Write_Char: [wreg+status,2+status,0+pclath+cstack]
  6675                           ;Lcd_Write_Char@a stored from wreg
  6676  089A  00F2               	movwf	Lcd_Write_Char@a
  6677  089B                     l2058:
  6678                           
  6679                           ;LCD8bits.c: 51:     PORTCbits.RC0 = 1;
  6680  089B  1283               	bcf	3,5	;RP0=0, select bank0
  6681  089C  1303               	bcf	3,6	;RP1=0, select bank0
  6682  089D  1407               	bsf	7,0	;volatile
  6683  089E                     l2060:
  6684                           
  6685                           ;LCD8bits.c: 52:     Lcd_Port(a);
  6686  089E  0872               	movf	Lcd_Write_Char@a,w
  6687  089F  120A  158A  205F  120A  158A  	fcall	_Lcd_Port
  6688  08A4                     l2062:
  6689                           
  6690                           ;LCD8bits.c: 53:     PORTCbits.RC1 = 1;
  6691  08A4  1283               	bcf	3,5	;RP0=0, select bank0
  6692  08A5  1303               	bcf	3,6	;RP1=0, select bank0
  6693  08A6  1487               	bsf	7,1	;volatile
  6694  08A7                     l2064:
  6695                           
  6696                           ;LCD8bits.c: 54:     _delay((unsigned long)((10)*(4000000/4000000.0)));
  6697  08A7  3003               	movlw	3
  6698  08A8  00F1               	movwf	??_Lcd_Write_Char
  6699  08A9                     u4007:
  6700  08A9  0BF1               	decfsz	??_Lcd_Write_Char,f
  6701  08AA  28A9               	goto	u4007
  6702  08AB                     l2066:
  6703                           
  6704                           ;LCD8bits.c: 55:     PORTCbits.RC1 = 0;
  6705  08AB  1283               	bcf	3,5	;RP0=0, select bank0
  6706  08AC  1303               	bcf	3,6	;RP1=0, select bank0
  6707  08AD  1087               	bcf	7,1	;volatile
  6708  08AE                     l123:
  6709  08AE  0008               	return
  6710  08AF                     __end_of_Lcd_Write_Char:
  6711                           
  6712                           	psect	text22
  6713  08F1                     __ptext22:	
  6714 ;; *************** function _Lcd_Set_Cursor *****************
  6715 ;; Defined at:
  6716 ;;		line 24 in file "LCD8bits.c"
  6717 ;; Parameters:    Size  Location     Type
  6718 ;;  a               1    wreg     unsigned char 
  6719 ;;  b               1    3[COMMON] unsigned char 
  6720 ;; Auto vars:     Size  Location     Type
  6721 ;;  a               1    5[COMMON] unsigned char 
  6722 ;;  temp            1    6[COMMON] unsigned char 
  6723 ;;  y               1    0        unsigned char 
  6724 ;;  z               1    0        unsigned char 
  6725 ;; Return value:  Size  Location     Type
  6726 ;;                  1    wreg      void 
  6727 ;; Registers used:
  6728 ;;		wreg, status,2, status,0, pclath, cstack
  6729 ;; Tracked objects:
  6730 ;;		On entry : 0/0
  6731 ;;		On exit  : 0/0
  6732 ;;		Unchanged: 0/0
  6733 ;; Data sizes:     COMMON   BANK0   BANK1   BANK3   BANK2
  6734 ;;      Params:         1       0       0       0       0
  6735 ;;      Locals:         2       0       0       0       0
  6736 ;;      Temps:          1       0       0       0       0
  6737 ;;      Totals:         4       0       0       0       0
  6738 ;;Total ram usage:        4 bytes
  6739 ;; Hardware stack levels used:    1
  6740 ;; Hardware stack levels required when called:    2
  6741 ;; This function calls:
  6742 ;;		_Lcd_Cmd
  6743 ;; This function is called by:
  6744 ;;		_main
  6745 ;; This function uses a non-reentrant model
  6746 ;;
  6747                           
  6748                           
  6749                           ;psect for function _Lcd_Set_Cursor
  6750  08F1                     _Lcd_Set_Cursor:
  6751                           
  6752                           ;incstack = 0
  6753                           ; Regs used in _Lcd_Set_Cursor: [wreg+status,2+status,0+pclath+cstack]
  6754                           ;Lcd_Set_Cursor@a stored from wreg
  6755  08F1  00F5               	movwf	Lcd_Set_Cursor@a
  6756  08F2                     l2624:
  6757                           
  6758                           ;LCD8bits.c: 25:     char temp, z, y;;LCD8bits.c: 26:     if (a == 1) {
  6759  08F2  0375               	decf	Lcd_Set_Cursor@a,w
  6760  08F3  1D03               	btfss	3,2
  6761  08F4  28F6               	goto	u3721
  6762  08F5  28F7               	goto	u3720
  6763  08F6                     u3721:
  6764  08F6  2903               	goto	l2630
  6765  08F7                     u3720:
  6766  08F7                     l2626:
  6767                           
  6768                           ;LCD8bits.c: 27:         temp = 0x80 + b - 1;
  6769  08F7  0873               	movf	Lcd_Set_Cursor@b,w
  6770  08F8  3E7F               	addlw	127
  6771  08F9  00F4               	movwf	??_Lcd_Set_Cursor
  6772  08FA  0874               	movf	??_Lcd_Set_Cursor,w
  6773  08FB  00F6               	movwf	Lcd_Set_Cursor@temp
  6774  08FC                     l2628:
  6775                           
  6776                           ;LCD8bits.c: 28:         Lcd_Cmd(temp);
  6777  08FC  0876               	movf	Lcd_Set_Cursor@temp,w
  6778  08FD  120A  158A  20D9  120A  158A  	fcall	_Lcd_Cmd
  6779                           
  6780                           ;LCD8bits.c: 29:     } else if (a == 2) {
  6781  0902  2914               	goto	l117
  6782  0903                     l2630:
  6783  0903  3002               	movlw	2
  6784  0904  0675               	xorwf	Lcd_Set_Cursor@a,w
  6785  0905  1D03               	btfss	3,2
  6786  0906  2908               	goto	u3731
  6787  0907  2909               	goto	u3730
  6788  0908                     u3731:
  6789  0908  2914               	goto	l117
  6790  0909                     u3730:
  6791  0909                     l2632:
  6792                           
  6793                           ;LCD8bits.c: 30:         temp = 0xC0 + b - 1;
  6794  0909  0873               	movf	Lcd_Set_Cursor@b,w
  6795  090A  3EBF               	addlw	191
  6796  090B  00F4               	movwf	??_Lcd_Set_Cursor
  6797  090C  0874               	movf	??_Lcd_Set_Cursor,w
  6798  090D  00F6               	movwf	Lcd_Set_Cursor@temp
  6799  090E                     l2634:
  6800                           
  6801                           ;LCD8bits.c: 31:         Lcd_Cmd(temp);
  6802  090E  0876               	movf	Lcd_Set_Cursor@temp,w
  6803  090F  120A  158A  20D9  120A  158A  	fcall	_Lcd_Cmd
  6804  0914                     l117:
  6805  0914  0008               	return
  6806  0915                     __end_of_Lcd_Set_Cursor:
  6807                           
  6808                           	psect	text23
  6809  0990                     __ptext23:	
  6810 ;; *************** function _Lcd_Init *****************
  6811 ;; Defined at:
  6812 ;;		line 35 in file "LCD8bits.c"
  6813 ;; Parameters:    Size  Location     Type
  6814 ;;		None
  6815 ;; Auto vars:     Size  Location     Type
  6816 ;;		None
  6817 ;; Return value:  Size  Location     Type
  6818 ;;                  1    wreg      void 
  6819 ;; Registers used:
  6820 ;;		wreg, status,2, status,0, pclath, cstack
  6821 ;; Tracked objects:
  6822 ;;		On entry : 0/0
  6823 ;;		On exit  : 0/0
  6824 ;;		Unchanged: 0/0
  6825 ;; Data sizes:     COMMON   BANK0   BANK1   BANK3   BANK2
  6826 ;;      Params:         0       0       0       0       0
  6827 ;;      Locals:         0       0       0       0       0
  6828 ;;      Temps:          2       0       0       0       0
  6829 ;;      Totals:         2       0       0       0       0
  6830 ;;Total ram usage:        2 bytes
  6831 ;; Hardware stack levels used:    1
  6832 ;; Hardware stack levels required when called:    2
  6833 ;; This function calls:
  6834 ;;		_Lcd_Cmd
  6835 ;;		_Lcd_Port
  6836 ;; This function is called by:
  6837 ;;		_main
  6838 ;; This function uses a non-reentrant model
  6839 ;;
  6840                           
  6841                           
  6842                           ;psect for function _Lcd_Init
  6843  0990                     _Lcd_Init:
  6844  0990                     l2612:	
  6845                           ;incstack = 0
  6846                           ; Regs used in _Lcd_Init: [wreg+status,2+status,0+pclath+cstack]
  6847                           
  6848                           
  6849                           ;LCD8bits.c: 36:     Lcd_Port(0x00);
  6850  0990  3000               	movlw	0
  6851  0991  120A  158A  205F  120A  158A  	fcall	_Lcd_Port
  6852  0996                     l2614:
  6853                           
  6854                           ;LCD8bits.c: 37:     _delay((unsigned long)((20)*(4000000/4000.0)));
  6855  0996  301A               	movlw	26
  6856  0997  00F4               	movwf	??_Lcd_Init+1
  6857  0998  30F8               	movlw	248
  6858  0999  00F3               	movwf	??_Lcd_Init
  6859  099A                     u4017:
  6860  099A  0BF3               	decfsz	??_Lcd_Init,f
  6861  099B  299A               	goto	u4017
  6862  099C  0BF4               	decfsz	??_Lcd_Init+1,f
  6863  099D  299A               	goto	u4017
  6864  099E  0000               	nop
  6865  099F                     l2616:
  6866                           
  6867                           ;LCD8bits.c: 38:     Lcd_Cmd(0x30);
  6868  099F  3030               	movlw	48
  6869  09A0  120A  158A  20D9  120A  158A  	fcall	_Lcd_Cmd
  6870                           
  6871                           ;LCD8bits.c: 39:     _delay((unsigned long)((5)*(4000000/4000.0)));
  6872  09A5  3007               	movlw	7
  6873  09A6  00F4               	movwf	??_Lcd_Init+1
  6874  09A7  307D               	movlw	125
  6875  09A8  00F3               	movwf	??_Lcd_Init
  6876  09A9                     u4027:
  6877  09A9  0BF3               	decfsz	??_Lcd_Init,f
  6878  09AA  29A9               	goto	u4027
  6879  09AB  0BF4               	decfsz	??_Lcd_Init+1,f
  6880  09AC  29A9               	goto	u4027
  6881  09AD                     l2618:
  6882                           
  6883                           ;LCD8bits.c: 40:     Lcd_Cmd(0x30);
  6884  09AD  3030               	movlw	48
  6885  09AE  120A  158A  20D9  120A  158A  	fcall	_Lcd_Cmd
  6886  09B3                     l2620:
  6887                           
  6888                           ;LCD8bits.c: 41:     _delay((unsigned long)((11)*(4000000/4000.0)));
  6889  09B3  300F               	movlw	15
  6890  09B4  00F4               	movwf	??_Lcd_Init+1
  6891  09B5  3047               	movlw	71
  6892  09B6  00F3               	movwf	??_Lcd_Init
  6893  09B7                     u4037:
  6894  09B7  0BF3               	decfsz	??_Lcd_Init,f
  6895  09B8  29B7               	goto	u4037
  6896  09B9  0BF4               	decfsz	??_Lcd_Init+1,f
  6897  09BA  29B7               	goto	u4037
  6898  09BB  29BC               	nop2
  6899                           
  6900                           ;LCD8bits.c: 42:     Lcd_Cmd(0x30);
  6901  09BC  3030               	movlw	48
  6902  09BD  120A  158A  20D9  120A  158A  	fcall	_Lcd_Cmd
  6903                           
  6904                           ;LCD8bits.c: 44:     Lcd_Cmd(0b00111000);
  6905  09C2  3038               	movlw	56
  6906  09C3  120A  158A  20D9  120A  158A  	fcall	_Lcd_Cmd
  6907                           
  6908                           ;LCD8bits.c: 45:     Lcd_Cmd(0x0C);
  6909  09C8  300C               	movlw	12
  6910  09C9  120A  158A  20D9  120A  158A  	fcall	_Lcd_Cmd
  6911                           
  6912                           ;LCD8bits.c: 46:     Lcd_Cmd(0x6);
  6913  09CE  3006               	movlw	6
  6914  09CF  120A  158A  20D9  120A  158A  	fcall	_Lcd_Cmd
  6915  09D4                     l120:
  6916  09D4  0008               	return
  6917  09D5                     __end_of_Lcd_Init:
  6918                           
  6919                           	psect	text24
  6920  086C                     __ptext24:	
  6921 ;; *************** function _Lcd_Clear *****************
  6922 ;; Defined at:
  6923 ;;		line 19 in file "LCD8bits.c"
  6924 ;; Parameters:    Size  Location     Type
  6925 ;;		None
  6926 ;; Auto vars:     Size  Location     Type
  6927 ;;		None
  6928 ;; Return value:  Size  Location     Type
  6929 ;;                  1    wreg      void 
  6930 ;; Registers used:
  6931 ;;		wreg, status,2, status,0, pclath, cstack
  6932 ;; Tracked objects:
  6933 ;;		On entry : 0/0
  6934 ;;		On exit  : 0/0
  6935 ;;		Unchanged: 0/0
  6936 ;; Data sizes:     COMMON   BANK0   BANK1   BANK3   BANK2
  6937 ;;      Params:         0       0       0       0       0
  6938 ;;      Locals:         0       0       0       0       0
  6939 ;;      Temps:          0       0       0       0       0
  6940 ;;      Totals:         0       0       0       0       0
  6941 ;;Total ram usage:        0 bytes
  6942 ;; Hardware stack levels used:    1
  6943 ;; Hardware stack levels required when called:    2
  6944 ;; This function calls:
  6945 ;;		_Lcd_Cmd
  6946 ;; This function is called by:
  6947 ;;		_main
  6948 ;; This function uses a non-reentrant model
  6949 ;;
  6950                           
  6951                           
  6952                           ;psect for function _Lcd_Clear
  6953  086C                     _Lcd_Clear:
  6954  086C                     l2622:	
  6955                           ;incstack = 0
  6956                           ; Regs used in _Lcd_Clear: [wreg+status,2+status,0+pclath+cstack]
  6957                           
  6958                           
  6959                           ;LCD8bits.c: 20:     Lcd_Cmd(0);
  6960  086C  3000               	movlw	0
  6961  086D  120A  158A  20D9  120A  158A  	fcall	_Lcd_Cmd
  6962                           
  6963                           ;LCD8bits.c: 21:     Lcd_Cmd(1);
  6964  0872  3001               	movlw	1
  6965  0873  120A  158A  20D9  120A  158A  	fcall	_Lcd_Cmd
  6966  0878                     l111:
  6967  0878  0008               	return
  6968  0879                     __end_of_Lcd_Clear:
  6969                           
  6970                           	psect	text25
  6971  08D9                     __ptext25:	
  6972 ;; *************** function _Lcd_Cmd *****************
  6973 ;; Defined at:
  6974 ;;		line 11 in file "LCD8bits.c"
  6975 ;; Parameters:    Size  Location     Type
  6976 ;;  a               1    wreg     unsigned char 
  6977 ;; Auto vars:     Size  Location     Type
  6978 ;;  a               1    2[COMMON] unsigned char 
  6979 ;; Return value:  Size  Location     Type
  6980 ;;                  1    wreg      void 
  6981 ;; Registers used:
  6982 ;;		wreg, status,2, status,0, pclath, cstack
  6983 ;; Tracked objects:
  6984 ;;		On entry : 0/0
  6985 ;;		On exit  : 0/0
  6986 ;;		Unchanged: 0/0
  6987 ;; Data sizes:     COMMON   BANK0   BANK1   BANK3   BANK2
  6988 ;;      Params:         0       0       0       0       0
  6989 ;;      Locals:         1       0       0       0       0
  6990 ;;      Temps:          1       0       0       0       0
  6991 ;;      Totals:         2       0       0       0       0
  6992 ;;Total ram usage:        2 bytes
  6993 ;; Hardware stack levels used:    1
  6994 ;; Hardware stack levels required when called:    1
  6995 ;; This function calls:
  6996 ;;		_Lcd_Port
  6997 ;; This function is called by:
  6998 ;;		_Lcd_Clear
  6999 ;;		_Lcd_Set_Cursor
  7000 ;;		_Lcd_Init
  7001 ;;		_Lcd_Shift_Right
  7002 ;;		_Lcd_Shift_Left
  7003 ;; This function uses a non-reentrant model
  7004 ;;
  7005                           
  7006                           
  7007                           ;psect for function _Lcd_Cmd
  7008  08D9                     _Lcd_Cmd:
  7009                           
  7010                           ;incstack = 0
  7011                           ; Regs used in _Lcd_Cmd: [wreg+status,2+status,0+pclath+cstack]
  7012                           ;Lcd_Cmd@a stored from wreg
  7013  08D9  00F2               	movwf	Lcd_Cmd@a
  7014  08DA                     l2048:
  7015                           
  7016                           ;LCD8bits.c: 12:     PORTCbits.RC0 = 0;
  7017  08DA  1283               	bcf	3,5	;RP0=0, select bank0
  7018  08DB  1303               	bcf	3,6	;RP1=0, select bank0
  7019  08DC  1007               	bcf	7,0	;volatile
  7020  08DD                     l2050:
  7021                           
  7022                           ;LCD8bits.c: 13:     Lcd_Port(a);
  7023  08DD  0872               	movf	Lcd_Cmd@a,w
  7024  08DE  120A  158A  205F  120A  158A  	fcall	_Lcd_Port
  7025  08E3                     l2052:
  7026                           
  7027                           ;LCD8bits.c: 14:     PORTCbits.RC1 = 1;
  7028  08E3  1283               	bcf	3,5	;RP0=0, select bank0
  7029  08E4  1303               	bcf	3,6	;RP1=0, select bank0
  7030  08E5  1487               	bsf	7,1	;volatile
  7031  08E6                     l2054:
  7032                           
  7033                           ;LCD8bits.c: 15:     _delay((unsigned long)((1)*(4000000/4000.0)));
  7034  08E6  30C7               	movlw	199
  7035  08E7  00F1               	movwf	??_Lcd_Cmd
  7036  08E8                     u4047:
  7037  08E8  28E9               	nop2
  7038  08E9  0BF1               	decfsz	??_Lcd_Cmd,f
  7039  08EA  28E8               	goto	u4047
  7040  08EB  28EC               	nop2
  7041  08EC  28ED               	nop2
  7042  08ED                     l2056:
  7043                           
  7044                           ;LCD8bits.c: 16:     PORTCbits.RC1 = 0;
  7045  08ED  1283               	bcf	3,5	;RP0=0, select bank0
  7046  08EE  1303               	bcf	3,6	;RP1=0, select bank0
  7047  08EF  1087               	bcf	7,1	;volatile
  7048  08F0                     l108:
  7049  08F0  0008               	return
  7050  08F1                     __end_of_Lcd_Cmd:
  7051                           
  7052                           	psect	text26
  7053  085F                     __ptext26:	
  7054 ;; *************** function _Lcd_Port *****************
  7055 ;; Defined at:
  7056 ;;		line 7 in file "LCD8bits.c"
  7057 ;; Parameters:    Size  Location     Type
  7058 ;;  a               1    wreg     unsigned char 
  7059 ;; Auto vars:     Size  Location     Type
  7060 ;;  a               1    0[COMMON] unsigned char 
  7061 ;; Return value:  Size  Location     Type
  7062 ;;                  1    wreg      void 
  7063 ;; Registers used:
  7064 ;;		wreg
  7065 ;; Tracked objects:
  7066 ;;		On entry : 0/0
  7067 ;;		On exit  : 0/0
  7068 ;;		Unchanged: 0/0
  7069 ;; Data sizes:     COMMON   BANK0   BANK1   BANK3   BANK2
  7070 ;;      Params:         0       0       0       0       0
  7071 ;;      Locals:         1       0       0       0       0
  7072 ;;      Temps:          0       0       0       0       0
  7073 ;;      Totals:         1       0       0       0       0
  7074 ;;Total ram usage:        1 bytes
  7075 ;; Hardware stack levels used:    1
  7076 ;; This function calls:
  7077 ;;		Nothing
  7078 ;; This function is called by:
  7079 ;;		_Lcd_Cmd
  7080 ;;		_Lcd_Init
  7081 ;;		_Lcd_Write_Char
  7082 ;; This function uses a non-reentrant model
  7083 ;;
  7084                           
  7085                           
  7086                           ;psect for function _Lcd_Port
  7087  085F                     _Lcd_Port:
  7088                           
  7089                           ;incstack = 0
  7090                           ; Regs used in _Lcd_Port: [wreg]
  7091                           ;Lcd_Port@a stored from wreg
  7092  085F  00F0               	movwf	Lcd_Port@a
  7093  0860                     l1834:
  7094                           
  7095                           ;LCD8bits.c: 8:     PORTD = a;
  7096  0860  0870               	movf	Lcd_Port@a,w
  7097  0861  1283               	bcf	3,5	;RP0=0, select bank0
  7098  0862  1303               	bcf	3,6	;RP1=0, select bank0
  7099  0863  0088               	movwf	8	;volatile
  7100  0864                     l105:
  7101  0864  0008               	return
  7102  0865                     __end_of_Lcd_Port:
  7103  007E                     btemp	set	126	;btemp
  7104  007E                     wtemp0	set	126
  7105                           
  7106                           	psect	config
  7107                           
  7108                           ;Config register CONFIG1 @ 0x2007
  7109                           ;	Oscillator Selection bits
  7110                           ;	FOSC = INTRC_NOCLKOUT, INTOSCIO oscillator: I/O function on RA6/OSC2/CLKOUT pin, I/O f
      +                          unction on RA7/OSC1/CLKIN
  7111                           ;	Watchdog Timer Enable bit
  7112                           ;	WDTE = OFF, WDT disabled and can be enabled by SWDTEN bit of the WDTCON register
  7113                           ;	Power-up Timer Enable bit
  7114                           ;	PWRTE = OFF, PWRT disabled
  7115                           ;	RE3/MCLR pin function select bit
  7116                           ;	MCLRE = OFF, RE3/MCLR pin function is digital input, MCLR internally tied to VDD
  7117                           ;	Code Protection bit
  7118                           ;	CP = OFF, Program memory code protection is disabled
  7119                           ;	Data Code Protection bit
  7120                           ;	CPD = OFF, Data memory code protection is disabled
  7121                           ;	Brown Out Reset Selection bits
  7122                           ;	BOREN = OFF, BOR disabled
  7123                           ;	Internal External Switchover bit
  7124                           ;	IESO = OFF, Internal/External Switchover mode is disabled
  7125                           ;	Fail-Safe Clock Monitor Enabled bit
  7126                           ;	FCMEN = OFF, Fail-Safe Clock Monitor is disabled
  7127                           ;	Low Voltage Programming Enable bit
  7128                           ;	LVP = OFF, RB3 pin has digital I/O, HV on MCLR must be used for programming
  7129                           ;	In-Circuit Debugger Mode bit
  7130                           ;	DEBUG = 0x1, unprogrammed default
  7131  2007                     	org	8199
  7132  2007  20D4               	dw	8404
  7133                           
  7134                           ;Config register CONFIG2 @ 0x2008
  7135                           ;	Brown-out Reset Selection bit
  7136                           ;	BOR4V = BOR40V, Brown-out Reset set to 4.0V
  7137                           ;	Flash Program Memory Self Write Enable bits
  7138                           ;	WRT = OFF, Write protection off
  7139  2008                     	org	8200
  7140  2008  3FFF               	dw	16383

Data Sizes:
    Strings     9
    Constant    0
    Data        0
    BSS         8
    Persistent  0
    Stack       0

Auto Spaces:
    Space          Size  Autos    Used
    COMMON           14     14      14
    BANK0            80     44      52
    BANK1            80      0       0
    BANK3            96      0       0
    BANK2            96      0       0

Pointer List with Targets:

    Lcd_Write_String@a	PTR unsigned char  size(2) Largest target is 512
		 -> NULL(NULL[0]), decimalASCII@cadena(BANK0[5]), RAM(DATA[512]), STR_3(CODE[3]), 
		 -> STR_2(CODE[3]), STR_1(CODE[3]), 

    sp__intToString	PTR unsigned char  size(1) Largest target is 4
		 -> intToString@valor(BANK0[4]), 

    convertir2	PTR unsigned char  size(1) Largest target is 5
		 -> NULL(NULL[0]), decimalASCII@cadena(BANK0[5]), 

    sp__decimalASCII	PTR unsigned char  size(1) Largest target is 5
		 -> decimalASCII@cadena(BANK0[5]), 

    convertir	PTR unsigned char  size(1) Largest target is 5
		 -> NULL(NULL[0]), decimalASCII@cadena(BANK0[5]), 


Critical Paths under _main in COMMON

    _intToString->___awdiv
    _decimalASCII->___flmul
    _decimalASCII->___xxtofl
    ___flsub->___xxtofl
    ___flmul->__Umul8_16
    ___fldiv->___xxtofl
    _UARTReadChar->_UARTDataReady
    _UARTInit->___lldiv
    _Lcd_Write_String->_Lcd_Write_Char
    _Lcd_Write_Char->_Lcd_Port
    _Lcd_Set_Cursor->_Lcd_Cmd
    _Lcd_Init->_Lcd_Cmd
    _Lcd_Clear->_Lcd_Cmd
    _Lcd_Cmd->_Lcd_Port

Critical Paths under _main in BANK0

    _main->_decimalASCII
    _decimalASCII->___fldiv
    ___flsub->___fladd

Critical Paths under _main in BANK1

    None.

Critical Paths under _main in BANK3

    None.

Critical Paths under _main in BANK2

    None.

Call Graph Tables:

 ---------------------------------------------------------------------------------
 (Depth) Function   	        Calls       Base Space   Used Autos Params    Refs
 ---------------------------------------------------------------------------------
 (0) _main                                                 3     3      0   11569
                                             41 BANK0      3     3      0
                          _Lcd_Clear
                           _Lcd_Init
                     _Lcd_Set_Cursor
                   _Lcd_Write_String
                              _Setup
                      _UARTDataReady
                           _UARTInit
                       _UARTReadChar
                           _canalADC
                          _configADC
                       _decimalASCII
                        _intToString
 ---------------------------------------------------------------------------------
 (1) _intToString                                          9     9      0    1449
                                              9 COMMON     3     3      0
                                              0 BANK0      6     6      0
                            ___awdiv
                            ___awmod
                             ___bmul
 ---------------------------------------------------------------------------------
 (2) ___bmul                                               4     3      1     168
                                              0 COMMON     4     3      1
 ---------------------------------------------------------------------------------
 (2) ___awmod                                              7     3      4     448
                                              0 COMMON     7     3      4
 ---------------------------------------------------------------------------------
 (2) ___awdiv                                              9     5      4     604
                                              0 COMMON     9     5      4
 ---------------------------------------------------------------------------------
 (1) _decimalASCII                                        15    15      0    7749
                                             26 BANK0     15    15      0
                            ___fldiv
                            ___flmul
                            ___flsub
                            ___fltol
                           ___xxtofl
 ---------------------------------------------------------------------------------
 (2) ___xxtofl                                            14    10      4     550
                                              0 COMMON    14    10      4
 ---------------------------------------------------------------------------------
 (2) ___fltol                                             11     7      4     457
                                              0 COMMON    11     7      4
 ---------------------------------------------------------------------------------
 (2) ___flsub                                              8     0      8    2485
                                              8 BANK0      8     0      8
                            ___fladd
                           ___xxtofl (ARG)
 ---------------------------------------------------------------------------------
 (3) ___fladd                                             20    12      8    2136
                                              0 COMMON    12     4      8
                                              0 BANK0      8     8      0
 ---------------------------------------------------------------------------------
 (2) ___flmul                                             26    18      8    2569
                                              9 COMMON     5     5      0
                                              0 BANK0     21    13      8
                          __Umul8_16
 ---------------------------------------------------------------------------------
 (3) __Umul8_16                                            9     7      2     799
                                              0 COMMON     9     7      2
 ---------------------------------------------------------------------------------
 (2) ___fldiv                                             26    18      8    1273
                                              0 BANK0     26    18      8
                           ___xxtofl (ARG)
 ---------------------------------------------------------------------------------
 (1) _configADC                                            0     0      0       0
 ---------------------------------------------------------------------------------
 (1) _canalADC                                             1     1      0     308
                                              0 COMMON     1     1      0
 ---------------------------------------------------------------------------------
 (1) _UARTReadChar                                         0     0      0       0
                      _UARTDataReady
 ---------------------------------------------------------------------------------
 (2) _UARTDataReady                                        1     1      0       0
                                              0 COMMON     1     1      0
 ---------------------------------------------------------------------------------
 (1) _UARTInit                                             9     4      5     684
                                              0 BANK0      9     4      5
                            ___lldiv
 ---------------------------------------------------------------------------------
 (2) ___lldiv                                             14     6      8     466
                                              0 COMMON    14     6      8
 ---------------------------------------------------------------------------------
 (1) _Setup                                                0     0      0       0
 ---------------------------------------------------------------------------------
 (1) _Lcd_Write_String                                     4     2      2     590
                                              3 COMMON     4     2      2
                     _Lcd_Write_Char
 ---------------------------------------------------------------------------------
 (2) _Lcd_Write_Char                                       2     2      0      44
                                              1 COMMON     2     2      0
                           _Lcd_Port
 ---------------------------------------------------------------------------------
 (1) _Lcd_Set_Cursor                                       6     5      1     634
                                              3 COMMON     4     3      1
                            _Lcd_Cmd
 ---------------------------------------------------------------------------------
 (1) _Lcd_Init                                             2     2      0      66
                                              3 COMMON     2     2      0
                            _Lcd_Cmd
                           _Lcd_Port
 ---------------------------------------------------------------------------------
 (1) _Lcd_Clear                                            0     0      0      44
                            _Lcd_Cmd
 ---------------------------------------------------------------------------------
 (2) _Lcd_Cmd                                              2     2      0      44
                                              1 COMMON     2     2      0
                           _Lcd_Port
 ---------------------------------------------------------------------------------
 (3) _Lcd_Port                                             1     1      0      22
                                              0 COMMON     1     1      0
 ---------------------------------------------------------------------------------
 Estimated maximum stack depth 3
 ---------------------------------------------------------------------------------

 Call Graph Graphs:

 _main (ROOT)
   _Lcd_Clear
     _Lcd_Cmd
       _Lcd_Port
   _Lcd_Init
     _Lcd_Cmd
       _Lcd_Port
     _Lcd_Port
   _Lcd_Set_Cursor
     _Lcd_Cmd
       _Lcd_Port
   _Lcd_Write_String
     _Lcd_Write_Char
       _Lcd_Port
   _Setup
   _UARTDataReady
   _UARTInit
     ___lldiv
   _UARTReadChar
     _UARTDataReady
   _canalADC
   _configADC
   _decimalASCII
     ___fldiv
       ___xxtofl (ARG)
     ___flmul
       __Umul8_16
     ___flsub
       ___fladd
       ___xxtofl (ARG)
     ___fltol
     ___xxtofl
   _intToString
     ___awdiv
     ___awmod
     ___bmul

 Address spaces:
Name               Size   Autos  Total    Cost      Usage
BITCOMMON            E      0       0       0        0.0%
EEDATA             100      0       0       0        0.0%
NULL                 0      0       0       0        0.0%
CODE                 0      0       0       0        0.0%
COMMON               E      E       E       1      100.0%
BITSFR0              0      0       0       1        0.0%
SFR0                 0      0       0       1        0.0%
BITSFR1              0      0       0       2        0.0%
SFR1                 0      0       0       2        0.0%
STACK                0      0       0       2        0.0%
ABS                  0      0      42       3        0.0%
BITBANK0            50      0       0       4        0.0%
BITSFR3              0      0       0       4        0.0%
SFR3                 0      0       0       4        0.0%
BANK0               50     2C      34       5       65.0%
BITSFR2              0      0       0       5        0.0%
SFR2                 0      0       0       5        0.0%
BITBANK1            50      0       0       6        0.0%
BANK1               50      0       0       7        0.0%
BITBANK3            60      0       0       8        0.0%
BANK3               60      0       0       9        0.0%
BITBANK2            60      0       0      10        0.0%
BANK2               60      0       0      11        0.0%
DATA                 0      0      42      12        0.0%


Microchip Technology PIC Macro Assembler V2.31 build 20201012212115 
Symbol Table                                                                                   Thu Feb 11 17:17:19 2021

     __end_of_decimalASCII 0ED4          UARTInit@baud_rate 0020               ___fldiv@aexp 0039  
             ___fldiv@bexp 0038                          pc 0002               ___fldiv@sign 0031  
           ___bmul@product 0072                         l90 08C3                         l93 0ED3  
                       l96 0A8C               ___awdiv@sign 0076                         fsr 0004  
      __Umul8_16@word_mpld 0076                        l111 0878                        l120 09D4  
                      l105 0864                        l210 0CEA                        l123 08AE  
                      l211 0CED                        l108 08F0                        l117 0914  
                      l214 0899                        l129 098F                        l154 0BC8  
                      l171 086B                        l326 08D8                        l336 0AF2  
                      l177 0886                        l701 07E5                        l453 0B59  
                      l710 095F                        l614 03D6                        l606 0490  
                      l624 041E                        l618 03FC                        l466 0A2D  
                      l651 01F8                        l635 0482                        l627 045E  
                      l708 094D                        l636 0490                        l493 0C2D  
                      l733 0D10                        l486 0C42                        l671 01DC  
                      l639 0938                        l735 0DA7                        l496 0C42  
                      l673 01EC                        l665 016A                        l649 0078  
                      l593 025C                        l746 0D71                        l747 0D7D  
                      l739 0D55                        l597 0305                        l695 075D  
                      l599 02DA                        l689 07F1                        fsr0 0004  
                      indf 0000               ___awmod@sign 0076               ___flmul@aexp 002D  
             ___flmul@bexp 002E               ___flmul@sign 0028               ___flmul@temp 0033  
             ___flmul@prod 002F               ___fltol@exp1 007A                       l2010 045A  
                     l2002 0423                       l2100 0AE4                       l2020 0476  
                     l2012 0463                       l2004 0428                       l2102 0AEA  
                     l2030 093A                       l2022 047A                       l2014 0468  
                     l2006 0436                       l2110 0AF8                       l2040 095B  
                     l2032 093C                       l2024 047C                       l2016 0470  
                     l2008 043A                       l2200 0BFB                       l2120 0B0C  
                     l2112 0AFD                       l2050 08DD                       l2034 0943  
                     l2026 048B                       l2018 0475                       l2210 0C09  
                     l2202 0BFD                       l2130 0B22                       l2122 0B0E  
                     l2114 0AFF                       l2106 0AF3                       l2052 08E3  
                     l2060 089E                       l2044 0865                       l2300 00EE  
                     l2036 0947                       l2028 048F                       l2220 0C32  
                     l2204 0C01                       l2212 0C1B                       l2140 0B45  
                     l2132 0B26                       l2124 0B14                       l2116 0B03  
                     l2108 0AF4                       l2054 08E6                       l2062 08A4  
                     l2310 0119                       l2302 00EF                       l2230 001C  
                     l2038 0956                       l2222 0C37                       l2134 0B37  
                     l2126 0B17                       l2142 0B4B                       l2118 0B08  
                     l2150 09D5                       l2070 08C6                       l2056 08ED  
                     l2048 08DA                       l2064 08A7                       l2320 0136  
                     l2304 00F8                       l2312 011D                       l2240 0033  
                     l2232 0023                       l2400 04D4                       l2224 0915  
                     l2144 0B50                       l2136 0B3D                       l2128 0B1E  
                     l2160 09E5                       l2152 09D6                       l2072 08CA  
                     l2066 08AB                       l2058 089B                       l2090 0AB1  
                     l2082 0A8D                       l2330 014E                       l2322 013A  
                     l2314 0123                       l2306 010A                       l2250 004B  
                     l2242 0038                       l2234 0029                       l2410 04F0  
                     l2402 04D9                       l2226 0919                       l2218 0C22  
                     l2146 0B55                       l2138 0B3E                       l2170 09FE  
                     l2162 09EA                       l2154 09DA                       l2074 08CE  
                     l2092 0ABA                       l2084 0A9D                       l2340 016F  
                     l2332 014F                       l2324 013B                       l2316 012B  
                     l2308 010B                       l2260 0060                       l2252 0050  
                     l2244 0040                       l2236 002D                       l2500 07CB  
                     l2420 051B                       l2412 04F5                       l2404 04E1  
                     l2172 0A02                       l2164 09F0                       l2180 0A1F  
                     l2156 09DF                       l2076 08D0                       l2068 08C5  
                     l2094 0ACC                       l2086 0AA0                       l2342 0174  
                     l2350 01A5                       l2334 0153                       l2326 0144  
                     l2318 012D                       l2270 0080                       l2262 0065  
                     l2254 0056                       l2246 0041                       l2238 002E  
                     l2502 07D9                       l2430 05B8                       l2422 0538  
                     l2406 04E3                       l2190 0BD4                       l2182 0A24  
                     l2174 0A0C                       l2166 09F3                       l2158 09E1  
                     l2078 08D7                       l2096 0ADA                       l2088 0AAD  
                     l2600 0BC0                       l2360 01DB                       l2352 01B2  
                     l2344 0182                       l2336 0167                       l2328 014A  
                     l2280 009E                       l2272 008C                       l2264 006D  
                     l2256 005A                       l2248 0043                       l2504 07DD  
                     l2440 061B                       l2432 05C1                       l2424 0554  
                     l2416 04FE                       l2408 04EB                       l2520 0D18  
                     l2512 0CEF                       l2184 0A29                       l2176 0A12  
                     l2168 09FA                       l2098 0ADB                       l2610 0BC7  
                     l2602 0BC1                       l2362 01E2                       l2354 01C0  
                     l2346 0186                       l2290 00C9                       l2274 0090  
                     l2266 006E                       l2258 005B                       l2506 07DE  
                     l2450 06BB                       l2442 0634                       l2434 05D1  
                     l2426 0580                       l2418 050E                       l2194 0BDD  
                     l2530 0D3A                       l2514 0CF4                       l2178 0A19  
                     l2620 09B3                       l2612 0990                       l2604 0BC2  
                     l2700 0CE4                       l2364 01E6                       l2356 01CF  
                     l2348 019F                       l2292 00D1                       l2284 00A7  
                     l2268 0070                       l2508 07E9                       l2460 0729  
                     l2452 06E1                       l2444 0651                       l2436 05EE  
                     l2428 059C                       l2380 04A3                       l2372 0491  
                     l1900 028A                       l2196 0BF2                       l2188 0BC9  
                     l2540 0D6B                       l2532 0D3E                       l2524 0D21  
                     l2516 0CF8                       l2622 086C                       l2614 0996  
                     l2630 0903                       l2606 0BC3                       l2366 01E8  
                     l2358 01D3                       l2294 00D3                       l2286 00B9  
                     l2278 0099                       l2470 0741                       l2462 072D  
                     l2454 0709                       l2446 067E                       l2438 05FE  
                     l2390 04BF                       l2382 04A8                       l2374 0498  
                     l1910 029E                       l1902 028E                       l2198 0BF3  
                     l2550 0D9E                       l2542 0D75                       l2534 0D4C  
                     l2526 0D26                       l2518 0D08                       l2710 0DFB  
                     l2702 0DAB                       l2616 099F                       l2632 0909  
                     l2624 08F2                       l2640 0975                       l2560 08B4  
                     l2608 0BC4                       l2296 00D8                       l2288 00C1  
                     l2480 0762                       l2472 0742                       l2464 072E  
                     l2456 0712                       l2448 068E                       l2392 04C4  
                     l2384 04AD                       l2376 049E                       l1920 02DE  
                     l1912 02A2                       l1904 0292                       l1840 0206  
                     l2552 0D9F                       l2544 0D7F                       l2536 0D5C  
                     l2528 0D33                       l2720 0E9A                       l2712 0E2F  
                     l2704 0DDF                       l2800 0F9A                       l1834 0860  
                     l2618 09AD                       l2634 090E                       l2626 08F7  
                     l2642 097B                       l2570 08BB                       l2562 08B5  
                     l2650 0C4F                       l2298 00EA                       l2482 0767  
                     l2490 0798                       l2474 0746                       l2466 0737  
                     l2458 0720                       l2394 04CA                       l2386 04B5  
                     l2378 04A2                       l1930 02FB                       l1922 02E9  
                     l1906 0296                       l1914 02A6                       l1850 021D  
                     l1842 020A                       l2546 0D95                       l2538 0D67  
                     l2722 0EB9                       l2714 0E4E                       l2706 0DF2  
                     l2810 0FC1                       l2802 0FA5                       l2628 08FC  
                     l2636 0960                       l2580 08C2                       l2572 08BC  
                     l2564 08B6                       l2556 08AF                       l2732 0879  
                     l2660 0C6C                       l2652 0C54                       l2644 0887  
                     l2492 07A5                       l2484 0775                       l2476 075A  
                     l2468 073D                       l2396 04CE                       l2388 04B7  
                     l1940 0317                       l1924 02EB                       l1932 02FF  
                     l1916 02A7                       l1908 029A                       l1860 0233  
                     l1852 021E                       l1844 020B                       l1836 01F9  
                     l2548 0D9A                       l2724 0ECC                       l2716 0E61  
                     l2708 0DF7                       l2740 0A31                       l2812 0FC6  
                     l2804 0FAF                       l2820 0FD5                       l2638 0963  
                     l2574 08BD                       l2566 08B7                       l2558 08B3  
                     l2590 0BB9                       l2582 0B5A                       l2734 0879  
                     l2670 0C8A                       l2662 0C72                       l2654 0C5A  
                     l2646 0C44                       l2494 07B0                       l2486 0779  
                     l2398 04CF                       l1950 0343                       l1942 032E  
                     l1934 0309                       l1926 02EF                       l1918 02BE  
                     l1870 0244                       l1862 0234                       l1846 0210  
                     l1854 0220                       l1838 0200                       l2726 0ED1  
                     l2718 0E66                       l2750 0A8A                       l2742 0A47  
                     l2822 0FD9                       l2814 0FCC                       l2806 0FB9  
                     l2576 08C0                       l2568 08BA                       l2592 0BBA  
                     l2584 0B61                       l2736 0883                       l2680 0CA8  
                     l2672 0C90                       l2664 0C78                       l2656 0C60  
                     l2648 0C49                       l2496 07BF                       l2488 0792  
                     l1960 036E                       l1952 0347                       l1944 0332  
                     l1936 030E                       l1928 02F0                       l1880 0262  
                     l1872 0249                       l1864 023A                       l1856 0228  
                     l1848 0215                       l2728 0ED2                       l2752 0A8B  
                     l2744 0A4C                       l2824 0FE3                       l2816 0FD1  
                     l2808 0FBB                       l2760 0F05                       l2578 08C1  
                     l2594 0BBB                       l2586 0B8C                       l2690 0CC6  
                     l2682 0CAE                       l2674 0C96                       l2666 0C7E  
                     l2658 0C66                       l2498 07C9                       l1970 03DE  
                     l1962 03AE                       l1954 0348                       l1946 0336  
                     l1890 0276                       l1882 0266                       l1874 0251  
                     l1866 023E                       l1858 022D                       l2746 0A5C  
                     l2826 0FF0                       l2818 0FD3                       l2770 0F3A  
                     l2762 0F1A                       l2596 0BBC                       l2588 0B8E  
                     l2692 0CCC                       l2684 0CB4                       l2676 0C9C  
                     l2668 0C84                       l1980 03FB                       l1972 03E3  
                     l1964 03B4                       l1956 0353                       l1948 0341  
                     l1892 027A                       l1884 026A                       l1876 0252  
                     l1868 023F                       l2748 0A73                       l2780 0F56  
                     l2772 0F40                       l2764 0F26                       l2756 0ED4  
                     l2598 0BBD                       l2694 0CD2                       l2686 0CBA  
                     l2678 0CA2                       l1982 0400                       l1990 040C  
                     l1966 03B9                       l1958 0358                       l1894 027E  
                     l1886 026E                       l1878 0254                       l2782 0F5A  
                     l2774 0F45                       l2790 0F65                       l2766 0F2F  
                     l2758 0EFC                       l2696 0CD8                       l2688 0CC0  
                     l1984 0403                       l1976 03EC                       l1968 03C8  
                     l1992 0410                       l1896 0282                       l1888 0272  
                     l2792 0F70                       l2784 0F60                       l2776 0F49  
                     l2768 0F34                       l2698 0CDE                       l1994 0411  
                     l1986 0405                       l1978 03F7                       l1898 0286  
                     l2794 0F78                       l2786 0F63                       l2778 0F4F  
                     l1996 0415                       l1988 040A                       l2796 0F83  
                     l2788 0F64                       l1998 041B                       l2798 0F90  
                     _ADIF 0066                       STR_1 0013                       STR_2 0016  
                     STR_3 0019                       u2100 0266                       u2020 020A  
                     u2101 0265                       u2021 0209                       u2110 02BE  
                     u2030 0210                       u2111 02BD                       u2031 020F  
                     u3000 00EE                       u2120 02C7                       u2040 0215  
                     u3001 00ED                       u2201 0320                       u2121 02C5  
                     u2041 0214                       u2210 0332                       u2202 0327  
                     u2130 02C8                       u2050 0233                       u2211 0331  
                     u2203 032E                       u2115 02BA                       u2051 0232  
                     u3100 0167                       u3020 010A                       u2300 03E3  
                     u2220 0336                       u2140 02DE                       u2060 023E  
                     u3101 0166                       u3021 0109                       u2301 03E2  
                     u2221 0335                       u2141 02DD                       u2061 023D  
                     u3110 016E                       u3030 0123                       u2230 0347  
                     u2150 02EF                       u2070 0244                       u3111 016D  
                     u3031 0122                       u3015 00F1                       u2231 0346  
                     u2151 02EE                       u2071 0243                       u3120 0174  
                     u3040 012B                       u3200 04AD                       u2400 043A  
                     u2320 03FB                       u2080 0249                       u3121 0173  
                     u3041 012A                       u3025 0106                       u3201 04AC  
                     u2401 0439                       u2321 03FA                       u2081 0248  
                     u3130 0186                       u3210 04CE                       u2410 044B  
                     u2330 0400                       u2250 036E                       u2170 0305  
                     u2090 0262                       u3131 0185                       u3211 04CD  
                     u2331 03FF                       u2315 03F0                       u2251 036D  
                     u2171 0304                       u2091 0261                       u3140 0195  
                     u3060 013A                       u2500 095B                       u3220 04D4  
                     u2420 045A                       u2340 040A                       u2180 0309  
                     u3061 0139                       u2501 095A                       u3221 04D3  
                     u2421 0459                       u2341 0409                       u2261 0387  
                     u2253 036A                       u2245 034C                       u2181 0308  
                     u2165 02F4                       u3150 01B2                       u3230 04D9  
                     u2430 0463                       u2350 0410                       u2270 039B  
                     u2262 0388                       u2190 030E                       u2510 08CA  
                     u4007 08A9                       u3151 01B1                       u3055 012F  
                     u3311 05E0                       u3231 04D8                       u2431 0462  
                     u2415 0446                       u2351 040F                       u2271 039C  
                     u2263 038D                       u2191 030D                       u2511 08C9  
                     u3160 01CF                       u3080 014E                       u3312 05E7  
                     u3240 04F0                       u2440 0468                       u2360 0415  
                     u2280 03B9                       u2272 03A1                       u2264 038E  
                     u2600 0AF8                       u2520 08D7                       u4017 099A  
                     u3161 01CE                       u3145 0190                       u3081 014D  
                     u3401 06FB                       u3321 060D                       u3313 05EE  
                     u3305 05BA                       u3241 04EF                       u2441 0467  
                     u2361 0414                       u2281 03B8                       u2273 03A2  
                     u2265 0393                       u2601 0AF7                       u2521 08D6  
                     u2530 0A9D                       u3170 01E6                       u3090 0153  
                     u3402 0702                       u3322 0614                       u3250 04F5  
                     u2450 0475                       u2370 041B                       u2290 03DE  
                     u2266 0394                       u2610 0B03                       u4027 09A9  
                     u2531 0A9C                       u3171 01E5                       u3155 01AE  
                     u3091 0152                       u3075 013D                       u3403 0709  
                     u3323 061B                       u3251 04F4                       u2451 0474  
                     u2371 041A                       u2291 03DD                       u2611 0B02  
                     u3500 0779                       u3180 04A2                       u2460 047A  
                     u2380 0422                       u2620 0B14                       u2700 09DA  
                     u4037 09B7                       u3165 01CB                       u3501 0778  
                     u3341 0643                       u3261 0546                       u3181 04A1  
                     u2461 0479                       u2381 0421                       u2621 0B13  
                     u2701 09D9                       u2550 0AB1                       u3510 0788  
                     u3430 072D                       u3342 064A                       u3262 054D  
                     u3190 04A8                       u2470 048F                       u2390 0428  
                     u2710 09E5                       u4047 08E8                       u2551 0AB0  
                     u3431 072C                       u3415 070B                       u3351 0670  
                     u3343 0651                       u3335 061D                       u3271 0562  
                     u3263 0554                       u3191 04A7                       u2471 048E  
                     u2391 0427                       u2711 09E4                       u2480 0947  
                     u3520 07A5                       u3352 0677                       u3272 0569  
                     u2800 0BEB                       u2640 0B26                       u2720 09F0  
                     u2545 0AA2                       u2481 0946                       u3521 07A4  
                     u3425 0722                       u3361 069D                       u3353 067E  
                     u3281 058E                       u3273 0570                       u2641 0B25  
                     u2721 09EF                       u2570 0ACC                       u3530 07BF  
                     u3450 0741                       u3370 06C7                       u3362 06A4  
                     u3282 0595                       u2810 0C01                       u3610 0D5B  
                     u2571 0ACB                       u3531 07BE                       u3515 0783  
                     u3451 0740                       u3363 06AB                       u3291 05AA  
                     u3283 059C                       u2811 0C00                       u3611 0D5A  
                     u2635 0B18                       u3700 0B6F                       u2900 0033  
                     u3540 07DD                       u3460 0746                       u3292 05B1  
                     u2820 0C08                       u2660 0B37                       u2740 0A02  
                     u2565 0AB3                       u2901 0032                       u3541 07DC  
                     u3525 07A1                       u3461 0745                       u3445 0730  
                     u3381 06D3                       u3293 05B8                       u2821 0C07  
                     u2805 0BE6                       u3605 0D4D                       u2661 0B36  
                     u2741 0A01                       u2590 0AEA                       u3710 0B9C  
                     u2910 0038                       u3470 075A                       u3390 06EF  
                     u3382 06DA                       u3630 0D6B                       u3550 0CF4  
                     u2750 0A0C                       u2591 0AE9                       u2575 0AC8  
                     u2911 0037                       u2495 094E                       u3535 07BB  
                     u3471 0759                       u3383 06E1                       u3375 06C2  
                     u3631 0D6A                       u3551 0CF3                       u2655 0B27  
                     u2751 0A0B                       u2735 09F4                       u3720 08F7  
                     u3800 0C84                       u2920 005A                       u3480 0761  
                     u2840 0C1A                       u3640 0D71                       u3560 0CF8  
                     u2680 0B4B                       u3721 08F6                       u2585 0ADC  
                     u3705 0B6A                       u3801 0C83                       u2921 0059  
                     u3481 0760                       u2841 0C19                       u3641 0D70  
                     u3625 0D60                       u3561 0CF7                       u2681 0B4A  
                     u2665 0B33                       u3730 0909                       u3810 0C90  
                     u2930 0060                       u3490 0767                       u2850 0C21  
                     u3650 0D75                       u3570 0D18                       u2690 0B50  
                     u2770 0A1F                       u3731 0908                       u3715 0B97  
                     u3811 0C8F                       u2931 005F                       u3491 0766  
                     u3395 06EA                       u2851 0C20                       u2835 0C0A  
                     u3651 0D74                       u3571 0D17                       u2691 0B4F  
                     u2675 0B3F                       u2771 0A1E                       u2755 0A08  
                     u3740 098F                       u3820 0C9C                       u2940 0065  
                     u3660 0D8A                       u2780 0A24                       u3900 0F40  
                     u3741 098E                       u3821 0C9B                       u2941 0064  
                     u2781 0A23                       u2765 0A13                       u3901 0F3F  
                     u3830 0CA8                       u3750 0C49                       u2950 0080  
                     u2870 0C32                       u2790 0BD4                       u3670 0D9A  
                     u3590 0D39                       u3910 0F45                       u3831 0CA7  
                     u3751 0C48                       u2951 007F                       u2871 0C31  
                     u2791 0BD3                       u3671 0D99                       u3591 0D38  
                     u3911 0F44                       u3840 0CB4                       u3760 0C54  
                     u2960 009E                       u2880 0C37                       u3680 0D9E  
                     u3920 0FAF                       u3841 0CB3                       u3761 0C53  
                     u2961 009D                       u2881 0C36                       u2865 0C24  
                     u3681 0D9D                       u3665 0D85                       u3585 0D2B  
                     u3921 0FAE                       u3690 0B61                       u3850 0CC0  
                     u3770 0C60                       u2970 00D8                       u2890 002D  
                     u3930 0FC1                main@entrada 004B                       u3691 0B60  
                     u3851 0CBF                       u3771 0C5F                       u2971 00D7  
                     u2891 002C                       u3931 0FC0                       u3860 0CCC  
                     u3780 0C6C                       u3940 0FCC                       u3861 0CCB  
                     u3781 0C6B                       u3941 0FCB                       u3870 0CD8  
                     u3790 0C78                       u3950 0FD1                       u3871 0CD7  
                     u3791 0C77                       u3951 0FD0                       u3880 0CE4  
                     u3881 0CE3                       u2985 00DA                       u3890 0883  
                     u3891 0882                       u2995 00E3          ?_Lcd_Write_String 0073  
                     _main 0ED4                       btemp 007E                       start 0000  
       ??_Lcd_Write_String 0075            ___fldiv@new_exp 0032            __end_of_Lcd_Cmd 08F1  
        ___bmul@multiplier 0073               ?_intToString 0070              ___fltol@sign1 0079  
          __end_of___fladd 0491                      ?_main 0070            __end_of___fldiv 01F9  
          __end_of___awdiv 0B5A            __end_of___awmod 0A2E            __end_of___flmul 07F2  
          __end_of___flsub 0939            __end_of___fltol 0C43                      _ANSEL 0188  
          __end_of___lldiv 0AF3            ___awdiv@divisor 0070            ___awdiv@counter 0075  
                    _RCREG 001A                      _SPBRG 0099                      _PORTA 0005  
                    _PORTB 0006                      _PORTC 0007                      _PORTD 0008  
  __size_of_Lcd_Set_Cursor 0024                      _TRISA 0085                      _TRISB 0086  
                    _TRISC 0087                      _TRISD 0088         decimalASCII@cadena 003F  
                    _TXREG 0019           __end_of_UARTInit 0BC9                      _Setup 08AF  
       decimalASCII@entero 0044                      pclath 000A                      status 0003  
                    wtemp0 007E           __end_of_Lcd_Init 09D5           __end_of_Lcd_Port 0865  
          __initialization 07F2               __end_of_main 1000                     ??_main 0049  
       __size_of_Lcd_Clear 000D      __end_of_UARTDataReady 086C                     ?_Setup 0070  
                   _ADRESH 001E           ___awdiv@dividend 0072                     _ANSELH 0189  
         __end_of_canalADC 0CEE                  ??_Lcd_Cmd 0071    __size_of_Lcd_Write_Char 0015  
         __end_of___xxtofl 0DA8      __size_of_decimalASCII 012C        decimalASCII@lectura 003E  
                   ___bmul 08C4                  ??___fladd 0020                  ??___fldiv 0028  
                ??___awdiv 0074                  ??___awmod 0074                  ??___flmul 0079  
                ??___flsub 007E                  ??___fltol 0074                  ??___lldiv 0078  
         ___awdiv@quotient 0077            ___awmod@divisor 0070            ___awmod@counter 0075  
       __size_of__Umul8_16 0027               _decimalASCII 0DA8            Lcd_Set_Cursor@a 0075  
          Lcd_Set_Cursor@b 0073               ___xxtofl@arg 007A               ___xxtofl@exp 0079  
             ___xxtofl@val 0070    __end_of__initialization 07FC          __end_of_Lcd_Clear 0879  
               ___fltol@f1 0070        ___bmul@multiplicand 0070           intToString@value 0025  
         intToString@valor 0020             __pcstackCOMMON 0070              __end_of_Setup 08C4  
                ?_UARTInit 0020       __size_of_intToString 005F             _Lcd_Set_Cursor 08F1  
       __size_of_configADC 0013                    ??_Setup 0070                  ?_Lcd_Init 0070  
                ?_Lcd_Port 0070                 __pbssBANK0 004C          __end_of__Umul8_16 0960  
               __pmaintext 0ED4                    ?___bmul 0070                 ??_UARTInit 0025  
__size_of_Lcd_Write_String 0030     __end_of_Lcd_Set_Cursor 0915                  ?_canalADC 0070  
                ?___xxtofl 0070                 ??_Lcd_Init 0073                 ??_Lcd_Port 0070  
            ?_UARTReadChar 0070                 __stringtab 0003             _Lcd_Write_Char 089A  
                  _Lcd_Cmd 08D9                 _convertir2 004F          __end_of_configADC 089A  
          __size_of___bmul 0015                    ___fladd 01F9                    ___fldiv 001C  
                  ___awdiv 0AF3                    ___awmod 09D5                    ___flmul 0491  
                  ___flsub 0915                    ___fltol 0BC9                    ___lldiv 0A8D  
                  _bandera 0051                  _ANSELbits 0188            ?_Lcd_Set_Cursor 0073  
                  __ptext1 0A2E                    __ptext2 08C4                    __ptext3 09D5  
                  __ptext4 0AF3                    __ptext5 0DA8                    __ptext6 0CEE  
                  __ptext7 0BC9                    __ptext8 0915                    __ptext9 01F9  
               ??_canalADC 0070                    _lectura 004E                    _varADC1 0053  
                  _varADC2 0052                 ??___xxtofl 0074                    _varUART 004D  
         ___awmod@dividend 0072             ??_UARTReadChar 0071     __end_of_Lcd_Write_Char 08AF  
     end_of_initialization 07FC            ___lldiv@divisor 0070            ___lldiv@counter 007D  
                _RCSTAbits 0018                  Lcd_Port@a 0070                  _PORTCbits 0007  
              ___fladd@grs 007B              ___xxtofl@sign 0078                  _TRISCbits 0087  
              ___fldiv@grs 0034                ___fldiv@rem 002D            ?_Lcd_Write_Char 0070  
        Lcd_Write_String@a 0073          Lcd_Write_String@i 0075                ___flmul@grs 0029  
                _TXSTAbits 0098          intToString@entero 0024                  _Lcd_Clear 086C  
   __size_of_UARTDataReady 0007             __end_of___bmul 08D9           _Lcd_Write_String 0960  
        __size_of_UARTInit 006F        start_initialization 07F2          __size_of_Lcd_Init 0045  
        __size_of_Lcd_Port 0006                 ?_Lcd_Clear 0070                   ??___bmul 0071  
     __end_of_UARTReadChar 0887     decimalASCII@convertir3 0045                  __Umul8_16 0939  
            ??_intToString 0079            Lcd_Write_Char@a 0072                  ___fladd@a 0074  
                ___fladd@b 0070                  ___fldiv@a 0020                  ___fldiv@b 0024  
                ___flmul@a 0024                  ___flmul@b 0020                  ___flsub@a 0028  
                ___flsub@b 002C                  ___latbits 0002          __size_of_canalADC 00AB  
            __pcstackBANK0 0020              _UARTDataReady 0865          __size_of___xxtofl 00BA  
                 ?_Lcd_Cmd 0070           ??_Lcd_Set_Cursor 0074                   ?___fladd 0070  
                 ?___fldiv 0020                   ?___awdiv 0070                   ?___awmod 0070  
                 ?___flmul 0020                   ?___flsub 0028                   ?___fltol 0070  
                 ?___lldiv 0070                 ?__Umul8_16 0070                  _configADC 0887  
                __pstrings 0003                  _convertir 0050        __end_of_intToString 0A8D  
           ?_UARTDataReady 0070             __size_of_Setup 0015                   _PIE1bits 008C  
                 Lcd_Cmd@a 0072                   _PIR1bits 000C                ??_Lcd_Clear 0073  
                 _UARTInit 0B5A                 ?_configADC 0070                 _ADCON0bits 001F  
              __stringbase 0012                 _ADCON1bits 009F           ??_Lcd_Write_Char 0071  
                 _Lcd_Init 0990              ?_decimalASCII 0070                   _Lcd_Port 085F  
 __end_of_Lcd_Write_String 0990           __size_of_Lcd_Cmd 0018      __size_of_UARTReadChar 000E  
             UARTInit@BRGH 0024                ??__Umul8_16 0072           __size_of___fladd 0298  
         __size_of___fldiv 01DD           __size_of___awdiv 0067           __size_of___awmod 0059  
         __size_of___flmul 0361           __size_of___flsub 0024           __size_of___fltol 007A  
         __size_of___lldiv 0066                _intToString 0A2E         __end_of__stringtab 0013  
                 _canalADC 0C43            ??_UARTDataReady 0070                   ___xxtofl 0CEE  
            canalADC@canal 0070             ??_decimalASCII 003A                   __ptext10 0491  
                 __ptext11 0939                   __ptext20 0960                   __ptext12 001C  
                 __ptext21 089A                   __ptext13 0887                   __ptext22 08F1  
                 __ptext14 0C43                   __ptext23 0990                   __ptext15 0879  
                 __ptext24 086C                   __ptext16 0865                   __ptext25 08D9  
                 __ptext17 0B5A                   __ptext26 085F                   __ptext18 0A8D  
                 __ptext19 08AF               _UARTReadChar 0879              __size_of_main 012C  
              ??_configADC 0070           ___lldiv@dividend 0074                  stringcode 000D  
       Lcd_Set_Cursor@temp 0076     __Umul8_16@multiplicand 0070           ___lldiv@quotient 0079  
                 stringdir 000D                   stringtab 0003              ___fladd@signs 0078  
             ___fladd@aexp 0079               ___fladd@bexp 007A                 _UARTstring 004C  
     __Umul8_16@multiplier 0078          __Umul8_16@product 0074  
