

Microchip MPLAB XC8 Assembler V2.31 build 20201012212115 
                                                                                               Mon Feb 08 11:07:08 2021

Microchip MPLAB XC8 C Compiler v2.31 (Free license) build 20201012212115 Og1 
     1                           	processor	16F887
     2                           	pagewidth 120
     3                           	opt	flic
     4                           	psect	strings,global,class=STRING,delta=2,noexec
     5                           	psect	cinit,global,class=CODE,merge=1,delta=2
     6                           	psect	bssCOMMON,global,class=COMMON,space=1,delta=1,noexec
     7                           	psect	bssBANK1,global,class=BANK1,space=1,delta=1,noexec
     8                           	psect	clrtext,global,class=CODE,delta=2
     9                           	psect	cstackBANK1,global,class=BANK1,space=1,delta=1,noexec
    10                           	psect	cstackCOMMON,global,class=COMMON,space=1,delta=1,noexec
    11                           	psect	cstackBANK0,global,class=BANK0,space=1,delta=1,noexec
    12                           	psect	maintext,global,class=CODE,split=1,delta=2
    13                           	psect	text1,local,class=CODE,merge=1,delta=2
    14                           	psect	text2,local,class=CODE,merge=1,delta=2,group=1
    15                           	psect	text3,local,class=CODE,merge=1,delta=2,group=1
    16                           	psect	text4,local,class=CODE,merge=1,delta=2,group=1
    17                           	psect	text5,local,class=CODE,merge=1,delta=2,group=1
    18                           	psect	text6,local,class=CODE,merge=1,delta=2,group=1
    19                           	psect	text7,local,class=CODE,merge=1,delta=2,group=1
    20                           	psect	text8,local,class=CODE,merge=1,delta=2,group=1
    21                           	psect	text9,local,class=CODE,merge=1,delta=2,group=1
    22                           	psect	text10,local,class=CODE,merge=1,delta=2,group=1
    23                           	psect	text11,local,class=CODE,merge=1,delta=2,group=1
    24                           	psect	text12,local,class=CODE,merge=1,delta=2
    25                           	psect	text13,local,class=CODE,merge=1,delta=2
    26                           	psect	text14,local,class=CODE,merge=1,delta=2
    27                           	psect	text15,local,class=CODE,merge=1,delta=2,group=1
    28                           	psect	text16,local,class=CODE,merge=1,delta=2
    29                           	psect	text17,local,class=CODE,merge=1,delta=2
    30                           	psect	text18,local,class=CODE,merge=1,delta=2
    31                           	psect	text19,local,class=CODE,merge=1,delta=2
    32                           	psect	text20,local,class=CODE,merge=1,delta=2
    33                           	psect	text21,local,class=CODE,merge=1,delta=2
    34                           	psect	text22,local,class=CODE,merge=1,delta=2
    35                           	psect	text23,local,class=CODE,merge=1,delta=2
    36                           	psect	text24,local,class=CODE,merge=1,delta=2
    37                           	psect	intentry,global,class=CODE,delta=2
    38                           	psect	config,global,abs,ovrld,class=CONFIG,space=4,delta=2,noexec
    39                           	dabs	1,0x7E,2
    40  0000                     
    41                           ; Version 2.20
    42                           ; Generated 12/02/2020 GMT
    43                           ; 
    44                           ; Copyright © 2020, Microchip Technology Inc. and its subsidiaries ("Microchip")
    45                           ; All rights reserved.
    46                           ; 
    47                           ; This software is developed by Microchip Technology Inc. and its subsidiaries ("Microch
      +                          ip").
    48                           ; 
    49                           ; Redistribution and use in source and binary forms, with or without modification, are
    50                           ; permitted provided that the following conditions are met:
    51                           ; 
    52                           ;     1. Redistributions of source code must retain the above copyright notice, this lis
      +                          t of
    53                           ;        conditions and the following disclaimer.
    54                           ; 
    55                           ;     2. Redistributions in binary form must reproduce the above copyright notice, this 
      +                          list
    56                           ;        of conditions and the following disclaimer in the documentation and/or other
    57                           ;        materials provided with the distribution.
    58                           ; 
    59                           ;     3. Microchip's name may not be used to endorse or promote products derived from th
      +                          is
    60                           ;        software without specific prior written permission.
    61                           ; 
    62                           ; THIS SOFTWARE IS PROVIDED BY MICROCHIP "AS IS" AND ANY EXPRESS OR IMPLIED WARRANTIES,
    63                           ; INCLUDING, BUT NOT LIMITED TO, THE IMPLIED WARRANTIES OF MERCHANTABILITY AND FITNESS F
      +                          OR
    64                           ; PURPOSE ARE DISCLAIMED.  IN NO EVENT SHALL MICROCHIP BE LIABLE FOR ANY DIRECT, INDIREC
      +                          T,
    65                           ; INCIDENTAL, SPECIAL, EXEMPLARY, OR CONSEQUENTIAL DAMAGES (INCLUDING BUT NOT LIMITED TO
    66                           ; PROCUREMENT OF SUBSTITUTE GOODS OR SERVICES; LOSS OF USE, DATA OR PROFITS; OR BUSINESS
    67                           ; INTERRUPTION) HOWSOEVER CAUSED AND ON ANY THEORY OF LIABILITY, WHETHER IN CONTRACT, ST
      +                          RICT
    68                           ; LIABILITY, OR TORT (INCLUDING NEGLIGENCE OR OTHERWISE) ARISING IN ANY WAY OUT OF THE U
      +                          SE OF
    69                           ; THIS SOFTWARE, EVEN IF ADVISED OF THE POSSIBILITY OF SUCH DAMAGE.
    70                           ; 
    71                           ; 
    72                           ; Code-generator required, PIC16F887 Definitions
    73                           ; 
    74                           ; SFR Addresses
    75  0000                     	;# 
    76  0001                     	;# 
    77  0002                     	;# 
    78  0003                     	;# 
    79  0004                     	;# 
    80  0005                     	;# 
    81  0006                     	;# 
    82  0007                     	;# 
    83  0008                     	;# 
    84  0009                     	;# 
    85  000A                     	;# 
    86  000B                     	;# 
    87  000C                     	;# 
    88  000D                     	;# 
    89  000E                     	;# 
    90  000E                     	;# 
    91  000F                     	;# 
    92  0010                     	;# 
    93  0011                     	;# 
    94  0012                     	;# 
    95  0013                     	;# 
    96  0014                     	;# 
    97  0015                     	;# 
    98  0015                     	;# 
    99  0016                     	;# 
   100  0017                     	;# 
   101  0018                     	;# 
   102  0019                     	;# 
   103  001A                     	;# 
   104  001B                     	;# 
   105  001B                     	;# 
   106  001C                     	;# 
   107  001D                     	;# 
   108  001E                     	;# 
   109  001F                     	;# 
   110  0081                     	;# 
   111  0085                     	;# 
   112  0086                     	;# 
   113  0087                     	;# 
   114  0088                     	;# 
   115  0089                     	;# 
   116  008C                     	;# 
   117  008D                     	;# 
   118  008E                     	;# 
   119  008F                     	;# 
   120  0090                     	;# 
   121  0091                     	;# 
   122  0092                     	;# 
   123  0093                     	;# 
   124  0093                     	;# 
   125  0093                     	;# 
   126  0094                     	;# 
   127  0095                     	;# 
   128  0096                     	;# 
   129  0097                     	;# 
   130  0098                     	;# 
   131  0099                     	;# 
   132  009A                     	;# 
   133  009B                     	;# 
   134  009C                     	;# 
   135  009D                     	;# 
   136  009E                     	;# 
   137  009F                     	;# 
   138  0105                     	;# 
   139  0107                     	;# 
   140  0108                     	;# 
   141  0109                     	;# 
   142  010C                     	;# 
   143  010C                     	;# 
   144  010D                     	;# 
   145  010E                     	;# 
   146  010F                     	;# 
   147  0185                     	;# 
   148  0187                     	;# 
   149  0188                     	;# 
   150  0189                     	;# 
   151  018C                     	;# 
   152  018D                     	;# 
   153  0000                     	;# 
   154  0001                     	;# 
   155  0002                     	;# 
   156  0003                     	;# 
   157  0004                     	;# 
   158  0005                     	;# 
   159  0006                     	;# 
   160  0007                     	;# 
   161  0008                     	;# 
   162  0009                     	;# 
   163  000A                     	;# 
   164  000B                     	;# 
   165  000C                     	;# 
   166  000D                     	;# 
   167  000E                     	;# 
   168  000E                     	;# 
   169  000F                     	;# 
   170  0010                     	;# 
   171  0011                     	;# 
   172  0012                     	;# 
   173  0013                     	;# 
   174  0014                     	;# 
   175  0015                     	;# 
   176  0015                     	;# 
   177  0016                     	;# 
   178  0017                     	;# 
   179  0018                     	;# 
   180  0019                     	;# 
   181  001A                     	;# 
   182  001B                     	;# 
   183  001B                     	;# 
   184  001C                     	;# 
   185  001D                     	;# 
   186  001E                     	;# 
   187  001F                     	;# 
   188  0081                     	;# 
   189  0085                     	;# 
   190  0086                     	;# 
   191  0087                     	;# 
   192  0088                     	;# 
   193  0089                     	;# 
   194  008C                     	;# 
   195  008D                     	;# 
   196  008E                     	;# 
   197  008F                     	;# 
   198  0090                     	;# 
   199  0091                     	;# 
   200  0092                     	;# 
   201  0093                     	;# 
   202  0093                     	;# 
   203  0093                     	;# 
   204  0094                     	;# 
   205  0095                     	;# 
   206  0096                     	;# 
   207  0097                     	;# 
   208  0098                     	;# 
   209  0099                     	;# 
   210  009A                     	;# 
   211  009B                     	;# 
   212  009C                     	;# 
   213  009D                     	;# 
   214  009E                     	;# 
   215  009F                     	;# 
   216  0105                     	;# 
   217  0107                     	;# 
   218  0108                     	;# 
   219  0109                     	;# 
   220  010C                     	;# 
   221  010C                     	;# 
   222  010D                     	;# 
   223  010E                     	;# 
   224  010F                     	;# 
   225  0185                     	;# 
   226  0187                     	;# 
   227  0188                     	;# 
   228  0189                     	;# 
   229  018C                     	;# 
   230  018D                     	;# 
   231  0000                     	;# 
   232  0001                     	;# 
   233  0002                     	;# 
   234  0003                     	;# 
   235  0004                     	;# 
   236  0005                     	;# 
   237  0006                     	;# 
   238  0007                     	;# 
   239  0008                     	;# 
   240  0009                     	;# 
   241  000A                     	;# 
   242  000B                     	;# 
   243  000C                     	;# 
   244  000D                     	;# 
   245  000E                     	;# 
   246  000E                     	;# 
   247  000F                     	;# 
   248  0010                     	;# 
   249  0011                     	;# 
   250  0012                     	;# 
   251  0013                     	;# 
   252  0014                     	;# 
   253  0015                     	;# 
   254  0015                     	;# 
   255  0016                     	;# 
   256  0017                     	;# 
   257  0018                     	;# 
   258  0019                     	;# 
   259  001A                     	;# 
   260  001B                     	;# 
   261  001B                     	;# 
   262  001C                     	;# 
   263  001D                     	;# 
   264  001E                     	;# 
   265  001F                     	;# 
   266  0081                     	;# 
   267  0085                     	;# 
   268  0086                     	;# 
   269  0087                     	;# 
   270  0088                     	;# 
   271  0089                     	;# 
   272  008C                     	;# 
   273  008D                     	;# 
   274  008E                     	;# 
   275  008F                     	;# 
   276  0090                     	;# 
   277  0091                     	;# 
   278  0092                     	;# 
   279  0093                     	;# 
   280  0093                     	;# 
   281  0093                     	;# 
   282  0094                     	;# 
   283  0095                     	;# 
   284  0096                     	;# 
   285  0097                     	;# 
   286  0098                     	;# 
   287  0099                     	;# 
   288  009A                     	;# 
   289  009B                     	;# 
   290  009C                     	;# 
   291  009D                     	;# 
   292  009E                     	;# 
   293  009F                     	;# 
   294  0105                     	;# 
   295  0107                     	;# 
   296  0108                     	;# 
   297  0109                     	;# 
   298  010C                     	;# 
   299  010C                     	;# 
   300  010D                     	;# 
   301  010E                     	;# 
   302  010F                     	;# 
   303  0185                     	;# 
   304  0187                     	;# 
   305  0188                     	;# 
   306  0189                     	;# 
   307  018C                     	;# 
   308  018D                     	;# 
   309  0000                     	;# 
   310  0001                     	;# 
   311  0002                     	;# 
   312  0003                     	;# 
   313  0004                     	;# 
   314  0005                     	;# 
   315  0006                     	;# 
   316  0007                     	;# 
   317  0008                     	;# 
   318  0009                     	;# 
   319  000A                     	;# 
   320  000B                     	;# 
   321  000C                     	;# 
   322  000D                     	;# 
   323  000E                     	;# 
   324  000E                     	;# 
   325  000F                     	;# 
   326  0010                     	;# 
   327  0011                     	;# 
   328  0012                     	;# 
   329  0013                     	;# 
   330  0014                     	;# 
   331  0015                     	;# 
   332  0015                     	;# 
   333  0016                     	;# 
   334  0017                     	;# 
   335  0018                     	;# 
   336  0019                     	;# 
   337  001A                     	;# 
   338  001B                     	;# 
   339  001B                     	;# 
   340  001C                     	;# 
   341  001D                     	;# 
   342  001E                     	;# 
   343  001F                     	;# 
   344  0081                     	;# 
   345  0085                     	;# 
   346  0086                     	;# 
   347  0087                     	;# 
   348  0088                     	;# 
   349  0089                     	;# 
   350  008C                     	;# 
   351  008D                     	;# 
   352  008E                     	;# 
   353  008F                     	;# 
   354  0090                     	;# 
   355  0091                     	;# 
   356  0092                     	;# 
   357  0093                     	;# 
   358  0093                     	;# 
   359  0093                     	;# 
   360  0094                     	;# 
   361  0095                     	;# 
   362  0096                     	;# 
   363  0097                     	;# 
   364  0098                     	;# 
   365  0099                     	;# 
   366  009A                     	;# 
   367  009B                     	;# 
   368  009C                     	;# 
   369  009D                     	;# 
   370  009E                     	;# 
   371  009F                     	;# 
   372  0105                     	;# 
   373  0107                     	;# 
   374  0108                     	;# 
   375  0109                     	;# 
   376  010C                     	;# 
   377  010C                     	;# 
   378  010D                     	;# 
   379  010E                     	;# 
   380  010F                     	;# 
   381  0185                     	;# 
   382  0187                     	;# 
   383  0188                     	;# 
   384  0189                     	;# 
   385  018C                     	;# 
   386  018D                     	;# 
   387  0000                     	;# 
   388  0001                     	;# 
   389  0002                     	;# 
   390  0003                     	;# 
   391  0004                     	;# 
   392  0005                     	;# 
   393  0006                     	;# 
   394  0007                     	;# 
   395  0008                     	;# 
   396  0009                     	;# 
   397  000A                     	;# 
   398  000B                     	;# 
   399  000C                     	;# 
   400  000D                     	;# 
   401  000E                     	;# 
   402  000E                     	;# 
   403  000F                     	;# 
   404  0010                     	;# 
   405  0011                     	;# 
   406  0012                     	;# 
   407  0013                     	;# 
   408  0014                     	;# 
   409  0015                     	;# 
   410  0015                     	;# 
   411  0016                     	;# 
   412  0017                     	;# 
   413  0018                     	;# 
   414  0019                     	;# 
   415  001A                     	;# 
   416  001B                     	;# 
   417  001B                     	;# 
   418  001C                     	;# 
   419  001D                     	;# 
   420  001E                     	;# 
   421  001F                     	;# 
   422  0081                     	;# 
   423  0085                     	;# 
   424  0086                     	;# 
   425  0087                     	;# 
   426  0088                     	;# 
   427  0089                     	;# 
   428  008C                     	;# 
   429  008D                     	;# 
   430  008E                     	;# 
   431  008F                     	;# 
   432  0090                     	;# 
   433  0091                     	;# 
   434  0092                     	;# 
   435  0093                     	;# 
   436  0093                     	;# 
   437  0093                     	;# 
   438  0094                     	;# 
   439  0095                     	;# 
   440  0096                     	;# 
   441  0097                     	;# 
   442  0098                     	;# 
   443  0099                     	;# 
   444  009A                     	;# 
   445  009B                     	;# 
   446  009C                     	;# 
   447  009D                     	;# 
   448  009E                     	;# 
   449  009F                     	;# 
   450  0105                     	;# 
   451  0107                     	;# 
   452  0108                     	;# 
   453  0109                     	;# 
   454  010C                     	;# 
   455  010C                     	;# 
   456  010D                     	;# 
   457  010E                     	;# 
   458  010F                     	;# 
   459  0185                     	;# 
   460  0187                     	;# 
   461  0188                     	;# 
   462  0189                     	;# 
   463  018C                     	;# 
   464  018D                     	;# 
   465  001A                     _RCREG	set	26
   466  000C                     _PIR1bits	set	12
   467  0019                     _TXREG	set	25
   468  0018                     _RCSTAbits	set	24
   469  0007                     _PORTCbits	set	7
   470  0008                     _PORTD	set	8
   471  0007                     _PORTC	set	7
   472  0005                     _PORTA	set	5
   473  001F                     _ADCON0bits	set	31
   474  0006                     _PORTB	set	6
   475  001E                     _ADRESH	set	30
   476  0066                     _ADIF	set	102
   477  008C                     _PIE1bits	set	140
   478  009F                     _ADCON1bits	set	159
   479  0086                     _TRISBbits	set	134
   480  0098                     _TXSTAbits	set	152
   481  0099                     _SPBRG	set	153
   482  0086                     _TRISB	set	134
   483  0087                     _TRISC	set	135
   484  0088                     _TRISD	set	136
   485  0085                     _TRISA	set	133
   486  0188                     _ANSELbits	set	392
   487  0189                     _ANSELH	set	393
   488  0188                     _ANSEL	set	392
   489                           
   490                           	psect	strings
   491  1000                     __pstrings:
   492  1000                     stringtab:
   493  1000                     __stringtab:
   494                           
   495                           ;	String table - string pointers are 1 byte each
   496  1000  1BFF               	btfsc	btemp+1,7
   497  1001  280A               	ljmp	stringcode
   498  1002  1383               	bcf	3,7
   499  1003  187F               	btfsc	btemp+1,0
   500  1004  1783               	bsf	3,7
   501  1005  0800               	movf	0,w
   502  1006  0A84               	incf	4,f
   503  1007  1903               	skipnz
   504  1008  0AFF               	incf	btemp+1,f
   505  1009  0008               	return
   506  100A                     stringcode:
   507  100A                     stringdir:
   508  100A  3010               	movlw	high stringdir
   509  100B  008A               	movwf	10
   510  100C  0804               	movf	4,w
   511  100D  0A84               	incf	4,f
   512  100E  0782               	addwf	2,f
   513  100F                     __stringbase:
   514  100F  3400               	retlw	0
   515  1010                     __end_of__stringtab:
   516  1010                     STR_1:
   517  1010  3453               	retlw	83	;'S'
   518  1011  3431               	retlw	49	;'1'
   519  1012  3400               	retlw	0
   520  1013                     STR_2:
   521  1013  3453               	retlw	83	;'S'
   522  1014  3432               	retlw	50	;'2'
   523  1015  3400               	retlw	0
   524  1016                     STR_3:
   525  1016  3453               	retlw	83	;'S'
   526  1017  3433               	retlw	51	;'3'
   527  1018  3400               	retlw	0
   528                           
   529                           	psect	cinit
   530  000F                     start_initialization:	
   531                           ; #config settings
   532                           
   533  000F                     __initialization:
   534                           
   535                           ; Clear objects allocated to COMMON
   536  000F  01FA               	clrf	__pbssCOMMON& (0+127)
   537  0010  01FB               	clrf	(__pbssCOMMON+1)& (0+127)
   538                           
   539                           ; Clear objects allocated to BANK1
   540  0011  1383               	bcf	3,7	;select IRP bank0
   541  0012  30A0               	movlw	low __pbssBANK1
   542  0013  0084               	movwf	4
   543  0014  30BF               	movlw	low (__pbssBANK1+31)
   544  0015  160A  118A  247E  120A  118A  	fcall	clear_ram0
   545  001A                     end_of_initialization:	
   546                           ;End of C runtime variable initialization code
   547                           
   548  001A                     __end_of__initialization:
   549  001A  0183               	clrf	3
   550  001B  120A  158A  2B9A   	ljmp	_main	;jump to C main() function
   551                           
   552                           	psect	bssCOMMON
   553  007A                     __pbssCOMMON:
   554  007A                     _control:
   555  007A                     	ds	1
   556  007B                     _lectura:
   557  007B                     	ds	1
   558                           
   559                           	psect	bssBANK1
   560  00A0                     __pbssBANK1:
   561  00A0                     _convertir2:
   562  00A0                     	ds	4
   563  00A4                     _convertir:
   564  00A4                     	ds	4
   565  00A8                     _bandera:
   566  00A8                     	ds	1
   567  00A9                     _varADC2:
   568  00A9                     	ds	1
   569  00AA                     _varADC1:
   570  00AA                     	ds	1
   571  00AB                     _buf2:
   572  00AB                     	ds	10
   573  00B5                     _buf:
   574  00B5                     	ds	10
   575                           
   576                           	psect	clrtext
   577  147E                     clear_ram0:	
   578                           ;	Called with FSR containing the base address, and
   579                           ;	W with the last address+1
   580                           
   581  147E  0064               	clrwdt	;clear the watchdog before getting into this loop
   582  147F                     clrloop0:
   583  147F  0180               	clrf	0	;clear RAM location pointed to by FSR
   584  1480  0A84               	incf	4,f	;increment pointer
   585  1481  0604               	xorwf	4,w	;XOR with final address
   586  1482  1903               	btfsc	3,2	;have we reached the end yet?
   587  1483  3400               	retlw	0	;all done for this memory range, return
   588  1484  0604               	xorwf	4,w	;XOR again to restore value
   589  1485  2C7F               	goto	clrloop0	;do the next byte
   590                           
   591                           	psect	cstackBANK1
   592  00BF                     __pcstackBANK1:
   593  00BF                     ?_convert:
   594  00BF                     convert@a:	
   595                           ; 1 bytes @ 0x0
   596                           
   597                           
   598                           ; 4 bytes @ 0x0
   599  00BF                     	ds	4
   600  00C3                     convert@place:
   601                           
   602                           ; 2 bytes @ 0x4
   603  00C3                     	ds	2
   604  00C5                     convert@temp:
   605                           
   606                           ; 2 bytes @ 0x6
   607  00C5                     	ds	2
   608  00C7                     convert@j:
   609                           
   610                           ; 2 bytes @ 0x8
   611  00C7                     	ds	2
   612  00C9                     convert@data:
   613                           
   614                           ; 1 bytes @ 0xA
   615  00C9                     	ds	1
   616  00CA                     convert@x:
   617                           
   618                           ; 4 bytes @ 0xB
   619  00CA                     	ds	4
   620  00CE                     convert@i:
   621                           
   622                           ; 2 bytes @ 0xF
   623  00CE                     	ds	2
   624  00D0                     convert@digits:
   625                           
   626                           ; 2 bytes @ 0x11
   627  00D0                     	ds	2
   628  00D2                     convert@mu:
   629                           
   630                           ; 2 bytes @ 0x13
   631  00D2                     	ds	2
   632  00D4                     ??_main:
   633                           
   634                           ; 1 bytes @ 0x15
   635  00D4                     	ds	4
   636                           
   637                           	psect	cstackCOMMON
   638  0070                     __pcstackCOMMON:
   639  0070                     ?_Setup:
   640  0070                     ?_Lcd_Init:	
   641                           ; 1 bytes @ 0x0
   642                           
   643  0070                     ?_Lcd_Clear:	
   644                           ; 1 bytes @ 0x0
   645                           
   646  0070                     ?_configADC:	
   647                           ; 1 bytes @ 0x0
   648                           
   649  0070                     ?_canalADC:	
   650                           ; 1 bytes @ 0x0
   651                           
   652  0070                     ?_ISR:	
   653                           ; 1 bytes @ 0x0
   654                           
   655  0070                     ??_ISR:	
   656                           ; 1 bytes @ 0x0
   657                           
   658  0070                     ?_main:	
   659                           ; 1 bytes @ 0x0
   660                           
   661  0070                     ?_Lcd_Port:	
   662                           ; 1 bytes @ 0x0
   663                           
   664  0070                     ?_Lcd_Cmd:	
   665                           ; 1 bytes @ 0x0
   666                           
   667  0070                     ?_Lcd_Write_Char:	
   668                           ; 1 bytes @ 0x0
   669                           
   670                           
   671                           ; 1 bytes @ 0x0
   672  0070                     	ds	2
   673  0072                     ?___flge:
   674  0072                     ??_Setup:	
   675                           ; 1 bit 
   676                           
   677  0072                     ??_configADC:	
   678                           ; 1 bytes @ 0x2
   679                           
   680  0072                     ??_canalADC:	
   681                           ; 1 bytes @ 0x2
   682                           
   683  0072                     ??_Lcd_Port:	
   684                           ; 1 bytes @ 0x2
   685                           
   686  0072                     ?__Umul8_16:	
   687                           ; 1 bytes @ 0x2
   688                           
   689  0072                     ?___awdiv:	
   690                           ; 2 bytes @ 0x2
   691                           
   692  0072                     ?___lldiv:	
   693                           ; 2 bytes @ 0x2
   694                           
   695  0072                     ?___fltol:	
   696                           ; 4 bytes @ 0x2
   697                           
   698  0072                     ?___fladd:	
   699                           ; 4 bytes @ 0x2
   700                           
   701  0072                     Lcd_Port@a:	
   702                           ; 4 bytes @ 0x2
   703                           
   704  0072                     canalADC@canal:	
   705                           ; 1 bytes @ 0x2
   706                           
   707  0072                     __Umul8_16@multiplicand:	
   708                           ; 1 bytes @ 0x2
   709                           
   710  0072                     ___awdiv@divisor:	
   711                           ; 1 bytes @ 0x2
   712                           
   713  0072                     ___lldiv@divisor:	
   714                           ; 2 bytes @ 0x2
   715                           
   716  0072                     ___flge@ff1:	
   717                           ; 4 bytes @ 0x2
   718                           
   719  0072                     ___fltol@f1:	
   720                           ; 4 bytes @ 0x2
   721                           
   722  0072                     ___fladd@b:	
   723                           ; 4 bytes @ 0x2
   724                           
   725                           
   726                           ; 4 bytes @ 0x2
   727  0072                     	ds	1
   728  0073                     ??_Lcd_Cmd:
   729  0073                     ??_Lcd_Write_Char:	
   730                           ; 1 bytes @ 0x3
   731                           
   732                           
   733                           ; 1 bytes @ 0x3
   734  0073                     	ds	1
   735  0074                     ??__Umul8_16:
   736  0074                     Lcd_Write_Char@a:	
   737                           ; 1 bytes @ 0x4
   738                           
   739  0074                     ___awdiv@dividend:	
   740                           ; 1 bytes @ 0x4
   741                           
   742                           
   743                           ; 2 bytes @ 0x4
   744  0074                     	ds	1
   745  0075                     ?_Lcd_Write_String:
   746  0075                     Lcd_Cmd@a:	
   747                           ; 1 bytes @ 0x5
   748                           
   749  0075                     Lcd_Write_String@a:	
   750                           ; 1 bytes @ 0x5
   751                           
   752                           
   753                           ; 2 bytes @ 0x5
   754  0075                     	ds	1
   755  0076                     ??_Lcd_Init:
   756  0076                     ??_Lcd_Clear:	
   757                           ; 1 bytes @ 0x6
   758                           
   759  0076                     ?_Lcd_Set_Cursor:	
   760                           ; 1 bytes @ 0x6
   761                           
   762  0076                     ??___awdiv:	
   763                           ; 1 bytes @ 0x6
   764                           
   765  0076                     Lcd_Set_Cursor@b:	
   766                           ; 1 bytes @ 0x6
   767                           
   768  0076                     ___fltol@sign1:	
   769                           ; 1 bytes @ 0x6
   770                           
   771  0076                     ___lldiv@dividend:	
   772                           ; 1 bytes @ 0x6
   773                           
   774  0076                     ___flge@ff2:	
   775                           ; 4 bytes @ 0x6
   776                           
   777  0076                     ___fladd@a:	
   778                           ; 4 bytes @ 0x6
   779                           
   780                           
   781                           ; 4 bytes @ 0x6
   782  0076                     	ds	1
   783  0077                     ??_Lcd_Set_Cursor:
   784  0077                     ??_Lcd_Write_String:	
   785                           ; 1 bytes @ 0x7
   786                           
   787  0077                     ___fltol@exp1:	
   788                           ; 1 bytes @ 0x7
   789                           
   790                           
   791                           ; 1 bytes @ 0x7
   792  0077                     	ds	1
   793  0078                     ??___wmul:
   794  0078                     Lcd_Set_Cursor@a:	
   795                           ; 1 bytes @ 0x8
   796                           
   797  0078                     ___wmul@product:	
   798                           ; 1 bytes @ 0x8
   799                           
   800                           
   801                           ; 2 bytes @ 0x8
   802  0078                     	ds	1
   803  0079                     Lcd_Set_Cursor@temp:
   804                           
   805                           ; 1 bytes @ 0x9
   806  0079                     	ds	1
   807  007A                     ??___flsub:
   808                           
   809                           	psect	cstackBANK0
   810  0020                     __pcstackBANK0:	
   811                           ; 1 bytes @ 0xA
   812                           
   813  0020                     ??___lldiv:
   814  0020                     ??___flge:	
   815                           ; 1 bytes @ 0x0
   816                           
   817  0020                     ??___fltol:	
   818                           ; 1 bytes @ 0x0
   819                           
   820  0020                     ??___fladd:	
   821                           ; 1 bytes @ 0x0
   822                           
   823  0020                     ___awdiv@counter:	
   824                           ; 1 bytes @ 0x0
   825                           
   826  0020                     Lcd_Write_String@i:	
   827                           ; 1 bytes @ 0x0
   828                           
   829  0020                     __Umul8_16@product:	
   830                           ; 2 bytes @ 0x0
   831                           
   832                           
   833                           ; 2 bytes @ 0x0
   834  0020                     	ds	1
   835  0021                     ___awdiv@sign:
   836  0021                     ___lldiv@quotient:	
   837                           ; 1 bytes @ 0x1
   838                           
   839                           
   840                           ; 4 bytes @ 0x1
   841  0021                     	ds	1
   842  0022                     ___awdiv@quotient:
   843  0022                     __Umul8_16@word_mpld:	
   844                           ; 2 bytes @ 0x2
   845                           
   846                           
   847                           ; 2 bytes @ 0x2
   848  0022                     	ds	2
   849  0024                     __Umul8_16@multiplier:
   850                           
   851                           ; 1 bytes @ 0x4
   852  0024                     	ds	1
   853  0025                     ?___wmul:
   854  0025                     ___lldiv@counter:	
   855                           ; 2 bytes @ 0x5
   856                           
   857  0025                     ___wmul@multiplier:	
   858                           ; 1 bytes @ 0x5
   859                           
   860                           
   861                           ; 2 bytes @ 0x5
   862  0025                     	ds	1
   863  0026                     ?_UARTInit:
   864  0026                     UARTInit@baud_rate:	
   865                           ; 1 bytes @ 0x6
   866                           
   867                           
   868                           ; 4 bytes @ 0x6
   869  0026                     	ds	1
   870  0027                     ___wmul@multiplicand:
   871                           
   872                           ; 2 bytes @ 0x7
   873  0027                     	ds	1
   874  0028                     ___fladd@signs:
   875                           
   876                           ; 1 bytes @ 0x8
   877  0028                     	ds	1
   878  0029                     ?___xxtofl:
   879  0029                     ___fladd@aexp:	
   880                           ; 4 bytes @ 0x9
   881                           
   882  0029                     ___xxtofl@val:	
   883                           ; 1 bytes @ 0x9
   884                           
   885                           
   886                           ; 4 bytes @ 0x9
   887  0029                     	ds	1
   888  002A                     UARTInit@BRGH:
   889  002A                     ___fladd@bexp:	
   890                           ; 1 bytes @ 0xA
   891                           
   892                           
   893                           ; 1 bytes @ 0xA
   894  002A                     	ds	1
   895  002B                     ??_UARTInit:
   896  002B                     ___fladd@grs:	
   897                           ; 1 bytes @ 0xB
   898                           
   899                           
   900                           ; 1 bytes @ 0xB
   901  002B                     	ds	2
   902  002D                     ??___xxtofl:
   903                           
   904                           ; 1 bytes @ 0xD
   905  002D                     	ds	4
   906  0031                     ___xxtofl@sign:
   907                           
   908                           ; 1 bytes @ 0x11
   909  0031                     	ds	1
   910  0032                     ___xxtofl@exp:
   911                           
   912                           ; 1 bytes @ 0x12
   913  0032                     	ds	1
   914  0033                     ___xxtofl@arg:
   915                           
   916                           ; 4 bytes @ 0x13
   917  0033                     	ds	4
   918  0037                     ?___flsub:
   919  0037                     ?___fldiv:	
   920                           ; 4 bytes @ 0x17
   921                           
   922  0037                     ___flsub@a:	
   923                           ; 4 bytes @ 0x17
   924                           
   925  0037                     ___fldiv@a:	
   926                           ; 4 bytes @ 0x17
   927                           
   928                           
   929                           ; 4 bytes @ 0x17
   930  0037                     	ds	4
   931  003B                     ___flsub@b:
   932  003B                     ___fldiv@b:	
   933                           ; 4 bytes @ 0x1B
   934                           
   935                           
   936                           ; 4 bytes @ 0x1B
   937  003B                     	ds	4
   938  003F                     ??___fldiv:
   939                           
   940                           ; 1 bytes @ 0x1F
   941  003F                     	ds	5
   942  0044                     ___fldiv@rem:
   943                           
   944                           ; 4 bytes @ 0x24
   945  0044                     	ds	4
   946  0048                     ___fldiv@sign:
   947                           
   948                           ; 1 bytes @ 0x28
   949  0048                     	ds	1
   950  0049                     ___fldiv@new_exp:
   951                           
   952                           ; 2 bytes @ 0x29
   953  0049                     	ds	2
   954  004B                     ___fldiv@grs:
   955                           
   956                           ; 4 bytes @ 0x2B
   957  004B                     	ds	4
   958  004F                     ___fldiv@bexp:
   959                           
   960                           ; 1 bytes @ 0x2F
   961  004F                     	ds	1
   962  0050                     ___fldiv@aexp:
   963                           
   964                           ; 1 bytes @ 0x30
   965  0050                     	ds	1
   966  0051                     ?___flmul:
   967  0051                     ___flmul@b:	
   968                           ; 4 bytes @ 0x31
   969                           
   970                           
   971                           ; 4 bytes @ 0x31
   972  0051                     	ds	4
   973  0055                     ___flmul@a:
   974                           
   975                           ; 4 bytes @ 0x35
   976  0055                     	ds	4
   977  0059                     ??___flmul:
   978                           
   979                           ; 1 bytes @ 0x39
   980  0059                     	ds	5
   981  005E                     ___flmul@sign:
   982                           
   983                           ; 1 bytes @ 0x3E
   984  005E                     	ds	1
   985  005F                     ___flmul@aexp:
   986                           
   987                           ; 1 bytes @ 0x3F
   988  005F                     	ds	1
   989  0060                     ___flmul@grs:
   990                           
   991                           ; 4 bytes @ 0x40
   992  0060                     	ds	4
   993  0064                     ___flmul@bexp:
   994                           
   995                           ; 1 bytes @ 0x44
   996  0064                     	ds	1
   997  0065                     ___flmul@prod:
   998                           
   999                           ; 4 bytes @ 0x45
  1000  0065                     	ds	4
  1001  0069                     ___flmul@temp:
  1002                           
  1003                           ; 2 bytes @ 0x49
  1004  0069                     	ds	2
  1005  006B                     ??_convert:
  1006                           
  1007                           ; 1 bytes @ 0x4B
  1008  006B                     	ds	2
  1009                           
  1010                           	psect	maintext
  1011  0B9A                     __pmaintext:	
  1012 ;;
  1013 ;;Main: autosize = 0, tempsize = 4, incstack = 0, save=0
  1014 ;;
  1015 ;; *************** function _main *****************
  1016 ;; Defined at:
  1017 ;;		line 63 in file "main.c"
  1018 ;; Parameters:    Size  Location     Type
  1019 ;;		None
  1020 ;; Auto vars:     Size  Location     Type
  1021 ;;		None
  1022 ;; Return value:  Size  Location     Type
  1023 ;;                  1    wreg      void 
  1024 ;; Registers used:
  1025 ;;		wreg, fsr0l, fsr0h, status,2, status,0, btemp+1, pclath, cstack
  1026 ;; Tracked objects:
  1027 ;;		On entry : B00/0
  1028 ;;		On exit  : 0/0
  1029 ;;		Unchanged: 0/0
  1030 ;; Data sizes:     COMMON   BANK0   BANK1   BANK3   BANK2
  1031 ;;      Params:         0       0       0       0       0
  1032 ;;      Locals:         0       0       0       0       0
  1033 ;;      Temps:          0       0       4       0       0
  1034 ;;      Totals:         0       0       4       0       0
  1035 ;;Total ram usage:        4 bytes
  1036 ;; Hardware stack levels required when called:    4
  1037 ;; This function calls:
  1038 ;;		_Lcd_Clear
  1039 ;;		_Lcd_Init
  1040 ;;		_Lcd_Set_Cursor
  1041 ;;		_Lcd_Write_String
  1042 ;;		_Setup
  1043 ;;		_UARTInit
  1044 ;;		___fldiv
  1045 ;;		___flmul
  1046 ;;		___xxtofl
  1047 ;;		_canalADC
  1048 ;;		_configADC
  1049 ;;		_convert
  1050 ;; This function is called by:
  1051 ;;		Startup code after reset
  1052 ;; This function uses a non-reentrant model
  1053 ;;
  1054                           
  1055                           
  1056                           ;psect for function _main
  1057  0B9A                     _main:
  1058  0B9A                     l3353:	
  1059                           ;incstack = 0
  1060                           ; Regs used in _main: [wreg-fsr0h+status,2+status,0+btemp+1+pclath+cstack]
  1061                           
  1062                           
  1063                           ;main.c: 64:             ADIF = 0;
  1064  0B9A  160A  118A  2499  120A  158A  	fcall	_Setup
  1065                           
  1066                           ;main.c: 65:             ADCON0bits.GO = 1;
  1067  0B9F  3000               	movlw	0
  1068  0BA0  1283               	bcf	3,5	;RP0=0, select bank0
  1069  0BA1  1303               	bcf	3,6	;RP1=0, select bank0
  1070  0BA2  00A9               	movwf	UARTInit@baud_rate+3
  1071  0BA3  3000               	movlw	0
  1072  0BA4  00A8               	movwf	UARTInit@baud_rate+2
  1073  0BA5  3025               	movlw	37
  1074  0BA6  00A7               	movwf	UARTInit@baud_rate+1
  1075  0BA7  3080               	movlw	128
  1076  0BA8  00A6               	movwf	UARTInit@baud_rate
  1077  0BA9  01AA               	clrf	UARTInit@BRGH
  1078  0BAA  160A  118A  2671  120A  158A  	fcall	_UARTInit
  1079                           
  1080                           ;main.c: 66: 
  1081  0BAF  160A  118A  255B  120A  158A  	fcall	_Lcd_Init
  1082                           
  1083                           ;main.c: 67:         }
  1084  0BB4  120A  158A  2003  120A  158A  	fcall	_Lcd_Clear
  1085                           
  1086                           ;main.c: 69: 
  1087  0BB9  01F6               	clrf	Lcd_Set_Cursor@b
  1088  0BBA  0AF6               	incf	Lcd_Set_Cursor@b,f
  1089  0BBB  3001               	movlw	1
  1090  0BBC  160A  118A  24C3  120A  158A  	fcall	_Lcd_Set_Cursor
  1091  0BC1                     l3355:
  1092                           
  1093                           ;main.c: 70:         convertir = 0;
  1094  0BC1  3001               	movlw	(low ((STR_1-__stringbase)| (0+32768)))& (0+255)
  1095  0BC2  00F5               	movwf	Lcd_Write_String@a
  1096  0BC3  3080               	movlw	128
  1097  0BC4  00F6               	movwf	Lcd_Write_String@a+1
  1098  0BC5  120A  158A  2010  120A  158A  	fcall	_Lcd_Write_String
  1099  0BCA                     l3357:
  1100                           
  1101                           ;main.c: 71:         convertir2 = 0;
  1102  0BCA  3008               	movlw	8
  1103  0BCB  1683               	bsf	3,5	;RP0=1, select bank1
  1104  0BCC  1303               	bcf	3,6	;RP1=0, select bank1
  1105  0BCD  00D4               	movwf	??_main^(0+128)
  1106  0BCE  0854               	movf	??_main^(0+128),w
  1107  0BCF  00F6               	movwf	Lcd_Set_Cursor@b
  1108  0BD0  3001               	movlw	1
  1109  0BD1  160A  118A  24C3  120A  158A  	fcall	_Lcd_Set_Cursor
  1110                           
  1111                           ;main.c: 72: 
  1112  0BD6  3004               	movlw	(low ((STR_2-__stringbase)| (0+32768)))& (0+255)
  1113  0BD7  00F5               	movwf	Lcd_Write_String@a
  1114  0BD8  3080               	movlw	128
  1115  0BD9  00F6               	movwf	Lcd_Write_String@a+1
  1116  0BDA  120A  158A  2010  120A  158A  	fcall	_Lcd_Write_String
  1117  0BDF                     l3359:
  1118                           
  1119                           ;main.c: 73:         convertir = (varADC1 / (float) 255)*5;
  1120  0BDF  300F               	movlw	15
  1121  0BE0  1683               	bsf	3,5	;RP0=1, select bank1
  1122  0BE1  1303               	bcf	3,6	;RP1=0, select bank1
  1123  0BE2  00D4               	movwf	??_main^(0+128)
  1124  0BE3  0854               	movf	??_main^(0+128),w
  1125  0BE4  00F6               	movwf	Lcd_Set_Cursor@b
  1126  0BE5  3001               	movlw	1
  1127  0BE6  160A  118A  24C3  120A  158A  	fcall	_Lcd_Set_Cursor
  1128  0BEB                     l3361:
  1129                           
  1130                           ;main.c: 74:         convert(buf, convertir, 2);
  1131  0BEB  3007               	movlw	(low ((STR_3-__stringbase)| (0+32768)))& (0+255)
  1132  0BEC  00F5               	movwf	Lcd_Write_String@a
  1133  0BED  3080               	movlw	128
  1134  0BEE  00F6               	movwf	Lcd_Write_String@a+1
  1135  0BEF  120A  158A  2010  120A  158A  	fcall	_Lcd_Write_String
  1136  0BF4                     l3363:
  1137                           
  1138                           ;main.c: 76:         convertir2 = (varADC2 / (float) 255)*5;
  1139  0BF4  160A  118A  2486  120A  158A  	fcall	_configADC
  1140  0BF9                     l3365:
  1141                           
  1142                           ;main.c: 77:         convert(buf2, convertir2, 2);
  1143  0BF9  3000               	movlw	0
  1144  0BFA  120A  158A  2056  120A  158A  	fcall	_canalADC
  1145  0BFF                     l3367:
  1146                           
  1147                           ;main.c: 82:         Lcd_Set_Cursor(2, 8);
  1148  0BFF  1283               	bcf	3,5	;RP0=0, select bank0
  1149  0C00  1303               	bcf	3,6	;RP1=0, select bank0
  1150  0C01  1F0C               	btfss	12,6	;volatile
  1151  0C02  2C04               	goto	u4971
  1152  0C03  2C05               	goto	u4970
  1153  0C04                     u4971:
  1154  0C04  2C38               	goto	l3389
  1155  0C05                     u4970:
  1156  0C05                     l3369:
  1157  0C05  1683               	bsf	3,5	;RP0=1, select bank1
  1158  0C06  1303               	bcf	3,6	;RP1=0, select bank1
  1159  0C07  0828               	movf	_bandera^(0+128),w
  1160  0C08  1D03               	btfss	3,2
  1161  0C09  2C0B               	goto	u4981
  1162  0C0A  2C0C               	goto	u4980
  1163  0C0B                     u4981:
  1164  0C0B  2C21               	goto	l3377
  1165  0C0C                     u4980:
  1166  0C0C                     l3371:
  1167  0C0C  1283               	bcf	3,5	;RP0=0, select bank0
  1168  0C0D  1303               	bcf	3,6	;RP1=0, select bank0
  1169  0C0E  081E               	movf	30,w	;volatile
  1170  0C0F  1683               	bsf	3,5	;RP0=1, select bank1
  1171  0C10  1303               	bcf	3,6	;RP1=0, select bank1
  1172  0C11  00D4               	movwf	??_main^(0+128)
  1173  0C12  0854               	movf	??_main^(0+128),w
  1174  0C13  00AA               	movwf	_varADC1^(0+128)
  1175  0C14                     l3373:
  1176  0C14  3001               	movlw	1
  1177  0C15  120A  158A  2056  120A  158A  	fcall	_canalADC
  1178  0C1A                     l3375:
  1179  0C1A  3001               	movlw	1
  1180  0C1B  1683               	bsf	3,5	;RP0=1, select bank1
  1181  0C1C  1303               	bcf	3,6	;RP1=0, select bank1
  1182  0C1D  00D4               	movwf	??_main^(0+128)
  1183  0C1E  0854               	movf	??_main^(0+128),w
  1184  0C1F  07A8               	addwf	_bandera^(0+128),f
  1185  0C20  2C32               	goto	l3383
  1186  0C21                     l3377:
  1187  0C21  1283               	bcf	3,5	;RP0=0, select bank0
  1188  0C22  1303               	bcf	3,6	;RP1=0, select bank0
  1189  0C23  081E               	movf	30,w	;volatile
  1190  0C24  1683               	bsf	3,5	;RP0=1, select bank1
  1191  0C25  1303               	bcf	3,6	;RP1=0, select bank1
  1192  0C26  00D4               	movwf	??_main^(0+128)
  1193  0C27  0854               	movf	??_main^(0+128),w
  1194  0C28  00A9               	movwf	_varADC2^(0+128)
  1195  0C29                     l3379:
  1196  0C29  3000               	movlw	0
  1197  0C2A  120A  158A  2056  120A  158A  	fcall	_canalADC
  1198  0C2F                     l3381:
  1199  0C2F  1683               	bsf	3,5	;RP0=1, select bank1
  1200  0C30  1303               	bcf	3,6	;RP1=0, select bank1
  1201  0C31  01A8               	clrf	_bandera^(0+128)
  1202  0C32                     l3383:
  1203  0C32  082A               	movf	_varADC1^(0+128),w
  1204  0C33  1283               	bcf	3,5	;RP0=0, select bank0
  1205  0C34  1303               	bcf	3,6	;RP1=0, select bank0
  1206  0C35  0086               	movwf	6	;volatile
  1207  0C36                     l3385:
  1208  0C36  130C               	bcf	12,6	;volatile
  1209  0C37                     l3387:
  1210  0C37  149F               	bsf	31,1	;volatile
  1211  0C38                     l3389:
  1212  0C38  3000               	movlw	0
  1213  0C39  1683               	bsf	3,5	;RP0=1, select bank1
  1214  0C3A  1303               	bcf	3,6	;RP1=0, select bank1
  1215  0C3B  00A7               	movwf	(_convertir+3)^(0+128)
  1216  0C3C  3000               	movlw	0
  1217  0C3D  00A6               	movwf	(_convertir+2)^(0+128)
  1218  0C3E  3000               	movlw	0
  1219  0C3F  00A5               	movwf	(_convertir+1)^(0+128)
  1220  0C40  3000               	movlw	0
  1221  0C41  00A4               	movwf	_convertir^(0+128)
  1222  0C42                     l3391:
  1223  0C42  3000               	movlw	0
  1224  0C43  00A3               	movwf	(_convertir2+3)^(0+128)
  1225  0C44  3000               	movlw	0
  1226  0C45  00A2               	movwf	(_convertir2+2)^(0+128)
  1227  0C46  3000               	movlw	0
  1228  0C47  00A1               	movwf	(_convertir2+1)^(0+128)
  1229  0C48  3000               	movlw	0
  1230  0C49  00A0               	movwf	_convertir2^(0+128)
  1231  0C4A                     l3393:
  1232  0C4A  3040               	movlw	64
  1233  0C4B  1283               	bcf	3,5	;RP0=0, select bank0
  1234  0C4C  1303               	bcf	3,6	;RP1=0, select bank0
  1235  0C4D  00D4               	movwf	___flmul@b+3
  1236  0C4E  30A0               	movlw	160
  1237  0C4F  00D3               	movwf	___flmul@b+2
  1238  0C50  3000               	movlw	0
  1239  0C51  00D2               	movwf	___flmul@b+1
  1240  0C52  3000               	movlw	0
  1241  0C53  00D1               	movwf	___flmul@b
  1242  0C54  3043               	movlw	67
  1243  0C55  00BA               	movwf	___fldiv@a+3
  1244  0C56  307F               	movlw	127
  1245  0C57  00B9               	movwf	___fldiv@a+2
  1246  0C58  3000               	movlw	0
  1247  0C59  00B8               	movwf	___fldiv@a+1
  1248  0C5A  3000               	movlw	0
  1249  0C5B  00B7               	movwf	___fldiv@a
  1250  0C5C  1683               	bsf	3,5	;RP0=1, select bank1
  1251  0C5D  1303               	bcf	3,6	;RP1=0, select bank1
  1252  0C5E  082A               	movf	_varADC1^(0+128),w
  1253  0C5F  00D4               	movwf	??_main^(0+128)
  1254  0C60  01D5               	clrf	(??_main^(0+128)+1)
  1255  0C61  01D6               	clrf	(??_main^(0+128)+2)
  1256  0C62  01D7               	clrf	(??_main^(0+128)+3)
  1257  0C63  0857               	movf	(??_main+3)^(0+128),w
  1258  0C64  1283               	bcf	3,5	;RP0=0, select bank0
  1259  0C65  1303               	bcf	3,6	;RP1=0, select bank0
  1260  0C66  00AC               	movwf	___xxtofl@val+3
  1261  0C67  1683               	bsf	3,5	;RP0=1, select bank1
  1262  0C68  1303               	bcf	3,6	;RP1=0, select bank1
  1263  0C69  0856               	movf	(??_main+2)^(0+128),w
  1264  0C6A  1283               	bcf	3,5	;RP0=0, select bank0
  1265  0C6B  1303               	bcf	3,6	;RP1=0, select bank0
  1266  0C6C  00AB               	movwf	___xxtofl@val+2
  1267  0C6D  1683               	bsf	3,5	;RP0=1, select bank1
  1268  0C6E  1303               	bcf	3,6	;RP1=0, select bank1
  1269  0C6F  0855               	movf	(??_main+1)^(0+128),w
  1270  0C70  1283               	bcf	3,5	;RP0=0, select bank0
  1271  0C71  1303               	bcf	3,6	;RP1=0, select bank0
  1272  0C72  00AA               	movwf	___xxtofl@val+1
  1273  0C73  1683               	bsf	3,5	;RP0=1, select bank1
  1274  0C74  1303               	bcf	3,6	;RP1=0, select bank1
  1275  0C75  0854               	movf	??_main^(0+128),w
  1276  0C76  1283               	bcf	3,5	;RP0=0, select bank0
  1277  0C77  1303               	bcf	3,6	;RP1=0, select bank0
  1278  0C78  00A9               	movwf	___xxtofl@val
  1279  0C79  3001               	movlw	1
  1280  0C7A  120A  158A  2101  120A  158A  	fcall	___xxtofl
  1281  0C7F  1283               	bcf	3,5	;RP0=0, select bank0
  1282  0C80  1303               	bcf	3,6	;RP1=0, select bank0
  1283  0C81  082C               	movf	?___xxtofl+3,w
  1284  0C82  00BE               	movwf	___fldiv@b+3
  1285  0C83  082B               	movf	?___xxtofl+2,w
  1286  0C84  00BD               	movwf	___fldiv@b+2
  1287  0C85  082A               	movf	?___xxtofl+1,w
  1288  0C86  00BC               	movwf	___fldiv@b+1
  1289  0C87  0829               	movf	?___xxtofl,w
  1290  0C88  00BB               	movwf	___fldiv@b
  1291  0C89  120A  158A  21BD  120A  158A  	fcall	___fldiv
  1292  0C8E  1283               	bcf	3,5	;RP0=0, select bank0
  1293  0C8F  1303               	bcf	3,6	;RP1=0, select bank0
  1294  0C90  083A               	movf	?___fldiv+3,w
  1295  0C91  00D8               	movwf	___flmul@a+3
  1296  0C92  0839               	movf	?___fldiv+2,w
  1297  0C93  00D7               	movwf	___flmul@a+2
  1298  0C94  0838               	movf	?___fldiv+1,w
  1299  0C95  00D6               	movwf	___flmul@a+1
  1300  0C96  0837               	movf	?___fldiv,w
  1301  0C97  00D5               	movwf	___flmul@a
  1302  0C98  120A  118A  2480  120A  158A  	fcall	___flmul
  1303  0C9D  1283               	bcf	3,5	;RP0=0, select bank0
  1304  0C9E  1303               	bcf	3,6	;RP1=0, select bank0
  1305  0C9F  0854               	movf	?___flmul+3,w
  1306  0CA0  1683               	bsf	3,5	;RP0=1, select bank1
  1307  0CA1  1303               	bcf	3,6	;RP1=0, select bank1
  1308  0CA2  00A7               	movwf	(_convertir+3)^(0+128)
  1309  0CA3  1283               	bcf	3,5	;RP0=0, select bank0
  1310  0CA4  1303               	bcf	3,6	;RP1=0, select bank0
  1311  0CA5  0853               	movf	?___flmul+2,w
  1312  0CA6  1683               	bsf	3,5	;RP0=1, select bank1
  1313  0CA7  1303               	bcf	3,6	;RP1=0, select bank1
  1314  0CA8  00A6               	movwf	(_convertir+2)^(0+128)
  1315  0CA9  1283               	bcf	3,5	;RP0=0, select bank0
  1316  0CAA  1303               	bcf	3,6	;RP1=0, select bank0
  1317  0CAB  0852               	movf	?___flmul+1,w
  1318  0CAC  1683               	bsf	3,5	;RP0=1, select bank1
  1319  0CAD  1303               	bcf	3,6	;RP1=0, select bank1
  1320  0CAE  00A5               	movwf	(_convertir+1)^(0+128)
  1321  0CAF  1283               	bcf	3,5	;RP0=0, select bank0
  1322  0CB0  1303               	bcf	3,6	;RP1=0, select bank0
  1323  0CB1  0851               	movf	?___flmul,w
  1324  0CB2  1683               	bsf	3,5	;RP0=1, select bank1
  1325  0CB3  1303               	bcf	3,6	;RP1=0, select bank1
  1326  0CB4  00A4               	movwf	_convertir^(0+128)
  1327  0CB5                     l3395:
  1328  0CB5  0827               	movf	(_convertir+3)^(0+128),w
  1329  0CB6  00C2               	movwf	(convert@a+3)^(0+128)
  1330  0CB7  0826               	movf	(_convertir+2)^(0+128),w
  1331  0CB8  00C1               	movwf	(convert@a+2)^(0+128)
  1332  0CB9  0825               	movf	(_convertir+1)^(0+128),w
  1333  0CBA  00C0               	movwf	(convert@a+1)^(0+128)
  1334  0CBB  0824               	movf	_convertir^(0+128),w
  1335  0CBC  00BF               	movwf	convert@a^(0+128)
  1336  0CBD  3002               	movlw	2
  1337  0CBE  00C3               	movwf	convert@place^(0+128)
  1338  0CBF  3000               	movlw	0
  1339  0CC0  00C4               	movwf	(convert@place^(0+128)+1)
  1340  0CC1  30B5               	movlw	(low (_buf| 0))& (0+255)
  1341  0CC2  120A  118A  201E  120A  158A  	fcall	_convert
  1342  0CC7                     l3397:
  1343  0CC7  3040               	movlw	64
  1344  0CC8  1283               	bcf	3,5	;RP0=0, select bank0
  1345  0CC9  1303               	bcf	3,6	;RP1=0, select bank0
  1346  0CCA  00D4               	movwf	___flmul@b+3
  1347  0CCB  30A0               	movlw	160
  1348  0CCC  00D3               	movwf	___flmul@b+2
  1349  0CCD  3000               	movlw	0
  1350  0CCE  00D2               	movwf	___flmul@b+1
  1351  0CCF  3000               	movlw	0
  1352  0CD0  00D1               	movwf	___flmul@b
  1353  0CD1  3043               	movlw	67
  1354  0CD2  00BA               	movwf	___fldiv@a+3
  1355  0CD3  307F               	movlw	127
  1356  0CD4  00B9               	movwf	___fldiv@a+2
  1357  0CD5  3000               	movlw	0
  1358  0CD6  00B8               	movwf	___fldiv@a+1
  1359  0CD7  3000               	movlw	0
  1360  0CD8  00B7               	movwf	___fldiv@a
  1361  0CD9  1683               	bsf	3,5	;RP0=1, select bank1
  1362  0CDA  1303               	bcf	3,6	;RP1=0, select bank1
  1363  0CDB  0829               	movf	_varADC2^(0+128),w
  1364  0CDC  00D4               	movwf	??_main^(0+128)
  1365  0CDD  01D5               	clrf	(??_main^(0+128)+1)
  1366  0CDE  01D6               	clrf	(??_main^(0+128)+2)
  1367  0CDF  01D7               	clrf	(??_main^(0+128)+3)
  1368  0CE0  0857               	movf	(??_main+3)^(0+128),w
  1369  0CE1  1283               	bcf	3,5	;RP0=0, select bank0
  1370  0CE2  1303               	bcf	3,6	;RP1=0, select bank0
  1371  0CE3  00AC               	movwf	___xxtofl@val+3
  1372  0CE4  1683               	bsf	3,5	;RP0=1, select bank1
  1373  0CE5  1303               	bcf	3,6	;RP1=0, select bank1
  1374  0CE6  0856               	movf	(??_main+2)^(0+128),w
  1375  0CE7  1283               	bcf	3,5	;RP0=0, select bank0
  1376  0CE8  1303               	bcf	3,6	;RP1=0, select bank0
  1377  0CE9  00AB               	movwf	___xxtofl@val+2
  1378  0CEA  1683               	bsf	3,5	;RP0=1, select bank1
  1379  0CEB  1303               	bcf	3,6	;RP1=0, select bank1
  1380  0CEC  0855               	movf	(??_main+1)^(0+128),w
  1381  0CED  1283               	bcf	3,5	;RP0=0, select bank0
  1382  0CEE  1303               	bcf	3,6	;RP1=0, select bank0
  1383  0CEF  00AA               	movwf	___xxtofl@val+1
  1384  0CF0  1683               	bsf	3,5	;RP0=1, select bank1
  1385  0CF1  1303               	bcf	3,6	;RP1=0, select bank1
  1386  0CF2  0854               	movf	??_main^(0+128),w
  1387  0CF3  1283               	bcf	3,5	;RP0=0, select bank0
  1388  0CF4  1303               	bcf	3,6	;RP1=0, select bank0
  1389  0CF5  00A9               	movwf	___xxtofl@val
  1390  0CF6  3001               	movlw	1
  1391  0CF7  120A  158A  2101  120A  158A  	fcall	___xxtofl
  1392  0CFC  1283               	bcf	3,5	;RP0=0, select bank0
  1393  0CFD  1303               	bcf	3,6	;RP1=0, select bank0
  1394  0CFE  082C               	movf	?___xxtofl+3,w
  1395  0CFF  00BE               	movwf	___fldiv@b+3
  1396  0D00  082B               	movf	?___xxtofl+2,w
  1397  0D01  00BD               	movwf	___fldiv@b+2
  1398  0D02  082A               	movf	?___xxtofl+1,w
  1399  0D03  00BC               	movwf	___fldiv@b+1
  1400  0D04  0829               	movf	?___xxtofl,w
  1401  0D05  00BB               	movwf	___fldiv@b
  1402  0D06  120A  158A  21BD  120A  158A  	fcall	___fldiv
  1403  0D0B  1283               	bcf	3,5	;RP0=0, select bank0
  1404  0D0C  1303               	bcf	3,6	;RP1=0, select bank0
  1405  0D0D  083A               	movf	?___fldiv+3,w
  1406  0D0E  00D8               	movwf	___flmul@a+3
  1407  0D0F  0839               	movf	?___fldiv+2,w
  1408  0D10  00D7               	movwf	___flmul@a+2
  1409  0D11  0838               	movf	?___fldiv+1,w
  1410  0D12  00D6               	movwf	___flmul@a+1
  1411  0D13  0837               	movf	?___fldiv,w
  1412  0D14  00D5               	movwf	___flmul@a
  1413  0D15  120A  118A  2480  120A  158A  	fcall	___flmul
  1414  0D1A  1283               	bcf	3,5	;RP0=0, select bank0
  1415  0D1B  1303               	bcf	3,6	;RP1=0, select bank0
  1416  0D1C  0854               	movf	?___flmul+3,w
  1417  0D1D  1683               	bsf	3,5	;RP0=1, select bank1
  1418  0D1E  1303               	bcf	3,6	;RP1=0, select bank1
  1419  0D1F  00A3               	movwf	(_convertir2+3)^(0+128)
  1420  0D20  1283               	bcf	3,5	;RP0=0, select bank0
  1421  0D21  1303               	bcf	3,6	;RP1=0, select bank0
  1422  0D22  0853               	movf	?___flmul+2,w
  1423  0D23  1683               	bsf	3,5	;RP0=1, select bank1
  1424  0D24  1303               	bcf	3,6	;RP1=0, select bank1
  1425  0D25  00A2               	movwf	(_convertir2+2)^(0+128)
  1426  0D26  1283               	bcf	3,5	;RP0=0, select bank0
  1427  0D27  1303               	bcf	3,6	;RP1=0, select bank0
  1428  0D28  0852               	movf	?___flmul+1,w
  1429  0D29  1683               	bsf	3,5	;RP0=1, select bank1
  1430  0D2A  1303               	bcf	3,6	;RP1=0, select bank1
  1431  0D2B  00A1               	movwf	(_convertir2+1)^(0+128)
  1432  0D2C  1283               	bcf	3,5	;RP0=0, select bank0
  1433  0D2D  1303               	bcf	3,6	;RP1=0, select bank0
  1434  0D2E  0851               	movf	?___flmul,w
  1435  0D2F  1683               	bsf	3,5	;RP0=1, select bank1
  1436  0D30  1303               	bcf	3,6	;RP1=0, select bank1
  1437  0D31  00A0               	movwf	_convertir2^(0+128)
  1438  0D32                     l3399:
  1439  0D32  0823               	movf	(_convertir2+3)^(0+128),w
  1440  0D33  00C2               	movwf	(convert@a+3)^(0+128)
  1441  0D34  0822               	movf	(_convertir2+2)^(0+128),w
  1442  0D35  00C1               	movwf	(convert@a+2)^(0+128)
  1443  0D36  0821               	movf	(_convertir2+1)^(0+128),w
  1444  0D37  00C0               	movwf	(convert@a+1)^(0+128)
  1445  0D38  0820               	movf	_convertir2^(0+128),w
  1446  0D39  00BF               	movwf	convert@a^(0+128)
  1447  0D3A  3002               	movlw	2
  1448  0D3B  00C3               	movwf	convert@place^(0+128)
  1449  0D3C  3000               	movlw	0
  1450  0D3D  00C4               	movwf	(convert@place^(0+128)+1)
  1451  0D3E  30AB               	movlw	(low (_buf2| 0))& (0+255)
  1452  0D3F  120A  118A  201E  120A  158A  	fcall	_convert
  1453  0D44                     l3401:
  1454  0D44  01F6               	clrf	Lcd_Set_Cursor@b
  1455  0D45  0AF6               	incf	Lcd_Set_Cursor@b,f
  1456  0D46  3002               	movlw	2
  1457  0D47  160A  118A  24C3  120A  158A  	fcall	_Lcd_Set_Cursor
  1458  0D4C                     l3403:
  1459  0D4C  30B5               	movlw	(low (_buf| 0))& (0+255)
  1460  0D4D  00F5               	movwf	Lcd_Write_String@a
  1461  0D4E  3000               	movlw	0
  1462  0D4F  00F6               	movwf	Lcd_Write_String@a+1
  1463  0D50  120A  158A  2010  120A  158A  	fcall	_Lcd_Write_String
  1464  0D55                     l3405:
  1465  0D55  3008               	movlw	8
  1466  0D56  1683               	bsf	3,5	;RP0=1, select bank1
  1467  0D57  1303               	bcf	3,6	;RP1=0, select bank1
  1468  0D58  00D4               	movwf	??_main^(0+128)
  1469  0D59  0854               	movf	??_main^(0+128),w
  1470  0D5A  00F6               	movwf	Lcd_Set_Cursor@b
  1471  0D5B  3002               	movlw	2
  1472  0D5C  160A  118A  24C3  120A  158A  	fcall	_Lcd_Set_Cursor
  1473  0D61                     l3407:
  1474  0D61  30AB               	movlw	(low (_buf2| 0))& (0+255)
  1475  0D62  00F5               	movwf	Lcd_Write_String@a
  1476  0D63  3000               	movlw	0
  1477  0D64  00F6               	movwf	Lcd_Write_String@a+1
  1478  0D65  120A  158A  2010  120A  158A  	fcall	_Lcd_Write_String
  1479  0D6A                     l3409:
  1480  0D6A  3034               	movlw	52
  1481  0D6B  1683               	bsf	3,5	;RP0=1, select bank1
  1482  0D6C  1303               	bcf	3,6	;RP1=0, select bank1
  1483  0D6D  00D5               	movwf	(??_main^(0+128)+1)
  1484  0D6E  30F1               	movlw	241
  1485  0D6F  00D4               	movwf	??_main^(0+128)
  1486  0D70                     u4997:
  1487  0D70  0BD4               	decfsz	??_main^(0+128),f
  1488  0D71  2D70               	goto	u4997
  1489  0D72  0BD5               	decfsz	(??_main^(0+128)+1),f
  1490  0D73  2D70               	goto	u4997
  1491  0D74  2BFF               	goto	l3367
  1492  0D75  120A  118A  280C   	ljmp	start
  1493  0D78                     __end_of_main:
  1494                           
  1495                           	psect	text1
  1496  001E                     __ptext1:	
  1497 ;; *************** function _convert *****************
  1498 ;; Defined at:
  1499 ;;		line 79 in file "LCD8bits.c"
  1500 ;; Parameters:    Size  Location     Type
  1501 ;;  data            1    wreg     PTR unsigned char 
  1502 ;;		 -> buf2(10), buf(10), 
  1503 ;;  a               4    0[BANK1 ] float 
  1504 ;;  place           2    4[BANK1 ] int 
  1505 ;; Auto vars:     Size  Location     Type
  1506 ;;  data            1   10[BANK1 ] PTR unsigned char 
  1507 ;;		 -> buf2(10), buf(10), 
  1508 ;;  x               4   11[BANK1 ] float 
  1509 ;;  mu              2   19[BANK1 ] int 
  1510 ;;  digits          2   17[BANK1 ] int 
  1511 ;;  i               2   15[BANK1 ] int 
  1512 ;;  j               2    8[BANK1 ] int 
  1513 ;;  temp            2    6[BANK1 ] int 
  1514 ;; Return value:  Size  Location     Type
  1515 ;;                  1    wreg      void 
  1516 ;; Registers used:
  1517 ;;		wreg, fsr0l, fsr0h, status,2, status,0, btemp+1, pclath, cstack
  1518 ;; Tracked objects:
  1519 ;;		On entry : 0/0
  1520 ;;		On exit  : 0/0
  1521 ;;		Unchanged: 0/0
  1522 ;; Data sizes:     COMMON   BANK0   BANK1   BANK3   BANK2
  1523 ;;      Params:         0       0       6       0       0
  1524 ;;      Locals:         0       0      15       0       0
  1525 ;;      Temps:          0       2       0       0       0
  1526 ;;      Totals:         0       2      21       0       0
  1527 ;;Total ram usage:       23 bytes
  1528 ;; Hardware stack levels used:    1
  1529 ;; Hardware stack levels required when called:    3
  1530 ;; This function calls:
  1531 ;;		___awdiv
  1532 ;;		___fldiv
  1533 ;;		___flge
  1534 ;;		___flmul
  1535 ;;		___flsub
  1536 ;;		___fltol
  1537 ;;		___wmul
  1538 ;;		___xxtofl
  1539 ;; This function is called by:
  1540 ;;		_main
  1541 ;; This function uses a non-reentrant model
  1542 ;;
  1543                           
  1544                           
  1545                           ;psect for function _convert
  1546  001E                     _convert:
  1547                           
  1548                           ;incstack = 0
  1549                           ; Regs used in _convert: [wreg-fsr0h+status,2+status,0+btemp+1+pclath+cstack]
  1550                           ;convert@data stored from wreg
  1551  001E  1683               	bsf	3,5	;RP0=1, select bank1
  1552  001F  1303               	bcf	3,6	;RP1=0, select bank1
  1553  0020  00C9               	movwf	convert@data^(0+128)
  1554  0021                     l3251:
  1555                           
  1556                           ;LCD8bits.c: 79: void convert(char *data,float a, int place);LCD8bits.c: 80: {;LCD8bits.
      +                          c: 81:      int temp=a;
  1557  0021  0842               	movf	(convert@a+3)^(0+128),w
  1558  0022  00F5               	movwf	___fltol@f1+3
  1559  0023  0841               	movf	(convert@a+2)^(0+128),w
  1560  0024  00F4               	movwf	___fltol@f1+2
  1561  0025  0840               	movf	(convert@a+1)^(0+128),w
  1562  0026  00F3               	movwf	___fltol@f1+1
  1563  0027  083F               	movf	convert@a^(0+128),w
  1564  0028  00F2               	movwf	___fltol@f1
  1565  0029  160A  118A  26E0  120A  118A  	fcall	___fltol
  1566  002E  0873               	movf	?___fltol+1,w
  1567  002F  1683               	bsf	3,5	;RP0=1, select bank1
  1568  0030  1303               	bcf	3,6	;RP1=0, select bank1
  1569  0031  00C6               	movwf	(convert@temp+1)^(0+128)
  1570  0032  0872               	movf	?___fltol,w
  1571  0033  00C5               	movwf	convert@temp^(0+128)
  1572  0034                     l3253:
  1573  0034                     l3255:
  1574                           
  1575                           ;LCD8bits.c: 83:      int digits=0;
  1576  0034  01D0               	clrf	convert@digits^(0+128)
  1577  0035  01D1               	clrf	(convert@digits+1)^(0+128)
  1578  0036                     l3257:
  1579                           
  1580                           ;LCD8bits.c: 84:      int i=0,mu=1;
  1581  0036  01CE               	clrf	convert@i^(0+128)
  1582  0037  01CF               	clrf	(convert@i+1)^(0+128)
  1583  0038                     l3259:
  1584  0038  3001               	movlw	1
  1585  0039  00D2               	movwf	convert@mu^(0+128)
  1586  003A  3000               	movlw	0
  1587  003B  00D3               	movwf	(convert@mu^(0+128)+1)
  1588  003C                     l3261:
  1589  003C                     l3263:
  1590                           
  1591                           ;LCD8bits.c: 86:      if(a<0)
  1592  003C  0842               	movf	(convert@a+3)^(0+128),w
  1593  003D  00F5               	movwf	___flge@ff1+3
  1594  003E  0841               	movf	(convert@a+2)^(0+128),w
  1595  003F  00F4               	movwf	___flge@ff1+2
  1596  0040  0840               	movf	(convert@a+1)^(0+128),w
  1597  0041  00F3               	movwf	___flge@ff1+1
  1598  0042  083F               	movf	convert@a^(0+128),w
  1599  0043  00F2               	movwf	___flge@ff1
  1600  0044  3000               	movlw	0
  1601  0045  00F9               	movwf	___flge@ff2+3
  1602  0046  3000               	movlw	0
  1603  0047  00F8               	movwf	___flge@ff2+2
  1604  0048  3000               	movlw	0
  1605  0049  00F7               	movwf	___flge@ff2+1
  1606  004A  3000               	movlw	0
  1607  004B  00F6               	movwf	___flge@ff2
  1608  004C  160A  118A  275C  120A  118A  	fcall	___flge
  1609  0051  1803               	btfsc	3,0
  1610  0052  2854               	goto	u4881
  1611  0053  2855               	goto	u4880
  1612  0054                     u4881:
  1613  0054  28C3               	goto	l3275
  1614  0055                     u4880:
  1615  0055                     l3265:
  1616                           
  1617                           ;LCD8bits.c: 87:      {;LCD8bits.c: 88:             a=a*-1;
  1618  0055  30BF               	movlw	191
  1619  0056  1283               	bcf	3,5	;RP0=0, select bank0
  1620  0057  1303               	bcf	3,6	;RP1=0, select bank0
  1621  0058  00D4               	movwf	___flmul@b+3
  1622  0059  3080               	movlw	128
  1623  005A  00D3               	movwf	___flmul@b+2
  1624  005B  3000               	movlw	0
  1625  005C  00D2               	movwf	___flmul@b+1
  1626  005D  3000               	movlw	0
  1627  005E  00D1               	movwf	___flmul@b
  1628  005F  1683               	bsf	3,5	;RP0=1, select bank1
  1629  0060  1303               	bcf	3,6	;RP1=0, select bank1
  1630  0061  0842               	movf	(convert@a+3)^(0+128),w
  1631  0062  1283               	bcf	3,5	;RP0=0, select bank0
  1632  0063  1303               	bcf	3,6	;RP1=0, select bank0
  1633  0064  00D8               	movwf	___flmul@a+3
  1634  0065  1683               	bsf	3,5	;RP0=1, select bank1
  1635  0066  1303               	bcf	3,6	;RP1=0, select bank1
  1636  0067  0841               	movf	(convert@a+2)^(0+128),w
  1637  0068  1283               	bcf	3,5	;RP0=0, select bank0
  1638  0069  1303               	bcf	3,6	;RP1=0, select bank0
  1639  006A  00D7               	movwf	___flmul@a+2
  1640  006B  1683               	bsf	3,5	;RP0=1, select bank1
  1641  006C  1303               	bcf	3,6	;RP1=0, select bank1
  1642  006D  0840               	movf	(convert@a+1)^(0+128),w
  1643  006E  1283               	bcf	3,5	;RP0=0, select bank0
  1644  006F  1303               	bcf	3,6	;RP1=0, select bank0
  1645  0070  00D6               	movwf	___flmul@a+1
  1646  0071  1683               	bsf	3,5	;RP0=1, select bank1
  1647  0072  1303               	bcf	3,6	;RP1=0, select bank1
  1648  0073  083F               	movf	convert@a^(0+128),w
  1649  0074  1283               	bcf	3,5	;RP0=0, select bank0
  1650  0075  1303               	bcf	3,6	;RP1=0, select bank0
  1651  0076  00D5               	movwf	___flmul@a
  1652  0077  120A  118A  2480  120A  118A  	fcall	___flmul
  1653  007C  1283               	bcf	3,5	;RP0=0, select bank0
  1654  007D  1303               	bcf	3,6	;RP1=0, select bank0
  1655  007E  0854               	movf	?___flmul+3,w
  1656  007F  1683               	bsf	3,5	;RP0=1, select bank1
  1657  0080  1303               	bcf	3,6	;RP1=0, select bank1
  1658  0081  00C2               	movwf	(convert@a+3)^(0+128)
  1659  0082  1283               	bcf	3,5	;RP0=0, select bank0
  1660  0083  1303               	bcf	3,6	;RP1=0, select bank0
  1661  0084  0853               	movf	?___flmul+2,w
  1662  0085  1683               	bsf	3,5	;RP0=1, select bank1
  1663  0086  1303               	bcf	3,6	;RP1=0, select bank1
  1664  0087  00C1               	movwf	(convert@a+2)^(0+128)
  1665  0088  1283               	bcf	3,5	;RP0=0, select bank0
  1666  0089  1303               	bcf	3,6	;RP1=0, select bank0
  1667  008A  0852               	movf	?___flmul+1,w
  1668  008B  1683               	bsf	3,5	;RP0=1, select bank1
  1669  008C  1303               	bcf	3,6	;RP1=0, select bank1
  1670  008D  00C0               	movwf	(convert@a+1)^(0+128)
  1671  008E  1283               	bcf	3,5	;RP0=0, select bank0
  1672  008F  1303               	bcf	3,6	;RP1=0, select bank0
  1673  0090  0851               	movf	?___flmul,w
  1674  0091  1683               	bsf	3,5	;RP0=1, select bank1
  1675  0092  1303               	bcf	3,6	;RP1=0, select bank1
  1676  0093  00BF               	movwf	convert@a^(0+128)
  1677  0094                     l3267:
  1678                           
  1679                           ;LCD8bits.c: 89:             data[i]='-';
  1680  0094  302D               	movlw	45
  1681  0095  1283               	bcf	3,5	;RP0=0, select bank0
  1682  0096  1303               	bcf	3,6	;RP1=0, select bank0
  1683  0097  00EB               	movwf	??_convert
  1684  0098  1683               	bsf	3,5	;RP0=1, select bank1
  1685  0099  1303               	bcf	3,6	;RP1=0, select bank1
  1686  009A  0849               	movf	convert@data^(0+128),w
  1687  009B  0084               	movwf	4
  1688  009C  1283               	bcf	3,5	;RP0=0, select bank0
  1689  009D  1303               	bcf	3,6	;RP1=0, select bank0
  1690  009E  086B               	movf	??_convert,w
  1691  009F  1383               	bcf	3,7	;select IRP bank0
  1692  00A0  0080               	movwf	0
  1693  00A1                     l3269:
  1694                           
  1695                           ;LCD8bits.c: 90:             i++;
  1696  00A1  3001               	movlw	1
  1697  00A2  1683               	bsf	3,5	;RP0=1, select bank1
  1698  00A3  1303               	bcf	3,6	;RP1=0, select bank1
  1699  00A4  07CE               	addwf	convert@i^(0+128),f
  1700  00A5  1803               	skipnc
  1701  00A6  0ACF               	incf	(convert@i+1)^(0+128),f
  1702  00A7  3000               	movlw	0
  1703  00A8  07CF               	addwf	(convert@i+1)^(0+128),f
  1704  00A9  28C3               	goto	l3275
  1705  00AA                     l3271:
  1706                           
  1707                           ;LCD8bits.c: 94:      {;LCD8bits.c: 95:          temp=temp/10;
  1708  00AA  300A               	movlw	10
  1709  00AB  00F2               	movwf	___awdiv@divisor
  1710  00AC  3000               	movlw	0
  1711  00AD  00F3               	movwf	___awdiv@divisor+1
  1712  00AE  0846               	movf	(convert@temp+1)^(0+128),w
  1713  00AF  00F5               	movwf	___awdiv@dividend+1
  1714  00B0  0845               	movf	convert@temp^(0+128),w
  1715  00B1  00F4               	movwf	___awdiv@dividend
  1716  00B2  160A  118A  2608  120A  118A  	fcall	___awdiv
  1717  00B7  0873               	movf	?___awdiv+1,w
  1718  00B8  1683               	bsf	3,5	;RP0=1, select bank1
  1719  00B9  1303               	bcf	3,6	;RP1=0, select bank1
  1720  00BA  00C6               	movwf	(convert@temp+1)^(0+128)
  1721  00BB  0872               	movf	?___awdiv,w
  1722  00BC  00C5               	movwf	convert@temp^(0+128)
  1723  00BD                     l3273:
  1724                           
  1725                           ;LCD8bits.c: 96:          digits++;
  1726  00BD  3001               	movlw	1
  1727  00BE  07D0               	addwf	convert@digits^(0+128),f
  1728  00BF  1803               	skipnc
  1729  00C0  0AD1               	incf	(convert@digits+1)^(0+128),f
  1730  00C1  3000               	movlw	0
  1731  00C2  07D1               	addwf	(convert@digits+1)^(0+128),f
  1732  00C3                     l3275:
  1733                           
  1734                           ;LCD8bits.c: 93:      while(temp!=0)
  1735  00C3  1683               	bsf	3,5	;RP0=1, select bank1
  1736  00C4  1303               	bcf	3,6	;RP1=0, select bank1
  1737  00C5  0845               	movf	convert@temp^(0+128),w
  1738  00C6  0446               	iorwf	(convert@temp+1)^(0+128),w
  1739  00C7  1D03               	btfss	3,2
  1740  00C8  28CA               	goto	u4891
  1741  00C9  28CB               	goto	u4890
  1742  00CA                     u4891:
  1743  00CA  28AA               	goto	l3271
  1744  00CB                     u4890:
  1745  00CB  2A13               	goto	l3299
  1746  00CC                     l3277:
  1747                           
  1748                           ;LCD8bits.c: 99:      {;LCD8bits.c: 100:          if(digits==1)mu=1;
  1749  00CC  0350               	decf	convert@digits^(0+128),w
  1750  00CD  0451               	iorwf	(convert@digits+1)^(0+128),w
  1751  00CE  1D03               	btfss	3,2
  1752  00CF  28D1               	goto	u4901
  1753  00D0  28D2               	goto	u4900
  1754  00D1                     u4901:
  1755  00D1  28D7               	goto	l3281
  1756  00D2                     u4900:
  1757  00D2                     l3279:
  1758  00D2  3001               	movlw	1
  1759  00D3  00D2               	movwf	convert@mu^(0+128)
  1760  00D4  3000               	movlw	0
  1761  00D5  00D3               	movwf	(convert@mu^(0+128)+1)
  1762  00D6  2919               	goto	l3289
  1763  00D7                     l3281:
  1764  00D7  3002               	movlw	2
  1765  00D8  00C7               	movwf	convert@j^(0+128)
  1766  00D9  3000               	movlw	0
  1767  00DA  00C8               	movwf	(convert@j^(0+128)+1)
  1768  00DB  2903               	goto	l3287
  1769  00DC                     l3283:
  1770  00DC  1683               	bsf	3,5	;RP0=1, select bank1
  1771  00DD  1303               	bcf	3,6	;RP1=0, select bank1
  1772  00DE  0853               	movf	(convert@mu+1)^(0+128),w
  1773  00DF  1283               	bcf	3,5	;RP0=0, select bank0
  1774  00E0  1303               	bcf	3,6	;RP1=0, select bank0
  1775  00E1  00A6               	movwf	___wmul@multiplier+1
  1776  00E2  1683               	bsf	3,5	;RP0=1, select bank1
  1777  00E3  1303               	bcf	3,6	;RP1=0, select bank1
  1778  00E4  0852               	movf	convert@mu^(0+128),w
  1779  00E5  1283               	bcf	3,5	;RP0=0, select bank0
  1780  00E6  1303               	bcf	3,6	;RP1=0, select bank0
  1781  00E7  00A5               	movwf	___wmul@multiplier
  1782  00E8  300A               	movlw	10
  1783  00E9  00A7               	movwf	___wmul@multiplicand
  1784  00EA  3000               	movlw	0
  1785  00EB  00A8               	movwf	___wmul@multiplicand+1
  1786  00EC  160A  118A  250B  120A  118A  	fcall	___wmul
  1787  00F1  1283               	bcf	3,5	;RP0=0, select bank0
  1788  00F2  1303               	bcf	3,6	;RP1=0, select bank0
  1789  00F3  0826               	movf	?___wmul+1,w
  1790  00F4  1683               	bsf	3,5	;RP0=1, select bank1
  1791  00F5  1303               	bcf	3,6	;RP1=0, select bank1
  1792  00F6  00D3               	movwf	(convert@mu+1)^(0+128)
  1793  00F7  1283               	bcf	3,5	;RP0=0, select bank0
  1794  00F8  1303               	bcf	3,6	;RP1=0, select bank0
  1795  00F9  0825               	movf	?___wmul,w
  1796  00FA  1683               	bsf	3,5	;RP0=1, select bank1
  1797  00FB  1303               	bcf	3,6	;RP1=0, select bank1
  1798  00FC  00D2               	movwf	convert@mu^(0+128)
  1799  00FD                     l3285:
  1800  00FD  3001               	movlw	1
  1801  00FE  07C7               	addwf	convert@j^(0+128),f
  1802  00FF  1803               	skipnc
  1803  0100  0AC8               	incf	(convert@j+1)^(0+128),f
  1804  0101  3000               	movlw	0
  1805  0102  07C8               	addwf	(convert@j+1)^(0+128),f
  1806  0103                     l3287:
  1807  0103  0851               	movf	(convert@digits+1)^(0+128),w
  1808  0104  3A80               	xorlw	128
  1809  0105  1283               	bcf	3,5	;RP0=0, select bank0
  1810  0106  1303               	bcf	3,6	;RP1=0, select bank0
  1811  0107  00EB               	movwf	??_convert
  1812  0108  1683               	bsf	3,5	;RP0=1, select bank1
  1813  0109  1303               	bcf	3,6	;RP1=0, select bank1
  1814  010A  0848               	movf	(convert@j+1)^(0+128),w
  1815  010B  3A80               	xorlw	128
  1816  010C  1283               	bcf	3,5	;RP0=0, select bank0
  1817  010D  1303               	bcf	3,6	;RP1=0, select bank0
  1818  010E  026B               	subwf	??_convert,w
  1819  010F  1D03               	skipz
  1820  0110  2915               	goto	u4915
  1821  0111  1683               	bsf	3,5	;RP0=1, select bank1
  1822  0112  1303               	bcf	3,6	;RP1=0, select bank1
  1823  0113  0847               	movf	convert@j^(0+128),w
  1824  0114  0250               	subwf	convert@digits^(0+128),w
  1825  0115                     u4915:
  1826  0115  1803               	skipnc
  1827  0116  2918               	goto	u4911
  1828  0117  2919               	goto	u4910
  1829  0118                     u4911:
  1830  0118  28DC               	goto	l3283
  1831  0119                     u4910:
  1832  0119                     l3289:
  1833                           
  1834                           ;LCD8bits.c: 103:          x=a/mu;
  1835  0119  1683               	bsf	3,5	;RP0=1, select bank1
  1836  011A  1303               	bcf	3,6	;RP1=0, select bank1
  1837  011B  0852               	movf	convert@mu^(0+128),w
  1838  011C  1283               	bcf	3,5	;RP0=0, select bank0
  1839  011D  1303               	bcf	3,6	;RP1=0, select bank0
  1840  011E  00A9               	movwf	___xxtofl@val
  1841  011F  1683               	bsf	3,5	;RP0=1, select bank1
  1842  0120  1303               	bcf	3,6	;RP1=0, select bank1
  1843  0121  0853               	movf	(convert@mu+1)^(0+128),w
  1844  0122  1283               	bcf	3,5	;RP0=0, select bank0
  1845  0123  1303               	bcf	3,6	;RP1=0, select bank0
  1846  0124  00AA               	movwf	___xxtofl@val+1
  1847  0125  3000               	movlw	0
  1848  0126  1BAA               	btfsc	___xxtofl@val+1,7
  1849  0127  30FF               	movlw	255
  1850  0128  00AB               	movwf	___xxtofl@val+2
  1851  0129  00AC               	movwf	___xxtofl@val+3
  1852  012A  3001               	movlw	1
  1853  012B  120A  158A  2101  120A  118A  	fcall	___xxtofl
  1854  0130  1283               	bcf	3,5	;RP0=0, select bank0
  1855  0131  1303               	bcf	3,6	;RP1=0, select bank0
  1856  0132  082C               	movf	?___xxtofl+3,w
  1857  0133  00BA               	movwf	___fldiv@a+3
  1858  0134  082B               	movf	?___xxtofl+2,w
  1859  0135  00B9               	movwf	___fldiv@a+2
  1860  0136  082A               	movf	?___xxtofl+1,w
  1861  0137  00B8               	movwf	___fldiv@a+1
  1862  0138  0829               	movf	?___xxtofl,w
  1863  0139  00B7               	movwf	___fldiv@a
  1864  013A  1683               	bsf	3,5	;RP0=1, select bank1
  1865  013B  1303               	bcf	3,6	;RP1=0, select bank1
  1866  013C  0842               	movf	(convert@a+3)^(0+128),w
  1867  013D  1283               	bcf	3,5	;RP0=0, select bank0
  1868  013E  1303               	bcf	3,6	;RP1=0, select bank0
  1869  013F  00BE               	movwf	___fldiv@b+3
  1870  0140  1683               	bsf	3,5	;RP0=1, select bank1
  1871  0141  1303               	bcf	3,6	;RP1=0, select bank1
  1872  0142  0841               	movf	(convert@a+2)^(0+128),w
  1873  0143  1283               	bcf	3,5	;RP0=0, select bank0
  1874  0144  1303               	bcf	3,6	;RP1=0, select bank0
  1875  0145  00BD               	movwf	___fldiv@b+2
  1876  0146  1683               	bsf	3,5	;RP0=1, select bank1
  1877  0147  1303               	bcf	3,6	;RP1=0, select bank1
  1878  0148  0840               	movf	(convert@a+1)^(0+128),w
  1879  0149  1283               	bcf	3,5	;RP0=0, select bank0
  1880  014A  1303               	bcf	3,6	;RP1=0, select bank0
  1881  014B  00BC               	movwf	___fldiv@b+1
  1882  014C  1683               	bsf	3,5	;RP0=1, select bank1
  1883  014D  1303               	bcf	3,6	;RP1=0, select bank1
  1884  014E  083F               	movf	convert@a^(0+128),w
  1885  014F  1283               	bcf	3,5	;RP0=0, select bank0
  1886  0150  1303               	bcf	3,6	;RP1=0, select bank0
  1887  0151  00BB               	movwf	___fldiv@b
  1888  0152  120A  158A  21BD  120A  118A  	fcall	___fldiv
  1889  0157  1283               	bcf	3,5	;RP0=0, select bank0
  1890  0158  1303               	bcf	3,6	;RP1=0, select bank0
  1891  0159  083A               	movf	?___fldiv+3,w
  1892  015A  1683               	bsf	3,5	;RP0=1, select bank1
  1893  015B  1303               	bcf	3,6	;RP1=0, select bank1
  1894  015C  00CD               	movwf	(convert@x+3)^(0+128)
  1895  015D  1283               	bcf	3,5	;RP0=0, select bank0
  1896  015E  1303               	bcf	3,6	;RP1=0, select bank0
  1897  015F  0839               	movf	?___fldiv+2,w
  1898  0160  1683               	bsf	3,5	;RP0=1, select bank1
  1899  0161  1303               	bcf	3,6	;RP1=0, select bank1
  1900  0162  00CC               	movwf	(convert@x+2)^(0+128)
  1901  0163  1283               	bcf	3,5	;RP0=0, select bank0
  1902  0164  1303               	bcf	3,6	;RP1=0, select bank0
  1903  0165  0838               	movf	?___fldiv+1,w
  1904  0166  1683               	bsf	3,5	;RP0=1, select bank1
  1905  0167  1303               	bcf	3,6	;RP1=0, select bank1
  1906  0168  00CB               	movwf	(convert@x+1)^(0+128)
  1907  0169  1283               	bcf	3,5	;RP0=0, select bank0
  1908  016A  1303               	bcf	3,6	;RP1=0, select bank0
  1909  016B  0837               	movf	?___fldiv,w
  1910  016C  1683               	bsf	3,5	;RP0=1, select bank1
  1911  016D  1303               	bcf	3,6	;RP1=0, select bank1
  1912  016E  00CA               	movwf	convert@x^(0+128)
  1913                           
  1914                           ;LCD8bits.c: 104:          a=a-((int)x*mu);
  1915  016F  0853               	movf	(convert@mu+1)^(0+128),w
  1916  0170  1283               	bcf	3,5	;RP0=0, select bank0
  1917  0171  1303               	bcf	3,6	;RP1=0, select bank0
  1918  0172  00A8               	movwf	___wmul@multiplicand+1
  1919  0173  1683               	bsf	3,5	;RP0=1, select bank1
  1920  0174  1303               	bcf	3,6	;RP1=0, select bank1
  1921  0175  0852               	movf	convert@mu^(0+128),w
  1922  0176  1283               	bcf	3,5	;RP0=0, select bank0
  1923  0177  1303               	bcf	3,6	;RP1=0, select bank0
  1924  0178  00A7               	movwf	___wmul@multiplicand
  1925  0179  1683               	bsf	3,5	;RP0=1, select bank1
  1926  017A  1303               	bcf	3,6	;RP1=0, select bank1
  1927  017B  084D               	movf	(convert@x+3)^(0+128),w
  1928  017C  00F5               	movwf	___fltol@f1+3
  1929  017D  084C               	movf	(convert@x+2)^(0+128),w
  1930  017E  00F4               	movwf	___fltol@f1+2
  1931  017F  084B               	movf	(convert@x+1)^(0+128),w
  1932  0180  00F3               	movwf	___fltol@f1+1
  1933  0181  084A               	movf	convert@x^(0+128),w
  1934  0182  00F2               	movwf	___fltol@f1
  1935  0183  160A  118A  26E0  120A  118A  	fcall	___fltol
  1936  0188  0873               	movf	?___fltol+1,w
  1937  0189  1283               	bcf	3,5	;RP0=0, select bank0
  1938  018A  1303               	bcf	3,6	;RP1=0, select bank0
  1939  018B  00A6               	movwf	___wmul@multiplier+1
  1940  018C  0872               	movf	?___fltol,w
  1941  018D  00A5               	movwf	___wmul@multiplier
  1942  018E  160A  118A  250B  120A  118A  	fcall	___wmul
  1943  0193  1283               	bcf	3,5	;RP0=0, select bank0
  1944  0194  1303               	bcf	3,6	;RP1=0, select bank0
  1945  0195  0825               	movf	?___wmul,w
  1946  0196  00A9               	movwf	___xxtofl@val
  1947  0197  0826               	movf	?___wmul+1,w
  1948  0198  00AA               	movwf	___xxtofl@val+1
  1949  0199  3000               	movlw	0
  1950  019A  1BAA               	btfsc	___xxtofl@val+1,7
  1951  019B  30FF               	movlw	255
  1952  019C  00AB               	movwf	___xxtofl@val+2
  1953  019D  00AC               	movwf	___xxtofl@val+3
  1954  019E  3001               	movlw	1
  1955  019F  120A  158A  2101  120A  118A  	fcall	___xxtofl
  1956  01A4  1283               	bcf	3,5	;RP0=0, select bank0
  1957  01A5  1303               	bcf	3,6	;RP1=0, select bank0
  1958  01A6  082C               	movf	?___xxtofl+3,w
  1959  01A7  00BA               	movwf	___flsub@a+3
  1960  01A8  082B               	movf	?___xxtofl+2,w
  1961  01A9  00B9               	movwf	___flsub@a+2
  1962  01AA  082A               	movf	?___xxtofl+1,w
  1963  01AB  00B8               	movwf	___flsub@a+1
  1964  01AC  0829               	movf	?___xxtofl,w
  1965  01AD  00B7               	movwf	___flsub@a
  1966  01AE  1683               	bsf	3,5	;RP0=1, select bank1
  1967  01AF  1303               	bcf	3,6	;RP1=0, select bank1
  1968  01B0  0842               	movf	(convert@a+3)^(0+128),w
  1969  01B1  1283               	bcf	3,5	;RP0=0, select bank0
  1970  01B2  1303               	bcf	3,6	;RP1=0, select bank0
  1971  01B3  00BE               	movwf	___flsub@b+3
  1972  01B4  1683               	bsf	3,5	;RP0=1, select bank1
  1973  01B5  1303               	bcf	3,6	;RP1=0, select bank1
  1974  01B6  0841               	movf	(convert@a+2)^(0+128),w
  1975  01B7  1283               	bcf	3,5	;RP0=0, select bank0
  1976  01B8  1303               	bcf	3,6	;RP1=0, select bank0
  1977  01B9  00BD               	movwf	___flsub@b+2
  1978  01BA  1683               	bsf	3,5	;RP0=1, select bank1
  1979  01BB  1303               	bcf	3,6	;RP1=0, select bank1
  1980  01BC  0840               	movf	(convert@a+1)^(0+128),w
  1981  01BD  1283               	bcf	3,5	;RP0=0, select bank0
  1982  01BE  1303               	bcf	3,6	;RP1=0, select bank0
  1983  01BF  00BC               	movwf	___flsub@b+1
  1984  01C0  1683               	bsf	3,5	;RP0=1, select bank1
  1985  01C1  1303               	bcf	3,6	;RP1=0, select bank1
  1986  01C2  083F               	movf	convert@a^(0+128),w
  1987  01C3  1283               	bcf	3,5	;RP0=0, select bank0
  1988  01C4  1303               	bcf	3,6	;RP1=0, select bank0
  1989  01C5  00BB               	movwf	___flsub@b
  1990  01C6  160A  118A  24E7  120A  118A  	fcall	___flsub
  1991  01CB  1283               	bcf	3,5	;RP0=0, select bank0
  1992  01CC  1303               	bcf	3,6	;RP1=0, select bank0
  1993  01CD  083A               	movf	?___flsub+3,w
  1994  01CE  1683               	bsf	3,5	;RP0=1, select bank1
  1995  01CF  1303               	bcf	3,6	;RP1=0, select bank1
  1996  01D0  00C2               	movwf	(convert@a+3)^(0+128)
  1997  01D1  1283               	bcf	3,5	;RP0=0, select bank0
  1998  01D2  1303               	bcf	3,6	;RP1=0, select bank0
  1999  01D3  0839               	movf	?___flsub+2,w
  2000  01D4  1683               	bsf	3,5	;RP0=1, select bank1
  2001  01D5  1303               	bcf	3,6	;RP1=0, select bank1
  2002  01D6  00C1               	movwf	(convert@a+2)^(0+128)
  2003  01D7  1283               	bcf	3,5	;RP0=0, select bank0
  2004  01D8  1303               	bcf	3,6	;RP1=0, select bank0
  2005  01D9  0838               	movf	?___flsub+1,w
  2006  01DA  1683               	bsf	3,5	;RP0=1, select bank1
  2007  01DB  1303               	bcf	3,6	;RP1=0, select bank1
  2008  01DC  00C0               	movwf	(convert@a+1)^(0+128)
  2009  01DD  1283               	bcf	3,5	;RP0=0, select bank0
  2010  01DE  1303               	bcf	3,6	;RP1=0, select bank0
  2011  01DF  0837               	movf	?___flsub,w
  2012  01E0  1683               	bsf	3,5	;RP0=1, select bank1
  2013  01E1  1303               	bcf	3,6	;RP1=0, select bank1
  2014  01E2  00BF               	movwf	convert@a^(0+128)
  2015  01E3                     l3291:
  2016                           
  2017                           ;LCD8bits.c: 105:          data[i]=0x30+((int)x);
  2018  01E3  084D               	movf	(convert@x+3)^(0+128),w
  2019  01E4  00F5               	movwf	___fltol@f1+3
  2020  01E5  084C               	movf	(convert@x+2)^(0+128),w
  2021  01E6  00F4               	movwf	___fltol@f1+2
  2022  01E7  084B               	movf	(convert@x+1)^(0+128),w
  2023  01E8  00F3               	movwf	___fltol@f1+1
  2024  01E9  084A               	movf	convert@x^(0+128),w
  2025  01EA  00F2               	movwf	___fltol@f1
  2026  01EB  160A  118A  26E0  120A  118A  	fcall	___fltol
  2027  01F0  0872               	movf	?___fltol,w
  2028  01F1  3E30               	addlw	48
  2029  01F2  1283               	bcf	3,5	;RP0=0, select bank0
  2030  01F3  1303               	bcf	3,6	;RP1=0, select bank0
  2031  01F4  00EB               	movwf	??_convert
  2032  01F5  1683               	bsf	3,5	;RP0=1, select bank1
  2033  01F6  1303               	bcf	3,6	;RP1=0, select bank1
  2034  01F7  084E               	movf	convert@i^(0+128),w
  2035  01F8  0749               	addwf	convert@data^(0+128),w
  2036  01F9  1283               	bcf	3,5	;RP0=0, select bank0
  2037  01FA  1303               	bcf	3,6	;RP1=0, select bank0
  2038  01FB  00EC               	movwf	??_convert+1
  2039  01FC  086C               	movf	??_convert+1,w
  2040  01FD  0084               	movwf	4
  2041  01FE  086B               	movf	??_convert,w
  2042  01FF  1383               	bcf	3,7	;select IRP bank0
  2043  0200  0080               	movwf	0
  2044  0201                     l3293:
  2045                           
  2046                           ;LCD8bits.c: 106:          i++;
  2047  0201  3001               	movlw	1
  2048  0202  1683               	bsf	3,5	;RP0=1, select bank1
  2049  0203  1303               	bcf	3,6	;RP1=0, select bank1
  2050  0204  07CE               	addwf	convert@i^(0+128),f
  2051  0205  1803               	skipnc
  2052  0206  0ACF               	incf	(convert@i+1)^(0+128),f
  2053  0207  3000               	movlw	0
  2054  0208  07CF               	addwf	(convert@i+1)^(0+128),f
  2055  0209                     l3295:
  2056                           
  2057                           ;LCD8bits.c: 107:          digits--;
  2058  0209  30FF               	movlw	255
  2059  020A  07D0               	addwf	convert@digits^(0+128),f
  2060  020B  1803               	skipnc
  2061  020C  0AD1               	incf	(convert@digits+1)^(0+128),f
  2062  020D  30FF               	movlw	255
  2063  020E  07D1               	addwf	(convert@digits+1)^(0+128),f
  2064  020F                     l3297:
  2065                           
  2066                           ;LCD8bits.c: 108:          mu=1;
  2067  020F  3001               	movlw	1
  2068  0210  00D2               	movwf	convert@mu^(0+128)
  2069  0211  3000               	movlw	0
  2070  0212  00D3               	movwf	(convert@mu^(0+128)+1)
  2071  0213                     l3299:
  2072                           
  2073                           ;LCD8bits.c: 98:      while(digits!=0)
  2074  0213  0850               	movf	convert@digits^(0+128),w
  2075  0214  0451               	iorwf	(convert@digits+1)^(0+128),w
  2076  0215  1D03               	btfss	3,2
  2077  0216  2A18               	goto	u4921
  2078  0217  2A19               	goto	u4920
  2079  0218                     u4921:
  2080  0218  28CC               	goto	l3277
  2081  0219                     u4920:
  2082  0219                     l3301:
  2083                           
  2084                           ;LCD8bits.c: 111:      data[i]='.';
  2085  0219  302E               	movlw	46
  2086  021A  1283               	bcf	3,5	;RP0=0, select bank0
  2087  021B  1303               	bcf	3,6	;RP1=0, select bank0
  2088  021C  00EB               	movwf	??_convert
  2089  021D  1683               	bsf	3,5	;RP0=1, select bank1
  2090  021E  1303               	bcf	3,6	;RP1=0, select bank1
  2091  021F  084E               	movf	convert@i^(0+128),w
  2092  0220  0749               	addwf	convert@data^(0+128),w
  2093  0221  1283               	bcf	3,5	;RP0=0, select bank0
  2094  0222  1303               	bcf	3,6	;RP1=0, select bank0
  2095  0223  00EC               	movwf	??_convert+1
  2096  0224  086C               	movf	??_convert+1,w
  2097  0225  0084               	movwf	4
  2098  0226  086B               	movf	??_convert,w
  2099  0227  1383               	bcf	3,7	;select IRP bank0
  2100  0228  0080               	movwf	0
  2101  0229                     l3303:
  2102                           
  2103                           ;LCD8bits.c: 112:      i++;
  2104  0229  3001               	movlw	1
  2105  022A  1683               	bsf	3,5	;RP0=1, select bank1
  2106  022B  1303               	bcf	3,6	;RP1=0, select bank1
  2107  022C  07CE               	addwf	convert@i^(0+128),f
  2108  022D  1803               	skipnc
  2109  022E  0ACF               	incf	(convert@i+1)^(0+128),f
  2110  022F  3000               	movlw	0
  2111  0230  07CF               	addwf	(convert@i+1)^(0+128),f
  2112  0231                     l3305:
  2113  0231                     l3307:
  2114                           
  2115                           ;LCD8bits.c: 114:      for(j=1;j<=place;j++)mu=mu*10;
  2116  0231  3001               	movlw	1
  2117  0232  00C7               	movwf	convert@j^(0+128)
  2118  0233  3000               	movlw	0
  2119  0234  00C8               	movwf	(convert@j^(0+128)+1)
  2120  0235  2A5D               	goto	l3313
  2121  0236                     l3309:
  2122  0236  1683               	bsf	3,5	;RP0=1, select bank1
  2123  0237  1303               	bcf	3,6	;RP1=0, select bank1
  2124  0238  0853               	movf	(convert@mu+1)^(0+128),w
  2125  0239  1283               	bcf	3,5	;RP0=0, select bank0
  2126  023A  1303               	bcf	3,6	;RP1=0, select bank0
  2127  023B  00A6               	movwf	___wmul@multiplier+1
  2128  023C  1683               	bsf	3,5	;RP0=1, select bank1
  2129  023D  1303               	bcf	3,6	;RP1=0, select bank1
  2130  023E  0852               	movf	convert@mu^(0+128),w
  2131  023F  1283               	bcf	3,5	;RP0=0, select bank0
  2132  0240  1303               	bcf	3,6	;RP1=0, select bank0
  2133  0241  00A5               	movwf	___wmul@multiplier
  2134  0242  300A               	movlw	10
  2135  0243  00A7               	movwf	___wmul@multiplicand
  2136  0244  3000               	movlw	0
  2137  0245  00A8               	movwf	___wmul@multiplicand+1
  2138  0246  160A  118A  250B  120A  118A  	fcall	___wmul
  2139  024B  1283               	bcf	3,5	;RP0=0, select bank0
  2140  024C  1303               	bcf	3,6	;RP1=0, select bank0
  2141  024D  0826               	movf	?___wmul+1,w
  2142  024E  1683               	bsf	3,5	;RP0=1, select bank1
  2143  024F  1303               	bcf	3,6	;RP1=0, select bank1
  2144  0250  00D3               	movwf	(convert@mu+1)^(0+128)
  2145  0251  1283               	bcf	3,5	;RP0=0, select bank0
  2146  0252  1303               	bcf	3,6	;RP1=0, select bank0
  2147  0253  0825               	movf	?___wmul,w
  2148  0254  1683               	bsf	3,5	;RP0=1, select bank1
  2149  0255  1303               	bcf	3,6	;RP1=0, select bank1
  2150  0256  00D2               	movwf	convert@mu^(0+128)
  2151  0257                     l3311:
  2152  0257  3001               	movlw	1
  2153  0258  07C7               	addwf	convert@j^(0+128),f
  2154  0259  1803               	skipnc
  2155  025A  0AC8               	incf	(convert@j+1)^(0+128),f
  2156  025B  3000               	movlw	0
  2157  025C  07C8               	addwf	(convert@j+1)^(0+128),f
  2158  025D                     l3313:
  2159  025D  0844               	movf	(convert@place+1)^(0+128),w
  2160  025E  3A80               	xorlw	128
  2161  025F  1283               	bcf	3,5	;RP0=0, select bank0
  2162  0260  1303               	bcf	3,6	;RP1=0, select bank0
  2163  0261  00EB               	movwf	??_convert
  2164  0262  1683               	bsf	3,5	;RP0=1, select bank1
  2165  0263  1303               	bcf	3,6	;RP1=0, select bank1
  2166  0264  0848               	movf	(convert@j+1)^(0+128),w
  2167  0265  3A80               	xorlw	128
  2168  0266  1283               	bcf	3,5	;RP0=0, select bank0
  2169  0267  1303               	bcf	3,6	;RP1=0, select bank0
  2170  0268  026B               	subwf	??_convert,w
  2171  0269  1D03               	skipz
  2172  026A  2A6F               	goto	u4935
  2173  026B  1683               	bsf	3,5	;RP0=1, select bank1
  2174  026C  1303               	bcf	3,6	;RP1=0, select bank1
  2175  026D  0847               	movf	convert@j^(0+128),w
  2176  026E  0243               	subwf	convert@place^(0+128),w
  2177  026F                     u4935:
  2178  026F  1803               	skipnc
  2179  0270  2A72               	goto	u4931
  2180  0271  2A73               	goto	u4930
  2181  0272                     u4931:
  2182  0272  2A36               	goto	l3309
  2183  0273                     u4930:
  2184  0273                     l3315:
  2185                           
  2186                           ;LCD8bits.c: 115:      x=(a-(int)a)*mu;
  2187  0273  1683               	bsf	3,5	;RP0=1, select bank1
  2188  0274  1303               	bcf	3,6	;RP1=0, select bank1
  2189  0275  0852               	movf	convert@mu^(0+128),w
  2190  0276  1283               	bcf	3,5	;RP0=0, select bank0
  2191  0277  1303               	bcf	3,6	;RP1=0, select bank0
  2192  0278  00A9               	movwf	___xxtofl@val
  2193  0279  1683               	bsf	3,5	;RP0=1, select bank1
  2194  027A  1303               	bcf	3,6	;RP1=0, select bank1
  2195  027B  0853               	movf	(convert@mu+1)^(0+128),w
  2196  027C  1283               	bcf	3,5	;RP0=0, select bank0
  2197  027D  1303               	bcf	3,6	;RP1=0, select bank0
  2198  027E  00AA               	movwf	___xxtofl@val+1
  2199  027F  3000               	movlw	0
  2200  0280  1BAA               	btfsc	___xxtofl@val+1,7
  2201  0281  30FF               	movlw	255
  2202  0282  00AB               	movwf	___xxtofl@val+2
  2203  0283  00AC               	movwf	___xxtofl@val+3
  2204  0284  3001               	movlw	1
  2205  0285  120A  158A  2101  120A  118A  	fcall	___xxtofl
  2206  028A  1283               	bcf	3,5	;RP0=0, select bank0
  2207  028B  1303               	bcf	3,6	;RP1=0, select bank0
  2208  028C  082C               	movf	?___xxtofl+3,w
  2209  028D  00D4               	movwf	___flmul@b+3
  2210  028E  082B               	movf	?___xxtofl+2,w
  2211  028F  00D3               	movwf	___flmul@b+2
  2212  0290  082A               	movf	?___xxtofl+1,w
  2213  0291  00D2               	movwf	___flmul@b+1
  2214  0292  0829               	movf	?___xxtofl,w
  2215  0293  00D1               	movwf	___flmul@b
  2216  0294  1683               	bsf	3,5	;RP0=1, select bank1
  2217  0295  1303               	bcf	3,6	;RP1=0, select bank1
  2218  0296  0842               	movf	(convert@a+3)^(0+128),w
  2219  0297  00F5               	movwf	___fltol@f1+3
  2220  0298  0841               	movf	(convert@a+2)^(0+128),w
  2221  0299  00F4               	movwf	___fltol@f1+2
  2222  029A  0840               	movf	(convert@a+1)^(0+128),w
  2223  029B  00F3               	movwf	___fltol@f1+1
  2224  029C  083F               	movf	convert@a^(0+128),w
  2225  029D  00F2               	movwf	___fltol@f1
  2226  029E  160A  118A  26E0  120A  118A  	fcall	___fltol
  2227  02A3  0872               	movf	?___fltol,w
  2228  02A4  1283               	bcf	3,5	;RP0=0, select bank0
  2229  02A5  1303               	bcf	3,6	;RP1=0, select bank0
  2230  02A6  00A9               	movwf	___xxtofl@val
  2231  02A7  0873               	movf	?___fltol+1,w
  2232  02A8  00AA               	movwf	___xxtofl@val+1
  2233  02A9  3000               	movlw	0
  2234  02AA  1BAA               	btfsc	___xxtofl@val+1,7
  2235  02AB  30FF               	movlw	255
  2236  02AC  00AB               	movwf	___xxtofl@val+2
  2237  02AD  00AC               	movwf	___xxtofl@val+3
  2238  02AE  3001               	movlw	1
  2239  02AF  120A  158A  2101  120A  118A  	fcall	___xxtofl
  2240  02B4  1283               	bcf	3,5	;RP0=0, select bank0
  2241  02B5  1303               	bcf	3,6	;RP1=0, select bank0
  2242  02B6  082C               	movf	?___xxtofl+3,w
  2243  02B7  00BA               	movwf	___flsub@a+3
  2244  02B8  082B               	movf	?___xxtofl+2,w
  2245  02B9  00B9               	movwf	___flsub@a+2
  2246  02BA  082A               	movf	?___xxtofl+1,w
  2247  02BB  00B8               	movwf	___flsub@a+1
  2248  02BC  0829               	movf	?___xxtofl,w
  2249  02BD  00B7               	movwf	___flsub@a
  2250  02BE  1683               	bsf	3,5	;RP0=1, select bank1
  2251  02BF  1303               	bcf	3,6	;RP1=0, select bank1
  2252  02C0  0842               	movf	(convert@a+3)^(0+128),w
  2253  02C1  1283               	bcf	3,5	;RP0=0, select bank0
  2254  02C2  1303               	bcf	3,6	;RP1=0, select bank0
  2255  02C3  00BE               	movwf	___flsub@b+3
  2256  02C4  1683               	bsf	3,5	;RP0=1, select bank1
  2257  02C5  1303               	bcf	3,6	;RP1=0, select bank1
  2258  02C6  0841               	movf	(convert@a+2)^(0+128),w
  2259  02C7  1283               	bcf	3,5	;RP0=0, select bank0
  2260  02C8  1303               	bcf	3,6	;RP1=0, select bank0
  2261  02C9  00BD               	movwf	___flsub@b+2
  2262  02CA  1683               	bsf	3,5	;RP0=1, select bank1
  2263  02CB  1303               	bcf	3,6	;RP1=0, select bank1
  2264  02CC  0840               	movf	(convert@a+1)^(0+128),w
  2265  02CD  1283               	bcf	3,5	;RP0=0, select bank0
  2266  02CE  1303               	bcf	3,6	;RP1=0, select bank0
  2267  02CF  00BC               	movwf	___flsub@b+1
  2268  02D0  1683               	bsf	3,5	;RP0=1, select bank1
  2269  02D1  1303               	bcf	3,6	;RP1=0, select bank1
  2270  02D2  083F               	movf	convert@a^(0+128),w
  2271  02D3  1283               	bcf	3,5	;RP0=0, select bank0
  2272  02D4  1303               	bcf	3,6	;RP1=0, select bank0
  2273  02D5  00BB               	movwf	___flsub@b
  2274  02D6  160A  118A  24E7  120A  118A  	fcall	___flsub
  2275  02DB  1283               	bcf	3,5	;RP0=0, select bank0
  2276  02DC  1303               	bcf	3,6	;RP1=0, select bank0
  2277  02DD  083A               	movf	?___flsub+3,w
  2278  02DE  00D8               	movwf	___flmul@a+3
  2279  02DF  0839               	movf	?___flsub+2,w
  2280  02E0  00D7               	movwf	___flmul@a+2
  2281  02E1  0838               	movf	?___flsub+1,w
  2282  02E2  00D6               	movwf	___flmul@a+1
  2283  02E3  0837               	movf	?___flsub,w
  2284  02E4  00D5               	movwf	___flmul@a
  2285  02E5  120A  118A  2480  120A  118A  	fcall	___flmul
  2286  02EA  1283               	bcf	3,5	;RP0=0, select bank0
  2287  02EB  1303               	bcf	3,6	;RP1=0, select bank0
  2288  02EC  0854               	movf	?___flmul+3,w
  2289  02ED  1683               	bsf	3,5	;RP0=1, select bank1
  2290  02EE  1303               	bcf	3,6	;RP1=0, select bank1
  2291  02EF  00CD               	movwf	(convert@x+3)^(0+128)
  2292  02F0  1283               	bcf	3,5	;RP0=0, select bank0
  2293  02F1  1303               	bcf	3,6	;RP1=0, select bank0
  2294  02F2  0853               	movf	?___flmul+2,w
  2295  02F3  1683               	bsf	3,5	;RP0=1, select bank1
  2296  02F4  1303               	bcf	3,6	;RP1=0, select bank1
  2297  02F5  00CC               	movwf	(convert@x+2)^(0+128)
  2298  02F6  1283               	bcf	3,5	;RP0=0, select bank0
  2299  02F7  1303               	bcf	3,6	;RP1=0, select bank0
  2300  02F8  0852               	movf	?___flmul+1,w
  2301  02F9  1683               	bsf	3,5	;RP0=1, select bank1
  2302  02FA  1303               	bcf	3,6	;RP1=0, select bank1
  2303  02FB  00CB               	movwf	(convert@x+1)^(0+128)
  2304  02FC  1283               	bcf	3,5	;RP0=0, select bank0
  2305  02FD  1303               	bcf	3,6	;RP1=0, select bank0
  2306  02FE  0851               	movf	?___flmul,w
  2307  02FF  1683               	bsf	3,5	;RP0=1, select bank1
  2308  0300  1303               	bcf	3,6	;RP1=0, select bank1
  2309  0301  00CA               	movwf	convert@x^(0+128)
  2310  0302                     l3317:
  2311                           
  2312                           ;LCD8bits.c: 116:      a=x;
  2313  0302  084D               	movf	(convert@x+3)^(0+128),w
  2314  0303  00C2               	movwf	(convert@a+3)^(0+128)
  2315  0304  084C               	movf	(convert@x+2)^(0+128),w
  2316  0305  00C1               	movwf	(convert@a+2)^(0+128)
  2317  0306  084B               	movf	(convert@x+1)^(0+128),w
  2318  0307  00C0               	movwf	(convert@a+1)^(0+128)
  2319  0308  084A               	movf	convert@x^(0+128),w
  2320  0309  00BF               	movwf	convert@a^(0+128)
  2321  030A                     l3319:
  2322  030A  0842               	movf	(convert@a+3)^(0+128),w
  2323  030B  00F5               	movwf	___fltol@f1+3
  2324  030C  0841               	movf	(convert@a+2)^(0+128),w
  2325  030D  00F4               	movwf	___fltol@f1+2
  2326  030E  0840               	movf	(convert@a+1)^(0+128),w
  2327  030F  00F3               	movwf	___fltol@f1+1
  2328  0310  083F               	movf	convert@a^(0+128),w
  2329  0311  00F2               	movwf	___fltol@f1
  2330  0312  160A  118A  26E0  120A  118A  	fcall	___fltol
  2331  0317                     l3321:
  2332  0317                     l3323:
  2333                           
  2334                           ;LCD8bits.c: 119:      mu=1;
  2335  0317  3001               	movlw	1
  2336  0318  1683               	bsf	3,5	;RP0=1, select bank1
  2337  0319  1303               	bcf	3,6	;RP1=0, select bank1
  2338  031A  00D2               	movwf	convert@mu^(0+128)
  2339  031B  3000               	movlw	0
  2340  031C  00D3               	movwf	(convert@mu^(0+128)+1)
  2341  031D                     l3325:
  2342                           
  2343                           ;LCD8bits.c: 120:      digits=place;
  2344  031D  0844               	movf	(convert@place+1)^(0+128),w
  2345  031E  00D1               	movwf	(convert@digits+1)^(0+128)
  2346  031F  0843               	movf	convert@place^(0+128),w
  2347  0320  00D0               	movwf	convert@digits^(0+128)
  2348                           
  2349                           ;LCD8bits.c: 121:      while(digits!=0)
  2350  0321  2C69               	goto	l3349
  2351  0322                     l3327:
  2352                           
  2353                           ;LCD8bits.c: 122:      {;LCD8bits.c: 123:          if(digits==1)mu=1;
  2354  0322  0350               	decf	convert@digits^(0+128),w
  2355  0323  0451               	iorwf	(convert@digits+1)^(0+128),w
  2356  0324  1D03               	btfss	3,2
  2357  0325  2B27               	goto	u4941
  2358  0326  2B28               	goto	u4940
  2359  0327                     u4941:
  2360  0327  2B2D               	goto	l3331
  2361  0328                     u4940:
  2362  0328                     l3329:
  2363  0328  3001               	movlw	1
  2364  0329  00D2               	movwf	convert@mu^(0+128)
  2365  032A  3000               	movlw	0
  2366  032B  00D3               	movwf	(convert@mu^(0+128)+1)
  2367  032C  2B6F               	goto	l3339
  2368  032D                     l3331:
  2369  032D  3002               	movlw	2
  2370  032E  00C7               	movwf	convert@j^(0+128)
  2371  032F  3000               	movlw	0
  2372  0330  00C8               	movwf	(convert@j^(0+128)+1)
  2373  0331  2B59               	goto	l3337
  2374  0332                     l3333:
  2375  0332  1683               	bsf	3,5	;RP0=1, select bank1
  2376  0333  1303               	bcf	3,6	;RP1=0, select bank1
  2377  0334  0853               	movf	(convert@mu+1)^(0+128),w
  2378  0335  1283               	bcf	3,5	;RP0=0, select bank0
  2379  0336  1303               	bcf	3,6	;RP1=0, select bank0
  2380  0337  00A6               	movwf	___wmul@multiplier+1
  2381  0338  1683               	bsf	3,5	;RP0=1, select bank1
  2382  0339  1303               	bcf	3,6	;RP1=0, select bank1
  2383  033A  0852               	movf	convert@mu^(0+128),w
  2384  033B  1283               	bcf	3,5	;RP0=0, select bank0
  2385  033C  1303               	bcf	3,6	;RP1=0, select bank0
  2386  033D  00A5               	movwf	___wmul@multiplier
  2387  033E  300A               	movlw	10
  2388  033F  00A7               	movwf	___wmul@multiplicand
  2389  0340  3000               	movlw	0
  2390  0341  00A8               	movwf	___wmul@multiplicand+1
  2391  0342  160A  118A  250B  120A  118A  	fcall	___wmul
  2392  0347  1283               	bcf	3,5	;RP0=0, select bank0
  2393  0348  1303               	bcf	3,6	;RP1=0, select bank0
  2394  0349  0826               	movf	?___wmul+1,w
  2395  034A  1683               	bsf	3,5	;RP0=1, select bank1
  2396  034B  1303               	bcf	3,6	;RP1=0, select bank1
  2397  034C  00D3               	movwf	(convert@mu+1)^(0+128)
  2398  034D  1283               	bcf	3,5	;RP0=0, select bank0
  2399  034E  1303               	bcf	3,6	;RP1=0, select bank0
  2400  034F  0825               	movf	?___wmul,w
  2401  0350  1683               	bsf	3,5	;RP0=1, select bank1
  2402  0351  1303               	bcf	3,6	;RP1=0, select bank1
  2403  0352  00D2               	movwf	convert@mu^(0+128)
  2404  0353                     l3335:
  2405  0353  3001               	movlw	1
  2406  0354  07C7               	addwf	convert@j^(0+128),f
  2407  0355  1803               	skipnc
  2408  0356  0AC8               	incf	(convert@j+1)^(0+128),f
  2409  0357  3000               	movlw	0
  2410  0358  07C8               	addwf	(convert@j+1)^(0+128),f
  2411  0359                     l3337:
  2412  0359  0851               	movf	(convert@digits+1)^(0+128),w
  2413  035A  3A80               	xorlw	128
  2414  035B  1283               	bcf	3,5	;RP0=0, select bank0
  2415  035C  1303               	bcf	3,6	;RP1=0, select bank0
  2416  035D  00EB               	movwf	??_convert
  2417  035E  1683               	bsf	3,5	;RP0=1, select bank1
  2418  035F  1303               	bcf	3,6	;RP1=0, select bank1
  2419  0360  0848               	movf	(convert@j+1)^(0+128),w
  2420  0361  3A80               	xorlw	128
  2421  0362  1283               	bcf	3,5	;RP0=0, select bank0
  2422  0363  1303               	bcf	3,6	;RP1=0, select bank0
  2423  0364  026B               	subwf	??_convert,w
  2424  0365  1D03               	skipz
  2425  0366  2B6B               	goto	u4955
  2426  0367  1683               	bsf	3,5	;RP0=1, select bank1
  2427  0368  1303               	bcf	3,6	;RP1=0, select bank1
  2428  0369  0847               	movf	convert@j^(0+128),w
  2429  036A  0250               	subwf	convert@digits^(0+128),w
  2430  036B                     u4955:
  2431  036B  1803               	skipnc
  2432  036C  2B6E               	goto	u4951
  2433  036D  2B6F               	goto	u4950
  2434  036E                     u4951:
  2435  036E  2B32               	goto	l3333
  2436  036F                     u4950:
  2437  036F                     l3339:
  2438                           
  2439                           ;LCD8bits.c: 126:          x=a/mu;
  2440  036F  1683               	bsf	3,5	;RP0=1, select bank1
  2441  0370  1303               	bcf	3,6	;RP1=0, select bank1
  2442  0371  0852               	movf	convert@mu^(0+128),w
  2443  0372  1283               	bcf	3,5	;RP0=0, select bank0
  2444  0373  1303               	bcf	3,6	;RP1=0, select bank0
  2445  0374  00A9               	movwf	___xxtofl@val
  2446  0375  1683               	bsf	3,5	;RP0=1, select bank1
  2447  0376  1303               	bcf	3,6	;RP1=0, select bank1
  2448  0377  0853               	movf	(convert@mu+1)^(0+128),w
  2449  0378  1283               	bcf	3,5	;RP0=0, select bank0
  2450  0379  1303               	bcf	3,6	;RP1=0, select bank0
  2451  037A  00AA               	movwf	___xxtofl@val+1
  2452  037B  3000               	movlw	0
  2453  037C  1BAA               	btfsc	___xxtofl@val+1,7
  2454  037D  30FF               	movlw	255
  2455  037E  00AB               	movwf	___xxtofl@val+2
  2456  037F  00AC               	movwf	___xxtofl@val+3
  2457  0380  3001               	movlw	1
  2458  0381  120A  158A  2101  120A  118A  	fcall	___xxtofl
  2459  0386  1283               	bcf	3,5	;RP0=0, select bank0
  2460  0387  1303               	bcf	3,6	;RP1=0, select bank0
  2461  0388  082C               	movf	?___xxtofl+3,w
  2462  0389  00BA               	movwf	___fldiv@a+3
  2463  038A  082B               	movf	?___xxtofl+2,w
  2464  038B  00B9               	movwf	___fldiv@a+2
  2465  038C  082A               	movf	?___xxtofl+1,w
  2466  038D  00B8               	movwf	___fldiv@a+1
  2467  038E  0829               	movf	?___xxtofl,w
  2468  038F  00B7               	movwf	___fldiv@a
  2469  0390  1683               	bsf	3,5	;RP0=1, select bank1
  2470  0391  1303               	bcf	3,6	;RP1=0, select bank1
  2471  0392  0842               	movf	(convert@a+3)^(0+128),w
  2472  0393  1283               	bcf	3,5	;RP0=0, select bank0
  2473  0394  1303               	bcf	3,6	;RP1=0, select bank0
  2474  0395  00BE               	movwf	___fldiv@b+3
  2475  0396  1683               	bsf	3,5	;RP0=1, select bank1
  2476  0397  1303               	bcf	3,6	;RP1=0, select bank1
  2477  0398  0841               	movf	(convert@a+2)^(0+128),w
  2478  0399  1283               	bcf	3,5	;RP0=0, select bank0
  2479  039A  1303               	bcf	3,6	;RP1=0, select bank0
  2480  039B  00BD               	movwf	___fldiv@b+2
  2481  039C  1683               	bsf	3,5	;RP0=1, select bank1
  2482  039D  1303               	bcf	3,6	;RP1=0, select bank1
  2483  039E  0840               	movf	(convert@a+1)^(0+128),w
  2484  039F  1283               	bcf	3,5	;RP0=0, select bank0
  2485  03A0  1303               	bcf	3,6	;RP1=0, select bank0
  2486  03A1  00BC               	movwf	___fldiv@b+1
  2487  03A2  1683               	bsf	3,5	;RP0=1, select bank1
  2488  03A3  1303               	bcf	3,6	;RP1=0, select bank1
  2489  03A4  083F               	movf	convert@a^(0+128),w
  2490  03A5  1283               	bcf	3,5	;RP0=0, select bank0
  2491  03A6  1303               	bcf	3,6	;RP1=0, select bank0
  2492  03A7  00BB               	movwf	___fldiv@b
  2493  03A8  120A  158A  21BD  120A  118A  	fcall	___fldiv
  2494  03AD  1283               	bcf	3,5	;RP0=0, select bank0
  2495  03AE  1303               	bcf	3,6	;RP1=0, select bank0
  2496  03AF  083A               	movf	?___fldiv+3,w
  2497  03B0  1683               	bsf	3,5	;RP0=1, select bank1
  2498  03B1  1303               	bcf	3,6	;RP1=0, select bank1
  2499  03B2  00CD               	movwf	(convert@x+3)^(0+128)
  2500  03B3  1283               	bcf	3,5	;RP0=0, select bank0
  2501  03B4  1303               	bcf	3,6	;RP1=0, select bank0
  2502  03B5  0839               	movf	?___fldiv+2,w
  2503  03B6  1683               	bsf	3,5	;RP0=1, select bank1
  2504  03B7  1303               	bcf	3,6	;RP1=0, select bank1
  2505  03B8  00CC               	movwf	(convert@x+2)^(0+128)
  2506  03B9  1283               	bcf	3,5	;RP0=0, select bank0
  2507  03BA  1303               	bcf	3,6	;RP1=0, select bank0
  2508  03BB  0838               	movf	?___fldiv+1,w
  2509  03BC  1683               	bsf	3,5	;RP0=1, select bank1
  2510  03BD  1303               	bcf	3,6	;RP1=0, select bank1
  2511  03BE  00CB               	movwf	(convert@x+1)^(0+128)
  2512  03BF  1283               	bcf	3,5	;RP0=0, select bank0
  2513  03C0  1303               	bcf	3,6	;RP1=0, select bank0
  2514  03C1  0837               	movf	?___fldiv,w
  2515  03C2  1683               	bsf	3,5	;RP0=1, select bank1
  2516  03C3  1303               	bcf	3,6	;RP1=0, select bank1
  2517  03C4  00CA               	movwf	convert@x^(0+128)
  2518                           
  2519                           ;LCD8bits.c: 127:          a=a-((int)x*mu);
  2520  03C5  0853               	movf	(convert@mu+1)^(0+128),w
  2521  03C6  1283               	bcf	3,5	;RP0=0, select bank0
  2522  03C7  1303               	bcf	3,6	;RP1=0, select bank0
  2523  03C8  00A8               	movwf	___wmul@multiplicand+1
  2524  03C9  1683               	bsf	3,5	;RP0=1, select bank1
  2525  03CA  1303               	bcf	3,6	;RP1=0, select bank1
  2526  03CB  0852               	movf	convert@mu^(0+128),w
  2527  03CC  1283               	bcf	3,5	;RP0=0, select bank0
  2528  03CD  1303               	bcf	3,6	;RP1=0, select bank0
  2529  03CE  00A7               	movwf	___wmul@multiplicand
  2530  03CF  1683               	bsf	3,5	;RP0=1, select bank1
  2531  03D0  1303               	bcf	3,6	;RP1=0, select bank1
  2532  03D1  084D               	movf	(convert@x+3)^(0+128),w
  2533  03D2  00F5               	movwf	___fltol@f1+3
  2534  03D3  084C               	movf	(convert@x+2)^(0+128),w
  2535  03D4  00F4               	movwf	___fltol@f1+2
  2536  03D5  084B               	movf	(convert@x+1)^(0+128),w
  2537  03D6  00F3               	movwf	___fltol@f1+1
  2538  03D7  084A               	movf	convert@x^(0+128),w
  2539  03D8  00F2               	movwf	___fltol@f1
  2540  03D9  160A  118A  26E0  120A  118A  	fcall	___fltol
  2541  03DE  0873               	movf	?___fltol+1,w
  2542  03DF  1283               	bcf	3,5	;RP0=0, select bank0
  2543  03E0  1303               	bcf	3,6	;RP1=0, select bank0
  2544  03E1  00A6               	movwf	___wmul@multiplier+1
  2545  03E2  0872               	movf	?___fltol,w
  2546  03E3  00A5               	movwf	___wmul@multiplier
  2547  03E4  160A  118A  250B  120A  118A  	fcall	___wmul
  2548  03E9  1283               	bcf	3,5	;RP0=0, select bank0
  2549  03EA  1303               	bcf	3,6	;RP1=0, select bank0
  2550  03EB  0825               	movf	?___wmul,w
  2551  03EC  00A9               	movwf	___xxtofl@val
  2552  03ED  0826               	movf	?___wmul+1,w
  2553  03EE  00AA               	movwf	___xxtofl@val+1
  2554  03EF  3000               	movlw	0
  2555  03F0  1BAA               	btfsc	___xxtofl@val+1,7
  2556  03F1  30FF               	movlw	255
  2557  03F2  00AB               	movwf	___xxtofl@val+2
  2558  03F3  00AC               	movwf	___xxtofl@val+3
  2559  03F4  3001               	movlw	1
  2560  03F5  120A  158A  2101  120A  118A  	fcall	___xxtofl
  2561  03FA  1283               	bcf	3,5	;RP0=0, select bank0
  2562  03FB  1303               	bcf	3,6	;RP1=0, select bank0
  2563  03FC  082C               	movf	?___xxtofl+3,w
  2564  03FD  00BA               	movwf	___flsub@a+3
  2565  03FE  082B               	movf	?___xxtofl+2,w
  2566  03FF  00B9               	movwf	___flsub@a+2
  2567  0400  082A               	movf	?___xxtofl+1,w
  2568  0401  00B8               	movwf	___flsub@a+1
  2569  0402  0829               	movf	?___xxtofl,w
  2570  0403  00B7               	movwf	___flsub@a
  2571  0404  1683               	bsf	3,5	;RP0=1, select bank1
  2572  0405  1303               	bcf	3,6	;RP1=0, select bank1
  2573  0406  0842               	movf	(convert@a+3)^(0+128),w
  2574  0407  1283               	bcf	3,5	;RP0=0, select bank0
  2575  0408  1303               	bcf	3,6	;RP1=0, select bank0
  2576  0409  00BE               	movwf	___flsub@b+3
  2577  040A  1683               	bsf	3,5	;RP0=1, select bank1
  2578  040B  1303               	bcf	3,6	;RP1=0, select bank1
  2579  040C  0841               	movf	(convert@a+2)^(0+128),w
  2580  040D  1283               	bcf	3,5	;RP0=0, select bank0
  2581  040E  1303               	bcf	3,6	;RP1=0, select bank0
  2582  040F  00BD               	movwf	___flsub@b+2
  2583  0410  1683               	bsf	3,5	;RP0=1, select bank1
  2584  0411  1303               	bcf	3,6	;RP1=0, select bank1
  2585  0412  0840               	movf	(convert@a+1)^(0+128),w
  2586  0413  1283               	bcf	3,5	;RP0=0, select bank0
  2587  0414  1303               	bcf	3,6	;RP1=0, select bank0
  2588  0415  00BC               	movwf	___flsub@b+1
  2589  0416  1683               	bsf	3,5	;RP0=1, select bank1
  2590  0417  1303               	bcf	3,6	;RP1=0, select bank1
  2591  0418  083F               	movf	convert@a^(0+128),w
  2592  0419  1283               	bcf	3,5	;RP0=0, select bank0
  2593  041A  1303               	bcf	3,6	;RP1=0, select bank0
  2594  041B  00BB               	movwf	___flsub@b
  2595  041C  160A  118A  24E7  120A  118A  	fcall	___flsub
  2596  0421  1283               	bcf	3,5	;RP0=0, select bank0
  2597  0422  1303               	bcf	3,6	;RP1=0, select bank0
  2598  0423  083A               	movf	?___flsub+3,w
  2599  0424  1683               	bsf	3,5	;RP0=1, select bank1
  2600  0425  1303               	bcf	3,6	;RP1=0, select bank1
  2601  0426  00C2               	movwf	(convert@a+3)^(0+128)
  2602  0427  1283               	bcf	3,5	;RP0=0, select bank0
  2603  0428  1303               	bcf	3,6	;RP1=0, select bank0
  2604  0429  0839               	movf	?___flsub+2,w
  2605  042A  1683               	bsf	3,5	;RP0=1, select bank1
  2606  042B  1303               	bcf	3,6	;RP1=0, select bank1
  2607  042C  00C1               	movwf	(convert@a+2)^(0+128)
  2608  042D  1283               	bcf	3,5	;RP0=0, select bank0
  2609  042E  1303               	bcf	3,6	;RP1=0, select bank0
  2610  042F  0838               	movf	?___flsub+1,w
  2611  0430  1683               	bsf	3,5	;RP0=1, select bank1
  2612  0431  1303               	bcf	3,6	;RP1=0, select bank1
  2613  0432  00C0               	movwf	(convert@a+1)^(0+128)
  2614  0433  1283               	bcf	3,5	;RP0=0, select bank0
  2615  0434  1303               	bcf	3,6	;RP1=0, select bank0
  2616  0435  0837               	movf	?___flsub,w
  2617  0436  1683               	bsf	3,5	;RP0=1, select bank1
  2618  0437  1303               	bcf	3,6	;RP1=0, select bank1
  2619  0438  00BF               	movwf	convert@a^(0+128)
  2620  0439                     l3341:
  2621                           
  2622                           ;LCD8bits.c: 128:          data[i]=0x30+((int)x);
  2623  0439  084D               	movf	(convert@x+3)^(0+128),w
  2624  043A  00F5               	movwf	___fltol@f1+3
  2625  043B  084C               	movf	(convert@x+2)^(0+128),w
  2626  043C  00F4               	movwf	___fltol@f1+2
  2627  043D  084B               	movf	(convert@x+1)^(0+128),w
  2628  043E  00F3               	movwf	___fltol@f1+1
  2629  043F  084A               	movf	convert@x^(0+128),w
  2630  0440  00F2               	movwf	___fltol@f1
  2631  0441  160A  118A  26E0  120A  118A  	fcall	___fltol
  2632  0446  0872               	movf	?___fltol,w
  2633  0447  3E30               	addlw	48
  2634  0448  1283               	bcf	3,5	;RP0=0, select bank0
  2635  0449  1303               	bcf	3,6	;RP1=0, select bank0
  2636  044A  00EB               	movwf	??_convert
  2637  044B  1683               	bsf	3,5	;RP0=1, select bank1
  2638  044C  1303               	bcf	3,6	;RP1=0, select bank1
  2639  044D  084E               	movf	convert@i^(0+128),w
  2640  044E  0749               	addwf	convert@data^(0+128),w
  2641  044F  1283               	bcf	3,5	;RP0=0, select bank0
  2642  0450  1303               	bcf	3,6	;RP1=0, select bank0
  2643  0451  00EC               	movwf	??_convert+1
  2644  0452  086C               	movf	??_convert+1,w
  2645  0453  0084               	movwf	4
  2646  0454  086B               	movf	??_convert,w
  2647  0455  1383               	bcf	3,7	;select IRP bank0
  2648  0456  0080               	movwf	0
  2649  0457                     l3343:
  2650                           
  2651                           ;LCD8bits.c: 129:          i++;
  2652  0457  3001               	movlw	1
  2653  0458  1683               	bsf	3,5	;RP0=1, select bank1
  2654  0459  1303               	bcf	3,6	;RP1=0, select bank1
  2655  045A  07CE               	addwf	convert@i^(0+128),f
  2656  045B  1803               	skipnc
  2657  045C  0ACF               	incf	(convert@i+1)^(0+128),f
  2658  045D  3000               	movlw	0
  2659  045E  07CF               	addwf	(convert@i+1)^(0+128),f
  2660  045F                     l3345:
  2661                           
  2662                           ;LCD8bits.c: 130:          digits--;
  2663  045F  30FF               	movlw	255
  2664  0460  07D0               	addwf	convert@digits^(0+128),f
  2665  0461  1803               	skipnc
  2666  0462  0AD1               	incf	(convert@digits+1)^(0+128),f
  2667  0463  30FF               	movlw	255
  2668  0464  07D1               	addwf	(convert@digits+1)^(0+128),f
  2669  0465                     l3347:
  2670                           
  2671                           ;LCD8bits.c: 131:          mu=1;
  2672  0465  3001               	movlw	1
  2673  0466  00D2               	movwf	convert@mu^(0+128)
  2674  0467  3000               	movlw	0
  2675  0468  00D3               	movwf	(convert@mu^(0+128)+1)
  2676  0469                     l3349:
  2677                           
  2678                           ;LCD8bits.c: 121:      while(digits!=0)
  2679  0469  0850               	movf	convert@digits^(0+128),w
  2680  046A  0451               	iorwf	(convert@digits+1)^(0+128),w
  2681  046B  1D03               	btfss	3,2
  2682  046C  2C6E               	goto	u4961
  2683  046D  2C6F               	goto	u4960
  2684  046E                     u4961:
  2685  046E  2B22               	goto	l3327
  2686  046F                     u4960:
  2687  046F                     l3351:
  2688                           
  2689                           ;LCD8bits.c: 134:     data[i]='\n';
  2690  046F  300A               	movlw	10
  2691  0470  1283               	bcf	3,5	;RP0=0, select bank0
  2692  0471  1303               	bcf	3,6	;RP1=0, select bank0
  2693  0472  00EB               	movwf	??_convert
  2694  0473  1683               	bsf	3,5	;RP0=1, select bank1
  2695  0474  1303               	bcf	3,6	;RP1=0, select bank1
  2696  0475  084E               	movf	convert@i^(0+128),w
  2697  0476  0749               	addwf	convert@data^(0+128),w
  2698  0477  1283               	bcf	3,5	;RP0=0, select bank0
  2699  0478  1303               	bcf	3,6	;RP1=0, select bank0
  2700  0479  00EC               	movwf	??_convert+1
  2701  047A  086C               	movf	??_convert+1,w
  2702  047B  0084               	movwf	4
  2703  047C  086B               	movf	??_convert,w
  2704  047D  1383               	bcf	3,7	;select IRP bank0
  2705  047E  0080               	movwf	0
  2706  047F                     l150:
  2707  047F  0008               	return
  2708  0480                     __end_of_convert:
  2709                           
  2710                           	psect	text2
  2711  0901                     __ptext2:	
  2712 ;; *************** function ___xxtofl *****************
  2713 ;; Defined at:
  2714 ;;		line 10 in file "C:\Program Files\Microchip\xc8\v2.31\pic\sources\c90\common\xxtofl.c"
  2715 ;; Parameters:    Size  Location     Type
  2716 ;;  sign            1    wreg     unsigned char 
  2717 ;;  val             4    9[BANK0 ] long 
  2718 ;; Auto vars:     Size  Location     Type
  2719 ;;  sign            1   17[BANK0 ] unsigned char 
  2720 ;;  arg             4   19[BANK0 ] unsigned long 
  2721 ;;  exp             1   18[BANK0 ] unsigned char 
  2722 ;; Return value:  Size  Location     Type
  2723 ;;                  4    9[BANK0 ] unsigned char 
  2724 ;; Registers used:
  2725 ;;		wreg, status,2, status,0
  2726 ;; Tracked objects:
  2727 ;;		On entry : 0/0
  2728 ;;		On exit  : 0/0
  2729 ;;		Unchanged: 0/0
  2730 ;; Data sizes:     COMMON   BANK0   BANK1   BANK3   BANK2
  2731 ;;      Params:         0       4       0       0       0
  2732 ;;      Locals:         0       6       0       0       0
  2733 ;;      Temps:          0       4       0       0       0
  2734 ;;      Totals:         0      14       0       0       0
  2735 ;;Total ram usage:       14 bytes
  2736 ;; Hardware stack levels used:    1
  2737 ;; Hardware stack levels required when called:    1
  2738 ;; This function calls:
  2739 ;;		Nothing
  2740 ;; This function is called by:
  2741 ;;		_main
  2742 ;;		_convert
  2743 ;; This function uses a non-reentrant model
  2744 ;;
  2745                           
  2746                           
  2747                           ;psect for function ___xxtofl
  2748  0901                     ___xxtofl:
  2749                           
  2750                           ;incstack = 0
  2751                           ; Regs used in ___xxtofl: [wreg+status,2+status,0]
  2752                           ;___xxtofl@sign stored from wreg
  2753  0901  1283               	bcf	3,5	;RP0=0, select bank0
  2754  0902  1303               	bcf	3,6	;RP1=0, select bank0
  2755  0903  00B1               	movwf	___xxtofl@sign
  2756  0904                     l2543:
  2757  0904  0831               	movf	___xxtofl@sign,w
  2758  0905  1903               	btfsc	3,2
  2759  0906  2908               	goto	u3621
  2760  0907  2909               	goto	u3620
  2761  0908                     u3621:
  2762  0908  291D               	goto	l2549
  2763  0909                     u3620:
  2764  0909                     l2545:
  2765  0909  1FAC               	btfss	___xxtofl@val+3,7
  2766  090A  290C               	goto	u3631
  2767  090B  290D               	goto	u3630
  2768  090C                     u3631:
  2769  090C  291D               	goto	l2549
  2770  090D                     u3630:
  2771  090D                     l2547:
  2772  090D  0929               	comf	___xxtofl@val,w
  2773  090E  00B3               	movwf	___xxtofl@arg
  2774  090F  092A               	comf	___xxtofl@val+1,w
  2775  0910  00B4               	movwf	___xxtofl@arg+1
  2776  0911  092B               	comf	___xxtofl@val+2,w
  2777  0912  00B5               	movwf	___xxtofl@arg+2
  2778  0913  092C               	comf	___xxtofl@val+3,w
  2779  0914  00B6               	movwf	___xxtofl@arg+3
  2780  0915  0AB3               	incf	___xxtofl@arg,f
  2781  0916  1903               	skipnz
  2782  0917  0AB4               	incf	___xxtofl@arg+1,f
  2783  0918  1903               	skipnz
  2784  0919  0AB5               	incf	___xxtofl@arg+2,f
  2785  091A  1903               	skipnz
  2786  091B  0AB6               	incf	___xxtofl@arg+3,f
  2787  091C  2925               	goto	l748
  2788  091D                     l2549:
  2789  091D  082C               	movf	___xxtofl@val+3,w
  2790  091E  00B6               	movwf	___xxtofl@arg+3
  2791  091F  082B               	movf	___xxtofl@val+2,w
  2792  0920  00B5               	movwf	___xxtofl@arg+2
  2793  0921  082A               	movf	___xxtofl@val+1,w
  2794  0922  00B4               	movwf	___xxtofl@arg+1
  2795  0923  0829               	movf	___xxtofl@val,w
  2796  0924  00B3               	movwf	___xxtofl@arg
  2797  0925                     l748:
  2798  0925  082C               	movf	___xxtofl@val+3,w
  2799  0926  042B               	iorwf	___xxtofl@val+2,w
  2800  0927  042A               	iorwf	___xxtofl@val+1,w
  2801  0928  0429               	iorwf	___xxtofl@val,w
  2802  0929  1D03               	skipz
  2803  092A  292C               	goto	u3641
  2804  092B  292D               	goto	u3640
  2805  092C                     u3641:
  2806  092C  2936               	goto	l2555
  2807  092D                     u3640:
  2808  092D                     l2551:
  2809  092D  3000               	movlw	0
  2810  092E  00AC               	movwf	?___xxtofl+3
  2811  092F  3000               	movlw	0
  2812  0930  00AB               	movwf	?___xxtofl+2
  2813  0931  3000               	movlw	0
  2814  0932  00AA               	movwf	?___xxtofl+1
  2815  0933  3000               	movlw	0
  2816  0934  00A9               	movwf	?___xxtofl
  2817  0935  29BC               	goto	l750
  2818  0936                     l2555:
  2819  0936  3096               	movlw	150
  2820  0937  00AD               	movwf	??___xxtofl
  2821  0938  082D               	movf	??___xxtofl,w
  2822  0939  00B2               	movwf	___xxtofl@exp
  2823  093A  2948               	goto	l2559
  2824  093B                     l2557:
  2825  093B  3001               	movlw	1
  2826  093C  00AD               	movwf	??___xxtofl
  2827  093D  082D               	movf	??___xxtofl,w
  2828  093E  07B2               	addwf	___xxtofl@exp,f
  2829  093F  3001               	movlw	1
  2830  0940                     u3655:
  2831  0940  1003               	clrc
  2832  0941  0CB6               	rrf	___xxtofl@arg+3,f
  2833  0942  0CB5               	rrf	___xxtofl@arg+2,f
  2834  0943  0CB4               	rrf	___xxtofl@arg+1,f
  2835  0944  0CB3               	rrf	___xxtofl@arg,f
  2836  0945  3EFF               	addlw	-1
  2837  0946  1D03               	skipz
  2838  0947  2940               	goto	u3655
  2839  0948                     l2559:
  2840  0948  30FE               	movlw	254
  2841  0949  0536               	andwf	___xxtofl@arg+3,w
  2842  094A  1D03               	btfss	3,2
  2843  094B  294D               	goto	u3661
  2844  094C  294E               	goto	u3660
  2845  094D                     u3661:
  2846  094D  293B               	goto	l2557
  2847  094E                     u3660:
  2848  094E  296A               	goto	l754
  2849  094F                     l2561:
  2850  094F  3001               	movlw	1
  2851  0950  00AD               	movwf	??___xxtofl
  2852  0951  082D               	movf	??___xxtofl,w
  2853  0952  07B2               	addwf	___xxtofl@exp,f
  2854  0953                     l2563:
  2855  0953  3001               	movlw	1
  2856  0954  07B3               	addwf	___xxtofl@arg,f
  2857  0955  3000               	movlw	0
  2858  0956  1803               	skipnc
  2859  0957  3001               	movlw	1
  2860  0958  07B4               	addwf	___xxtofl@arg+1,f
  2861  0959  3000               	movlw	0
  2862  095A  1803               	skipnc
  2863  095B  3001               	movlw	1
  2864  095C  07B5               	addwf	___xxtofl@arg+2,f
  2865  095D  3000               	movlw	0
  2866  095E  1803               	skipnc
  2867  095F  3001               	movlw	1
  2868  0960  07B6               	addwf	___xxtofl@arg+3,f
  2869  0961                     l2565:
  2870  0961  3001               	movlw	1
  2871  0962                     u3675:
  2872  0962  1003               	clrc
  2873  0963  0CB6               	rrf	___xxtofl@arg+3,f
  2874  0964  0CB5               	rrf	___xxtofl@arg+2,f
  2875  0965  0CB4               	rrf	___xxtofl@arg+1,f
  2876  0966  0CB3               	rrf	___xxtofl@arg,f
  2877  0967  3EFF               	addlw	-1
  2878  0968  1D03               	skipz
  2879  0969  2962               	goto	u3675
  2880  096A                     l754:
  2881  096A  30FF               	movlw	255
  2882  096B  0536               	andwf	___xxtofl@arg+3,w
  2883  096C  1D03               	btfss	3,2
  2884  096D  296F               	goto	u3681
  2885  096E  2970               	goto	u3680
  2886  096F                     u3681:
  2887  096F  294F               	goto	l2561
  2888  0970                     u3680:
  2889  0970  297C               	goto	l2569
  2890  0971                     l2567:
  2891  0971  3001               	movlw	1
  2892  0972  02B2               	subwf	___xxtofl@exp,f
  2893  0973  3001               	movlw	1
  2894  0974  00AD               	movwf	??___xxtofl
  2895  0975                     u3695:
  2896  0975  1003               	clrc
  2897  0976  0DB3               	rlf	___xxtofl@arg,f
  2898  0977  0DB4               	rlf	___xxtofl@arg+1,f
  2899  0978  0DB5               	rlf	___xxtofl@arg+2,f
  2900  0979  0DB6               	rlf	___xxtofl@arg+3,f
  2901  097A  0BAD               	decfsz	??___xxtofl,f
  2902  097B  2975               	goto	u3695
  2903  097C                     l2569:
  2904  097C  1BB5               	btfsc	___xxtofl@arg+2,7
  2905  097D  297F               	goto	u3701
  2906  097E  2980               	goto	u3700
  2907  097F                     u3701:
  2908  097F  2986               	goto	l761
  2909  0980                     u3700:
  2910  0980                     l2571:
  2911  0980  3002               	movlw	2
  2912  0981  0232               	subwf	___xxtofl@exp,w
  2913  0982  1803               	skipnc
  2914  0983  2985               	goto	u3711
  2915  0984  2986               	goto	u3710
  2916  0985                     u3711:
  2917  0985  2971               	goto	l2567
  2918  0986                     u3710:
  2919  0986                     l761:
  2920  0986  1832               	btfsc	___xxtofl@exp,0
  2921  0987  2989               	goto	u3721
  2922  0988  298A               	goto	u3720
  2923  0989                     u3721:
  2924  0989  2992               	goto	l762
  2925  098A                     u3720:
  2926  098A                     l2573:
  2927  098A  30FF               	movlw	255
  2928  098B  05B3               	andwf	___xxtofl@arg,f
  2929  098C  30FF               	movlw	255
  2930  098D  05B4               	andwf	___xxtofl@arg+1,f
  2931  098E  307F               	movlw	127
  2932  098F  05B5               	andwf	___xxtofl@arg+2,f
  2933  0990  30FF               	movlw	255
  2934  0991  05B6               	andwf	___xxtofl@arg+3,f
  2935  0992                     l762:
  2936  0992  1003               	clrc
  2937  0993  0CB2               	rrf	___xxtofl@exp,f
  2938  0994                     l2575:
  2939  0994  0832               	movf	___xxtofl@exp,w
  2940  0995  00AD               	movwf	??___xxtofl
  2941  0996  01AE               	clrf	??___xxtofl+1
  2942  0997  01AF               	clrf	??___xxtofl+2
  2943  0998  01B0               	clrf	??___xxtofl+3
  2944  0999  3018               	movlw	24
  2945  099A                     u3735:
  2946  099A  1003               	clrc
  2947  099B  0DAD               	rlf	??___xxtofl,f
  2948  099C  0DAE               	rlf	??___xxtofl+1,f
  2949  099D  0DAF               	rlf	??___xxtofl+2,f
  2950  099E  0DB0               	rlf	??___xxtofl+3,f
  2951  099F                     u3730:
  2952  099F  3EFF               	addlw	-1
  2953  09A0  1D03               	skipz
  2954  09A1  299A               	goto	u3735
  2955  09A2  082D               	movf	??___xxtofl,w
  2956  09A3  04B3               	iorwf	___xxtofl@arg,f
  2957  09A4  082E               	movf	??___xxtofl+1,w
  2958  09A5  04B4               	iorwf	___xxtofl@arg+1,f
  2959  09A6  082F               	movf	??___xxtofl+2,w
  2960  09A7  04B5               	iorwf	___xxtofl@arg+2,f
  2961  09A8  0830               	movf	??___xxtofl+3,w
  2962  09A9  04B6               	iorwf	___xxtofl@arg+3,f
  2963  09AA                     l2577:
  2964  09AA  0831               	movf	___xxtofl@sign,w
  2965  09AB  1903               	btfsc	3,2
  2966  09AC  29AE               	goto	u3741
  2967  09AD  29AF               	goto	u3740
  2968  09AE                     u3741:
  2969  09AE  29B4               	goto	l2583
  2970  09AF                     u3740:
  2971  09AF                     l2579:
  2972  09AF  1FAC               	btfss	___xxtofl@val+3,7
  2973  09B0  29B2               	goto	u3751
  2974  09B1  29B3               	goto	u3750
  2975  09B2                     u3751:
  2976  09B2  29B4               	goto	l2583
  2977  09B3                     u3750:
  2978  09B3                     l2581:
  2979  09B3  17B6               	bsf	___xxtofl@arg+3,7
  2980  09B4                     l2583:
  2981  09B4  0836               	movf	___xxtofl@arg+3,w
  2982  09B5  00AC               	movwf	?___xxtofl+3
  2983  09B6  0835               	movf	___xxtofl@arg+2,w
  2984  09B7  00AB               	movwf	?___xxtofl+2
  2985  09B8  0834               	movf	___xxtofl@arg+1,w
  2986  09B9  00AA               	movwf	?___xxtofl+1
  2987  09BA  0833               	movf	___xxtofl@arg,w
  2988  09BB  00A9               	movwf	?___xxtofl
  2989  09BC                     l750:
  2990  09BC  0008               	return
  2991  09BD                     __end_of___xxtofl:
  2992                           
  2993                           	psect	text3
  2994  150B                     __ptext3:	
  2995 ;; *************** function ___wmul *****************
  2996 ;; Defined at:
  2997 ;;		line 15 in file "C:\Program Files\Microchip\xc8\v2.31\pic\sources\c90\common\Umul16.c"
  2998 ;; Parameters:    Size  Location     Type
  2999 ;;  multiplier      2    5[BANK0 ] unsigned int 
  3000 ;;  multiplicand    2    7[BANK0 ] unsigned int 
  3001 ;; Auto vars:     Size  Location     Type
  3002 ;;  product         2    8[COMMON] unsigned int 
  3003 ;; Return value:  Size  Location     Type
  3004 ;;                  2    5[BANK0 ] unsigned int 
  3005 ;; Registers used:
  3006 ;;		wreg, status,2, status,0
  3007 ;; Tracked objects:
  3008 ;;		On entry : 0/0
  3009 ;;		On exit  : 0/0
  3010 ;;		Unchanged: 0/0
  3011 ;; Data sizes:     COMMON   BANK0   BANK1   BANK3   BANK2
  3012 ;;      Params:         0       4       0       0       0
  3013 ;;      Locals:         2       0       0       0       0
  3014 ;;      Temps:          0       0       0       0       0
  3015 ;;      Totals:         2       4       0       0       0
  3016 ;;Total ram usage:        6 bytes
  3017 ;; Hardware stack levels used:    1
  3018 ;; Hardware stack levels required when called:    1
  3019 ;; This function calls:
  3020 ;;		Nothing
  3021 ;; This function is called by:
  3022 ;;		_convert
  3023 ;; This function uses a non-reentrant model
  3024 ;;
  3025                           
  3026                           
  3027                           ;psect for function ___wmul
  3028  150B                     ___wmul:
  3029  150B                     l2931:	
  3030                           ;incstack = 0
  3031                           ; Regs used in ___wmul: [wreg+status,2+status,0]
  3032                           
  3033  150B  01F8               	clrf	___wmul@product
  3034  150C  01F9               	clrf	___wmul@product+1
  3035  150D                     l2933:
  3036  150D  1283               	bcf	3,5	;RP0=0, select bank0
  3037  150E  1303               	bcf	3,6	;RP1=0, select bank0
  3038  150F  1C25               	btfss	___wmul@multiplier,0
  3039  1510  2D12               	goto	u4121
  3040  1511  2D13               	goto	u4120
  3041  1512                     u4121:
  3042  1512  2D19               	goto	l315
  3043  1513                     u4120:
  3044  1513                     l2935:
  3045  1513  0827               	movf	___wmul@multiplicand,w
  3046  1514  07F8               	addwf	___wmul@product,f
  3047  1515  1803               	skipnc
  3048  1516  0AF9               	incf	___wmul@product+1,f
  3049  1517  0828               	movf	___wmul@multiplicand+1,w
  3050  1518  07F9               	addwf	___wmul@product+1,f
  3051  1519                     l315:
  3052  1519  3001               	movlw	1
  3053  151A                     u4135:
  3054  151A  1003               	clrc
  3055  151B  0DA7               	rlf	___wmul@multiplicand,f
  3056  151C  0DA8               	rlf	___wmul@multiplicand+1,f
  3057  151D  3EFF               	addlw	-1
  3058  151E  1D03               	skipz
  3059  151F  2D1A               	goto	u4135
  3060  1520                     l2937:
  3061  1520  3001               	movlw	1
  3062  1521                     u4145:
  3063  1521  1003               	clrc
  3064  1522  0CA6               	rrf	___wmul@multiplier+1,f
  3065  1523  0CA5               	rrf	___wmul@multiplier,f
  3066  1524  3EFF               	addlw	-1
  3067  1525  1D03               	skipz
  3068  1526  2D21               	goto	u4145
  3069  1527                     l2939:
  3070  1527  0825               	movf	___wmul@multiplier,w
  3071  1528  0426               	iorwf	___wmul@multiplier+1,w
  3072  1529  1D03               	btfss	3,2
  3073  152A  2D2C               	goto	u4151
  3074  152B  2D2D               	goto	u4150
  3075  152C                     u4151:
  3076  152C  2D0D               	goto	l2933
  3077  152D                     u4150:
  3078  152D                     l2941:
  3079  152D  0879               	movf	___wmul@product+1,w
  3080  152E  00A6               	movwf	?___wmul+1
  3081  152F  0878               	movf	___wmul@product,w
  3082  1530  00A5               	movwf	?___wmul
  3083  1531                     l317:
  3084  1531  0008               	return
  3085  1532                     __end_of___wmul:
  3086                           
  3087                           	psect	text4
  3088  16E0                     __ptext4:	
  3089 ;; *************** function ___fltol *****************
  3090 ;; Defined at:
  3091 ;;		line 43 in file "C:\Program Files\Microchip\xc8\v2.31\pic\sources\c90\common\fltol.c"
  3092 ;; Parameters:    Size  Location     Type
  3093 ;;  f1              4    2[COMMON] unsigned int 
  3094 ;; Auto vars:     Size  Location     Type
  3095 ;;  exp1            1    7[COMMON] unsigned char 
  3096 ;;  sign1           1    6[COMMON] unsigned char 
  3097 ;; Return value:  Size  Location     Type
  3098 ;;                  4    2[COMMON] long 
  3099 ;; Registers used:
  3100 ;;		wreg, status,2, status,0
  3101 ;; Tracked objects:
  3102 ;;		On entry : 0/0
  3103 ;;		On exit  : 0/0
  3104 ;;		Unchanged: 0/0
  3105 ;; Data sizes:     COMMON   BANK0   BANK1   BANK3   BANK2
  3106 ;;      Params:         4       0       0       0       0
  3107 ;;      Locals:         2       0       0       0       0
  3108 ;;      Temps:          0       5       0       0       0
  3109 ;;      Totals:         6       5       0       0       0
  3110 ;;Total ram usage:       11 bytes
  3111 ;; Hardware stack levels used:    1
  3112 ;; Hardware stack levels required when called:    1
  3113 ;; This function calls:
  3114 ;;		Nothing
  3115 ;; This function is called by:
  3116 ;;		_convert
  3117 ;; This function uses a non-reentrant model
  3118 ;;
  3119                           
  3120                           
  3121                           ;psect for function ___fltol
  3122  16E0                     ___fltol:
  3123  16E0                     l3013:	
  3124                           ;incstack = 0
  3125                           ; Regs used in ___fltol: [wreg+status,2+status,0]
  3126                           
  3127  16E0  1003               	clrc
  3128  16E1  0D74               	rlf	___fltol@f1+2,w
  3129  16E2  0D75               	rlf	___fltol@f1+3,w
  3130  16E3  1283               	bcf	3,5	;RP0=0, select bank0
  3131  16E4  1303               	bcf	3,6	;RP1=0, select bank0
  3132  16E5  00A0               	movwf	??___fltol
  3133  16E6  0820               	movf	??___fltol,w
  3134  16E7  00F7               	movwf	___fltol@exp1
  3135  16E8  0877               	movf	___fltol@exp1,w
  3136  16E9  1D03               	btfss	3,2
  3137  16EA  2EEC               	goto	u4331
  3138  16EB  2EED               	goto	u4330
  3139  16EC                     u4331:
  3140  16EC  2EF6               	goto	l3019
  3141  16ED                     u4330:
  3142  16ED                     l3015:
  3143  16ED  3000               	movlw	0
  3144  16EE  00F5               	movwf	?___fltol+3
  3145  16EF  3000               	movlw	0
  3146  16F0  00F4               	movwf	?___fltol+2
  3147  16F1  3000               	movlw	0
  3148  16F2  00F3               	movwf	?___fltol+1
  3149  16F3  3000               	movlw	0
  3150  16F4  00F2               	movwf	?___fltol
  3151  16F5  2F5B               	goto	l501
  3152  16F6                     l3019:
  3153  16F6  0872               	movf	___fltol@f1,w
  3154  16F7  00A0               	movwf	??___fltol
  3155  16F8  0873               	movf	___fltol@f1+1,w
  3156  16F9  00A1               	movwf	??___fltol+1
  3157  16FA  0874               	movf	___fltol@f1+2,w
  3158  16FB  00A2               	movwf	??___fltol+2
  3159  16FC  0875               	movf	___fltol@f1+3,w
  3160  16FD  00A3               	movwf	??___fltol+3
  3161  16FE  301F               	movlw	31
  3162  16FF                     u4345:
  3163  16FF  1003               	clrc
  3164  1700  0CA3               	rrf	??___fltol+3,f
  3165  1701  0CA2               	rrf	??___fltol+2,f
  3166  1702  0CA1               	rrf	??___fltol+1,f
  3167  1703  0CA0               	rrf	??___fltol,f
  3168  1704                     u4340:
  3169  1704  3EFF               	addlw	-1
  3170  1705  1D03               	skipz
  3171  1706  2EFF               	goto	u4345
  3172  1707  0820               	movf	??___fltol,w
  3173  1708  00A4               	movwf	??___fltol+4
  3174  1709  0824               	movf	??___fltol+4,w
  3175  170A  00F6               	movwf	___fltol@sign1
  3176  170B                     l3021:
  3177  170B  17F4               	bsf	___fltol@f1+2,7
  3178  170C                     l3023:
  3179  170C  30FF               	movlw	255
  3180  170D  05F2               	andwf	___fltol@f1,f
  3181  170E  30FF               	movlw	255
  3182  170F  05F3               	andwf	___fltol@f1+1,f
  3183  1710  30FF               	movlw	255
  3184  1711  05F4               	andwf	___fltol@f1+2,f
  3185  1712  3000               	movlw	0
  3186  1713  05F5               	andwf	___fltol@f1+3,f
  3187  1714                     l3025:
  3188  1714  3096               	movlw	150
  3189  1715  02F7               	subwf	___fltol@exp1,f
  3190  1716                     l3027:
  3191  1716  1FF7               	btfss	___fltol@exp1,7
  3192  1717  2F19               	goto	u4351
  3193  1718  2F1A               	goto	u4350
  3194  1719                     u4351:
  3195  1719  2F34               	goto	l3037
  3196  171A                     u4350:
  3197  171A                     l3029:
  3198  171A  0877               	movf	___fltol@exp1,w
  3199  171B  3A80               	xorlw	128
  3200  171C  3E97               	addlw	151
  3201  171D  1803               	skipnc
  3202  171E  2F20               	goto	u4361
  3203  171F  2F21               	goto	u4360
  3204  1720                     u4361:
  3205  1720  2F22               	goto	l3035
  3206  1721                     u4360:
  3207  1721  2EED               	goto	l3015
  3208  1722                     l3035:
  3209  1722  3001               	movlw	1
  3210  1723                     u4375:
  3211  1723  1003               	clrc
  3212  1724  0CF5               	rrf	___fltol@f1+3,f
  3213  1725  0CF4               	rrf	___fltol@f1+2,f
  3214  1726  0CF3               	rrf	___fltol@f1+1,f
  3215  1727  0CF2               	rrf	___fltol@f1,f
  3216  1728  3EFF               	addlw	-1
  3217  1729  1D03               	skipz
  3218  172A  2F23               	goto	u4375
  3219  172B  3001               	movlw	1
  3220  172C  00A0               	movwf	??___fltol
  3221  172D  0820               	movf	??___fltol,w
  3222  172E  07F7               	addwf	___fltol@exp1,f
  3223  172F  1D03               	btfss	3,2
  3224  1730  2F32               	goto	u4381
  3225  1731  2F33               	goto	u4380
  3226  1732                     u4381:
  3227  1732  2F22               	goto	l3035
  3228  1733                     u4380:
  3229  1733  2F4B               	goto	l3045
  3230  1734                     l3037:
  3231  1734  3020               	movlw	32
  3232  1735  0277               	subwf	___fltol@exp1,w
  3233  1736  1C03               	skipc
  3234  1737  2F39               	goto	u4391
  3235  1738  2F3A               	goto	u4390
  3236  1739                     u4391:
  3237  1739  2F46               	goto	l508
  3238  173A                     u4390:
  3239  173A  2EED               	goto	l3015
  3240  173B                     l3043:
  3241  173B  3001               	movlw	1
  3242  173C  00A0               	movwf	??___fltol
  3243  173D                     u4405:
  3244  173D  1003               	clrc
  3245  173E  0DF2               	rlf	___fltol@f1,f
  3246  173F  0DF3               	rlf	___fltol@f1+1,f
  3247  1740  0DF4               	rlf	___fltol@f1+2,f
  3248  1741  0DF5               	rlf	___fltol@f1+3,f
  3249  1742  0BA0               	decfsz	??___fltol,f
  3250  1743  2F3D               	goto	u4405
  3251  1744  3001               	movlw	1
  3252  1745  02F7               	subwf	___fltol@exp1,f
  3253  1746                     l508:
  3254  1746  0877               	movf	___fltol@exp1,w
  3255  1747  1D03               	btfss	3,2
  3256  1748  2F4A               	goto	u4411
  3257  1749  2F4B               	goto	u4410
  3258  174A                     u4411:
  3259  174A  2F3B               	goto	l3043
  3260  174B                     u4410:
  3261  174B                     l3045:
  3262  174B  0876               	movf	___fltol@sign1,w
  3263  174C  1903               	btfsc	3,2
  3264  174D  2F4F               	goto	u4421
  3265  174E  2F50               	goto	u4420
  3266  174F                     u4421:
  3267  174F  2F5B               	goto	l511
  3268  1750                     u4420:
  3269  1750                     l3047:
  3270  1750  09F2               	comf	___fltol@f1,f
  3271  1751  09F3               	comf	___fltol@f1+1,f
  3272  1752  09F4               	comf	___fltol@f1+2,f
  3273  1753  09F5               	comf	___fltol@f1+3,f
  3274  1754  0AF2               	incf	___fltol@f1,f
  3275  1755  1903               	skipnz
  3276  1756  0AF3               	incf	___fltol@f1+1,f
  3277  1757  1903               	skipnz
  3278  1758  0AF4               	incf	___fltol@f1+2,f
  3279  1759  1903               	skipnz
  3280  175A  0AF5               	incf	___fltol@f1+3,f
  3281  175B                     l511:
  3282  175B                     l501:
  3283  175B  0008               	return
  3284  175C                     __end_of___fltol:
  3285                           
  3286                           	psect	text5
  3287  14E7                     __ptext5:	
  3288 ;; *************** function ___flsub *****************
  3289 ;; Defined at:
  3290 ;;		line 242 in file "C:\Program Files\Microchip\xc8\v2.31\pic\sources\c90\common\sprcadd.c"
  3291 ;; Parameters:    Size  Location     Type
  3292 ;;  a               4   23[BANK0 ] long 
  3293 ;;  b               4   27[BANK0 ] long 
  3294 ;; Auto vars:     Size  Location     Type
  3295 ;;		None
  3296 ;; Return value:  Size  Location     Type
  3297 ;;                  4   23[BANK0 ] long 
  3298 ;; Registers used:
  3299 ;;		wreg, status,2, status,0, btemp+1, pclath, cstack
  3300 ;; Tracked objects:
  3301 ;;		On entry : 0/0
  3302 ;;		On exit  : 0/0
  3303 ;;		Unchanged: 0/0
  3304 ;; Data sizes:     COMMON   BANK0   BANK1   BANK3   BANK2
  3305 ;;      Params:         0       8       0       0       0
  3306 ;;      Locals:         0       0       0       0       0
  3307 ;;      Temps:          0       0       0       0       0
  3308 ;;      Totals:         0       8       0       0       0
  3309 ;;Total ram usage:        8 bytes
  3310 ;; Hardware stack levels used:    1
  3311 ;; Hardware stack levels required when called:    2
  3312 ;; This function calls:
  3313 ;;		___fladd
  3314 ;; This function is called by:
  3315 ;;		_convert
  3316 ;; This function uses a non-reentrant model
  3317 ;;
  3318                           
  3319                           
  3320                           ;psect for function ___flsub
  3321  14E7                     ___flsub:
  3322  14E7                     l2255:	
  3323                           ;incstack = 0
  3324                           ; Regs used in ___flsub: [wreg+status,2+status,0+btemp+1+pclath+cstack]
  3325                           
  3326  14E7  3080               	movlw	128
  3327  14E8  1283               	bcf	3,5	;RP0=0, select bank0
  3328  14E9  1303               	bcf	3,6	;RP1=0, select bank0
  3329  14EA  06BA               	xorwf	___flsub@a+3,f
  3330  14EB                     l2257:
  3331  14EB  083E               	movf	___flsub@b+3,w
  3332  14EC  00F5               	movwf	___fladd@b+3
  3333  14ED  083D               	movf	___flsub@b+2,w
  3334  14EE  00F4               	movwf	___fladd@b+2
  3335  14EF  083C               	movf	___flsub@b+1,w
  3336  14F0  00F3               	movwf	___fladd@b+1
  3337  14F1  083B               	movf	___flsub@b,w
  3338  14F2  00F2               	movwf	___fladd@b
  3339  14F3  083A               	movf	___flsub@a+3,w
  3340  14F4  00F9               	movwf	___fladd@a+3
  3341  14F5  0839               	movf	___flsub@a+2,w
  3342  14F6  00F8               	movwf	___fladd@a+2
  3343  14F7  0838               	movf	___flsub@a+1,w
  3344  14F8  00F7               	movwf	___fladd@a+1
  3345  14F9  0837               	movf	___flsub@a,w
  3346  14FA  00F6               	movwf	___fladd@a
  3347  14FB  120A  158A  2578  160A  118A  	fcall	___fladd
  3348  1500  0875               	movf	?___fladd+3,w
  3349  1501  1283               	bcf	3,5	;RP0=0, select bank0
  3350  1502  1303               	bcf	3,6	;RP1=0, select bank0
  3351  1503  00BA               	movwf	?___flsub+3
  3352  1504  0874               	movf	?___fladd+2,w
  3353  1505  00B9               	movwf	?___flsub+2
  3354  1506  0873               	movf	?___fladd+1,w
  3355  1507  00B8               	movwf	?___flsub+1
  3356  1508  0872               	movf	?___fladd,w
  3357  1509  00B7               	movwf	?___flsub
  3358  150A                     l654:
  3359  150A  0008               	return
  3360  150B                     __end_of___flsub:
  3361                           
  3362                           	psect	text6
  3363  0D78                     __ptext6:	
  3364 ;; *************** function ___fladd *****************
  3365 ;; Defined at:
  3366 ;;		line 10 in file "C:\Program Files\Microchip\xc8\v2.31\pic\sources\c90\common\sprcadd.c"
  3367 ;; Parameters:    Size  Location     Type
  3368 ;;  b               4    2[COMMON] long 
  3369 ;;  a               4    6[COMMON] long 
  3370 ;; Auto vars:     Size  Location     Type
  3371 ;;  grs             1   11[BANK0 ] unsigned char 
  3372 ;;  bexp            1   10[BANK0 ] unsigned char 
  3373 ;;  aexp            1    9[BANK0 ] unsigned char 
  3374 ;;  signs           1    8[BANK0 ] unsigned char 
  3375 ;; Return value:  Size  Location     Type
  3376 ;;                  4    2[COMMON] unsigned char 
  3377 ;; Registers used:
  3378 ;;		wreg, status,2, status,0, btemp+1
  3379 ;; Tracked objects:
  3380 ;;		On entry : 0/0
  3381 ;;		On exit  : 0/0
  3382 ;;		Unchanged: 0/0
  3383 ;; Data sizes:     COMMON   BANK0   BANK1   BANK3   BANK2
  3384 ;;      Params:         8       0       0       0       0
  3385 ;;      Locals:         0       4       0       0       0
  3386 ;;      Temps:          0       8       0       0       0
  3387 ;;      Totals:         8      12       0       0       0
  3388 ;;Total ram usage:       20 bytes
  3389 ;; Hardware stack levels used:    1
  3390 ;; Hardware stack levels required when called:    1
  3391 ;; This function calls:
  3392 ;;		Nothing
  3393 ;; This function is called by:
  3394 ;;		___flsub
  3395 ;; This function uses a non-reentrant model
  3396 ;;
  3397                           
  3398                           
  3399                           ;psect for function ___fladd
  3400  0D78                     ___fladd:
  3401  0D78                     l1889:	
  3402                           ;incstack = 0
  3403                           ; Regs used in ___fladd: [wreg+status,2+status,0+btemp+1]
  3404                           
  3405  0D78  0875               	movf	___fladd@b+3,w
  3406  0D79  3980               	andlw	128
  3407  0D7A  1283               	bcf	3,5	;RP0=0, select bank0
  3408  0D7B  1303               	bcf	3,6	;RP1=0, select bank0
  3409  0D7C  00A0               	movwf	??___fladd
  3410  0D7D  0820               	movf	??___fladd,w
  3411  0D7E  00A8               	movwf	___fladd@signs
  3412  0D7F                     l1891:
  3413  0D7F  0875               	movf	___fladd@b+3,w
  3414  0D80  00A0               	movwf	??___fladd
  3415  0D81  0720               	addwf	??___fladd,w
  3416  0D82  00A1               	movwf	??___fladd+1
  3417  0D83  0821               	movf	??___fladd+1,w
  3418  0D84  00AA               	movwf	___fladd@bexp
  3419  0D85                     l1893:
  3420  0D85  1FF4               	btfss	___fladd@b+2,7
  3421  0D86  2D88               	goto	u2091
  3422  0D87  2D89               	goto	u2090
  3423  0D88                     u2091:
  3424  0D88  2D8A               	goto	l1897
  3425  0D89                     u2090:
  3426  0D89                     l1895:
  3427  0D89  142A               	bsf	___fladd@bexp,0
  3428  0D8A                     l1897:
  3429  0D8A  082A               	movf	___fladd@bexp,w
  3430  0D8B  1903               	btfsc	3,2
  3431  0D8C  2D8E               	goto	u2101
  3432  0D8D  2D8F               	goto	u2100
  3433  0D8E                     u2101:
  3434  0D8E  2D9F               	goto	l1907
  3435  0D8F                     u2100:
  3436  0D8F                     l1899:
  3437  0D8F  0A2A               	incf	___fladd@bexp,w
  3438  0D90  1D03               	btfss	3,2
  3439  0D91  2D93               	goto	u2111
  3440  0D92  2D94               	goto	u2110
  3441  0D93                     u2111:
  3442  0D93  2D9C               	goto	l1903
  3443  0D94                     u2110:
  3444  0D94                     l1901:
  3445  0D94  3000               	movlw	0
  3446  0D95  00F5               	movwf	___fladd@b+3
  3447  0D96  3000               	movlw	0
  3448  0D97  00F4               	movwf	___fladd@b+2
  3449  0D98  3000               	movlw	0
  3450  0D99  00F3               	movwf	___fladd@b+1
  3451  0D9A  3000               	movlw	0
  3452  0D9B  00F2               	movwf	___fladd@b
  3453  0D9C                     l1903:
  3454  0D9C  17F4               	bsf	___fladd@b+2,7
  3455  0D9D                     l1905:
  3456  0D9D  01F5               	clrf	___fladd@b+3
  3457  0D9E  2DA7               	goto	l1909
  3458  0D9F                     l1907:
  3459  0D9F  3000               	movlw	0
  3460  0DA0  00F5               	movwf	___fladd@b+3
  3461  0DA1  3000               	movlw	0
  3462  0DA2  00F4               	movwf	___fladd@b+2
  3463  0DA3  3000               	movlw	0
  3464  0DA4  00F3               	movwf	___fladd@b+1
  3465  0DA5  3000               	movlw	0
  3466  0DA6  00F2               	movwf	___fladd@b
  3467  0DA7                     l1909:
  3468  0DA7  0879               	movf	___fladd@a+3,w
  3469  0DA8  3980               	andlw	128
  3470  0DA9  00A0               	movwf	??___fladd
  3471  0DAA  0820               	movf	??___fladd,w
  3472  0DAB  00A9               	movwf	___fladd@aexp
  3473  0DAC                     l1911:
  3474  0DAC  0829               	movf	___fladd@aexp,w
  3475  0DAD  0628               	xorwf	___fladd@signs,w
  3476  0DAE  1903               	skipnz
  3477  0DAF  2DB1               	goto	u2121
  3478  0DB0  2DB2               	goto	u2120
  3479  0DB1                     u2121:
  3480  0DB1  2DB3               	goto	l1915
  3481  0DB2                     u2120:
  3482  0DB2                     l1913:
  3483  0DB2  1728               	bsf	___fladd@signs,6
  3484  0DB3                     l1915:
  3485  0DB3  0879               	movf	___fladd@a+3,w
  3486  0DB4  00A0               	movwf	??___fladd
  3487  0DB5  0720               	addwf	??___fladd,w
  3488  0DB6  00A1               	movwf	??___fladd+1
  3489  0DB7  0821               	movf	??___fladd+1,w
  3490  0DB8  00A9               	movwf	___fladd@aexp
  3491  0DB9                     l1917:
  3492  0DB9  1FF8               	btfss	___fladd@a+2,7
  3493  0DBA  2DBC               	goto	u2131
  3494  0DBB  2DBD               	goto	u2130
  3495  0DBC                     u2131:
  3496  0DBC  2DBE               	goto	l1921
  3497  0DBD                     u2130:
  3498  0DBD                     l1919:
  3499  0DBD  1429               	bsf	___fladd@aexp,0
  3500  0DBE                     l1921:
  3501  0DBE  0829               	movf	___fladd@aexp,w
  3502  0DBF  1903               	btfsc	3,2
  3503  0DC0  2DC2               	goto	u2141
  3504  0DC1  2DC3               	goto	u2140
  3505  0DC2                     u2141:
  3506  0DC2  2DD3               	goto	l1931
  3507  0DC3                     u2140:
  3508  0DC3                     l1923:
  3509  0DC3  0A29               	incf	___fladd@aexp,w
  3510  0DC4  1D03               	btfss	3,2
  3511  0DC5  2DC7               	goto	u2151
  3512  0DC6  2DC8               	goto	u2150
  3513  0DC7                     u2151:
  3514  0DC7  2DD0               	goto	l1927
  3515  0DC8                     u2150:
  3516  0DC8                     l1925:
  3517  0DC8  3000               	movlw	0
  3518  0DC9  00F9               	movwf	___fladd@a+3
  3519  0DCA  3000               	movlw	0
  3520  0DCB  00F8               	movwf	___fladd@a+2
  3521  0DCC  3000               	movlw	0
  3522  0DCD  00F7               	movwf	___fladd@a+1
  3523  0DCE  3000               	movlw	0
  3524  0DCF  00F6               	movwf	___fladd@a
  3525  0DD0                     l1927:
  3526  0DD0  17F8               	bsf	___fladd@a+2,7
  3527  0DD1                     l1929:
  3528  0DD1  01F9               	clrf	___fladd@a+3
  3529  0DD2  2DDB               	goto	l608
  3530  0DD3                     l1931:
  3531  0DD3  3000               	movlw	0
  3532  0DD4  00F9               	movwf	___fladd@a+3
  3533  0DD5  3000               	movlw	0
  3534  0DD6  00F8               	movwf	___fladd@a+2
  3535  0DD7  3000               	movlw	0
  3536  0DD8  00F7               	movwf	___fladd@a+1
  3537  0DD9  3000               	movlw	0
  3538  0DDA  00F6               	movwf	___fladd@a
  3539  0DDB                     l608:
  3540  0DDB  082A               	movf	___fladd@bexp,w
  3541  0DDC  0229               	subwf	___fladd@aexp,w
  3542  0DDD  1803               	skipnc
  3543  0DDE  2DE0               	goto	u2161
  3544  0DDF  2DE1               	goto	u2160
  3545  0DE0                     u2161:
  3546  0DE0  2E25               	goto	l1967
  3547  0DE1                     u2160:
  3548  0DE1                     l1933:
  3549  0DE1  1F28               	btfss	___fladd@signs,6
  3550  0DE2  2DE4               	goto	u2171
  3551  0DE3  2DE5               	goto	u2170
  3552  0DE4                     u2171:
  3553  0DE4  2DE9               	goto	l1937
  3554  0DE5                     u2170:
  3555  0DE5                     l1935:
  3556  0DE5  3080               	movlw	128
  3557  0DE6  00A0               	movwf	??___fladd
  3558  0DE7  0820               	movf	??___fladd,w
  3559  0DE8  06A8               	xorwf	___fladd@signs,f
  3560  0DE9                     l1937:
  3561  0DE9  082A               	movf	___fladd@bexp,w
  3562  0DEA  00A0               	movwf	??___fladd
  3563  0DEB  0820               	movf	??___fladd,w
  3564  0DEC  00AB               	movwf	___fladd@grs
  3565  0DED                     l1939:
  3566  0DED  0829               	movf	___fladd@aexp,w
  3567  0DEE  00A0               	movwf	??___fladd
  3568  0DEF  0820               	movf	??___fladd,w
  3569  0DF0  00AA               	movwf	___fladd@bexp
  3570  0DF1                     l1941:
  3571  0DF1  082B               	movf	___fladd@grs,w
  3572  0DF2  00A0               	movwf	??___fladd
  3573  0DF3  0820               	movf	??___fladd,w
  3574  0DF4  00A9               	movwf	___fladd@aexp
  3575  0DF5                     l1943:
  3576  0DF5  0872               	movf	___fladd@b,w
  3577  0DF6  00A0               	movwf	??___fladd
  3578  0DF7  0820               	movf	??___fladd,w
  3579  0DF8  00AB               	movwf	___fladd@grs
  3580  0DF9                     l1945:
  3581  0DF9  0876               	movf	___fladd@a,w
  3582  0DFA  00A0               	movwf	??___fladd
  3583  0DFB  0820               	movf	??___fladd,w
  3584  0DFC  00F2               	movwf	___fladd@b
  3585  0DFD                     l1947:
  3586  0DFD  082B               	movf	___fladd@grs,w
  3587  0DFE  00A0               	movwf	??___fladd
  3588  0DFF  0820               	movf	??___fladd,w
  3589  0E00  00F6               	movwf	___fladd@a
  3590  0E01                     l1949:
  3591  0E01  0873               	movf	___fladd@b+1,w
  3592  0E02  00A0               	movwf	??___fladd
  3593  0E03  0820               	movf	??___fladd,w
  3594  0E04  00AB               	movwf	___fladd@grs
  3595  0E05                     l1951:
  3596  0E05  0877               	movf	___fladd@a+1,w
  3597  0E06  00A0               	movwf	??___fladd
  3598  0E07  0820               	movf	??___fladd,w
  3599  0E08  00F3               	movwf	___fladd@b+1
  3600  0E09                     l1953:
  3601  0E09  082B               	movf	___fladd@grs,w
  3602  0E0A  00A0               	movwf	??___fladd
  3603  0E0B  0820               	movf	??___fladd,w
  3604  0E0C  00F7               	movwf	___fladd@a+1
  3605  0E0D                     l1955:
  3606  0E0D  0874               	movf	___fladd@b+2,w
  3607  0E0E  00A0               	movwf	??___fladd
  3608  0E0F  0820               	movf	??___fladd,w
  3609  0E10  00AB               	movwf	___fladd@grs
  3610  0E11                     l1957:
  3611  0E11  0878               	movf	___fladd@a+2,w
  3612  0E12  00A0               	movwf	??___fladd
  3613  0E13  0820               	movf	??___fladd,w
  3614  0E14  00F4               	movwf	___fladd@b+2
  3615  0E15                     l1959:
  3616  0E15  082B               	movf	___fladd@grs,w
  3617  0E16  00A0               	movwf	??___fladd
  3618  0E17  0820               	movf	??___fladd,w
  3619  0E18  00F8               	movwf	___fladd@a+2
  3620  0E19                     l1961:
  3621  0E19  0875               	movf	___fladd@b+3,w
  3622  0E1A  00A0               	movwf	??___fladd
  3623  0E1B  0820               	movf	??___fladd,w
  3624  0E1C  00AB               	movwf	___fladd@grs
  3625  0E1D                     l1963:
  3626  0E1D  0879               	movf	___fladd@a+3,w
  3627  0E1E  00A0               	movwf	??___fladd
  3628  0E1F  0820               	movf	??___fladd,w
  3629  0E20  00F5               	movwf	___fladd@b+3
  3630  0E21                     l1965:
  3631  0E21  082B               	movf	___fladd@grs,w
  3632  0E22  00A0               	movwf	??___fladd
  3633  0E23  0820               	movf	??___fladd,w
  3634  0E24  00F9               	movwf	___fladd@a+3
  3635  0E25                     l1967:
  3636  0E25  01AB               	clrf	___fladd@grs
  3637  0E26                     l1969:
  3638  0E26  0829               	movf	___fladd@aexp,w
  3639  0E27  00A0               	movwf	??___fladd
  3640  0E28  01A1               	clrf	??___fladd+1
  3641  0E29  0821               	movf	??___fladd+1,w
  3642  0E2A  00A3               	movwf	??___fladd+3
  3643  0E2B  082A               	movf	___fladd@bexp,w
  3644  0E2C  0220               	subwf	??___fladd,w
  3645  0E2D  00A2               	movwf	??___fladd+2
  3646  0E2E  1C03               	skipc
  3647  0E2F  03A3               	decf	??___fladd+3,f
  3648  0E30  0823               	movf	??___fladd+3,w
  3649  0E31  3A80               	xorlw	128
  3650  0E32  00FF               	movwf	btemp+1
  3651  0E33  3080               	movlw	128
  3652  0E34  027F               	subwf	btemp+1,w
  3653  0E35  1D03               	skipz
  3654  0E36  2E39               	goto	u2185
  3655  0E37  301A               	movlw	26
  3656  0E38  0222               	subwf	??___fladd+2,w
  3657  0E39                     u2185:
  3658  0E39  1C03               	skipc
  3659  0E3A  2E3C               	goto	u2181
  3660  0E3B  2E3D               	goto	u2180
  3661  0E3C                     u2181:
  3662  0E3C  2E7A               	goto	l1985
  3663  0E3D                     u2180:
  3664  0E3D                     l1971:
  3665  0E3D  0875               	movf	___fladd@b+3,w
  3666  0E3E  0474               	iorwf	___fladd@b+2,w
  3667  0E3F  0473               	iorwf	___fladd@b+1,w
  3668  0E40  0472               	iorwf	___fladd@b,w
  3669  0E41  1D03               	skipz
  3670  0E42  2E44               	goto	u2191
  3671  0E43  2E46               	goto	u2190
  3672  0E44                     u2191:
  3673  0E44  3001               	movlw	1
  3674  0E45  2E47               	goto	u2200
  3675  0E46                     u2190:
  3676  0E46  3000               	movlw	0
  3677  0E47                     u2200:
  3678  0E47  1283               	bcf	3,5	;RP0=0, select bank0
  3679  0E48  1303               	bcf	3,6	;RP1=0, select bank0
  3680  0E49  00A0               	movwf	??___fladd
  3681  0E4A  0820               	movf	??___fladd,w
  3682  0E4B  00AB               	movwf	___fladd@grs
  3683  0E4C  3000               	movlw	0
  3684  0E4D  00F5               	movwf	___fladd@b+3
  3685  0E4E  3000               	movlw	0
  3686  0E4F  00F4               	movwf	___fladd@b+2
  3687  0E50  3000               	movlw	0
  3688  0E51  00F3               	movwf	___fladd@b+1
  3689  0E52  3000               	movlw	0
  3690  0E53  00F2               	movwf	___fladd@b
  3691  0E54  0829               	movf	___fladd@aexp,w
  3692  0E55  00A0               	movwf	??___fladd
  3693  0E56  0820               	movf	??___fladd,w
  3694  0E57  00AA               	movwf	___fladd@bexp
  3695  0E58  2E82               	goto	l612
  3696  0E59                     l614:
  3697  0E59  1C2B               	btfss	___fladd@grs,0
  3698  0E5A  2E5C               	goto	u2211
  3699  0E5B  2E5D               	goto	u2210
  3700  0E5C                     u2211:
  3701  0E5C  2E66               	goto	l1975
  3702  0E5D                     u2210:
  3703  0E5D                     l1973:
  3704  0E5D  082B               	movf	___fladd@grs,w
  3705  0E5E  00A0               	movwf	??___fladd
  3706  0E5F  1003               	clrc
  3707  0E60  0C20               	rrf	??___fladd,w
  3708  0E61  3801               	iorlw	1
  3709  0E62  00A1               	movwf	??___fladd+1
  3710  0E63  0821               	movf	??___fladd+1,w
  3711  0E64  00AB               	movwf	___fladd@grs
  3712  0E65  2E68               	goto	l1977
  3713  0E66                     l1975:
  3714  0E66  1003               	clrc
  3715  0E67  0CAB               	rrf	___fladd@grs,f
  3716  0E68                     l1977:
  3717  0E68  1C72               	btfss	___fladd@b,0
  3718  0E69  2E6B               	goto	u2221
  3719  0E6A  2E6C               	goto	u2220
  3720  0E6B                     u2221:
  3721  0E6B  2E6D               	goto	l1981
  3722  0E6C                     u2220:
  3723  0E6C                     l1979:
  3724  0E6C  17AB               	bsf	___fladd@grs,7
  3725  0E6D                     l1981:
  3726  0E6D  3001               	movlw	1
  3727  0E6E  00A0               	movwf	??___fladd
  3728  0E6F                     u2235:
  3729  0E6F  0D75               	rlf	___fladd@b+3,w
  3730  0E70  0CF5               	rrf	___fladd@b+3,f
  3731  0E71  0CF4               	rrf	___fladd@b+2,f
  3732  0E72  0CF3               	rrf	___fladd@b+1,f
  3733  0E73  0CF2               	rrf	___fladd@b,f
  3734  0E74  0BA0               	decfsz	??___fladd& (0+127),f
  3735  0E75  2E6F               	goto	u2235
  3736  0E76                     l1983:
  3737  0E76  3001               	movlw	1
  3738  0E77  00A0               	movwf	??___fladd
  3739  0E78  0820               	movf	??___fladd,w
  3740  0E79  07AA               	addwf	___fladd@bexp,f
  3741  0E7A                     l1985:
  3742  0E7A  1283               	bcf	3,5	;RP0=0, select bank0
  3743  0E7B  1303               	bcf	3,6	;RP1=0, select bank0
  3744  0E7C  0829               	movf	___fladd@aexp,w
  3745  0E7D  022A               	subwf	___fladd@bexp,w
  3746  0E7E  1C03               	skipc
  3747  0E7F  2E81               	goto	u2241
  3748  0E80  2E82               	goto	u2240
  3749  0E81                     u2241:
  3750  0E81  2E59               	goto	l614
  3751  0E82                     u2240:
  3752  0E82                     l612:
  3753  0E82  1B28               	btfsc	___fladd@signs,6
  3754  0E83  2E85               	goto	u2251
  3755  0E84  2E86               	goto	u2250
  3756  0E85                     u2251:
  3757  0E85  2ED1               	goto	l2011
  3758  0E86                     u2250:
  3759  0E86                     l1987:
  3760  0E86  082A               	movf	___fladd@bexp,w
  3761  0E87  1D03               	btfss	3,2
  3762  0E88  2E8A               	goto	u2261
  3763  0E89  2E8B               	goto	u2260
  3764  0E8A                     u2261:
  3765  0E8A  2E94               	goto	l1993
  3766  0E8B                     u2260:
  3767  0E8B                     l1989:
  3768  0E8B  3000               	movlw	0
  3769  0E8C  00F5               	movwf	?___fladd+3
  3770  0E8D  3000               	movlw	0
  3771  0E8E  00F4               	movwf	?___fladd+2
  3772  0E8F  3000               	movlw	0
  3773  0E90  00F3               	movwf	?___fladd+1
  3774  0E91  3000               	movlw	0
  3775  0E92  00F2               	movwf	?___fladd
  3776  0E93  2FFF               	goto	l621
  3777  0E94                     l1993:
  3778  0E94  0876               	movf	___fladd@a,w
  3779  0E95  07F2               	addwf	___fladd@b,f
  3780  0E96  0877               	movf	___fladd@a+1,w
  3781  0E97  1103               	clrz
  3782  0E98  1803               	skipnc
  3783  0E99  3E01               	addlw	1
  3784  0E9A  1903               	skipnz
  3785  0E9B  2E9D               	goto	u2271
  3786  0E9C  07F3               	addwf	___fladd@b+1,f
  3787  0E9D                     u2271:
  3788  0E9D  0878               	movf	___fladd@a+2,w
  3789  0E9E  1103               	clrz
  3790  0E9F  1803               	skipnc
  3791  0EA0  3E01               	addlw	1
  3792  0EA1  1903               	skipnz
  3793  0EA2  2EA4               	goto	u2272
  3794  0EA3  07F4               	addwf	___fladd@b+2,f
  3795  0EA4                     u2272:
  3796  0EA4  0879               	movf	___fladd@a+3,w
  3797  0EA5  1103               	clrz
  3798  0EA6  1803               	skipnc
  3799  0EA7  3E01               	addlw	1
  3800  0EA8  1903               	skipnz
  3801  0EA9  2EAB               	goto	u2273
  3802  0EAA  07F5               	addwf	___fladd@b+3,f
  3803  0EAB                     u2273:
  3804  0EAB                     l1995:
  3805  0EAB  1C75               	btfss	___fladd@b+3,0
  3806  0EAC  2EAE               	goto	u2281
  3807  0EAD  2EAF               	goto	u2280
  3808  0EAE                     u2281:
  3809  0EAE  2F85               	goto	l2045
  3810  0EAF                     u2280:
  3811  0EAF                     l1997:
  3812  0EAF  1C2B               	btfss	___fladd@grs,0
  3813  0EB0  2EB2               	goto	u2291
  3814  0EB1  2EB3               	goto	u2290
  3815  0EB2                     u2291:
  3816  0EB2  2EBC               	goto	l2001
  3817  0EB3                     u2290:
  3818  0EB3                     l1999:
  3819  0EB3  082B               	movf	___fladd@grs,w
  3820  0EB4  00A0               	movwf	??___fladd
  3821  0EB5  1003               	clrc
  3822  0EB6  0C20               	rrf	??___fladd,w
  3823  0EB7  3801               	iorlw	1
  3824  0EB8  00A1               	movwf	??___fladd+1
  3825  0EB9  0821               	movf	??___fladd+1,w
  3826  0EBA  00AB               	movwf	___fladd@grs
  3827  0EBB  2EBE               	goto	l2003
  3828  0EBC                     l2001:
  3829  0EBC  1003               	clrc
  3830  0EBD  0CAB               	rrf	___fladd@grs,f
  3831  0EBE                     l2003:
  3832  0EBE  1C72               	btfss	___fladd@b,0
  3833  0EBF  2EC1               	goto	u2301
  3834  0EC0  2EC2               	goto	u2300
  3835  0EC1                     u2301:
  3836  0EC1  2EC3               	goto	l2007
  3837  0EC2                     u2300:
  3838  0EC2                     l2005:
  3839  0EC2  17AB               	bsf	___fladd@grs,7
  3840  0EC3                     l2007:
  3841  0EC3  3001               	movlw	1
  3842  0EC4  00A0               	movwf	??___fladd
  3843  0EC5                     u2315:
  3844  0EC5  0D75               	rlf	___fladd@b+3,w
  3845  0EC6  0CF5               	rrf	___fladd@b+3,f
  3846  0EC7  0CF4               	rrf	___fladd@b+2,f
  3847  0EC8  0CF3               	rrf	___fladd@b+1,f
  3848  0EC9  0CF2               	rrf	___fladd@b,f
  3849  0ECA  0BA0               	decfsz	??___fladd& (0+127),f
  3850  0ECB  2EC5               	goto	u2315
  3851  0ECC                     l2009:
  3852  0ECC  3001               	movlw	1
  3853  0ECD  00A0               	movwf	??___fladd
  3854  0ECE  0820               	movf	??___fladd,w
  3855  0ECF  07AA               	addwf	___fladd@bexp,f
  3856  0ED0  2F85               	goto	l2045
  3857  0ED1                     l2011:
  3858  0ED1  0875               	movf	___fladd@b+3,w
  3859  0ED2  3A80               	xorlw	128
  3860  0ED3  00FF               	movwf	btemp+1
  3861  0ED4  0879               	movf	___fladd@a+3,w
  3862  0ED5  3A80               	xorlw	128
  3863  0ED6  027F               	subwf	btemp+1,w
  3864  0ED7  1D03               	skipz
  3865  0ED8  2EE3               	goto	u2323
  3866  0ED9  0878               	movf	___fladd@a+2,w
  3867  0EDA  0274               	subwf	___fladd@b+2,w
  3868  0EDB  1D03               	skipz
  3869  0EDC  2EE3               	goto	u2323
  3870  0EDD  0877               	movf	___fladd@a+1,w
  3871  0EDE  0273               	subwf	___fladd@b+1,w
  3872  0EDF  1D03               	skipz
  3873  0EE0  2EE3               	goto	u2323
  3874  0EE1  0876               	movf	___fladd@a,w
  3875  0EE2  0272               	subwf	___fladd@b,w
  3876  0EE3                     u2323:
  3877  0EE3  1803               	skipnc
  3878  0EE4  2EE6               	goto	u2321
  3879  0EE5  2EE7               	goto	u2320
  3880  0EE6                     u2321:
  3881  0EE6  2F3F               	goto	l2021
  3882  0EE7                     u2320:
  3883  0EE7                     l2013:
  3884  0EE7  30FF               	movlw	255
  3885  0EE8  00A0               	movwf	??___fladd
  3886  0EE9  30FF               	movlw	255
  3887  0EEA  00A1               	movwf	??___fladd+1
  3888  0EEB  30FF               	movlw	255
  3889  0EEC  00A2               	movwf	??___fladd+2
  3890  0EED  30FF               	movlw	255
  3891  0EEE  00A3               	movwf	??___fladd+3
  3892  0EEF  0876               	movf	___fladd@a,w
  3893  0EF0  00A4               	movwf	??___fladd+4
  3894  0EF1  0877               	movf	___fladd@a+1,w
  3895  0EF2  00A5               	movwf	??___fladd+5
  3896  0EF3  0878               	movf	___fladd@a+2,w
  3897  0EF4  00A6               	movwf	??___fladd+6
  3898  0EF5  0879               	movf	___fladd@a+3,w
  3899  0EF6  00A7               	movwf	??___fladd+7
  3900  0EF7  0872               	movf	___fladd@b,w
  3901  0EF8  02A4               	subwf	??___fladd+4,f
  3902  0EF9  0873               	movf	___fladd@b+1,w
  3903  0EFA  1C03               	skipc
  3904  0EFB  0F73               	incfsz	___fladd@b+1,w
  3905  0EFC  2EFE               	goto	u2331
  3906  0EFD  2EFF               	goto	u2332
  3907  0EFE                     u2331:
  3908  0EFE  02A5               	subwf	??___fladd+5,f
  3909  0EFF                     u2332:
  3910  0EFF  0874               	movf	___fladd@b+2,w
  3911  0F00  1C03               	skipc
  3912  0F01  0F74               	incfsz	___fladd@b+2,w
  3913  0F02  2F04               	goto	u2333
  3914  0F03  2F05               	goto	u2334
  3915  0F04                     u2333:
  3916  0F04  02A6               	subwf	??___fladd+6,f
  3917  0F05                     u2334:
  3918  0F05  0875               	movf	___fladd@b+3,w
  3919  0F06  1C03               	skipc
  3920  0F07  0F75               	incfsz	___fladd@b+3,w
  3921  0F08  2F0A               	goto	u2335
  3922  0F09  2F0B               	goto	u2336
  3923  0F0A                     u2335:
  3924  0F0A  02A7               	subwf	??___fladd+7,f
  3925  0F0B                     u2336:
  3926  0F0B  0824               	movf	??___fladd+4,w
  3927  0F0C  07A0               	addwf	??___fladd,f
  3928  0F0D  0825               	movf	??___fladd+5,w
  3929  0F0E  1803               	skipnc
  3930  0F0F  0F25               	incfsz	??___fladd+5,w
  3931  0F10  2F12               	goto	u2340
  3932  0F11  2F13               	goto	u2341
  3933  0F12                     u2340:
  3934  0F12  07A1               	addwf	??___fladd+1,f
  3935  0F13                     u2341:
  3936  0F13  0826               	movf	??___fladd+6,w
  3937  0F14  1803               	skipnc
  3938  0F15  0F26               	incfsz	??___fladd+6,w
  3939  0F16  2F18               	goto	u2342
  3940  0F17  2F19               	goto	u2343
  3941  0F18                     u2342:
  3942  0F18  07A2               	addwf	??___fladd+2,f
  3943  0F19                     u2343:
  3944  0F19  0827               	movf	??___fladd+7,w
  3945  0F1A  1803               	skipnc
  3946  0F1B  0A27               	incf	??___fladd+7,w
  3947  0F1C  07A3               	addwf	??___fladd+3,f
  3948  0F1D  0823               	movf	??___fladd+3,w
  3949  0F1E  00F5               	movwf	___fladd@b+3
  3950  0F1F  0822               	movf	??___fladd+2,w
  3951  0F20  00F4               	movwf	___fladd@b+2
  3952  0F21  0821               	movf	??___fladd+1,w
  3953  0F22  00F3               	movwf	___fladd@b+1
  3954  0F23  0820               	movf	??___fladd,w
  3955  0F24  00F2               	movwf	___fladd@b
  3956  0F25                     l2015:
  3957  0F25  3080               	movlw	128
  3958  0F26  00A0               	movwf	??___fladd
  3959  0F27  0820               	movf	??___fladd,w
  3960  0F28  06A8               	xorwf	___fladd@signs,f
  3961  0F29  09AB               	comf	___fladd@grs,f
  3962  0F2A  0AAB               	incf	___fladd@grs,f
  3963  0F2B                     l2017:
  3964  0F2B  082B               	movf	___fladd@grs,w
  3965  0F2C  1D03               	btfss	3,2
  3966  0F2D  2F2F               	goto	u2351
  3967  0F2E  2F30               	goto	u2350
  3968  0F2F                     u2351:
  3969  0F2F  2F4D               	goto	l629
  3970  0F30                     u2350:
  3971  0F30                     l2019:
  3972  0F30  3001               	movlw	1
  3973  0F31  07F2               	addwf	___fladd@b,f
  3974  0F32  3000               	movlw	0
  3975  0F33  1803               	skipnc
  3976  0F34  3001               	movlw	1
  3977  0F35  07F3               	addwf	___fladd@b+1,f
  3978  0F36  3000               	movlw	0
  3979  0F37  1803               	skipnc
  3980  0F38  3001               	movlw	1
  3981  0F39  07F4               	addwf	___fladd@b+2,f
  3982  0F3A  3000               	movlw	0
  3983  0F3B  1803               	skipnc
  3984  0F3C  3001               	movlw	1
  3985  0F3D  07F5               	addwf	___fladd@b+3,f
  3986  0F3E  2F4D               	goto	l629
  3987  0F3F                     l2021:
  3988  0F3F  0876               	movf	___fladd@a,w
  3989  0F40  02F2               	subwf	___fladd@b,f
  3990  0F41  0877               	movf	___fladd@a+1,w
  3991  0F42  1C03               	skipc
  3992  0F43  0F77               	incfsz	___fladd@a+1,w
  3993  0F44  02F3               	subwf	___fladd@b+1,f
  3994  0F45  0878               	movf	___fladd@a+2,w
  3995  0F46  1C03               	skipc
  3996  0F47  0F78               	incfsz	___fladd@a+2,w
  3997  0F48  02F4               	subwf	___fladd@b+2,f
  3998  0F49  0879               	movf	___fladd@a+3,w
  3999  0F4A  1C03               	skipc
  4000  0F4B  0F79               	incfsz	___fladd@a+3,w
  4001  0F4C  02F5               	subwf	___fladd@b+3,f
  4002  0F4D                     l629:
  4003  0F4D  0875               	movf	___fladd@b+3,w
  4004  0F4E  0474               	iorwf	___fladd@b+2,w
  4005  0F4F  0473               	iorwf	___fladd@b+1,w
  4006  0F50  0472               	iorwf	___fladd@b,w
  4007  0F51  1D03               	skipz
  4008  0F52  2F54               	goto	u2361
  4009  0F53  2F55               	goto	u2360
  4010  0F54                     u2361:
  4011  0F54  2F81               	goto	l2043
  4012  0F55                     u2360:
  4013  0F55                     l2023:
  4014  0F55  082B               	movf	___fladd@grs,w
  4015  0F56  1D03               	btfss	3,2
  4016  0F57  2F59               	goto	u2371
  4017  0F58  2F5A               	goto	u2370
  4018  0F59                     u2371:
  4019  0F59  2F81               	goto	l2043
  4020  0F5A                     u2370:
  4021  0F5A                     l2025:
  4022  0F5A  3000               	movlw	0
  4023  0F5B  00F5               	movwf	?___fladd+3
  4024  0F5C  3000               	movlw	0
  4025  0F5D  00F4               	movwf	?___fladd+2
  4026  0F5E  3000               	movlw	0
  4027  0F5F  00F3               	movwf	?___fladd+1
  4028  0F60  3000               	movlw	0
  4029  0F61  00F2               	movwf	?___fladd
  4030  0F62  2FFF               	goto	l621
  4031  0F63                     l2029:
  4032  0F63  3001               	movlw	1
  4033  0F64  00A0               	movwf	??___fladd
  4034  0F65                     u2385:
  4035  0F65  1003               	clrc
  4036  0F66  0DF2               	rlf	___fladd@b,f
  4037  0F67  0DF3               	rlf	___fladd@b+1,f
  4038  0F68  0DF4               	rlf	___fladd@b+2,f
  4039  0F69  0DF5               	rlf	___fladd@b+3,f
  4040  0F6A  0BA0               	decfsz	??___fladd,f
  4041  0F6B  2F65               	goto	u2385
  4042  0F6C                     l2031:
  4043  0F6C  1FAB               	btfss	___fladd@grs,7
  4044  0F6D  2F6F               	goto	u2391
  4045  0F6E  2F70               	goto	u2390
  4046  0F6F                     u2391:
  4047  0F6F  2F71               	goto	l633
  4048  0F70                     u2390:
  4049  0F70                     l2033:
  4050  0F70  1472               	bsf	___fladd@b,0
  4051  0F71                     l633:
  4052  0F71  1C2B               	btfss	___fladd@grs,0
  4053  0F72  2F74               	goto	u2401
  4054  0F73  2F75               	goto	u2400
  4055  0F74                     u2401:
  4056  0F74  2F78               	goto	l2037
  4057  0F75                     u2400:
  4058  0F75                     l2035:
  4059  0F75  1403               	setc
  4060  0F76  0DAB               	rlf	___fladd@grs,f
  4061  0F77  2F7A               	goto	l2039
  4062  0F78                     l2037:
  4063  0F78  1003               	clrc
  4064  0F79  0DAB               	rlf	___fladd@grs,f
  4065  0F7A                     l2039:
  4066  0F7A  082A               	movf	___fladd@bexp,w
  4067  0F7B  1903               	btfsc	3,2
  4068  0F7C  2F7E               	goto	u2411
  4069  0F7D  2F7F               	goto	u2410
  4070  0F7E                     u2411:
  4071  0F7E  2F81               	goto	l2043
  4072  0F7F                     u2410:
  4073  0F7F                     l2041:
  4074  0F7F  3001               	movlw	1
  4075  0F80  02AA               	subwf	___fladd@bexp,f
  4076  0F81                     l2043:
  4077  0F81  1FF4               	btfss	___fladd@b+2,7
  4078  0F82  2F84               	goto	u2421
  4079  0F83  2F85               	goto	u2420
  4080  0F84                     u2421:
  4081  0F84  2F63               	goto	l2029
  4082  0F85                     u2420:
  4083  0F85                     l2045:
  4084  0F85  01A9               	clrf	___fladd@aexp
  4085  0F86                     l2047:
  4086  0F86  1FAB               	btfss	___fladd@grs,7
  4087  0F87  2F89               	goto	u2431
  4088  0F88  2F8A               	goto	u2430
  4089  0F89                     u2431:
  4090  0F89  2F98               	goto	l2055
  4091  0F8A                     u2430:
  4092  0F8A                     l2049:
  4093  0F8A  082B               	movf	___fladd@grs,w
  4094  0F8B  397F               	andlw	127
  4095  0F8C  1903               	btfsc	3,2
  4096  0F8D  2F8F               	goto	u2441
  4097  0F8E  2F90               	goto	u2440
  4098  0F8F                     u2441:
  4099  0F8F  2F93               	goto	l639
  4100  0F90                     u2440:
  4101  0F90                     l2051:
  4102  0F90  01A9               	clrf	___fladd@aexp
  4103  0F91  0AA9               	incf	___fladd@aexp,f
  4104  0F92  2F98               	goto	l2055
  4105  0F93                     l639:
  4106  0F93  1C72               	btfss	___fladd@b,0
  4107  0F94  2F96               	goto	u2451
  4108  0F95  2F97               	goto	u2450
  4109  0F96                     u2451:
  4110  0F96  2F98               	goto	l2055
  4111  0F97                     u2450:
  4112  0F97  2F90               	goto	l2051
  4113  0F98                     l2055:
  4114  0F98  0829               	movf	___fladd@aexp,w
  4115  0F99  1903               	btfsc	3,2
  4116  0F9A  2F9C               	goto	u2461
  4117  0F9B  2F9D               	goto	u2460
  4118  0F9C                     u2461:
  4119  0F9C  2FD1               	goto	l642
  4120  0F9D                     u2460:
  4121  0F9D                     l2057:
  4122  0F9D  3001               	movlw	1
  4123  0F9E  07F2               	addwf	___fladd@b,f
  4124  0F9F  3000               	movlw	0
  4125  0FA0  1803               	skipnc
  4126  0FA1  3001               	movlw	1
  4127  0FA2  07F3               	addwf	___fladd@b+1,f
  4128  0FA3  3000               	movlw	0
  4129  0FA4  1803               	skipnc
  4130  0FA5  3001               	movlw	1
  4131  0FA6  07F4               	addwf	___fladd@b+2,f
  4132  0FA7  3000               	movlw	0
  4133  0FA8  1803               	skipnc
  4134  0FA9  3001               	movlw	1
  4135  0FAA  07F5               	addwf	___fladd@b+3,f
  4136  0FAB                     l2059:
  4137  0FAB  1C75               	btfss	___fladd@b+3,0
  4138  0FAC  2FAE               	goto	u2471
  4139  0FAD  2FAF               	goto	u2470
  4140  0FAE                     u2471:
  4141  0FAE  2FD1               	goto	l642
  4142  0FAF                     u2470:
  4143  0FAF                     l2061:
  4144  0FAF  0872               	movf	___fladd@b,w
  4145  0FB0  00A0               	movwf	??___fladd
  4146  0FB1  0873               	movf	___fladd@b+1,w
  4147  0FB2  00A1               	movwf	??___fladd+1
  4148  0FB3  0874               	movf	___fladd@b+2,w
  4149  0FB4  00A2               	movwf	??___fladd+2
  4150  0FB5  0875               	movf	___fladd@b+3,w
  4151  0FB6  00A3               	movwf	??___fladd+3
  4152  0FB7  3001               	movlw	1
  4153  0FB8  00A4               	movwf	??___fladd+4
  4154  0FB9                     u2485:
  4155  0FB9  0D23               	rlf	??___fladd+3,w
  4156  0FBA  0CA3               	rrf	??___fladd+3,f
  4157  0FBB  0CA2               	rrf	??___fladd+2,f
  4158  0FBC  0CA1               	rrf	??___fladd+1,f
  4159  0FBD  0CA0               	rrf	??___fladd,f
  4160  0FBE                     u2480:
  4161  0FBE  0BA4               	decfsz	??___fladd+4,f
  4162  0FBF  2FB9               	goto	u2485
  4163  0FC0  0823               	movf	??___fladd+3,w
  4164  0FC1  00F5               	movwf	___fladd@b+3
  4165  0FC2  0822               	movf	??___fladd+2,w
  4166  0FC3  00F4               	movwf	___fladd@b+2
  4167  0FC4  0821               	movf	??___fladd+1,w
  4168  0FC5  00F3               	movwf	___fladd@b+1
  4169  0FC6  0820               	movf	??___fladd,w
  4170  0FC7  00F2               	movwf	___fladd@b
  4171  0FC8  0A2A               	incf	___fladd@bexp,w
  4172  0FC9  1903               	btfsc	3,2
  4173  0FCA  2FCC               	goto	u2491
  4174  0FCB  2FCD               	goto	u2490
  4175  0FCC                     u2491:
  4176  0FCC  2FD1               	goto	l642
  4177  0FCD                     u2490:
  4178  0FCD                     l2063:
  4179  0FCD  3001               	movlw	1
  4180  0FCE  00A0               	movwf	??___fladd
  4181  0FCF  0820               	movf	??___fladd,w
  4182  0FD0  07AA               	addwf	___fladd@bexp,f
  4183  0FD1                     l642:
  4184  0FD1  0A2A               	incf	___fladd@bexp,w
  4185  0FD2  1903               	btfsc	3,2
  4186  0FD3  2FD5               	goto	u2501
  4187  0FD4  2FD6               	goto	u2500
  4188  0FD5                     u2501:
  4189  0FD5  2FDB               	goto	l2067
  4190  0FD6                     u2500:
  4191  0FD6                     l2065:
  4192  0FD6  082A               	movf	___fladd@bexp,w
  4193  0FD7  1D03               	btfss	3,2
  4194  0FD8  2FDA               	goto	u2511
  4195  0FD9  2FDB               	goto	u2510
  4196  0FDA                     u2511:
  4197  0FDA  2FE9               	goto	l2073
  4198  0FDB                     u2510:
  4199  0FDB                     l2067:
  4200  0FDB  3000               	movlw	0
  4201  0FDC  00F5               	movwf	___fladd@b+3
  4202  0FDD  3000               	movlw	0
  4203  0FDE  00F4               	movwf	___fladd@b+2
  4204  0FDF  3000               	movlw	0
  4205  0FE0  00F3               	movwf	___fladd@b+1
  4206  0FE1  3000               	movlw	0
  4207  0FE2  00F2               	movwf	___fladd@b
  4208  0FE3                     l2069:
  4209  0FE3  082A               	movf	___fladd@bexp,w
  4210  0FE4  1D03               	btfss	3,2
  4211  0FE5  2FE7               	goto	u2521
  4212  0FE6  2FE8               	goto	u2520
  4213  0FE7                     u2521:
  4214  0FE7  2FE9               	goto	l2073
  4215  0FE8                     u2520:
  4216  0FE8                     l2071:
  4217  0FE8  01A8               	clrf	___fladd@signs
  4218  0FE9                     l2073:
  4219  0FE9  1C2A               	btfss	___fladd@bexp,0
  4220  0FEA  2FEC               	goto	u2531
  4221  0FEB  2FED               	goto	u2530
  4222  0FEC                     u2531:
  4223  0FEC  2FEF               	goto	l2077
  4224  0FED                     u2530:
  4225  0FED                     l2075:
  4226  0FED  17F4               	bsf	___fladd@b+2,7
  4227  0FEE  2FF3               	goto	l650
  4228  0FEF                     l2077:
  4229  0FEF  307F               	movlw	127
  4230  0FF0  00A0               	movwf	??___fladd
  4231  0FF1  0820               	movf	??___fladd,w
  4232  0FF2  05F4               	andwf	___fladd@b+2,f
  4233  0FF3                     l650:
  4234  0FF3  082A               	movf	___fladd@bexp,w
  4235  0FF4  00A0               	movwf	??___fladd
  4236  0FF5  1003               	clrc
  4237  0FF6  0C20               	rrf	??___fladd,w
  4238  0FF7  00A1               	movwf	??___fladd+1
  4239  0FF8  0821               	movf	??___fladd+1,w
  4240  0FF9  00F5               	movwf	___fladd@b+3
  4241  0FFA                     l2079:
  4242  0FFA  1FA8               	btfss	___fladd@signs,7
  4243  0FFB  2FFD               	goto	u2541
  4244  0FFC  2FFE               	goto	u2540
  4245  0FFD                     u2541:
  4246  0FFD  2FFF               	goto	l651
  4247  0FFE                     u2540:
  4248  0FFE                     l2081:
  4249  0FFE  17F5               	bsf	___fladd@b+3,7
  4250  0FFF                     l651:
  4251  0FFF                     l621:
  4252  0FFF  0008               	return
  4253  1000                     __end_of___fladd:
  4254                           
  4255                           	psect	text7
  4256  0480                     __ptext7:	
  4257 ;; *************** function ___flmul *****************
  4258 ;; Defined at:
  4259 ;;		line 8 in file "C:\Program Files\Microchip\xc8\v2.31\pic\sources\c90\common\sprcmul.c"
  4260 ;; Parameters:    Size  Location     Type
  4261 ;;  b               4   49[BANK0 ] unsigned char 
  4262 ;;  a               4   53[BANK0 ] unsigned char 
  4263 ;; Auto vars:     Size  Location     Type
  4264 ;;  prod            4   69[BANK0 ] struct .
  4265 ;;  grs             4   64[BANK0 ] unsigned long 
  4266 ;;  temp            2   73[BANK0 ] struct .
  4267 ;;  bexp            1   68[BANK0 ] unsigned char 
  4268 ;;  aexp            1   63[BANK0 ] unsigned char 
  4269 ;;  sign            1   62[BANK0 ] unsigned char 
  4270 ;; Return value:  Size  Location     Type
  4271 ;;                  4   49[BANK0 ] unsigned char 
  4272 ;; Registers used:
  4273 ;;		wreg, status,2, status,0, btemp+1, pclath, cstack
  4274 ;; Tracked objects:
  4275 ;;		On entry : 0/0
  4276 ;;		On exit  : 0/0
  4277 ;;		Unchanged: 0/0
  4278 ;; Data sizes:     COMMON   BANK0   BANK1   BANK3   BANK2
  4279 ;;      Params:         0       8       0       0       0
  4280 ;;      Locals:         0      13       0       0       0
  4281 ;;      Temps:          0       5       0       0       0
  4282 ;;      Totals:         0      26       0       0       0
  4283 ;;Total ram usage:       26 bytes
  4284 ;; Hardware stack levels used:    1
  4285 ;; Hardware stack levels required when called:    2
  4286 ;; This function calls:
  4287 ;;		__Umul8_16
  4288 ;; This function is called by:
  4289 ;;		_main
  4290 ;;		_convert
  4291 ;; This function uses a non-reentrant model
  4292 ;;
  4293                           
  4294                           
  4295                           ;psect for function ___flmul
  4296  0480                     ___flmul:
  4297  0480                     l3049:	
  4298                           ;incstack = 0
  4299                           ; Regs used in ___flmul: [wreg+status,2+status,0+btemp+1+pclath+cstack]
  4300                           
  4301  0480  1283               	bcf	3,5	;RP0=0, select bank0
  4302  0481  1303               	bcf	3,6	;RP1=0, select bank0
  4303  0482  0854               	movf	___flmul@b+3,w
  4304  0483  3980               	andlw	128
  4305  0484  00D9               	movwf	??___flmul
  4306  0485  0859               	movf	??___flmul,w
  4307  0486  00DE               	movwf	___flmul@sign
  4308  0487                     l3051:
  4309  0487  0854               	movf	___flmul@b+3,w
  4310  0488  00D9               	movwf	??___flmul
  4311  0489  0759               	addwf	??___flmul,w
  4312  048A  00DA               	movwf	??___flmul+1
  4313  048B  085A               	movf	??___flmul+1,w
  4314  048C  00E4               	movwf	___flmul@bexp
  4315  048D                     l3053:
  4316  048D  1FD3               	btfss	___flmul@b+2,7
  4317  048E  2C90               	goto	u4431
  4318  048F  2C91               	goto	u4430
  4319  0490                     u4431:
  4320  0490  2C92               	goto	l3057
  4321  0491                     u4430:
  4322  0491                     l3055:
  4323  0491  1464               	bsf	___flmul@bexp,0
  4324  0492                     l3057:
  4325  0492  0864               	movf	___flmul@bexp,w
  4326  0493  1903               	btfsc	3,2
  4327  0494  2C96               	goto	u4441
  4328  0495  2C97               	goto	u4440
  4329  0496                     u4441:
  4330  0496  2CA6               	goto	l3065
  4331  0497                     u4440:
  4332  0497                     l3059:
  4333  0497  0A64               	incf	___flmul@bexp,w
  4334  0498  1D03               	btfss	3,2
  4335  0499  2C9B               	goto	u4451
  4336  049A  2C9C               	goto	u4450
  4337  049B                     u4451:
  4338  049B  2CA4               	goto	l3063
  4339  049C                     u4450:
  4340  049C                     l3061:
  4341  049C  3000               	movlw	0
  4342  049D  00D4               	movwf	___flmul@b+3
  4343  049E  3000               	movlw	0
  4344  049F  00D3               	movwf	___flmul@b+2
  4345  04A0  3000               	movlw	0
  4346  04A1  00D2               	movwf	___flmul@b+1
  4347  04A2  3000               	movlw	0
  4348  04A3  00D1               	movwf	___flmul@b
  4349  04A4                     l3063:
  4350  04A4  17D3               	bsf	___flmul@b+2,7
  4351  04A5  2CAE               	goto	l3067
  4352  04A6                     l3065:
  4353  04A6  3000               	movlw	0
  4354  04A7  00D4               	movwf	___flmul@b+3
  4355  04A8  3000               	movlw	0
  4356  04A9  00D3               	movwf	___flmul@b+2
  4357  04AA  3000               	movlw	0
  4358  04AB  00D2               	movwf	___flmul@b+1
  4359  04AC  3000               	movlw	0
  4360  04AD  00D1               	movwf	___flmul@b
  4361  04AE                     l3067:
  4362  04AE  0858               	movf	___flmul@a+3,w
  4363  04AF  3980               	andlw	128
  4364  04B0  00D9               	movwf	??___flmul
  4365  04B1  0859               	movf	??___flmul,w
  4366  04B2  06DE               	xorwf	___flmul@sign,f
  4367  04B3                     l3069:
  4368  04B3  0858               	movf	___flmul@a+3,w
  4369  04B4  00D9               	movwf	??___flmul
  4370  04B5  0759               	addwf	??___flmul,w
  4371  04B6  00DA               	movwf	??___flmul+1
  4372  04B7  085A               	movf	??___flmul+1,w
  4373  04B8  00DF               	movwf	___flmul@aexp
  4374  04B9                     l3071:
  4375  04B9  1FD7               	btfss	___flmul@a+2,7
  4376  04BA  2CBC               	goto	u4461
  4377  04BB  2CBD               	goto	u4460
  4378  04BC                     u4461:
  4379  04BC  2CBE               	goto	l3075
  4380  04BD                     u4460:
  4381  04BD                     l3073:
  4382  04BD  145F               	bsf	___flmul@aexp,0
  4383  04BE                     l3075:
  4384  04BE  085F               	movf	___flmul@aexp,w
  4385  04BF  1903               	btfsc	3,2
  4386  04C0  2CC2               	goto	u4471
  4387  04C1  2CC3               	goto	u4470
  4388  04C2                     u4471:
  4389  04C2  2CD2               	goto	l3083
  4390  04C3                     u4470:
  4391  04C3                     l3077:
  4392  04C3  0A5F               	incf	___flmul@aexp,w
  4393  04C4  1D03               	btfss	3,2
  4394  04C5  2CC7               	goto	u4481
  4395  04C6  2CC8               	goto	u4480
  4396  04C7                     u4481:
  4397  04C7  2CD0               	goto	l3081
  4398  04C8                     u4480:
  4399  04C8                     l3079:
  4400  04C8  3000               	movlw	0
  4401  04C9  00D8               	movwf	___flmul@a+3
  4402  04CA  3000               	movlw	0
  4403  04CB  00D7               	movwf	___flmul@a+2
  4404  04CC  3000               	movlw	0
  4405  04CD  00D6               	movwf	___flmul@a+1
  4406  04CE  3000               	movlw	0
  4407  04CF  00D5               	movwf	___flmul@a
  4408  04D0                     l3081:
  4409  04D0  17D7               	bsf	___flmul@a+2,7
  4410  04D1  2CDA               	goto	l3085
  4411  04D2                     l3083:
  4412  04D2  3000               	movlw	0
  4413  04D3  00D8               	movwf	___flmul@a+3
  4414  04D4  3000               	movlw	0
  4415  04D5  00D7               	movwf	___flmul@a+2
  4416  04D6  3000               	movlw	0
  4417  04D7  00D6               	movwf	___flmul@a+1
  4418  04D8  3000               	movlw	0
  4419  04D9  00D5               	movwf	___flmul@a
  4420  04DA                     l3085:
  4421  04DA  085F               	movf	___flmul@aexp,w
  4422  04DB  1903               	btfsc	3,2
  4423  04DC  2CDE               	goto	u4491
  4424  04DD  2CDF               	goto	u4490
  4425  04DE                     u4491:
  4426  04DE  2CE4               	goto	l3089
  4427  04DF                     u4490:
  4428  04DF                     l3087:
  4429  04DF  0864               	movf	___flmul@bexp,w
  4430  04E0  1D03               	btfss	3,2
  4431  04E1  2CE3               	goto	u4501
  4432  04E2  2CE4               	goto	u4500
  4433  04E3                     u4501:
  4434  04E3  2CED               	goto	l3093
  4435  04E4                     u4500:
  4436  04E4                     l3089:
  4437  04E4  3000               	movlw	0
  4438  04E5  00D4               	movwf	?___flmul+3
  4439  04E6  3000               	movlw	0
  4440  04E7  00D3               	movwf	?___flmul+2
  4441  04E8  3000               	movlw	0
  4442  04E9  00D2               	movwf	?___flmul+1
  4443  04EA  3000               	movlw	0
  4444  04EB  00D1               	movwf	?___flmul
  4445  04EC  2FE0               	goto	l704
  4446  04ED                     l3093:
  4447  04ED  0851               	movf	___flmul@b,w
  4448  04EE  00D9               	movwf	??___flmul
  4449  04EF  0859               	movf	??___flmul,w
  4450  04F0  00F2               	movwf	__Umul8_16@multiplicand
  4451  04F1  0857               	movf	___flmul@a+2,w
  4452  04F2  160A  118A  2532  120A  118A  	fcall	__Umul8_16
  4453  04F7  0873               	movf	?__Umul8_16+1,w
  4454  04F8  1283               	bcf	3,5	;RP0=0, select bank0
  4455  04F9  1303               	bcf	3,6	;RP1=0, select bank0
  4456  04FA  00EA               	movwf	___flmul@temp+1
  4457  04FB  0872               	movf	?__Umul8_16,w
  4458  04FC  00E9               	movwf	___flmul@temp
  4459  04FD                     l3095:
  4460  04FD  0869               	movf	___flmul@temp,w
  4461  04FE  00D9               	movwf	??___flmul
  4462  04FF  01DA               	clrf	??___flmul+1
  4463  0500  01DB               	clrf	??___flmul+2
  4464  0501  01DC               	clrf	??___flmul+3
  4465  0502  085C               	movf	??___flmul+3,w
  4466  0503  00E3               	movwf	___flmul@grs+3
  4467  0504  085B               	movf	??___flmul+2,w
  4468  0505  00E2               	movwf	___flmul@grs+2
  4469  0506  085A               	movf	??___flmul+1,w
  4470  0507  00E1               	movwf	___flmul@grs+1
  4471  0508  0859               	movf	??___flmul,w
  4472  0509  00E0               	movwf	___flmul@grs
  4473  050A                     l3097:
  4474  050A  086A               	movf	___flmul@temp+1,w
  4475  050B  00D9               	movwf	??___flmul
  4476  050C  01DA               	clrf	??___flmul+1
  4477  050D  01DB               	clrf	??___flmul+2
  4478  050E  01DC               	clrf	??___flmul+3
  4479  050F  085C               	movf	??___flmul+3,w
  4480  0510  00E8               	movwf	___flmul@prod+3
  4481  0511  085B               	movf	??___flmul+2,w
  4482  0512  00E7               	movwf	___flmul@prod+2
  4483  0513  085A               	movf	??___flmul+1,w
  4484  0514  00E6               	movwf	___flmul@prod+1
  4485  0515  0859               	movf	??___flmul,w
  4486  0516  00E5               	movwf	___flmul@prod
  4487  0517  0852               	movf	___flmul@b+1,w
  4488  0518  00D9               	movwf	??___flmul
  4489  0519  0859               	movf	??___flmul,w
  4490  051A  00F2               	movwf	__Umul8_16@multiplicand
  4491  051B  0856               	movf	___flmul@a+1,w
  4492  051C  160A  118A  2532  120A  118A  	fcall	__Umul8_16
  4493  0521  0873               	movf	?__Umul8_16+1,w
  4494  0522  1283               	bcf	3,5	;RP0=0, select bank0
  4495  0523  1303               	bcf	3,6	;RP1=0, select bank0
  4496  0524  00EA               	movwf	___flmul@temp+1
  4497  0525  0872               	movf	?__Umul8_16,w
  4498  0526  00E9               	movwf	___flmul@temp
  4499  0527                     l3099:
  4500  0527  0869               	movf	___flmul@temp,w
  4501  0528  00D9               	movwf	??___flmul
  4502  0529  01DA               	clrf	??___flmul+1
  4503  052A  01DB               	clrf	??___flmul+2
  4504  052B  01DC               	clrf	??___flmul+3
  4505  052C  0859               	movf	??___flmul,w
  4506  052D  07E0               	addwf	___flmul@grs,f
  4507  052E  085A               	movf	??___flmul+1,w
  4508  052F  1103               	clrz
  4509  0530  1803               	skipnc
  4510  0531  3E01               	addlw	1
  4511  0532  1903               	skipnz
  4512  0533  2D35               	goto	u4511
  4513  0534  07E1               	addwf	___flmul@grs+1,f
  4514  0535                     u4511:
  4515  0535  085B               	movf	??___flmul+2,w
  4516  0536  1103               	clrz
  4517  0537  1803               	skipnc
  4518  0538  3E01               	addlw	1
  4519  0539  1903               	skipnz
  4520  053A  2D3C               	goto	u4512
  4521  053B  07E2               	addwf	___flmul@grs+2,f
  4522  053C                     u4512:
  4523  053C  085C               	movf	??___flmul+3,w
  4524  053D  1103               	clrz
  4525  053E  1803               	skipnc
  4526  053F  3E01               	addlw	1
  4527  0540  1903               	skipnz
  4528  0541  2D43               	goto	u4513
  4529  0542  07E3               	addwf	___flmul@grs+3,f
  4530  0543                     u4513:
  4531  0543                     l3101:
  4532  0543  086A               	movf	___flmul@temp+1,w
  4533  0544  00D9               	movwf	??___flmul
  4534  0545  01DA               	clrf	??___flmul+1
  4535  0546  01DB               	clrf	??___flmul+2
  4536  0547  01DC               	clrf	??___flmul+3
  4537  0548  0859               	movf	??___flmul,w
  4538  0549  07E5               	addwf	___flmul@prod,f
  4539  054A  085A               	movf	??___flmul+1,w
  4540  054B  1103               	clrz
  4541  054C  1803               	skipnc
  4542  054D  3E01               	addlw	1
  4543  054E  1903               	skipnz
  4544  054F  2D51               	goto	u4521
  4545  0550  07E6               	addwf	___flmul@prod+1,f
  4546  0551                     u4521:
  4547  0551  085B               	movf	??___flmul+2,w
  4548  0552  1103               	clrz
  4549  0553  1803               	skipnc
  4550  0554  3E01               	addlw	1
  4551  0555  1903               	skipnz
  4552  0556  2D58               	goto	u4522
  4553  0557  07E7               	addwf	___flmul@prod+2,f
  4554  0558                     u4522:
  4555  0558  085C               	movf	??___flmul+3,w
  4556  0559  1103               	clrz
  4557  055A  1803               	skipnc
  4558  055B  3E01               	addlw	1
  4559  055C  1903               	skipnz
  4560  055D  2D5F               	goto	u4523
  4561  055E  07E8               	addwf	___flmul@prod+3,f
  4562  055F                     u4523:
  4563  055F  0853               	movf	___flmul@b+2,w
  4564  0560  00D9               	movwf	??___flmul
  4565  0561  0859               	movf	??___flmul,w
  4566  0562  00F2               	movwf	__Umul8_16@multiplicand
  4567  0563  0855               	movf	___flmul@a,w
  4568  0564  160A  118A  2532  120A  118A  	fcall	__Umul8_16
  4569  0569  0873               	movf	?__Umul8_16+1,w
  4570  056A  1283               	bcf	3,5	;RP0=0, select bank0
  4571  056B  1303               	bcf	3,6	;RP1=0, select bank0
  4572  056C  00EA               	movwf	___flmul@temp+1
  4573  056D  0872               	movf	?__Umul8_16,w
  4574  056E  00E9               	movwf	___flmul@temp
  4575  056F                     l3103:
  4576  056F  0869               	movf	___flmul@temp,w
  4577  0570  00D9               	movwf	??___flmul
  4578  0571  01DA               	clrf	??___flmul+1
  4579  0572  01DB               	clrf	??___flmul+2
  4580  0573  01DC               	clrf	??___flmul+3
  4581  0574  0859               	movf	??___flmul,w
  4582  0575  07E0               	addwf	___flmul@grs,f
  4583  0576  085A               	movf	??___flmul+1,w
  4584  0577  1103               	clrz
  4585  0578  1803               	skipnc
  4586  0579  3E01               	addlw	1
  4587  057A  1903               	skipnz
  4588  057B  2D7D               	goto	u4531
  4589  057C  07E1               	addwf	___flmul@grs+1,f
  4590  057D                     u4531:
  4591  057D  085B               	movf	??___flmul+2,w
  4592  057E  1103               	clrz
  4593  057F  1803               	skipnc
  4594  0580  3E01               	addlw	1
  4595  0581  1903               	skipnz
  4596  0582  2D84               	goto	u4532
  4597  0583  07E2               	addwf	___flmul@grs+2,f
  4598  0584                     u4532:
  4599  0584  085C               	movf	??___flmul+3,w
  4600  0585  1103               	clrz
  4601  0586  1803               	skipnc
  4602  0587  3E01               	addlw	1
  4603  0588  1903               	skipnz
  4604  0589  2D8B               	goto	u4533
  4605  058A  07E3               	addwf	___flmul@grs+3,f
  4606  058B                     u4533:
  4607  058B                     l3105:
  4608  058B  086A               	movf	___flmul@temp+1,w
  4609  058C  00D9               	movwf	??___flmul
  4610  058D  01DA               	clrf	??___flmul+1
  4611  058E  01DB               	clrf	??___flmul+2
  4612  058F  01DC               	clrf	??___flmul+3
  4613  0590  0859               	movf	??___flmul,w
  4614  0591  07E5               	addwf	___flmul@prod,f
  4615  0592  085A               	movf	??___flmul+1,w
  4616  0593  1103               	clrz
  4617  0594  1803               	skipnc
  4618  0595  3E01               	addlw	1
  4619  0596  1903               	skipnz
  4620  0597  2D99               	goto	u4541
  4621  0598  07E6               	addwf	___flmul@prod+1,f
  4622  0599                     u4541:
  4623  0599  085B               	movf	??___flmul+2,w
  4624  059A  1103               	clrz
  4625  059B  1803               	skipnc
  4626  059C  3E01               	addlw	1
  4627  059D  1903               	skipnz
  4628  059E  2DA0               	goto	u4542
  4629  059F  07E7               	addwf	___flmul@prod+2,f
  4630  05A0                     u4542:
  4631  05A0  085C               	movf	??___flmul+3,w
  4632  05A1  1103               	clrz
  4633  05A2  1803               	skipnc
  4634  05A3  3E01               	addlw	1
  4635  05A4  1903               	skipnz
  4636  05A5  2DA7               	goto	u4543
  4637  05A6  07E8               	addwf	___flmul@prod+3,f
  4638  05A7                     u4543:
  4639  05A7                     l3107:
  4640  05A7  3008               	movlw	8
  4641  05A8  00D9               	movwf	??___flmul
  4642  05A9                     u4555:
  4643  05A9  1003               	clrc
  4644  05AA  0DE0               	rlf	___flmul@grs,f
  4645  05AB  0DE1               	rlf	___flmul@grs+1,f
  4646  05AC  0DE2               	rlf	___flmul@grs+2,f
  4647  05AD  0DE3               	rlf	___flmul@grs+3,f
  4648  05AE  0BD9               	decfsz	??___flmul,f
  4649  05AF  2DA9               	goto	u4555
  4650  05B0                     l3109:
  4651  05B0  0852               	movf	___flmul@b+1,w
  4652  05B1  00D9               	movwf	??___flmul
  4653  05B2  0859               	movf	??___flmul,w
  4654  05B3  00F2               	movwf	__Umul8_16@multiplicand
  4655  05B4  0855               	movf	___flmul@a,w
  4656  05B5  160A  118A  2532  120A  118A  	fcall	__Umul8_16
  4657  05BA  0873               	movf	?__Umul8_16+1,w
  4658  05BB  1283               	bcf	3,5	;RP0=0, select bank0
  4659  05BC  1303               	bcf	3,6	;RP1=0, select bank0
  4660  05BD  00EA               	movwf	___flmul@temp+1
  4661  05BE  0872               	movf	?__Umul8_16,w
  4662  05BF  00E9               	movwf	___flmul@temp
  4663  05C0                     l3111:
  4664  05C0  0869               	movf	___flmul@temp,w
  4665  05C1  00D9               	movwf	??___flmul
  4666  05C2  086A               	movf	___flmul@temp+1,w
  4667  05C3  00DA               	movwf	??___flmul+1
  4668  05C4  01DB               	clrf	??___flmul+2
  4669  05C5  01DC               	clrf	??___flmul+3
  4670  05C6  0859               	movf	??___flmul,w
  4671  05C7  07E0               	addwf	___flmul@grs,f
  4672  05C8  085A               	movf	??___flmul+1,w
  4673  05C9  1103               	clrz
  4674  05CA  1803               	skipnc
  4675  05CB  3E01               	addlw	1
  4676  05CC  1903               	skipnz
  4677  05CD  2DCF               	goto	u4561
  4678  05CE  07E1               	addwf	___flmul@grs+1,f
  4679  05CF                     u4561:
  4680  05CF  085B               	movf	??___flmul+2,w
  4681  05D0  1103               	clrz
  4682  05D1  1803               	skipnc
  4683  05D2  3E01               	addlw	1
  4684  05D3  1903               	skipnz
  4685  05D4  2DD6               	goto	u4562
  4686  05D5  07E2               	addwf	___flmul@grs+2,f
  4687  05D6                     u4562:
  4688  05D6  085C               	movf	??___flmul+3,w
  4689  05D7  1103               	clrz
  4690  05D8  1803               	skipnc
  4691  05D9  3E01               	addlw	1
  4692  05DA  1903               	skipnz
  4693  05DB  2DDD               	goto	u4563
  4694  05DC  07E3               	addwf	___flmul@grs+3,f
  4695  05DD                     u4563:
  4696  05DD                     l3113:
  4697  05DD  0851               	movf	___flmul@b,w
  4698  05DE  00D9               	movwf	??___flmul
  4699  05DF  0859               	movf	??___flmul,w
  4700  05E0  00F2               	movwf	__Umul8_16@multiplicand
  4701  05E1  0856               	movf	___flmul@a+1,w
  4702  05E2  160A  118A  2532  120A  118A  	fcall	__Umul8_16
  4703  05E7  0873               	movf	?__Umul8_16+1,w
  4704  05E8  1283               	bcf	3,5	;RP0=0, select bank0
  4705  05E9  1303               	bcf	3,6	;RP1=0, select bank0
  4706  05EA  00EA               	movwf	___flmul@temp+1
  4707  05EB  0872               	movf	?__Umul8_16,w
  4708  05EC  00E9               	movwf	___flmul@temp
  4709  05ED                     l3115:
  4710  05ED  0869               	movf	___flmul@temp,w
  4711  05EE  00D9               	movwf	??___flmul
  4712  05EF  086A               	movf	___flmul@temp+1,w
  4713  05F0  00DA               	movwf	??___flmul+1
  4714  05F1  01DB               	clrf	??___flmul+2
  4715  05F2  01DC               	clrf	??___flmul+3
  4716  05F3  0859               	movf	??___flmul,w
  4717  05F4  07E0               	addwf	___flmul@grs,f
  4718  05F5  085A               	movf	??___flmul+1,w
  4719  05F6  1103               	clrz
  4720  05F7  1803               	skipnc
  4721  05F8  3E01               	addlw	1
  4722  05F9  1903               	skipnz
  4723  05FA  2DFC               	goto	u4571
  4724  05FB  07E1               	addwf	___flmul@grs+1,f
  4725  05FC                     u4571:
  4726  05FC  085B               	movf	??___flmul+2,w
  4727  05FD  1103               	clrz
  4728  05FE  1803               	skipnc
  4729  05FF  3E01               	addlw	1
  4730  0600  1903               	skipnz
  4731  0601  2E03               	goto	u4572
  4732  0602  07E2               	addwf	___flmul@grs+2,f
  4733  0603                     u4572:
  4734  0603  085C               	movf	??___flmul+3,w
  4735  0604  1103               	clrz
  4736  0605  1803               	skipnc
  4737  0606  3E01               	addlw	1
  4738  0607  1903               	skipnz
  4739  0608  2E0A               	goto	u4573
  4740  0609  07E3               	addwf	___flmul@grs+3,f
  4741  060A                     u4573:
  4742  060A                     l3117:
  4743  060A  3008               	movlw	8
  4744  060B  00D9               	movwf	??___flmul
  4745  060C                     u4585:
  4746  060C  1003               	clrc
  4747  060D  0DE0               	rlf	___flmul@grs,f
  4748  060E  0DE1               	rlf	___flmul@grs+1,f
  4749  060F  0DE2               	rlf	___flmul@grs+2,f
  4750  0610  0DE3               	rlf	___flmul@grs+3,f
  4751  0611  0BD9               	decfsz	??___flmul,f
  4752  0612  2E0C               	goto	u4585
  4753  0613  0851               	movf	___flmul@b,w
  4754  0614  00D9               	movwf	??___flmul
  4755  0615  0859               	movf	??___flmul,w
  4756  0616  00F2               	movwf	__Umul8_16@multiplicand
  4757  0617  0855               	movf	___flmul@a,w
  4758  0618  160A  118A  2532  120A  118A  	fcall	__Umul8_16
  4759  061D  0873               	movf	?__Umul8_16+1,w
  4760  061E  1283               	bcf	3,5	;RP0=0, select bank0
  4761  061F  1303               	bcf	3,6	;RP1=0, select bank0
  4762  0620  00EA               	movwf	___flmul@temp+1
  4763  0621  0872               	movf	?__Umul8_16,w
  4764  0622  00E9               	movwf	___flmul@temp
  4765  0623                     l3119:
  4766  0623  0869               	movf	___flmul@temp,w
  4767  0624  00D9               	movwf	??___flmul
  4768  0625  086A               	movf	___flmul@temp+1,w
  4769  0626  00DA               	movwf	??___flmul+1
  4770  0627  01DB               	clrf	??___flmul+2
  4771  0628  01DC               	clrf	??___flmul+3
  4772  0629  0859               	movf	??___flmul,w
  4773  062A  07E0               	addwf	___flmul@grs,f
  4774  062B  085A               	movf	??___flmul+1,w
  4775  062C  1103               	clrz
  4776  062D  1803               	skipnc
  4777  062E  3E01               	addlw	1
  4778  062F  1903               	skipnz
  4779  0630  2E32               	goto	u4591
  4780  0631  07E1               	addwf	___flmul@grs+1,f
  4781  0632                     u4591:
  4782  0632  085B               	movf	??___flmul+2,w
  4783  0633  1103               	clrz
  4784  0634  1803               	skipnc
  4785  0635  3E01               	addlw	1
  4786  0636  1903               	skipnz
  4787  0637  2E39               	goto	u4592
  4788  0638  07E2               	addwf	___flmul@grs+2,f
  4789  0639                     u4592:
  4790  0639  085C               	movf	??___flmul+3,w
  4791  063A  1103               	clrz
  4792  063B  1803               	skipnc
  4793  063C  3E01               	addlw	1
  4794  063D  1903               	skipnz
  4795  063E  2E40               	goto	u4593
  4796  063F  07E3               	addwf	___flmul@grs+3,f
  4797  0640                     u4593:
  4798  0640                     l3121:
  4799  0640  0852               	movf	___flmul@b+1,w
  4800  0641  00D9               	movwf	??___flmul
  4801  0642  0859               	movf	??___flmul,w
  4802  0643  00F2               	movwf	__Umul8_16@multiplicand
  4803  0644  0857               	movf	___flmul@a+2,w
  4804  0645  160A  118A  2532  120A  118A  	fcall	__Umul8_16
  4805  064A  0873               	movf	?__Umul8_16+1,w
  4806  064B  1283               	bcf	3,5	;RP0=0, select bank0
  4807  064C  1303               	bcf	3,6	;RP1=0, select bank0
  4808  064D  00EA               	movwf	___flmul@temp+1
  4809  064E  0872               	movf	?__Umul8_16,w
  4810  064F  00E9               	movwf	___flmul@temp
  4811  0650  0869               	movf	___flmul@temp,w
  4812  0651  00D9               	movwf	??___flmul
  4813  0652  086A               	movf	___flmul@temp+1,w
  4814  0653  00DA               	movwf	??___flmul+1
  4815  0654  01DB               	clrf	??___flmul+2
  4816  0655  01DC               	clrf	??___flmul+3
  4817  0656  0859               	movf	??___flmul,w
  4818  0657  07E5               	addwf	___flmul@prod,f
  4819  0658  085A               	movf	??___flmul+1,w
  4820  0659  1103               	clrz
  4821  065A  1803               	skipnc
  4822  065B  3E01               	addlw	1
  4823  065C  1903               	skipnz
  4824  065D  2E5F               	goto	u4601
  4825  065E  07E6               	addwf	___flmul@prod+1,f
  4826  065F                     u4601:
  4827  065F  085B               	movf	??___flmul+2,w
  4828  0660  1103               	clrz
  4829  0661  1803               	skipnc
  4830  0662  3E01               	addlw	1
  4831  0663  1903               	skipnz
  4832  0664  2E66               	goto	u4602
  4833  0665  07E7               	addwf	___flmul@prod+2,f
  4834  0666                     u4602:
  4835  0666  085C               	movf	??___flmul+3,w
  4836  0667  1103               	clrz
  4837  0668  1803               	skipnc
  4838  0669  3E01               	addlw	1
  4839  066A  1903               	skipnz
  4840  066B  2E6D               	goto	u4603
  4841  066C  07E8               	addwf	___flmul@prod+3,f
  4842  066D                     u4603:
  4843  066D                     l3123:
  4844  066D  0853               	movf	___flmul@b+2,w
  4845  066E  00D9               	movwf	??___flmul
  4846  066F  0859               	movf	??___flmul,w
  4847  0670  00F2               	movwf	__Umul8_16@multiplicand
  4848  0671  0856               	movf	___flmul@a+1,w
  4849  0672  160A  118A  2532  120A  118A  	fcall	__Umul8_16
  4850  0677  0873               	movf	?__Umul8_16+1,w
  4851  0678  1283               	bcf	3,5	;RP0=0, select bank0
  4852  0679  1303               	bcf	3,6	;RP1=0, select bank0
  4853  067A  00EA               	movwf	___flmul@temp+1
  4854  067B  0872               	movf	?__Umul8_16,w
  4855  067C  00E9               	movwf	___flmul@temp
  4856  067D                     l3125:
  4857  067D  0869               	movf	___flmul@temp,w
  4858  067E  00D9               	movwf	??___flmul
  4859  067F  086A               	movf	___flmul@temp+1,w
  4860  0680  00DA               	movwf	??___flmul+1
  4861  0681  01DB               	clrf	??___flmul+2
  4862  0682  01DC               	clrf	??___flmul+3
  4863  0683  0859               	movf	??___flmul,w
  4864  0684  07E5               	addwf	___flmul@prod,f
  4865  0685  085A               	movf	??___flmul+1,w
  4866  0686  1103               	clrz
  4867  0687  1803               	skipnc
  4868  0688  3E01               	addlw	1
  4869  0689  1903               	skipnz
  4870  068A  2E8C               	goto	u4611
  4871  068B  07E6               	addwf	___flmul@prod+1,f
  4872  068C                     u4611:
  4873  068C  085B               	movf	??___flmul+2,w
  4874  068D  1103               	clrz
  4875  068E  1803               	skipnc
  4876  068F  3E01               	addlw	1
  4877  0690  1903               	skipnz
  4878  0691  2E93               	goto	u4612
  4879  0692  07E7               	addwf	___flmul@prod+2,f
  4880  0693                     u4612:
  4881  0693  085C               	movf	??___flmul+3,w
  4882  0694  1103               	clrz
  4883  0695  1803               	skipnc
  4884  0696  3E01               	addlw	1
  4885  0697  1903               	skipnz
  4886  0698  2E9A               	goto	u4613
  4887  0699  07E8               	addwf	___flmul@prod+3,f
  4888  069A                     u4613:
  4889  069A  0853               	movf	___flmul@b+2,w
  4890  069B  00D9               	movwf	??___flmul
  4891  069C  0859               	movf	??___flmul,w
  4892  069D  00F2               	movwf	__Umul8_16@multiplicand
  4893  069E  0857               	movf	___flmul@a+2,w
  4894  069F  160A  118A  2532  120A  118A  	fcall	__Umul8_16
  4895  06A4  0873               	movf	?__Umul8_16+1,w
  4896  06A5  1283               	bcf	3,5	;RP0=0, select bank0
  4897  06A6  1303               	bcf	3,6	;RP1=0, select bank0
  4898  06A7  00EA               	movwf	___flmul@temp+1
  4899  06A8  0872               	movf	?__Umul8_16,w
  4900  06A9  00E9               	movwf	___flmul@temp
  4901  06AA                     l3127:
  4902  06AA  0869               	movf	___flmul@temp,w
  4903  06AB  00D9               	movwf	??___flmul
  4904  06AC  086A               	movf	___flmul@temp+1,w
  4905  06AD  00DA               	movwf	??___flmul+1
  4906  06AE  01DB               	clrf	??___flmul+2
  4907  06AF  01DC               	clrf	??___flmul+3
  4908  06B0  3008               	movlw	8
  4909  06B1                     u4625:
  4910  06B1  1003               	clrc
  4911  06B2  0DD9               	rlf	??___flmul,f
  4912  06B3  0DDA               	rlf	??___flmul+1,f
  4913  06B4  0DDB               	rlf	??___flmul+2,f
  4914  06B5  0DDC               	rlf	??___flmul+3,f
  4915  06B6                     u4620:
  4916  06B6  3EFF               	addlw	-1
  4917  06B7  1D03               	skipz
  4918  06B8  2EB1               	goto	u4625
  4919  06B9  0859               	movf	??___flmul,w
  4920  06BA  07E5               	addwf	___flmul@prod,f
  4921  06BB  085A               	movf	??___flmul+1,w
  4922  06BC  1103               	clrz
  4923  06BD  1803               	skipnc
  4924  06BE  3E01               	addlw	1
  4925  06BF  1903               	skipnz
  4926  06C0  2EC2               	goto	u4631
  4927  06C1  07E6               	addwf	___flmul@prod+1,f
  4928  06C2                     u4631:
  4929  06C2  085B               	movf	??___flmul+2,w
  4930  06C3  1103               	clrz
  4931  06C4  1803               	skipnc
  4932  06C5  3E01               	addlw	1
  4933  06C6  1903               	skipnz
  4934  06C7  2EC9               	goto	u4632
  4935  06C8  07E7               	addwf	___flmul@prod+2,f
  4936  06C9                     u4632:
  4937  06C9  085C               	movf	??___flmul+3,w
  4938  06CA  1103               	clrz
  4939  06CB  1803               	skipnc
  4940  06CC  3E01               	addlw	1
  4941  06CD  1903               	skipnz
  4942  06CE  2ED0               	goto	u4633
  4943  06CF  07E8               	addwf	___flmul@prod+3,f
  4944  06D0                     u4633:
  4945  06D0                     l3129:
  4946  06D0  0860               	movf	___flmul@grs,w
  4947  06D1  00D9               	movwf	??___flmul
  4948  06D2  0861               	movf	___flmul@grs+1,w
  4949  06D3  00DA               	movwf	??___flmul+1
  4950  06D4  0862               	movf	___flmul@grs+2,w
  4951  06D5  00DB               	movwf	??___flmul+2
  4952  06D6  0863               	movf	___flmul@grs+3,w
  4953  06D7  00DC               	movwf	??___flmul+3
  4954  06D8  3018               	movlw	24
  4955  06D9                     u4645:
  4956  06D9  1003               	clrc
  4957  06DA  0CDC               	rrf	??___flmul+3,f
  4958  06DB  0CDB               	rrf	??___flmul+2,f
  4959  06DC  0CDA               	rrf	??___flmul+1,f
  4960  06DD  0CD9               	rrf	??___flmul,f
  4961  06DE                     u4640:
  4962  06DE  3EFF               	addlw	-1
  4963  06DF  1D03               	skipz
  4964  06E0  2ED9               	goto	u4645
  4965  06E1  0859               	movf	??___flmul,w
  4966  06E2  07E5               	addwf	___flmul@prod,f
  4967  06E3  085A               	movf	??___flmul+1,w
  4968  06E4  1103               	clrz
  4969  06E5  1803               	skipnc
  4970  06E6  3E01               	addlw	1
  4971  06E7  1903               	skipnz
  4972  06E8  2EEA               	goto	u4651
  4973  06E9  07E6               	addwf	___flmul@prod+1,f
  4974  06EA                     u4651:
  4975  06EA  085B               	movf	??___flmul+2,w
  4976  06EB  1103               	clrz
  4977  06EC  1803               	skipnc
  4978  06ED  3E01               	addlw	1
  4979  06EE  1903               	skipnz
  4980  06EF  2EF1               	goto	u4652
  4981  06F0  07E7               	addwf	___flmul@prod+2,f
  4982  06F1                     u4652:
  4983  06F1  085C               	movf	??___flmul+3,w
  4984  06F2  1103               	clrz
  4985  06F3  1803               	skipnc
  4986  06F4  3E01               	addlw	1
  4987  06F5  1903               	skipnz
  4988  06F6  2EF8               	goto	u4653
  4989  06F7  07E8               	addwf	___flmul@prod+3,f
  4990  06F8                     u4653:
  4991  06F8                     l3131:
  4992  06F8  3008               	movlw	8
  4993  06F9  00D9               	movwf	??___flmul
  4994  06FA                     u4665:
  4995  06FA  1003               	clrc
  4996  06FB  0DE0               	rlf	___flmul@grs,f
  4997  06FC  0DE1               	rlf	___flmul@grs+1,f
  4998  06FD  0DE2               	rlf	___flmul@grs+2,f
  4999  06FE  0DE3               	rlf	___flmul@grs+3,f
  5000  06FF  0BD9               	decfsz	??___flmul,f
  5001  0700  2EFA               	goto	u4665
  5002  0701                     l3133:
  5003  0701  0864               	movf	___flmul@bexp,w
  5004  0702  075F               	addwf	___flmul@aexp,w
  5005  0703  00D9               	movwf	??___flmul
  5006  0704  01DA               	clrf	??___flmul+1
  5007  0705  0DDA               	rlf	??___flmul+1,f
  5008  0706  0859               	movf	??___flmul,w
  5009  0707  3E82               	addlw	130
  5010  0708  00E9               	movwf	___flmul@temp
  5011  0709  085A               	movf	??___flmul+1,w
  5012  070A  1803               	skipnc
  5013  070B  3E01               	addlw	1
  5014  070C  3EFF               	addlw	255
  5015  070D  00EA               	movwf	___flmul@temp+1
  5016  070E  2F2C               	goto	l3145
  5017  070F                     l3135:
  5018  070F  3001               	movlw	1
  5019  0710  00D9               	movwf	??___flmul
  5020  0711                     u4675:
  5021  0711  1003               	clrc
  5022  0712  0DE5               	rlf	___flmul@prod,f
  5023  0713  0DE6               	rlf	___flmul@prod+1,f
  5024  0714  0DE7               	rlf	___flmul@prod+2,f
  5025  0715  0DE8               	rlf	___flmul@prod+3,f
  5026  0716  0BD9               	decfsz	??___flmul,f
  5027  0717  2F11               	goto	u4675
  5028  0718                     l3137:
  5029  0718  1FE3               	btfss	___flmul@grs+3,7
  5030  0719  2F1B               	goto	u4681
  5031  071A  2F1C               	goto	u4680
  5032  071B                     u4681:
  5033  071B  2F1D               	goto	l3141
  5034  071C                     u4680:
  5035  071C                     l3139:
  5036  071C  1465               	bsf	___flmul@prod,0
  5037  071D                     l3141:
  5038  071D  3001               	movlw	1
  5039  071E  00D9               	movwf	??___flmul
  5040  071F                     u4695:
  5041  071F  1003               	clrc
  5042  0720  0DE0               	rlf	___flmul@grs,f
  5043  0721  0DE1               	rlf	___flmul@grs+1,f
  5044  0722  0DE2               	rlf	___flmul@grs+2,f
  5045  0723  0DE3               	rlf	___flmul@grs+3,f
  5046  0724  0BD9               	decfsz	??___flmul,f
  5047  0725  2F1F               	goto	u4695
  5048  0726                     l3143:
  5049  0726  30FF               	movlw	255
  5050  0727  07E9               	addwf	___flmul@temp,f
  5051  0728  1803               	skipnc
  5052  0729  0AEA               	incf	___flmul@temp+1,f
  5053  072A  30FF               	movlw	255
  5054  072B  07EA               	addwf	___flmul@temp+1,f
  5055  072C                     l3145:
  5056  072C  1FE7               	btfss	___flmul@prod+2,7
  5057  072D  2F2F               	goto	u4701
  5058  072E  2F30               	goto	u4700
  5059  072F                     u4701:
  5060  072F  2F0F               	goto	l3135
  5061  0730                     u4700:
  5062  0730                     l3147:
  5063  0730  01DF               	clrf	___flmul@aexp
  5064  0731                     l3149:
  5065  0731  1FE3               	btfss	___flmul@grs+3,7
  5066  0732  2F34               	goto	u4711
  5067  0733  2F35               	goto	u4710
  5068  0734                     u4711:
  5069  0734  2F51               	goto	l3157
  5070  0735                     u4710:
  5071  0735                     l3151:
  5072  0735  30FF               	movlw	255
  5073  0736  0560               	andwf	___flmul@grs,w
  5074  0737  00D9               	movwf	??___flmul
  5075  0738  30FF               	movlw	255
  5076  0739  0561               	andwf	___flmul@grs+1,w
  5077  073A  00DA               	movwf	??___flmul+1
  5078  073B  30FF               	movlw	255
  5079  073C  0562               	andwf	___flmul@grs+2,w
  5080  073D  00DB               	movwf	??___flmul+2
  5081  073E  307F               	movlw	127
  5082  073F  0563               	andwf	___flmul@grs+3,w
  5083  0740  00DC               	movwf	??___flmul+3
  5084  0741  085C               	movf	??___flmul+3,w
  5085  0742  045B               	iorwf	??___flmul+2,w
  5086  0743  045A               	iorwf	??___flmul+1,w
  5087  0744  0459               	iorwf	??___flmul,w
  5088  0745  1903               	skipnz
  5089  0746  2F48               	goto	u4721
  5090  0747  2F49               	goto	u4720
  5091  0748                     u4721:
  5092  0748  2F4C               	goto	l710
  5093  0749                     u4720:
  5094  0749                     l3153:
  5095  0749  01DF               	clrf	___flmul@aexp
  5096  074A  0ADF               	incf	___flmul@aexp,f
  5097  074B  2F51               	goto	l3157
  5098  074C                     l710:
  5099  074C  1C65               	btfss	___flmul@prod,0
  5100  074D  2F4F               	goto	u4731
  5101  074E  2F50               	goto	u4730
  5102  074F                     u4731:
  5103  074F  2F51               	goto	l3157
  5104  0750                     u4730:
  5105  0750  2F49               	goto	l3153
  5106  0751                     l3157:
  5107  0751  085F               	movf	___flmul@aexp,w
  5108  0752  1903               	btfsc	3,2
  5109  0753  2F55               	goto	u4741
  5110  0754  2F56               	goto	u4740
  5111  0755                     u4741:
  5112  0755  2F87               	goto	l3167
  5113  0756                     u4740:
  5114  0756                     l3159:
  5115  0756  3001               	movlw	1
  5116  0757  07E5               	addwf	___flmul@prod,f
  5117  0758  3000               	movlw	0
  5118  0759  1803               	skipnc
  5119  075A  3001               	movlw	1
  5120  075B  07E6               	addwf	___flmul@prod+1,f
  5121  075C  3000               	movlw	0
  5122  075D  1803               	skipnc
  5123  075E  3001               	movlw	1
  5124  075F  07E7               	addwf	___flmul@prod+2,f
  5125  0760  3000               	movlw	0
  5126  0761  1803               	skipnc
  5127  0762  3001               	movlw	1
  5128  0763  07E8               	addwf	___flmul@prod+3,f
  5129  0764                     l3161:
  5130  0764  1C68               	btfss	___flmul@prod+3,0
  5131  0765  2F67               	goto	u4751
  5132  0766  2F68               	goto	u4750
  5133  0767                     u4751:
  5134  0767  2F87               	goto	l3167
  5135  0768                     u4750:
  5136  0768                     l3163:
  5137  0768  0865               	movf	___flmul@prod,w
  5138  0769  00D9               	movwf	??___flmul
  5139  076A  0866               	movf	___flmul@prod+1,w
  5140  076B  00DA               	movwf	??___flmul+1
  5141  076C  0867               	movf	___flmul@prod+2,w
  5142  076D  00DB               	movwf	??___flmul+2
  5143  076E  0868               	movf	___flmul@prod+3,w
  5144  076F  00DC               	movwf	??___flmul+3
  5145  0770  3001               	movlw	1
  5146  0771  00DD               	movwf	??___flmul+4
  5147  0772                     u4765:
  5148  0772  0D5C               	rlf	??___flmul+3,w
  5149  0773  0CDC               	rrf	??___flmul+3,f
  5150  0774  0CDB               	rrf	??___flmul+2,f
  5151  0775  0CDA               	rrf	??___flmul+1,f
  5152  0776  0CD9               	rrf	??___flmul,f
  5153  0777                     u4760:
  5154  0777  0BDD               	decfsz	??___flmul+4,f
  5155  0778  2F72               	goto	u4765
  5156  0779  085C               	movf	??___flmul+3,w
  5157  077A  00E8               	movwf	___flmul@prod+3
  5158  077B  085B               	movf	??___flmul+2,w
  5159  077C  00E7               	movwf	___flmul@prod+2
  5160  077D  085A               	movf	??___flmul+1,w
  5161  077E  00E6               	movwf	___flmul@prod+1
  5162  077F  0859               	movf	??___flmul,w
  5163  0780  00E5               	movwf	___flmul@prod
  5164  0781                     l3165:
  5165  0781  3001               	movlw	1
  5166  0782  07E9               	addwf	___flmul@temp,f
  5167  0783  1803               	skipnc
  5168  0784  0AEA               	incf	___flmul@temp+1,f
  5169  0785  3000               	movlw	0
  5170  0786  07EA               	addwf	___flmul@temp+1,f
  5171  0787                     l3167:
  5172  0787  086A               	movf	___flmul@temp+1,w
  5173  0788  3A80               	xorlw	128
  5174  0789  00FF               	movwf	btemp+1
  5175  078A  3080               	movlw	128
  5176  078B  027F               	subwf	btemp+1,w
  5177  078C  1D03               	skipz
  5178  078D  2F90               	goto	u4775
  5179  078E  30FF               	movlw	255
  5180  078F  0269               	subwf	___flmul@temp,w
  5181  0790                     u4775:
  5182  0790  1C03               	skipc
  5183  0791  2F93               	goto	u4771
  5184  0792  2F94               	goto	u4770
  5185  0793                     u4771:
  5186  0793  2F9F               	goto	l3171
  5187  0794                     u4770:
  5188  0794                     l3169:
  5189  0794  307F               	movlw	127
  5190  0795  1283               	bcf	3,5	;RP0=0, select bank0
  5191  0796  1303               	bcf	3,6	;RP1=0, select bank0
  5192  0797  00E8               	movwf	___flmul@prod+3
  5193  0798  3080               	movlw	128
  5194  0799  00E7               	movwf	___flmul@prod+2
  5195  079A  3000               	movlw	0
  5196  079B  00E6               	movwf	___flmul@prod+1
  5197  079C  3000               	movlw	0
  5198  079D  00E5               	movwf	___flmul@prod
  5199  079E  2FD4               	goto	l716
  5200  079F                     l3171:
  5201  079F  1283               	bcf	3,5	;RP0=0, select bank0
  5202  07A0  1303               	bcf	3,6	;RP1=0, select bank0
  5203  07A1  086A               	movf	___flmul@temp+1,w
  5204  07A2  3A80               	xorlw	128
  5205  07A3  00FF               	movwf	btemp+1
  5206  07A4  3080               	movlw	128
  5207  07A5  027F               	subwf	btemp+1,w
  5208  07A6  1D03               	skipz
  5209  07A7  2FAA               	goto	u4785
  5210  07A8  3001               	movlw	1
  5211  07A9  0269               	subwf	___flmul@temp,w
  5212  07AA                     u4785:
  5213  07AA  1803               	skipnc
  5214  07AB  2FAD               	goto	u4781
  5215  07AC  2FAE               	goto	u4780
  5216  07AD                     u4781:
  5217  07AD  2FBA               	goto	l3177
  5218  07AE                     u4780:
  5219  07AE                     l3173:
  5220  07AE  3000               	movlw	0
  5221  07AF  1283               	bcf	3,5	;RP0=0, select bank0
  5222  07B0  1303               	bcf	3,6	;RP1=0, select bank0
  5223  07B1  00E8               	movwf	___flmul@prod+3
  5224  07B2  3000               	movlw	0
  5225  07B3  00E7               	movwf	___flmul@prod+2
  5226  07B4  3000               	movlw	0
  5227  07B5  00E6               	movwf	___flmul@prod+1
  5228  07B6  3000               	movlw	0
  5229  07B7  00E5               	movwf	___flmul@prod
  5230  07B8                     l3175:
  5231  07B8  01DE               	clrf	___flmul@sign
  5232  07B9  2FD4               	goto	l716
  5233  07BA                     l3177:
  5234  07BA  1283               	bcf	3,5	;RP0=0, select bank0
  5235  07BB  1303               	bcf	3,6	;RP1=0, select bank0
  5236  07BC  0869               	movf	___flmul@temp,w
  5237  07BD  00D9               	movwf	??___flmul
  5238  07BE  0859               	movf	??___flmul,w
  5239  07BF  00E4               	movwf	___flmul@bexp
  5240  07C0  30FF               	movlw	255
  5241  07C1  05E5               	andwf	___flmul@prod,f
  5242  07C2  30FF               	movlw	255
  5243  07C3  05E6               	andwf	___flmul@prod+1,f
  5244  07C4  307F               	movlw	127
  5245  07C5  05E7               	andwf	___flmul@prod+2,f
  5246  07C6  3000               	movlw	0
  5247  07C7  05E8               	andwf	___flmul@prod+3,f
  5248  07C8                     l3179:
  5249  07C8  1C64               	btfss	___flmul@bexp,0
  5250  07C9  2FCB               	goto	u4791
  5251  07CA  2FCC               	goto	u4790
  5252  07CB                     u4791:
  5253  07CB  2FCD               	goto	l3183
  5254  07CC                     u4790:
  5255  07CC                     l3181:
  5256  07CC  17E7               	bsf	___flmul@prod+2,7
  5257  07CD                     l3183:
  5258  07CD  0864               	movf	___flmul@bexp,w
  5259  07CE  00D9               	movwf	??___flmul
  5260  07CF  1003               	clrc
  5261  07D0  0C59               	rrf	??___flmul,w
  5262  07D1  00DA               	movwf	??___flmul+1
  5263  07D2  085A               	movf	??___flmul+1,w
  5264  07D3  00E8               	movwf	___flmul@prod+3
  5265  07D4                     l716:
  5266  07D4  085E               	movf	___flmul@sign,w
  5267  07D5  00D9               	movwf	??___flmul
  5268  07D6  0859               	movf	??___flmul,w
  5269  07D7  04E8               	iorwf	___flmul@prod+3,f
  5270  07D8                     l3185:
  5271  07D8  0868               	movf	___flmul@prod+3,w
  5272  07D9  00D4               	movwf	?___flmul+3
  5273  07DA  0867               	movf	___flmul@prod+2,w
  5274  07DB  00D3               	movwf	?___flmul+2
  5275  07DC  0866               	movf	___flmul@prod+1,w
  5276  07DD  00D2               	movwf	?___flmul+1
  5277  07DE  0865               	movf	___flmul@prod,w
  5278  07DF  00D1               	movwf	?___flmul
  5279  07E0                     l704:
  5280  07E0  0008               	return
  5281  07E1                     __end_of___flmul:
  5282                           
  5283                           	psect	text8
  5284  1532                     __ptext8:	
  5285 ;; *************** function __Umul8_16 *****************
  5286 ;; Defined at:
  5287 ;;		line 4 in file "C:\Program Files\Microchip\xc8\v2.31\pic\sources\c90\common\Umul8_16.c"
  5288 ;; Parameters:    Size  Location     Type
  5289 ;;  multiplier      1    wreg     unsigned char 
  5290 ;;  multiplicand    1    2[COMMON] unsigned char 
  5291 ;; Auto vars:     Size  Location     Type
  5292 ;;  multiplier      1    4[BANK0 ] unsigned char 
  5293 ;;  word_mpld       2    2[BANK0 ] unsigned int 
  5294 ;;  product         2    0[BANK0 ] unsigned int 
  5295 ;; Return value:  Size  Location     Type
  5296 ;;                  2    2[COMMON] unsigned int 
  5297 ;; Registers used:
  5298 ;;		wreg, status,2, status,0
  5299 ;; Tracked objects:
  5300 ;;		On entry : 0/0
  5301 ;;		On exit  : 0/0
  5302 ;;		Unchanged: 0/0
  5303 ;; Data sizes:     COMMON   BANK0   BANK1   BANK3   BANK2
  5304 ;;      Params:         2       0       0       0       0
  5305 ;;      Locals:         0       5       0       0       0
  5306 ;;      Temps:          2       0       0       0       0
  5307 ;;      Totals:         4       5       0       0       0
  5308 ;;Total ram usage:        9 bytes
  5309 ;; Hardware stack levels used:    1
  5310 ;; Hardware stack levels required when called:    1
  5311 ;; This function calls:
  5312 ;;		Nothing
  5313 ;; This function is called by:
  5314 ;;		___flmul
  5315 ;; This function uses a non-reentrant model
  5316 ;;
  5317                           
  5318                           
  5319                           ;psect for function __Umul8_16
  5320  1532                     __Umul8_16:
  5321                           
  5322                           ;incstack = 0
  5323                           ; Regs used in __Umul8_16: [wreg+status,2+status,0]
  5324                           ;__Umul8_16@multiplier stored from wreg
  5325  1532  1283               	bcf	3,5	;RP0=0, select bank0
  5326  1533  1303               	bcf	3,6	;RP1=0, select bank0
  5327  1534  00A4               	movwf	__Umul8_16@multiplier
  5328  1535                     l2897:
  5329  1535  01A0               	clrf	__Umul8_16@product
  5330  1536  01A1               	clrf	__Umul8_16@product+1
  5331  1537                     l2899:
  5332  1537  0872               	movf	__Umul8_16@multiplicand,w
  5333  1538  00F4               	movwf	??__Umul8_16
  5334  1539  01F5               	clrf	??__Umul8_16+1
  5335  153A  0874               	movf	??__Umul8_16,w
  5336  153B  00A2               	movwf	__Umul8_16@word_mpld
  5337  153C  0875               	movf	??__Umul8_16+1,w
  5338  153D  00A3               	movwf	__Umul8_16@word_mpld+1
  5339  153E                     l2901:
  5340  153E  1C24               	btfss	__Umul8_16@multiplier,0
  5341  153F  2D41               	goto	u4091
  5342  1540  2D42               	goto	u4090
  5343  1541                     u4091:
  5344  1541  2D48               	goto	l723
  5345  1542                     u4090:
  5346  1542                     l2903:
  5347  1542  0822               	movf	__Umul8_16@word_mpld,w
  5348  1543  07A0               	addwf	__Umul8_16@product,f
  5349  1544  1803               	skipnc
  5350  1545  0AA1               	incf	__Umul8_16@product+1,f
  5351  1546  0823               	movf	__Umul8_16@word_mpld+1,w
  5352  1547  07A1               	addwf	__Umul8_16@product+1,f
  5353  1548                     l723:
  5354  1548  3001               	movlw	1
  5355  1549                     u4105:
  5356  1549  1003               	clrc
  5357  154A  0DA2               	rlf	__Umul8_16@word_mpld,f
  5358  154B  0DA3               	rlf	__Umul8_16@word_mpld+1,f
  5359  154C  3EFF               	addlw	-1
  5360  154D  1D03               	skipz
  5361  154E  2D49               	goto	u4105
  5362  154F  1003               	clrc
  5363  1550  0CA4               	rrf	__Umul8_16@multiplier,f
  5364  1551                     l2905:
  5365  1551  0824               	movf	__Umul8_16@multiplier,w
  5366  1552  1D03               	btfss	3,2
  5367  1553  2D55               	goto	u4111
  5368  1554  2D56               	goto	u4110
  5369  1555                     u4111:
  5370  1555  2D3E               	goto	l2901
  5371  1556                     u4110:
  5372  1556                     l2907:
  5373  1556  0821               	movf	__Umul8_16@product+1,w
  5374  1557  00F3               	movwf	?__Umul8_16+1
  5375  1558  0820               	movf	__Umul8_16@product,w
  5376  1559  00F2               	movwf	?__Umul8_16
  5377  155A                     l725:
  5378  155A  0008               	return
  5379  155B                     __end_of__Umul8_16:
  5380                           
  5381                           	psect	text9
  5382  175C                     __ptext9:	
  5383 ;; *************** function ___flge *****************
  5384 ;; Defined at:
  5385 ;;		line 4 in file "C:\Program Files\Microchip\xc8\v2.31\pic\sources\c90\common\flge.c"
  5386 ;; Parameters:    Size  Location     Type
  5387 ;;  ff1             4    2[COMMON] unsigned int 
  5388 ;;  ff2             4    6[COMMON] unsigned int 
  5389 ;; Auto vars:     Size  Location     Type
  5390 ;;		None
  5391 ;; Return value:  Size  Location     Type
  5392 ;;		None               void
  5393 ;; Registers used:
  5394 ;;		wreg, status,2, status,0
  5395 ;; Tracked objects:
  5396 ;;		On entry : 0/0
  5397 ;;		On exit  : 0/0
  5398 ;;		Unchanged: 0/0
  5399 ;; Data sizes:     COMMON   BANK0   BANK1   BANK3   BANK2
  5400 ;;      Params:         8       0       0       0       0
  5401 ;;      Locals:         0       0       0       0       0
  5402 ;;      Temps:          0       4       0       0       0
  5403 ;;      Totals:         8       4       0       0       0
  5404 ;;Total ram usage:       12 bytes
  5405 ;; Hardware stack levels used:    1
  5406 ;; Hardware stack levels required when called:    1
  5407 ;; This function calls:
  5408 ;;		Nothing
  5409 ;; This function is called by:
  5410 ;;		_convert
  5411 ;; This function uses a non-reentrant model
  5412 ;;
  5413                           
  5414                           
  5415                           ;psect for function ___flge
  5416  175C                     ___flge:
  5417  175C                     l2199:	
  5418                           ;incstack = 0
  5419                           ; Regs used in ___flge: [wreg+status,2+status,0]
  5420                           
  5421  175C  3000               	movlw	0
  5422  175D  0572               	andwf	___flge@ff1,w
  5423  175E  1283               	bcf	3,5	;RP0=0, select bank0
  5424  175F  1303               	bcf	3,6	;RP1=0, select bank0
  5425  1760  00A0               	movwf	??___flge
  5426  1761  3000               	movlw	0
  5427  1762  0573               	andwf	___flge@ff1+1,w
  5428  1763  00A1               	movwf	??___flge+1
  5429  1764  3080               	movlw	128
  5430  1765  0574               	andwf	___flge@ff1+2,w
  5431  1766  00A2               	movwf	??___flge+2
  5432  1767  307F               	movlw	127
  5433  1768  0575               	andwf	___flge@ff1+3,w
  5434  1769  00A3               	movwf	??___flge+3
  5435  176A  0823               	movf	??___flge+3,w
  5436  176B  0422               	iorwf	??___flge+2,w
  5437  176C  0421               	iorwf	??___flge+1,w
  5438  176D  0420               	iorwf	??___flge,w
  5439  176E  1D03               	skipz
  5440  176F  2F71               	goto	u2791
  5441  1770  2F72               	goto	u2790
  5442  1771                     u2791:
  5443  1771  2F7A               	goto	l489
  5444  1772                     u2790:
  5445  1772                     l2201:
  5446  1772  3000               	movlw	0
  5447  1773  00F5               	movwf	___flge@ff1+3
  5448  1774  3000               	movlw	0
  5449  1775  00F4               	movwf	___flge@ff1+2
  5450  1776  3000               	movlw	0
  5451  1777  00F3               	movwf	___flge@ff1+1
  5452  1778  3000               	movlw	0
  5453  1779  00F2               	movwf	___flge@ff1
  5454  177A                     l489:
  5455  177A  3000               	movlw	0
  5456  177B  0576               	andwf	___flge@ff2,w
  5457  177C  00A0               	movwf	??___flge
  5458  177D  3000               	movlw	0
  5459  177E  0577               	andwf	___flge@ff2+1,w
  5460  177F  00A1               	movwf	??___flge+1
  5461  1780  3080               	movlw	128
  5462  1781  0578               	andwf	___flge@ff2+2,w
  5463  1782  00A2               	movwf	??___flge+2
  5464  1783  307F               	movlw	127
  5465  1784  0579               	andwf	___flge@ff2+3,w
  5466  1785  00A3               	movwf	??___flge+3
  5467  1786  0823               	movf	??___flge+3,w
  5468  1787  0422               	iorwf	??___flge+2,w
  5469  1788  0421               	iorwf	??___flge+1,w
  5470  1789  0420               	iorwf	??___flge,w
  5471  178A  1D03               	skipz
  5472  178B  2F8D               	goto	u2801
  5473  178C  2F8E               	goto	u2800
  5474  178D                     u2801:
  5475  178D  2F96               	goto	l2205
  5476  178E                     u2800:
  5477  178E                     l2203:
  5478  178E  3000               	movlw	0
  5479  178F  00F9               	movwf	___flge@ff2+3
  5480  1790  3000               	movlw	0
  5481  1791  00F8               	movwf	___flge@ff2+2
  5482  1792  3000               	movlw	0
  5483  1793  00F7               	movwf	___flge@ff2+1
  5484  1794  3000               	movlw	0
  5485  1795  00F6               	movwf	___flge@ff2
  5486  1796                     l2205:
  5487  1796  1FF5               	btfss	___flge@ff1+3,7
  5488  1797  2F99               	goto	u2811
  5489  1798  2F9A               	goto	u2810
  5490  1799                     u2811:
  5491  1799  2FBE               	goto	l2209
  5492  179A                     u2810:
  5493  179A                     l2207:
  5494  179A  3000               	movlw	0
  5495  179B  00A0               	movwf	??___flge
  5496  179C  3000               	movlw	0
  5497  179D  00A1               	movwf	??___flge+1
  5498  179E  3000               	movlw	0
  5499  179F  00A2               	movwf	??___flge+2
  5500  17A0  3080               	movlw	128
  5501  17A1  00A3               	movwf	??___flge+3
  5502  17A2  0872               	movf	___flge@ff1,w
  5503  17A3  02A0               	subwf	??___flge,f
  5504  17A4  0873               	movf	___flge@ff1+1,w
  5505  17A5  1C03               	skipc
  5506  17A6  0F73               	incfsz	___flge@ff1+1,w
  5507  17A7  2FA9               	goto	u2821
  5508  17A8  2FAA               	goto	u2822
  5509  17A9                     u2821:
  5510  17A9  02A1               	subwf	??___flge+1,f
  5511  17AA                     u2822:
  5512  17AA  0874               	movf	___flge@ff1+2,w
  5513  17AB  1C03               	skipc
  5514  17AC  0F74               	incfsz	___flge@ff1+2,w
  5515  17AD  2FAF               	goto	u2823
  5516  17AE  2FB0               	goto	u2824
  5517  17AF                     u2823:
  5518  17AF  02A2               	subwf	??___flge+2,f
  5519  17B0                     u2824:
  5520  17B0  0875               	movf	___flge@ff1+3,w
  5521  17B1  1C03               	skipc
  5522  17B2  0F75               	incfsz	___flge@ff1+3,w
  5523  17B3  2FB5               	goto	u2825
  5524  17B4  2FB6               	goto	u2826
  5525  17B5                     u2825:
  5526  17B5  02A3               	subwf	??___flge+3,f
  5527  17B6                     u2826:
  5528  17B6  0823               	movf	??___flge+3,w
  5529  17B7  00F5               	movwf	___flge@ff1+3
  5530  17B8  0822               	movf	??___flge+2,w
  5531  17B9  00F4               	movwf	___flge@ff1+2
  5532  17BA  0821               	movf	??___flge+1,w
  5533  17BB  00F3               	movwf	___flge@ff1+1
  5534  17BC  0820               	movf	??___flge,w
  5535  17BD  00F2               	movwf	___flge@ff1
  5536  17BE                     l2209:
  5537  17BE  1FF9               	btfss	___flge@ff2+3,7
  5538  17BF  2FC1               	goto	u2831
  5539  17C0  2FC2               	goto	u2830
  5540  17C1                     u2831:
  5541  17C1  2FE6               	goto	l492
  5542  17C2                     u2830:
  5543  17C2                     l2211:
  5544  17C2  3000               	movlw	0
  5545  17C3  00A0               	movwf	??___flge
  5546  17C4  3000               	movlw	0
  5547  17C5  00A1               	movwf	??___flge+1
  5548  17C6  3000               	movlw	0
  5549  17C7  00A2               	movwf	??___flge+2
  5550  17C8  3080               	movlw	128
  5551  17C9  00A3               	movwf	??___flge+3
  5552  17CA  0876               	movf	___flge@ff2,w
  5553  17CB  02A0               	subwf	??___flge,f
  5554  17CC  0877               	movf	___flge@ff2+1,w
  5555  17CD  1C03               	skipc
  5556  17CE  0F77               	incfsz	___flge@ff2+1,w
  5557  17CF  2FD1               	goto	u2841
  5558  17D0  2FD2               	goto	u2842
  5559  17D1                     u2841:
  5560  17D1  02A1               	subwf	??___flge+1,f
  5561  17D2                     u2842:
  5562  17D2  0878               	movf	___flge@ff2+2,w
  5563  17D3  1C03               	skipc
  5564  17D4  0F78               	incfsz	___flge@ff2+2,w
  5565  17D5  2FD7               	goto	u2843
  5566  17D6  2FD8               	goto	u2844
  5567  17D7                     u2843:
  5568  17D7  02A2               	subwf	??___flge+2,f
  5569  17D8                     u2844:
  5570  17D8  0879               	movf	___flge@ff2+3,w
  5571  17D9  1C03               	skipc
  5572  17DA  0F79               	incfsz	___flge@ff2+3,w
  5573  17DB  2FDD               	goto	u2845
  5574  17DC  2FDE               	goto	u2846
  5575  17DD                     u2845:
  5576  17DD  02A3               	subwf	??___flge+3,f
  5577  17DE                     u2846:
  5578  17DE  0823               	movf	??___flge+3,w
  5579  17DF  00F9               	movwf	___flge@ff2+3
  5580  17E0  0822               	movf	??___flge+2,w
  5581  17E1  00F8               	movwf	___flge@ff2+2
  5582  17E2  0821               	movf	??___flge+1,w
  5583  17E3  00F7               	movwf	___flge@ff2+1
  5584  17E4  0820               	movf	??___flge,w
  5585  17E5  00F6               	movwf	___flge@ff2
  5586  17E6                     l492:
  5587  17E6  3080               	movlw	128
  5588  17E7  06F5               	xorwf	___flge@ff1+3,f
  5589  17E8  3080               	movlw	128
  5590  17E9  06F9               	xorwf	___flge@ff2+3,f
  5591  17EA  0879               	movf	___flge@ff2+3,w
  5592  17EB  0275               	subwf	___flge@ff1+3,w
  5593  17EC  1D03               	skipz
  5594  17ED  2FF8               	goto	u2855
  5595  17EE  0878               	movf	___flge@ff2+2,w
  5596  17EF  0274               	subwf	___flge@ff1+2,w
  5597  17F0  1D03               	skipz
  5598  17F1  2FF8               	goto	u2855
  5599  17F2  0877               	movf	___flge@ff2+1,w
  5600  17F3  0273               	subwf	___flge@ff1+1,w
  5601  17F4  1D03               	skipz
  5602  17F5  2FF8               	goto	u2855
  5603  17F6  0876               	movf	___flge@ff2,w
  5604  17F7  0272               	subwf	___flge@ff1,w
  5605  17F8                     u2855:
  5606  17F8  1803               	skipnc
  5607  17F9  2FFB               	goto	u2851
  5608  17FA  2FFC               	goto	u2850
  5609  17FB                     u2851:
  5610  17FB  2FFE               	goto	l2215
  5611  17FC                     u2850:
  5612  17FC                     l2213:
  5613  17FC  1003               	clrc
  5614  17FD  2FFF               	goto	l493
  5615  17FE                     l2215:
  5616  17FE  1403               	setc
  5617  17FF                     l493:
  5618  17FF  0008               	return
  5619  1800                     __end_of___flge:
  5620                           
  5621                           	psect	text10
  5622  09BD                     __ptext10:	
  5623 ;; *************** function ___fldiv *****************
  5624 ;; Defined at:
  5625 ;;		line 8 in file "C:\Program Files\Microchip\xc8\v2.31\pic\sources\c90\common\sprcdiv.c"
  5626 ;; Parameters:    Size  Location     Type
  5627 ;;  a               4   23[BANK0 ] unsigned int 
  5628 ;;  b               4   27[BANK0 ] unsigned int 
  5629 ;; Auto vars:     Size  Location     Type
  5630 ;;  grs             4   43[BANK0 ] unsigned long 
  5631 ;;  rem             4   36[BANK0 ] unsigned long 
  5632 ;;  new_exp         2   41[BANK0 ] int 
  5633 ;;  aexp            1   48[BANK0 ] unsigned char 
  5634 ;;  bexp            1   47[BANK0 ] unsigned char 
  5635 ;;  sign            1   40[BANK0 ] unsigned char 
  5636 ;; Return value:  Size  Location     Type
  5637 ;;                  4   23[BANK0 ] unsigned char 
  5638 ;; Registers used:
  5639 ;;		wreg, status,2, status,0, btemp+1
  5640 ;; Tracked objects:
  5641 ;;		On entry : 0/0
  5642 ;;		On exit  : 0/0
  5643 ;;		Unchanged: 0/0
  5644 ;; Data sizes:     COMMON   BANK0   BANK1   BANK3   BANK2
  5645 ;;      Params:         0       8       0       0       0
  5646 ;;      Locals:         0      13       0       0       0
  5647 ;;      Temps:          0       5       0       0       0
  5648 ;;      Totals:         0      26       0       0       0
  5649 ;;Total ram usage:       26 bytes
  5650 ;; Hardware stack levels used:    1
  5651 ;; Hardware stack levels required when called:    1
  5652 ;; This function calls:
  5653 ;;		Nothing
  5654 ;; This function is called by:
  5655 ;;		_main
  5656 ;;		_convert
  5657 ;; This function uses a non-reentrant model
  5658 ;;
  5659                           
  5660                           
  5661                           ;psect for function ___fldiv
  5662  09BD                     ___fldiv:
  5663  09BD                     l2261:	
  5664                           ;incstack = 0
  5665                           ; Regs used in ___fldiv: [wreg+status,2+status,0+btemp+1]
  5666                           
  5667  09BD  1283               	bcf	3,5	;RP0=0, select bank0
  5668  09BE  1303               	bcf	3,6	;RP1=0, select bank0
  5669  09BF  083E               	movf	___fldiv@b+3,w
  5670  09C0  3980               	andlw	128
  5671  09C1  00BF               	movwf	??___fldiv
  5672  09C2  083F               	movf	??___fldiv,w
  5673  09C3  00C8               	movwf	___fldiv@sign
  5674  09C4                     l2263:
  5675  09C4  083E               	movf	___fldiv@b+3,w
  5676  09C5  00BF               	movwf	??___fldiv
  5677  09C6  073F               	addwf	??___fldiv,w
  5678  09C7  00C0               	movwf	??___fldiv+1
  5679  09C8  0840               	movf	??___fldiv+1,w
  5680  09C9  00CF               	movwf	___fldiv@bexp
  5681  09CA                     l2265:
  5682  09CA  1FBD               	btfss	___fldiv@b+2,7
  5683  09CB  29CD               	goto	u2961
  5684  09CC  29CE               	goto	u2960
  5685  09CD                     u2961:
  5686  09CD  29CF               	goto	l2269
  5687  09CE                     u2960:
  5688  09CE                     l2267:
  5689  09CE  144F               	bsf	___fldiv@bexp,0
  5690  09CF                     l2269:
  5691  09CF  084F               	movf	___fldiv@bexp,w
  5692  09D0  1903               	btfsc	3,2
  5693  09D1  29D3               	goto	u2971
  5694  09D2  29D4               	goto	u2970
  5695  09D3                     u2971:
  5696  09D3  29E4               	goto	l2279
  5697  09D4                     u2970:
  5698  09D4                     l2271:
  5699  09D4  0A4F               	incf	___fldiv@bexp,w
  5700  09D5  1D03               	btfss	3,2
  5701  09D6  29D8               	goto	u2981
  5702  09D7  29D9               	goto	u2980
  5703  09D8                     u2981:
  5704  09D8  29E1               	goto	l2275
  5705  09D9                     u2980:
  5706  09D9                     l2273:
  5707  09D9  3000               	movlw	0
  5708  09DA  00BE               	movwf	___fldiv@b+3
  5709  09DB  3000               	movlw	0
  5710  09DC  00BD               	movwf	___fldiv@b+2
  5711  09DD  3000               	movlw	0
  5712  09DE  00BC               	movwf	___fldiv@b+1
  5713  09DF  3000               	movlw	0
  5714  09E0  00BB               	movwf	___fldiv@b
  5715  09E1                     l2275:
  5716  09E1  17BD               	bsf	___fldiv@b+2,7
  5717  09E2                     l2277:
  5718  09E2  01BE               	clrf	___fldiv@b+3
  5719  09E3  29EC               	goto	l2281
  5720  09E4                     l2279:
  5721  09E4  3000               	movlw	0
  5722  09E5  00BE               	movwf	___fldiv@b+3
  5723  09E6  3000               	movlw	0
  5724  09E7  00BD               	movwf	___fldiv@b+2
  5725  09E8  3000               	movlw	0
  5726  09E9  00BC               	movwf	___fldiv@b+1
  5727  09EA  3000               	movlw	0
  5728  09EB  00BB               	movwf	___fldiv@b
  5729  09EC                     l2281:
  5730  09EC  083A               	movf	___fldiv@a+3,w
  5731  09ED  3980               	andlw	128
  5732  09EE  00BF               	movwf	??___fldiv
  5733  09EF  083F               	movf	??___fldiv,w
  5734  09F0  06C8               	xorwf	___fldiv@sign,f
  5735  09F1                     l2283:
  5736  09F1  083A               	movf	___fldiv@a+3,w
  5737  09F2  00BF               	movwf	??___fldiv
  5738  09F3  073F               	addwf	??___fldiv,w
  5739  09F4  00C0               	movwf	??___fldiv+1
  5740  09F5  0840               	movf	??___fldiv+1,w
  5741  09F6  00D0               	movwf	___fldiv@aexp
  5742  09F7                     l2285:
  5743  09F7  1FB9               	btfss	___fldiv@a+2,7
  5744  09F8  29FA               	goto	u2991
  5745  09F9  29FB               	goto	u2990
  5746  09FA                     u2991:
  5747  09FA  29FC               	goto	l2289
  5748  09FB                     u2990:
  5749  09FB                     l2287:
  5750  09FB  1450               	bsf	___fldiv@aexp,0
  5751  09FC                     l2289:
  5752  09FC  0850               	movf	___fldiv@aexp,w
  5753  09FD  1903               	btfsc	3,2
  5754  09FE  2A00               	goto	u3001
  5755  09FF  2A01               	goto	u3000
  5756  0A00                     u3001:
  5757  0A00  2A11               	goto	l2299
  5758  0A01                     u3000:
  5759  0A01                     l2291:
  5760  0A01  0A50               	incf	___fldiv@aexp,w
  5761  0A02  1D03               	btfss	3,2
  5762  0A03  2A05               	goto	u3011
  5763  0A04  2A06               	goto	u3010
  5764  0A05                     u3011:
  5765  0A05  2A0E               	goto	l2295
  5766  0A06                     u3010:
  5767  0A06                     l2293:
  5768  0A06  3000               	movlw	0
  5769  0A07  00BA               	movwf	___fldiv@a+3
  5770  0A08  3000               	movlw	0
  5771  0A09  00B9               	movwf	___fldiv@a+2
  5772  0A0A  3000               	movlw	0
  5773  0A0B  00B8               	movwf	___fldiv@a+1
  5774  0A0C  3000               	movlw	0
  5775  0A0D  00B7               	movwf	___fldiv@a
  5776  0A0E                     l2295:
  5777  0A0E  17B9               	bsf	___fldiv@a+2,7
  5778  0A0F                     l2297:
  5779  0A0F  01BA               	clrf	___fldiv@a+3
  5780  0A10  2A19               	goto	l664
  5781  0A11                     l2299:
  5782  0A11  3000               	movlw	0
  5783  0A12  00BA               	movwf	___fldiv@a+3
  5784  0A13  3000               	movlw	0
  5785  0A14  00B9               	movwf	___fldiv@a+2
  5786  0A15  3000               	movlw	0
  5787  0A16  00B8               	movwf	___fldiv@a+1
  5788  0A17  3000               	movlw	0
  5789  0A18  00B7               	movwf	___fldiv@a
  5790  0A19                     l664:
  5791  0A19  083A               	movf	___fldiv@a+3,w
  5792  0A1A  0439               	iorwf	___fldiv@a+2,w
  5793  0A1B  0438               	iorwf	___fldiv@a+1,w
  5794  0A1C  0437               	iorwf	___fldiv@a,w
  5795  0A1D  1D03               	skipz
  5796  0A1E  2A20               	goto	u3021
  5797  0A1F  2A21               	goto	u3020
  5798  0A20                     u3021:
  5799  0A20  2A3A               	goto	l2309
  5800  0A21                     u3020:
  5801  0A21                     l2301:
  5802  0A21  3000               	movlw	0
  5803  0A22  00BE               	movwf	___fldiv@b+3
  5804  0A23  3000               	movlw	0
  5805  0A24  00BD               	movwf	___fldiv@b+2
  5806  0A25  3000               	movlw	0
  5807  0A26  00BC               	movwf	___fldiv@b+1
  5808  0A27  3000               	movlw	0
  5809  0A28  00BB               	movwf	___fldiv@b
  5810  0A29  3080               	movlw	128
  5811  0A2A  04BD               	iorwf	___fldiv@b+2,f
  5812  0A2B  307F               	movlw	127
  5813  0A2C  04BE               	iorwf	___fldiv@b+3,f
  5814  0A2D                     l2303:
  5815  0A2D  0848               	movf	___fldiv@sign,w
  5816  0A2E  00BF               	movwf	??___fldiv
  5817  0A2F  083F               	movf	??___fldiv,w
  5818  0A30  04BE               	iorwf	___fldiv@b+3,f
  5819  0A31                     l2305:
  5820  0A31  083E               	movf	___fldiv@b+3,w
  5821  0A32  00BA               	movwf	?___fldiv+3
  5822  0A33  083D               	movf	___fldiv@b+2,w
  5823  0A34  00B9               	movwf	?___fldiv+2
  5824  0A35  083C               	movf	___fldiv@b+1,w
  5825  0A36  00B8               	movwf	?___fldiv+1
  5826  0A37  083B               	movf	___fldiv@b,w
  5827  0A38  00B7               	movwf	?___fldiv
  5828  0A39  2B99               	goto	l666
  5829  0A3A                     l2309:
  5830  0A3A  084F               	movf	___fldiv@bexp,w
  5831  0A3B  1D03               	btfss	3,2
  5832  0A3C  2A3E               	goto	u3031
  5833  0A3D  2A3F               	goto	u3030
  5834  0A3E                     u3031:
  5835  0A3E  2A48               	goto	l2315
  5836  0A3F                     u3030:
  5837  0A3F                     l2311:
  5838  0A3F  3000               	movlw	0
  5839  0A40  00BA               	movwf	?___fldiv+3
  5840  0A41  3000               	movlw	0
  5841  0A42  00B9               	movwf	?___fldiv+2
  5842  0A43  3000               	movlw	0
  5843  0A44  00B8               	movwf	?___fldiv+1
  5844  0A45  3000               	movlw	0
  5845  0A46  00B7               	movwf	?___fldiv
  5846  0A47  2B99               	goto	l666
  5847  0A48                     l2315:
  5848  0A48  084F               	movf	___fldiv@bexp,w
  5849  0A49  00BF               	movwf	??___fldiv
  5850  0A4A  01C0               	clrf	??___fldiv+1
  5851  0A4B  0840               	movf	??___fldiv+1,w
  5852  0A4C  00C2               	movwf	??___fldiv+3
  5853  0A4D  0850               	movf	___fldiv@aexp,w
  5854  0A4E  023F               	subwf	??___fldiv,w
  5855  0A4F  00C1               	movwf	??___fldiv+2
  5856  0A50  1C03               	skipc
  5857  0A51  03C2               	decf	??___fldiv+3,f
  5858  0A52  0841               	movf	??___fldiv+2,w
  5859  0A53  3E7F               	addlw	127
  5860  0A54  00C9               	movwf	___fldiv@new_exp
  5861  0A55  0842               	movf	??___fldiv+3,w
  5862  0A56  1803               	skipnc
  5863  0A57  3E01               	addlw	1
  5864  0A58  3E00               	addlw	0
  5865  0A59  00CA               	movwf	___fldiv@new_exp+1
  5866  0A5A                     l2317:
  5867  0A5A  083E               	movf	___fldiv@b+3,w
  5868  0A5B  00C7               	movwf	___fldiv@rem+3
  5869  0A5C  083D               	movf	___fldiv@b+2,w
  5870  0A5D  00C6               	movwf	___fldiv@rem+2
  5871  0A5E  083C               	movf	___fldiv@b+1,w
  5872  0A5F  00C5               	movwf	___fldiv@rem+1
  5873  0A60  083B               	movf	___fldiv@b,w
  5874  0A61  00C4               	movwf	___fldiv@rem
  5875  0A62                     l2319:
  5876  0A62  3000               	movlw	0
  5877  0A63  00BE               	movwf	___fldiv@b+3
  5878  0A64  3000               	movlw	0
  5879  0A65  00BD               	movwf	___fldiv@b+2
  5880  0A66  3000               	movlw	0
  5881  0A67  00BC               	movwf	___fldiv@b+1
  5882  0A68  3000               	movlw	0
  5883  0A69  00BB               	movwf	___fldiv@b
  5884  0A6A                     l2321:
  5885  0A6A  3000               	movlw	0
  5886  0A6B  00CE               	movwf	___fldiv@grs+3
  5887  0A6C  3000               	movlw	0
  5888  0A6D  00CD               	movwf	___fldiv@grs+2
  5889  0A6E  3000               	movlw	0
  5890  0A6F  00CC               	movwf	___fldiv@grs+1
  5891  0A70  3000               	movlw	0
  5892  0A71  00CB               	movwf	___fldiv@grs
  5893  0A72                     l2323:
  5894  0A72  01D0               	clrf	___fldiv@aexp
  5895  0A73  2ABE               	goto	l2343
  5896  0A74                     l2325:
  5897  0A74  0850               	movf	___fldiv@aexp,w
  5898  0A75  1903               	btfsc	3,2
  5899  0A76  2A78               	goto	u3041
  5900  0A77  2A79               	goto	u3040
  5901  0A78                     u3041:
  5902  0A78  2A99               	goto	l2335
  5903  0A79                     u3040:
  5904  0A79                     l2327:
  5905  0A79  3001               	movlw	1
  5906  0A7A  00BF               	movwf	??___fldiv
  5907  0A7B                     u3055:
  5908  0A7B  1003               	clrc
  5909  0A7C  0DC4               	rlf	___fldiv@rem,f
  5910  0A7D  0DC5               	rlf	___fldiv@rem+1,f
  5911  0A7E  0DC6               	rlf	___fldiv@rem+2,f
  5912  0A7F  0DC7               	rlf	___fldiv@rem+3,f
  5913  0A80  0BBF               	decfsz	??___fldiv,f
  5914  0A81  2A7B               	goto	u3055
  5915  0A82  3001               	movlw	1
  5916  0A83  00BF               	movwf	??___fldiv
  5917  0A84                     u3065:
  5918  0A84  1003               	clrc
  5919  0A85  0DBB               	rlf	___fldiv@b,f
  5920  0A86  0DBC               	rlf	___fldiv@b+1,f
  5921  0A87  0DBD               	rlf	___fldiv@b+2,f
  5922  0A88  0DBE               	rlf	___fldiv@b+3,f
  5923  0A89  0BBF               	decfsz	??___fldiv,f
  5924  0A8A  2A84               	goto	u3065
  5925  0A8B                     l2329:
  5926  0A8B  1FCE               	btfss	___fldiv@grs+3,7
  5927  0A8C  2A8E               	goto	u3071
  5928  0A8D  2A8F               	goto	u3070
  5929  0A8E                     u3071:
  5930  0A8E  2A90               	goto	l2333
  5931  0A8F                     u3070:
  5932  0A8F                     l2331:
  5933  0A8F  143B               	bsf	___fldiv@b,0
  5934  0A90                     l2333:
  5935  0A90  3001               	movlw	1
  5936  0A91  00BF               	movwf	??___fldiv
  5937  0A92                     u3085:
  5938  0A92  1003               	clrc
  5939  0A93  0DCB               	rlf	___fldiv@grs,f
  5940  0A94  0DCC               	rlf	___fldiv@grs+1,f
  5941  0A95  0DCD               	rlf	___fldiv@grs+2,f
  5942  0A96  0DCE               	rlf	___fldiv@grs+3,f
  5943  0A97  0BBF               	decfsz	??___fldiv,f
  5944  0A98  2A92               	goto	u3085
  5945  0A99                     l2335:
  5946  0A99  083A               	movf	___fldiv@a+3,w
  5947  0A9A  0247               	subwf	___fldiv@rem+3,w
  5948  0A9B  1D03               	skipz
  5949  0A9C  2AA7               	goto	u3095
  5950  0A9D  0839               	movf	___fldiv@a+2,w
  5951  0A9E  0246               	subwf	___fldiv@rem+2,w
  5952  0A9F  1D03               	skipz
  5953  0AA0  2AA7               	goto	u3095
  5954  0AA1  0838               	movf	___fldiv@a+1,w
  5955  0AA2  0245               	subwf	___fldiv@rem+1,w
  5956  0AA3  1D03               	skipz
  5957  0AA4  2AA7               	goto	u3095
  5958  0AA5  0837               	movf	___fldiv@a,w
  5959  0AA6  0244               	subwf	___fldiv@rem,w
  5960  0AA7                     u3095:
  5961  0AA7  1C03               	skipc
  5962  0AA8  2AAA               	goto	u3091
  5963  0AA9  2AAB               	goto	u3090
  5964  0AAA                     u3091:
  5965  0AAA  2ABA               	goto	l2341
  5966  0AAB                     u3090:
  5967  0AAB                     l2337:
  5968  0AAB  174E               	bsf	___fldiv@grs+3,6
  5969  0AAC                     l2339:
  5970  0AAC  0837               	movf	___fldiv@a,w
  5971  0AAD  02C4               	subwf	___fldiv@rem,f
  5972  0AAE  0838               	movf	___fldiv@a+1,w
  5973  0AAF  1C03               	skipc
  5974  0AB0  0F38               	incfsz	___fldiv@a+1,w
  5975  0AB1  02C5               	subwf	___fldiv@rem+1,f
  5976  0AB2  0839               	movf	___fldiv@a+2,w
  5977  0AB3  1C03               	skipc
  5978  0AB4  0F39               	incfsz	___fldiv@a+2,w
  5979  0AB5  02C6               	subwf	___fldiv@rem+2,f
  5980  0AB6  083A               	movf	___fldiv@a+3,w
  5981  0AB7  1C03               	skipc
  5982  0AB8  0F3A               	incfsz	___fldiv@a+3,w
  5983  0AB9  02C7               	subwf	___fldiv@rem+3,f
  5984  0ABA                     l2341:
  5985  0ABA  3001               	movlw	1
  5986  0ABB  00BF               	movwf	??___fldiv
  5987  0ABC  083F               	movf	??___fldiv,w
  5988  0ABD  07D0               	addwf	___fldiv@aexp,f
  5989  0ABE                     l2343:
  5990  0ABE  301A               	movlw	26
  5991  0ABF  0250               	subwf	___fldiv@aexp,w
  5992  0AC0  1C03               	skipc
  5993  0AC1  2AC3               	goto	u3101
  5994  0AC2  2AC4               	goto	u3100
  5995  0AC3                     u3101:
  5996  0AC3  2A74               	goto	l2325
  5997  0AC4                     u3100:
  5998  0AC4                     l2345:
  5999  0AC4  0847               	movf	___fldiv@rem+3,w
  6000  0AC5  0446               	iorwf	___fldiv@rem+2,w
  6001  0AC6  0445               	iorwf	___fldiv@rem+1,w
  6002  0AC7  0444               	iorwf	___fldiv@rem,w
  6003  0AC8  1903               	skipnz
  6004  0AC9  2ACB               	goto	u3111
  6005  0ACA  2ACC               	goto	u3110
  6006  0ACB                     u3111:
  6007  0ACB  2AEB               	goto	l2359
  6008  0ACC                     u3110:
  6009  0ACC                     l2347:
  6010  0ACC  144B               	bsf	___fldiv@grs,0
  6011  0ACD  2AEB               	goto	l2359
  6012  0ACE                     l2349:
  6013  0ACE  3001               	movlw	1
  6014  0ACF  00BF               	movwf	??___fldiv
  6015  0AD0                     u3125:
  6016  0AD0  1003               	clrc
  6017  0AD1  0DBB               	rlf	___fldiv@b,f
  6018  0AD2  0DBC               	rlf	___fldiv@b+1,f
  6019  0AD3  0DBD               	rlf	___fldiv@b+2,f
  6020  0AD4  0DBE               	rlf	___fldiv@b+3,f
  6021  0AD5  0BBF               	decfsz	??___fldiv,f
  6022  0AD6  2AD0               	goto	u3125
  6023  0AD7                     l2351:
  6024  0AD7  1FCE               	btfss	___fldiv@grs+3,7
  6025  0AD8  2ADA               	goto	u3131
  6026  0AD9  2ADB               	goto	u3130
  6027  0ADA                     u3131:
  6028  0ADA  2ADC               	goto	l2355
  6029  0ADB                     u3130:
  6030  0ADB                     l2353:
  6031  0ADB  143B               	bsf	___fldiv@b,0
  6032  0ADC                     l2355:
  6033  0ADC  3001               	movlw	1
  6034  0ADD  00BF               	movwf	??___fldiv
  6035  0ADE                     u3145:
  6036  0ADE  1003               	clrc
  6037  0ADF  0DCB               	rlf	___fldiv@grs,f
  6038  0AE0  0DCC               	rlf	___fldiv@grs+1,f
  6039  0AE1  0DCD               	rlf	___fldiv@grs+2,f
  6040  0AE2  0DCE               	rlf	___fldiv@grs+3,f
  6041  0AE3  0BBF               	decfsz	??___fldiv,f
  6042  0AE4  2ADE               	goto	u3145
  6043  0AE5                     l2357:
  6044  0AE5  30FF               	movlw	255
  6045  0AE6  07C9               	addwf	___fldiv@new_exp,f
  6046  0AE7  1803               	skipnc
  6047  0AE8  0ACA               	incf	___fldiv@new_exp+1,f
  6048  0AE9  30FF               	movlw	255
  6049  0AEA  07CA               	addwf	___fldiv@new_exp+1,f
  6050  0AEB                     l2359:
  6051  0AEB  1FBD               	btfss	___fldiv@b+2,7
  6052  0AEC  2AEE               	goto	u3151
  6053  0AED  2AEF               	goto	u3150
  6054  0AEE                     u3151:
  6055  0AEE  2ACE               	goto	l2349
  6056  0AEF                     u3150:
  6057  0AEF                     l2361:
  6058  0AEF  01D0               	clrf	___fldiv@aexp
  6059  0AF0                     l2363:
  6060  0AF0  1FCE               	btfss	___fldiv@grs+3,7
  6061  0AF1  2AF3               	goto	u3161
  6062  0AF2  2AF4               	goto	u3160
  6063  0AF3                     u3161:
  6064  0AF3  2B10               	goto	l2371
  6065  0AF4                     u3160:
  6066  0AF4                     l2365:
  6067  0AF4  30FF               	movlw	255
  6068  0AF5  054B               	andwf	___fldiv@grs,w
  6069  0AF6  00BF               	movwf	??___fldiv
  6070  0AF7  30FF               	movlw	255
  6071  0AF8  054C               	andwf	___fldiv@grs+1,w
  6072  0AF9  00C0               	movwf	??___fldiv+1
  6073  0AFA  30FF               	movlw	255
  6074  0AFB  054D               	andwf	___fldiv@grs+2,w
  6075  0AFC  00C1               	movwf	??___fldiv+2
  6076  0AFD  307F               	movlw	127
  6077  0AFE  054E               	andwf	___fldiv@grs+3,w
  6078  0AFF  00C2               	movwf	??___fldiv+3
  6079  0B00  0842               	movf	??___fldiv+3,w
  6080  0B01  0441               	iorwf	??___fldiv+2,w
  6081  0B02  0440               	iorwf	??___fldiv+1,w
  6082  0B03  043F               	iorwf	??___fldiv,w
  6083  0B04  1903               	skipnz
  6084  0B05  2B07               	goto	u3171
  6085  0B06  2B08               	goto	u3170
  6086  0B07                     u3171:
  6087  0B07  2B0B               	goto	l680
  6088  0B08                     u3170:
  6089  0B08                     l2367:
  6090  0B08  01D0               	clrf	___fldiv@aexp
  6091  0B09  0AD0               	incf	___fldiv@aexp,f
  6092  0B0A  2B10               	goto	l2371
  6093  0B0B                     l680:
  6094  0B0B  1C3B               	btfss	___fldiv@b,0
  6095  0B0C  2B0E               	goto	u3181
  6096  0B0D  2B0F               	goto	u3180
  6097  0B0E                     u3181:
  6098  0B0E  2B10               	goto	l2371
  6099  0B0F                     u3180:
  6100  0B0F  2B08               	goto	l2367
  6101  0B10                     l2371:
  6102  0B10  0850               	movf	___fldiv@aexp,w
  6103  0B11  1903               	btfsc	3,2
  6104  0B12  2B14               	goto	u3191
  6105  0B13  2B15               	goto	u3190
  6106  0B14                     u3191:
  6107  0B14  2B46               	goto	l2381
  6108  0B15                     u3190:
  6109  0B15                     l2373:
  6110  0B15  3001               	movlw	1
  6111  0B16  07BB               	addwf	___fldiv@b,f
  6112  0B17  3000               	movlw	0
  6113  0B18  1803               	skipnc
  6114  0B19  3001               	movlw	1
  6115  0B1A  07BC               	addwf	___fldiv@b+1,f
  6116  0B1B  3000               	movlw	0
  6117  0B1C  1803               	skipnc
  6118  0B1D  3001               	movlw	1
  6119  0B1E  07BD               	addwf	___fldiv@b+2,f
  6120  0B1F  3000               	movlw	0
  6121  0B20  1803               	skipnc
  6122  0B21  3001               	movlw	1
  6123  0B22  07BE               	addwf	___fldiv@b+3,f
  6124  0B23                     l2375:
  6125  0B23  1C3E               	btfss	___fldiv@b+3,0
  6126  0B24  2B26               	goto	u3201
  6127  0B25  2B27               	goto	u3200
  6128  0B26                     u3201:
  6129  0B26  2B46               	goto	l2381
  6130  0B27                     u3200:
  6131  0B27                     l2377:
  6132  0B27  083B               	movf	___fldiv@b,w
  6133  0B28  00BF               	movwf	??___fldiv
  6134  0B29  083C               	movf	___fldiv@b+1,w
  6135  0B2A  00C0               	movwf	??___fldiv+1
  6136  0B2B  083D               	movf	___fldiv@b+2,w
  6137  0B2C  00C1               	movwf	??___fldiv+2
  6138  0B2D  083E               	movf	___fldiv@b+3,w
  6139  0B2E  00C2               	movwf	??___fldiv+3
  6140  0B2F  3001               	movlw	1
  6141  0B30  00C3               	movwf	??___fldiv+4
  6142  0B31                     u3215:
  6143  0B31  0D42               	rlf	??___fldiv+3,w
  6144  0B32  0CC2               	rrf	??___fldiv+3,f
  6145  0B33  0CC1               	rrf	??___fldiv+2,f
  6146  0B34  0CC0               	rrf	??___fldiv+1,f
  6147  0B35  0CBF               	rrf	??___fldiv,f
  6148  0B36                     u3210:
  6149  0B36  0BC3               	decfsz	??___fldiv+4,f
  6150  0B37  2B31               	goto	u3215
  6151  0B38  0842               	movf	??___fldiv+3,w
  6152  0B39  00BE               	movwf	___fldiv@b+3
  6153  0B3A  0841               	movf	??___fldiv+2,w
  6154  0B3B  00BD               	movwf	___fldiv@b+2
  6155  0B3C  0840               	movf	??___fldiv+1,w
  6156  0B3D  00BC               	movwf	___fldiv@b+1
  6157  0B3E  083F               	movf	??___fldiv,w
  6158  0B3F  00BB               	movwf	___fldiv@b
  6159  0B40                     l2379:
  6160  0B40  3001               	movlw	1
  6161  0B41  07C9               	addwf	___fldiv@new_exp,f
  6162  0B42  1803               	skipnc
  6163  0B43  0ACA               	incf	___fldiv@new_exp+1,f
  6164  0B44  3000               	movlw	0
  6165  0B45  07CA               	addwf	___fldiv@new_exp+1,f
  6166  0B46                     l2381:
  6167  0B46  084A               	movf	___fldiv@new_exp+1,w
  6168  0B47  3A80               	xorlw	128
  6169  0B48  00FF               	movwf	btemp+1
  6170  0B49  3080               	movlw	128
  6171  0B4A  027F               	subwf	btemp+1,w
  6172  0B4B  1D03               	skipz
  6173  0B4C  2B4F               	goto	u3225
  6174  0B4D  30FF               	movlw	255
  6175  0B4E  0249               	subwf	___fldiv@new_exp,w
  6176  0B4F                     u3225:
  6177  0B4F  1C03               	skipc
  6178  0B50  2B52               	goto	u3221
  6179  0B51  2B53               	goto	u3220
  6180  0B52                     u3221:
  6181  0B52  2B61               	goto	l2385
  6182  0B53                     u3220:
  6183  0B53                     l2383:
  6184  0B53  30FF               	movlw	255
  6185  0B54  1283               	bcf	3,5	;RP0=0, select bank0
  6186  0B55  1303               	bcf	3,6	;RP1=0, select bank0
  6187  0B56  00C9               	movwf	___fldiv@new_exp
  6188  0B57  3000               	movlw	0
  6189  0B58  00CA               	movwf	___fldiv@new_exp+1
  6190  0B59  3000               	movlw	0
  6191  0B5A  00BE               	movwf	___fldiv@b+3
  6192  0B5B  3000               	movlw	0
  6193  0B5C  00BD               	movwf	___fldiv@b+2
  6194  0B5D  3000               	movlw	0
  6195  0B5E  00BC               	movwf	___fldiv@b+1
  6196  0B5F  3000               	movlw	0
  6197  0B60  00BB               	movwf	___fldiv@b
  6198  0B61                     l2385:
  6199  0B61  1283               	bcf	3,5	;RP0=0, select bank0
  6200  0B62  1303               	bcf	3,6	;RP1=0, select bank0
  6201  0B63  084A               	movf	___fldiv@new_exp+1,w
  6202  0B64  3A80               	xorlw	128
  6203  0B65  00FF               	movwf	btemp+1
  6204  0B66  3080               	movlw	128
  6205  0B67  027F               	subwf	btemp+1,w
  6206  0B68  1D03               	skipz
  6207  0B69  2B6C               	goto	u3235
  6208  0B6A  3001               	movlw	1
  6209  0B6B  0249               	subwf	___fldiv@new_exp,w
  6210  0B6C                     u3235:
  6211  0B6C  1803               	skipnc
  6212  0B6D  2B6F               	goto	u3231
  6213  0B6E  2B70               	goto	u3230
  6214  0B6F                     u3231:
  6215  0B6F  2B7D               	goto	l686
  6216  0B70                     u3230:
  6217  0B70                     l2387:
  6218  0B70  1283               	bcf	3,5	;RP0=0, select bank0
  6219  0B71  1303               	bcf	3,6	;RP1=0, select bank0
  6220  0B72  01C9               	clrf	___fldiv@new_exp
  6221  0B73  01CA               	clrf	___fldiv@new_exp+1
  6222  0B74                     l2389:
  6223  0B74  3000               	movlw	0
  6224  0B75  00BE               	movwf	___fldiv@b+3
  6225  0B76  3000               	movlw	0
  6226  0B77  00BD               	movwf	___fldiv@b+2
  6227  0B78  3000               	movlw	0
  6228  0B79  00BC               	movwf	___fldiv@b+1
  6229  0B7A  3000               	movlw	0
  6230  0B7B  00BB               	movwf	___fldiv@b
  6231  0B7C                     l2391:
  6232  0B7C  01C8               	clrf	___fldiv@sign
  6233  0B7D                     l686:
  6234  0B7D  1283               	bcf	3,5	;RP0=0, select bank0
  6235  0B7E  1303               	bcf	3,6	;RP1=0, select bank0
  6236  0B7F  0849               	movf	___fldiv@new_exp,w
  6237  0B80  00BF               	movwf	??___fldiv
  6238  0B81  083F               	movf	??___fldiv,w
  6239  0B82  00CF               	movwf	___fldiv@bexp
  6240  0B83                     l2393:
  6241  0B83  1C4F               	btfss	___fldiv@bexp,0
  6242  0B84  2B86               	goto	u3241
  6243  0B85  2B87               	goto	u3240
  6244  0B86                     u3241:
  6245  0B86  2B89               	goto	l2397
  6246  0B87                     u3240:
  6247  0B87                     l2395:
  6248  0B87  17BD               	bsf	___fldiv@b+2,7
  6249  0B88  2B8D               	goto	l688
  6250  0B89                     l2397:
  6251  0B89  307F               	movlw	127
  6252  0B8A  00BF               	movwf	??___fldiv
  6253  0B8B  083F               	movf	??___fldiv,w
  6254  0B8C  05BD               	andwf	___fldiv@b+2,f
  6255  0B8D                     l688:
  6256  0B8D  084F               	movf	___fldiv@bexp,w
  6257  0B8E  00BF               	movwf	??___fldiv
  6258  0B8F  1003               	clrc
  6259  0B90  0C3F               	rrf	??___fldiv,w
  6260  0B91  00C0               	movwf	??___fldiv+1
  6261  0B92  0840               	movf	??___fldiv+1,w
  6262  0B93  00BE               	movwf	___fldiv@b+3
  6263  0B94  0848               	movf	___fldiv@sign,w
  6264  0B95  00BF               	movwf	??___fldiv
  6265  0B96  083F               	movf	??___fldiv,w
  6266  0B97  04BE               	iorwf	___fldiv@b+3,f
  6267  0B98  2A31               	goto	l2305
  6268  0B99                     l666:
  6269  0B99  0008               	return
  6270  0B9A                     __end_of___fldiv:
  6271                           
  6272                           	psect	text11
  6273  1608                     __ptext11:	
  6274 ;; *************** function ___awdiv *****************
  6275 ;; Defined at:
  6276 ;;		line 5 in file "C:\Program Files\Microchip\xc8\v2.31\pic\sources\c90\common\awdiv.c"
  6277 ;; Parameters:    Size  Location     Type
  6278 ;;  divisor         2    2[COMMON] int 
  6279 ;;  dividend        2    4[COMMON] int 
  6280 ;; Auto vars:     Size  Location     Type
  6281 ;;  quotient        2    2[BANK0 ] int 
  6282 ;;  sign            1    1[BANK0 ] unsigned char 
  6283 ;;  counter         1    0[BANK0 ] unsigned char 
  6284 ;; Return value:  Size  Location     Type
  6285 ;;                  2    2[COMMON] int 
  6286 ;; Registers used:
  6287 ;;		wreg, status,2, status,0
  6288 ;; Tracked objects:
  6289 ;;		On entry : 0/0
  6290 ;;		On exit  : 0/0
  6291 ;;		Unchanged: 0/0
  6292 ;; Data sizes:     COMMON   BANK0   BANK1   BANK3   BANK2
  6293 ;;      Params:         4       0       0       0       0
  6294 ;;      Locals:         0       4       0       0       0
  6295 ;;      Temps:          1       0       0       0       0
  6296 ;;      Totals:         5       4       0       0       0
  6297 ;;Total ram usage:        9 bytes
  6298 ;; Hardware stack levels used:    1
  6299 ;; Hardware stack levels required when called:    1
  6300 ;; This function calls:
  6301 ;;		Nothing
  6302 ;; This function is called by:
  6303 ;;		_convert
  6304 ;; This function uses a non-reentrant model
  6305 ;;
  6306                           
  6307                           
  6308                           ;psect for function ___awdiv
  6309  1608                     ___awdiv:
  6310  1608                     l2969:	
  6311                           ;incstack = 0
  6312                           ; Regs used in ___awdiv: [wreg+status,2+status,0]
  6313                           
  6314  1608  1283               	bcf	3,5	;RP0=0, select bank0
  6315  1609  1303               	bcf	3,6	;RP1=0, select bank0
  6316  160A  01A1               	clrf	___awdiv@sign
  6317  160B                     l2971:
  6318  160B  1FF3               	btfss	___awdiv@divisor+1,7
  6319  160C  2E0E               	goto	u4231
  6320  160D  2E0F               	goto	u4230
  6321  160E                     u4231:
  6322  160E  2E16               	goto	l2977
  6323  160F                     u4230:
  6324  160F                     l2973:
  6325  160F  09F2               	comf	___awdiv@divisor,f
  6326  1610  09F3               	comf	___awdiv@divisor+1,f
  6327  1611  0AF2               	incf	___awdiv@divisor,f
  6328  1612  1903               	skipnz
  6329  1613  0AF3               	incf	___awdiv@divisor+1,f
  6330  1614                     l2975:
  6331  1614  01A1               	clrf	___awdiv@sign
  6332  1615  0AA1               	incf	___awdiv@sign,f
  6333  1616                     l2977:
  6334  1616  1FF5               	btfss	___awdiv@dividend+1,7
  6335  1617  2E19               	goto	u4241
  6336  1618  2E1A               	goto	u4240
  6337  1619                     u4241:
  6338  1619  2E23               	goto	l2983
  6339  161A                     u4240:
  6340  161A                     l2979:
  6341  161A  09F4               	comf	___awdiv@dividend,f
  6342  161B  09F5               	comf	___awdiv@dividend+1,f
  6343  161C  0AF4               	incf	___awdiv@dividend,f
  6344  161D  1903               	skipnz
  6345  161E  0AF5               	incf	___awdiv@dividend+1,f
  6346  161F                     l2981:
  6347  161F  3001               	movlw	1
  6348  1620  00F6               	movwf	??___awdiv
  6349  1621  0876               	movf	??___awdiv,w
  6350  1622  06A1               	xorwf	___awdiv@sign,f
  6351  1623                     l2983:
  6352  1623  01A2               	clrf	___awdiv@quotient
  6353  1624  01A3               	clrf	___awdiv@quotient+1
  6354  1625                     l2985:
  6355  1625  0872               	movf	___awdiv@divisor,w
  6356  1626  0473               	iorwf	___awdiv@divisor+1,w
  6357  1627  1903               	btfsc	3,2
  6358  1628  2E2A               	goto	u4251
  6359  1629  2E2B               	goto	u4250
  6360  162A                     u4251:
  6361  162A  2E62               	goto	l3005
  6362  162B                     u4250:
  6363  162B                     l2987:
  6364  162B  01A0               	clrf	___awdiv@counter
  6365  162C  0AA0               	incf	___awdiv@counter,f
  6366  162D  2E39               	goto	l2993
  6367  162E                     l2989:
  6368  162E  3001               	movlw	1
  6369  162F                     u4265:
  6370  162F  1003               	clrc
  6371  1630  0DF2               	rlf	___awdiv@divisor,f
  6372  1631  0DF3               	rlf	___awdiv@divisor+1,f
  6373  1632  3EFF               	addlw	-1
  6374  1633  1D03               	skipz
  6375  1634  2E2F               	goto	u4265
  6376  1635                     l2991:
  6377  1635  3001               	movlw	1
  6378  1636  00F6               	movwf	??___awdiv
  6379  1637  0876               	movf	??___awdiv,w
  6380  1638  07A0               	addwf	___awdiv@counter,f
  6381  1639                     l2993:
  6382  1639  1FF3               	btfss	___awdiv@divisor+1,7
  6383  163A  2E3C               	goto	u4271
  6384  163B  2E3D               	goto	u4270
  6385  163C                     u4271:
  6386  163C  2E2E               	goto	l2989
  6387  163D                     u4270:
  6388  163D                     l2995:
  6389  163D  3001               	movlw	1
  6390  163E                     u4285:
  6391  163E  1003               	clrc
  6392  163F  0DA2               	rlf	___awdiv@quotient,f
  6393  1640  0DA3               	rlf	___awdiv@quotient+1,f
  6394  1641  3EFF               	addlw	-1
  6395  1642  1D03               	skipz
  6396  1643  2E3E               	goto	u4285
  6397  1644  0873               	movf	___awdiv@divisor+1,w
  6398  1645  0275               	subwf	___awdiv@dividend+1,w
  6399  1646  1D03               	skipz
  6400  1647  2E4A               	goto	u4295
  6401  1648  0872               	movf	___awdiv@divisor,w
  6402  1649  0274               	subwf	___awdiv@dividend,w
  6403  164A                     u4295:
  6404  164A  1C03               	skipc
  6405  164B  2E4D               	goto	u4291
  6406  164C  2E4E               	goto	u4290
  6407  164D                     u4291:
  6408  164D  2E55               	goto	l3001
  6409  164E                     u4290:
  6410  164E                     l2997:
  6411  164E  0872               	movf	___awdiv@divisor,w
  6412  164F  02F4               	subwf	___awdiv@dividend,f
  6413  1650  0873               	movf	___awdiv@divisor+1,w
  6414  1651  1C03               	skipc
  6415  1652  03F5               	decf	___awdiv@dividend+1,f
  6416  1653  02F5               	subwf	___awdiv@dividend+1,f
  6417  1654                     l2999:
  6418  1654  1422               	bsf	___awdiv@quotient,0
  6419  1655                     l3001:
  6420  1655  3001               	movlw	1
  6421  1656                     u4305:
  6422  1656  1003               	clrc
  6423  1657  0CF3               	rrf	___awdiv@divisor+1,f
  6424  1658  0CF2               	rrf	___awdiv@divisor,f
  6425  1659  3EFF               	addlw	-1
  6426  165A  1D03               	skipz
  6427  165B  2E56               	goto	u4305
  6428  165C                     l3003:
  6429  165C  3001               	movlw	1
  6430  165D  02A0               	subwf	___awdiv@counter,f
  6431  165E  1D03               	btfss	3,2
  6432  165F  2E61               	goto	u4311
  6433  1660  2E62               	goto	u4310
  6434  1661                     u4311:
  6435  1661  2E3D               	goto	l2995
  6436  1662                     u4310:
  6437  1662                     l3005:
  6438  1662  0821               	movf	___awdiv@sign,w
  6439  1663  1903               	btfsc	3,2
  6440  1664  2E66               	goto	u4321
  6441  1665  2E67               	goto	u4320
  6442  1666                     u4321:
  6443  1666  2E6C               	goto	l3009
  6444  1667                     u4320:
  6445  1667                     l3007:
  6446  1667  09A2               	comf	___awdiv@quotient,f
  6447  1668  09A3               	comf	___awdiv@quotient+1,f
  6448  1669  0AA2               	incf	___awdiv@quotient,f
  6449  166A  1903               	skipnz
  6450  166B  0AA3               	incf	___awdiv@quotient+1,f
  6451  166C                     l3009:
  6452  166C  0823               	movf	___awdiv@quotient+1,w
  6453  166D  00F3               	movwf	?___awdiv+1
  6454  166E  0822               	movf	___awdiv@quotient,w
  6455  166F  00F2               	movwf	?___awdiv
  6456  1670                     l468:
  6457  1670  0008               	return
  6458  1671                     __end_of___awdiv:
  6459                           
  6460                           	psect	text12
  6461  1486                     __ptext12:	
  6462 ;; *************** function _configADC *****************
  6463 ;; Defined at:
  6464 ;;		line 141 in file "ADC.c"
  6465 ;; Parameters:    Size  Location     Type
  6466 ;;		None
  6467 ;; Auto vars:     Size  Location     Type
  6468 ;;		None
  6469 ;; Return value:  Size  Location     Type
  6470 ;;                  1    wreg      void 
  6471 ;; Registers used:
  6472 ;;		None
  6473 ;; Tracked objects:
  6474 ;;		On entry : 0/0
  6475 ;;		On exit  : 0/0
  6476 ;;		Unchanged: 0/0
  6477 ;; Data sizes:     COMMON   BANK0   BANK1   BANK3   BANK2
  6478 ;;      Params:         0       0       0       0       0
  6479 ;;      Locals:         0       0       0       0       0
  6480 ;;      Temps:          0       0       0       0       0
  6481 ;;      Totals:         0       0       0       0       0
  6482 ;;Total ram usage:        0 bytes
  6483 ;; Hardware stack levels used:    1
  6484 ;; Hardware stack levels required when called:    1
  6485 ;; This function calls:
  6486 ;;		Nothing
  6487 ;; This function is called by:
  6488 ;;		_main
  6489 ;; This function uses a non-reentrant model
  6490 ;;
  6491                           
  6492                           
  6493                           ;psect for function _configADC
  6494  1486                     _configADC:
  6495  1486                     l2673:	
  6496                           ;incstack = 0
  6497                           ; Regs used in _configADC: []
  6498                           
  6499                           
  6500                           ;ADC.c: 143:     ADCON0bits.ADCS0 = 1;
  6501  1486  1283               	bcf	3,5	;RP0=0, select bank0
  6502  1487  1303               	bcf	3,6	;RP1=0, select bank0
  6503  1488  171F               	bsf	31,6	;volatile
  6504                           
  6505                           ;ADC.c: 144:     ADCON0bits.ADCS1 = 0;
  6506  1489  139F               	bcf	31,7	;volatile
  6507                           
  6508                           ;ADC.c: 146:     ADCON1bits.VCFG0 = 0;
  6509  148A  1683               	bsf	3,5	;RP0=1, select bank1
  6510  148B  1303               	bcf	3,6	;RP1=0, select bank1
  6511  148C  121F               	bcf	31,4	;volatile
  6512                           
  6513                           ;ADC.c: 147:     ADCON1bits.VCFG1 = 0;
  6514  148D  129F               	bcf	31,5	;volatile
  6515                           
  6516                           ;ADC.c: 149:     ADCON1bits.ADFM = 0;
  6517  148E  139F               	bcf	31,7	;volatile
  6518                           
  6519                           ;ADC.c: 151:     PIR1bits.ADIF = 0;
  6520  148F  1283               	bcf	3,5	;RP0=0, select bank0
  6521  1490  1303               	bcf	3,6	;RP1=0, select bank0
  6522  1491  130C               	bcf	12,6	;volatile
  6523                           
  6524                           ;ADC.c: 152:     PIE1bits.ADIE = 1;
  6525  1492  1683               	bsf	3,5	;RP0=1, select bank1
  6526  1493  1303               	bcf	3,6	;RP1=0, select bank1
  6527  1494  170C               	bsf	12,6	;volatile
  6528                           
  6529                           ;ADC.c: 154:     ADCON0bits.ADON = 1;
  6530  1495  1283               	bcf	3,5	;RP0=0, select bank0
  6531  1496  1303               	bcf	3,6	;RP1=0, select bank0
  6532  1497  141F               	bsf	31,0	;volatile
  6533  1498                     l229:
  6534  1498  0008               	return
  6535  1499                     __end_of_configADC:
  6536                           
  6537                           	psect	text13
  6538  0856                     __ptext13:	
  6539 ;; *************** function _canalADC *****************
  6540 ;; Defined at:
  6541 ;;		line 13 in file "ADC.c"
  6542 ;; Parameters:    Size  Location     Type
  6543 ;;  canal           1    wreg     unsigned char 
  6544 ;; Auto vars:     Size  Location     Type
  6545 ;;  canal           1    2[COMMON] unsigned char 
  6546 ;; Return value:  Size  Location     Type
  6547 ;;                  1    wreg      void 
  6548 ;; Registers used:
  6549 ;;		wreg, status,2, status,0
  6550 ;; Tracked objects:
  6551 ;;		On entry : 0/0
  6552 ;;		On exit  : 0/0
  6553 ;;		Unchanged: 0/0
  6554 ;; Data sizes:     COMMON   BANK0   BANK1   BANK3   BANK2
  6555 ;;      Params:         0       0       0       0       0
  6556 ;;      Locals:         1       0       0       0       0
  6557 ;;      Temps:          0       0       0       0       0
  6558 ;;      Totals:         1       0       0       0       0
  6559 ;;Total ram usage:        1 bytes
  6560 ;; Hardware stack levels used:    1
  6561 ;; Hardware stack levels required when called:    1
  6562 ;; This function calls:
  6563 ;;		Nothing
  6564 ;; This function is called by:
  6565 ;;		_main
  6566 ;; This function uses a non-reentrant model
  6567 ;;
  6568                           
  6569                           
  6570                           ;psect for function _canalADC
  6571  0856                     _canalADC:
  6572                           
  6573                           ;incstack = 0
  6574                           ; Regs used in _canalADC: [wreg+status,2+status,0]
  6575                           ;canalADC@canal stored from wreg
  6576  0856  00F2               	movwf	canalADC@canal
  6577  0857                     l2675:
  6578                           
  6579                           ;ADC.c: 15:     if (canal == 0) {
  6580  0857  0872               	movf	canalADC@canal,w
  6581  0858  1D03               	btfss	3,2
  6582  0859  285B               	goto	u3841
  6583  085A  285C               	goto	u3840
  6584  085B                     u3841:
  6585  085B  2862               	goto	l2679
  6586  085C                     u3840:
  6587  085C                     l2677:
  6588                           
  6589                           ;ADC.c: 16:         ADCON0bits.CHS3 = 0;
  6590  085C  1283               	bcf	3,5	;RP0=0, select bank0
  6591  085D  1303               	bcf	3,6	;RP1=0, select bank0
  6592  085E  129F               	bcf	31,5	;volatile
  6593                           
  6594                           ;ADC.c: 17:         ADCON0bits.CHS2 = 0;
  6595  085F  121F               	bcf	31,4	;volatile
  6596                           
  6597                           ;ADC.c: 18:         ADCON0bits.CHS1 = 0;
  6598  0860  119F               	bcf	31,3	;volatile
  6599                           
  6600                           ;ADC.c: 19:         ADCON0bits.CHS0 = 0;
  6601  0861  111F               	bcf	31,2	;volatile
  6602  0862                     l2679:
  6603                           
  6604                           ;ADC.c: 23:     if (canal == 1) {
  6605  0862  0372               	decf	canalADC@canal,w
  6606  0863  1D03               	btfss	3,2
  6607  0864  2866               	goto	u3851
  6608  0865  2867               	goto	u3850
  6609  0866                     u3851:
  6610  0866  286D               	goto	l2683
  6611  0867                     u3850:
  6612  0867                     l2681:
  6613                           
  6614                           ;ADC.c: 24:         ADCON0bits.CHS3 = 0;
  6615  0867  1283               	bcf	3,5	;RP0=0, select bank0
  6616  0868  1303               	bcf	3,6	;RP1=0, select bank0
  6617  0869  129F               	bcf	31,5	;volatile
  6618                           
  6619                           ;ADC.c: 25:         ADCON0bits.CHS2 = 0;
  6620  086A  121F               	bcf	31,4	;volatile
  6621                           
  6622                           ;ADC.c: 26:         ADCON0bits.CHS1 = 0;
  6623  086B  119F               	bcf	31,3	;volatile
  6624                           
  6625                           ;ADC.c: 27:         ADCON0bits.CHS0 = 1;
  6626  086C  151F               	bsf	31,2	;volatile
  6627  086D                     l2683:
  6628                           
  6629                           ;ADC.c: 32:     if (canal == 2) {
  6630  086D  3002               	movlw	2
  6631  086E  0672               	xorwf	canalADC@canal,w
  6632  086F  1D03               	btfss	3,2
  6633  0870  2872               	goto	u3861
  6634  0871  2873               	goto	u3860
  6635  0872                     u3861:
  6636  0872  2879               	goto	l2687
  6637  0873                     u3860:
  6638  0873                     l2685:
  6639                           
  6640                           ;ADC.c: 33:         ADCON0bits.CHS3 = 0;
  6641  0873  1283               	bcf	3,5	;RP0=0, select bank0
  6642  0874  1303               	bcf	3,6	;RP1=0, select bank0
  6643  0875  129F               	bcf	31,5	;volatile
  6644                           
  6645                           ;ADC.c: 34:         ADCON0bits.CHS2 = 0;
  6646  0876  121F               	bcf	31,4	;volatile
  6647                           
  6648                           ;ADC.c: 35:         ADCON0bits.CHS1 = 1;
  6649  0877  159F               	bsf	31,3	;volatile
  6650                           
  6651                           ;ADC.c: 36:         ADCON0bits.CHS0 = 0;
  6652  0878  111F               	bcf	31,2	;volatile
  6653  0879                     l2687:
  6654                           
  6655                           ;ADC.c: 41:     if (canal == 3) {
  6656  0879  3003               	movlw	3
  6657  087A  0672               	xorwf	canalADC@canal,w
  6658  087B  1D03               	btfss	3,2
  6659  087C  287E               	goto	u3871
  6660  087D  287F               	goto	u3870
  6661  087E                     u3871:
  6662  087E  2885               	goto	l2691
  6663  087F                     u3870:
  6664  087F                     l2689:
  6665                           
  6666                           ;ADC.c: 42:         ADCON0bits.CHS3 = 0;
  6667  087F  1283               	bcf	3,5	;RP0=0, select bank0
  6668  0880  1303               	bcf	3,6	;RP1=0, select bank0
  6669  0881  129F               	bcf	31,5	;volatile
  6670                           
  6671                           ;ADC.c: 43:         ADCON0bits.CHS2 = 0;
  6672  0882  121F               	bcf	31,4	;volatile
  6673                           
  6674                           ;ADC.c: 44:         ADCON0bits.CHS1 = 1;
  6675  0883  159F               	bsf	31,3	;volatile
  6676                           
  6677                           ;ADC.c: 45:         ADCON0bits.CHS0 = 1;
  6678  0884  151F               	bsf	31,2	;volatile
  6679  0885                     l2691:
  6680                           
  6681                           ;ADC.c: 50:     if (canal == 4) {
  6682  0885  3004               	movlw	4
  6683  0886  0672               	xorwf	canalADC@canal,w
  6684  0887  1D03               	btfss	3,2
  6685  0888  288A               	goto	u3881
  6686  0889  288B               	goto	u3880
  6687  088A                     u3881:
  6688  088A  2891               	goto	l2695
  6689  088B                     u3880:
  6690  088B                     l2693:
  6691                           
  6692                           ;ADC.c: 51:         ADCON0bits.CHS3 = 0;
  6693  088B  1283               	bcf	3,5	;RP0=0, select bank0
  6694  088C  1303               	bcf	3,6	;RP1=0, select bank0
  6695  088D  129F               	bcf	31,5	;volatile
  6696                           
  6697                           ;ADC.c: 52:         ADCON0bits.CHS2 = 1;
  6698  088E  161F               	bsf	31,4	;volatile
  6699                           
  6700                           ;ADC.c: 53:         ADCON0bits.CHS1 = 0;
  6701  088F  119F               	bcf	31,3	;volatile
  6702                           
  6703                           ;ADC.c: 54:         ADCON0bits.CHS0 = 0;
  6704  0890  111F               	bcf	31,2	;volatile
  6705  0891                     l2695:
  6706                           
  6707                           ;ADC.c: 59:     if (canal == 5) {
  6708  0891  3005               	movlw	5
  6709  0892  0672               	xorwf	canalADC@canal,w
  6710  0893  1D03               	btfss	3,2
  6711  0894  2896               	goto	u3891
  6712  0895  2897               	goto	u3890
  6713  0896                     u3891:
  6714  0896  289D               	goto	l2699
  6715  0897                     u3890:
  6716  0897                     l2697:
  6717                           
  6718                           ;ADC.c: 60:         ADCON0bits.CHS3 = 0;
  6719  0897  1283               	bcf	3,5	;RP0=0, select bank0
  6720  0898  1303               	bcf	3,6	;RP1=0, select bank0
  6721  0899  129F               	bcf	31,5	;volatile
  6722                           
  6723                           ;ADC.c: 61:         ADCON0bits.CHS2 = 1;
  6724  089A  161F               	bsf	31,4	;volatile
  6725                           
  6726                           ;ADC.c: 62:         ADCON0bits.CHS1 = 0;
  6727  089B  119F               	bcf	31,3	;volatile
  6728                           
  6729                           ;ADC.c: 63:         ADCON0bits.CHS0 = 1;
  6730  089C  151F               	bsf	31,2	;volatile
  6731  089D                     l2699:
  6732                           
  6733                           ;ADC.c: 68:     if (canal == 6) {
  6734  089D  3006               	movlw	6
  6735  089E  0672               	xorwf	canalADC@canal,w
  6736  089F  1D03               	btfss	3,2
  6737  08A0  28A2               	goto	u3901
  6738  08A1  28A3               	goto	u3900
  6739  08A2                     u3901:
  6740  08A2  28A9               	goto	l2703
  6741  08A3                     u3900:
  6742  08A3                     l2701:
  6743                           
  6744                           ;ADC.c: 69:         ADCON0bits.CHS3 = 0;
  6745  08A3  1283               	bcf	3,5	;RP0=0, select bank0
  6746  08A4  1303               	bcf	3,6	;RP1=0, select bank0
  6747  08A5  129F               	bcf	31,5	;volatile
  6748                           
  6749                           ;ADC.c: 70:         ADCON0bits.CHS2 = 1;
  6750  08A6  161F               	bsf	31,4	;volatile
  6751                           
  6752                           ;ADC.c: 71:         ADCON0bits.CHS1 = 1;
  6753  08A7  159F               	bsf	31,3	;volatile
  6754                           
  6755                           ;ADC.c: 72:         ADCON0bits.CHS0 = 0;
  6756  08A8  111F               	bcf	31,2	;volatile
  6757  08A9                     l2703:
  6758                           
  6759                           ;ADC.c: 77:     if (canal == 7) {
  6760  08A9  3007               	movlw	7
  6761  08AA  0672               	xorwf	canalADC@canal,w
  6762  08AB  1D03               	btfss	3,2
  6763  08AC  28AE               	goto	u3911
  6764  08AD  28AF               	goto	u3910
  6765  08AE                     u3911:
  6766  08AE  28B5               	goto	l2707
  6767  08AF                     u3910:
  6768  08AF                     l2705:
  6769                           
  6770                           ;ADC.c: 78:         ADCON0bits.CHS3 = 0;
  6771  08AF  1283               	bcf	3,5	;RP0=0, select bank0
  6772  08B0  1303               	bcf	3,6	;RP1=0, select bank0
  6773  08B1  129F               	bcf	31,5	;volatile
  6774                           
  6775                           ;ADC.c: 79:         ADCON0bits.CHS2 = 1;
  6776  08B2  161F               	bsf	31,4	;volatile
  6777                           
  6778                           ;ADC.c: 80:         ADCON0bits.CHS1 = 1;
  6779  08B3  159F               	bsf	31,3	;volatile
  6780                           
  6781                           ;ADC.c: 81:         ADCON0bits.CHS0 = 1;
  6782  08B4  151F               	bsf	31,2	;volatile
  6783  08B5                     l2707:
  6784                           
  6785                           ;ADC.c: 86:     if (canal == 8) {
  6786  08B5  3008               	movlw	8
  6787  08B6  0672               	xorwf	canalADC@canal,w
  6788  08B7  1D03               	btfss	3,2
  6789  08B8  28BA               	goto	u3921
  6790  08B9  28BB               	goto	u3920
  6791  08BA                     u3921:
  6792  08BA  28C1               	goto	l2711
  6793  08BB                     u3920:
  6794  08BB                     l2709:
  6795                           
  6796                           ;ADC.c: 87:         ADCON0bits.CHS3 = 1;
  6797  08BB  1283               	bcf	3,5	;RP0=0, select bank0
  6798  08BC  1303               	bcf	3,6	;RP1=0, select bank0
  6799  08BD  169F               	bsf	31,5	;volatile
  6800                           
  6801                           ;ADC.c: 88:         ADCON0bits.CHS2 = 0;
  6802  08BE  121F               	bcf	31,4	;volatile
  6803                           
  6804                           ;ADC.c: 89:         ADCON0bits.CHS1 = 0;
  6805  08BF  119F               	bcf	31,3	;volatile
  6806                           
  6807                           ;ADC.c: 90:         ADCON0bits.CHS0 = 0;
  6808  08C0  111F               	bcf	31,2	;volatile
  6809  08C1                     l2711:
  6810                           
  6811                           ;ADC.c: 94:     if (canal == 9) {
  6812  08C1  3009               	movlw	9
  6813  08C2  0672               	xorwf	canalADC@canal,w
  6814  08C3  1D03               	btfss	3,2
  6815  08C4  28C6               	goto	u3931
  6816  08C5  28C7               	goto	u3930
  6817  08C6                     u3931:
  6818  08C6  28CD               	goto	l2715
  6819  08C7                     u3930:
  6820  08C7                     l2713:
  6821                           
  6822                           ;ADC.c: 95:         ADCON0bits.CHS3 = 1;
  6823  08C7  1283               	bcf	3,5	;RP0=0, select bank0
  6824  08C8  1303               	bcf	3,6	;RP1=0, select bank0
  6825  08C9  169F               	bsf	31,5	;volatile
  6826                           
  6827                           ;ADC.c: 96:         ADCON0bits.CHS2 = 0;
  6828  08CA  121F               	bcf	31,4	;volatile
  6829                           
  6830                           ;ADC.c: 97:         ADCON0bits.CHS1 = 0;
  6831  08CB  119F               	bcf	31,3	;volatile
  6832                           
  6833                           ;ADC.c: 98:         ADCON0bits.CHS0 = 1;
  6834  08CC  151F               	bsf	31,2	;volatile
  6835  08CD                     l2715:
  6836                           
  6837                           ;ADC.c: 102:     if (canal == 10) {
  6838  08CD  300A               	movlw	10
  6839  08CE  0672               	xorwf	canalADC@canal,w
  6840  08CF  1D03               	btfss	3,2
  6841  08D0  28D2               	goto	u3941
  6842  08D1  28D3               	goto	u3940
  6843  08D2                     u3941:
  6844  08D2  28D9               	goto	l2719
  6845  08D3                     u3940:
  6846  08D3                     l2717:
  6847                           
  6848                           ;ADC.c: 103:         ADCON0bits.CHS3 = 1;
  6849  08D3  1283               	bcf	3,5	;RP0=0, select bank0
  6850  08D4  1303               	bcf	3,6	;RP1=0, select bank0
  6851  08D5  169F               	bsf	31,5	;volatile
  6852                           
  6853                           ;ADC.c: 104:         ADCON0bits.CHS2 = 0;
  6854  08D6  121F               	bcf	31,4	;volatile
  6855                           
  6856                           ;ADC.c: 105:         ADCON0bits.CHS1 = 1;
  6857  08D7  159F               	bsf	31,3	;volatile
  6858                           
  6859                           ;ADC.c: 106:         ADCON0bits.CHS0 = 0;
  6860  08D8  111F               	bcf	31,2	;volatile
  6861  08D9                     l2719:
  6862                           
  6863                           ;ADC.c: 111:     if (canal == 11) {
  6864  08D9  300B               	movlw	11
  6865  08DA  0672               	xorwf	canalADC@canal,w
  6866  08DB  1D03               	btfss	3,2
  6867  08DC  28DE               	goto	u3951
  6868  08DD  28DF               	goto	u3950
  6869  08DE                     u3951:
  6870  08DE  28E5               	goto	l2723
  6871  08DF                     u3950:
  6872  08DF                     l2721:
  6873                           
  6874                           ;ADC.c: 112:         ADCON0bits.CHS3 = 1;
  6875  08DF  1283               	bcf	3,5	;RP0=0, select bank0
  6876  08E0  1303               	bcf	3,6	;RP1=0, select bank0
  6877  08E1  169F               	bsf	31,5	;volatile
  6878                           
  6879                           ;ADC.c: 113:         ADCON0bits.CHS2 = 0;
  6880  08E2  121F               	bcf	31,4	;volatile
  6881                           
  6882                           ;ADC.c: 114:         ADCON0bits.CHS1 = 1;
  6883  08E3  159F               	bsf	31,3	;volatile
  6884                           
  6885                           ;ADC.c: 115:         ADCON0bits.CHS0 = 1;
  6886  08E4  151F               	bsf	31,2	;volatile
  6887  08E5                     l2723:
  6888                           
  6889                           ;ADC.c: 120:     if (canal == 12) {
  6890  08E5  300C               	movlw	12
  6891  08E6  0672               	xorwf	canalADC@canal,w
  6892  08E7  1D03               	btfss	3,2
  6893  08E8  28EA               	goto	u3961
  6894  08E9  28EB               	goto	u3960
  6895  08EA                     u3961:
  6896  08EA  28F1               	goto	l2727
  6897  08EB                     u3960:
  6898  08EB                     l2725:
  6899                           
  6900                           ;ADC.c: 121:         ADCON0bits.CHS3 = 1;
  6901  08EB  1283               	bcf	3,5	;RP0=0, select bank0
  6902  08EC  1303               	bcf	3,6	;RP1=0, select bank0
  6903  08ED  169F               	bsf	31,5	;volatile
  6904                           
  6905                           ;ADC.c: 122:         ADCON0bits.CHS2 = 1;
  6906  08EE  161F               	bsf	31,4	;volatile
  6907                           
  6908                           ;ADC.c: 123:         ADCON0bits.CHS1 = 0;
  6909  08EF  119F               	bcf	31,3	;volatile
  6910                           
  6911                           ;ADC.c: 124:         ADCON0bits.CHS0 = 0;
  6912  08F0  111F               	bcf	31,2	;volatile
  6913  08F1                     l2727:
  6914                           
  6915                           ;ADC.c: 129:     if (canal == 13) {
  6916  08F1  300D               	movlw	13
  6917  08F2  0672               	xorwf	canalADC@canal,w
  6918  08F3  1D03               	btfss	3,2
  6919  08F4  28F6               	goto	u3971
  6920  08F5  28F7               	goto	u3970
  6921  08F6                     u3971:
  6922  08F6  28FD               	goto	l225
  6923  08F7                     u3970:
  6924  08F7                     l2729:
  6925                           
  6926                           ;ADC.c: 130:         ADCON0bits.CHS3 = 1;
  6927  08F7  1283               	bcf	3,5	;RP0=0, select bank0
  6928  08F8  1303               	bcf	3,6	;RP1=0, select bank0
  6929  08F9  169F               	bsf	31,5	;volatile
  6930                           
  6931                           ;ADC.c: 131:         ADCON0bits.CHS2 = 1;
  6932  08FA  161F               	bsf	31,4	;volatile
  6933                           
  6934                           ;ADC.c: 132:         ADCON0bits.CHS1 = 0;
  6935  08FB  119F               	bcf	31,3	;volatile
  6936                           
  6937                           ;ADC.c: 133:         ADCON0bits.CHS0 = 1;
  6938  08FC  151F               	bsf	31,2	;volatile
  6939  08FD                     l225:	
  6940                           ;ADC.c: 135:     }
  6941                           
  6942                           
  6943                           ;ADC.c: 137:     ADCON0bits.GO = 1;
  6944  08FD  1283               	bcf	3,5	;RP0=0, select bank0
  6945  08FE  1303               	bcf	3,6	;RP1=0, select bank0
  6946  08FF  149F               	bsf	31,1	;volatile
  6947  0900                     l226:	
  6948                           ;ADC.c: 138:     return;
  6949                           
  6950  0900  0008               	return
  6951  0901                     __end_of_canalADC:
  6952                           
  6953                           	psect	text14
  6954  1671                     __ptext14:	
  6955 ;; *************** function _UARTInit *****************
  6956 ;; Defined at:
  6957 ;;		line 9 in file "UART.c"
  6958 ;; Parameters:    Size  Location     Type
  6959 ;;  baud_rate       4    6[BANK0 ] const unsigned long 
  6960 ;;  BRGH            1   10[BANK0 ] const unsigned char 
  6961 ;; Auto vars:     Size  Location     Type
  6962 ;;		None
  6963 ;; Return value:  Size  Location     Type
  6964 ;;                  1    wreg      void 
  6965 ;; Registers used:
  6966 ;;		wreg, status,2, status,0, pclath, cstack
  6967 ;; Tracked objects:
  6968 ;;		On entry : 0/0
  6969 ;;		On exit  : 0/0
  6970 ;;		Unchanged: 0/0
  6971 ;; Data sizes:     COMMON   BANK0   BANK1   BANK3   BANK2
  6972 ;;      Params:         0       5       0       0       0
  6973 ;;      Locals:         0       0       0       0       0
  6974 ;;      Temps:          0       4       0       0       0
  6975 ;;      Totals:         0       9       0       0       0
  6976 ;;Total ram usage:        9 bytes
  6977 ;; Hardware stack levels used:    1
  6978 ;; Hardware stack levels required when called:    2
  6979 ;; This function calls:
  6980 ;;		___lldiv
  6981 ;; This function is called by:
  6982 ;;		_main
  6983 ;; This function uses a non-reentrant model
  6984 ;;
  6985                           
  6986                           
  6987                           ;psect for function _UARTInit
  6988  1671                     _UARTInit:
  6989  1671                     l3189:	
  6990                           ;incstack = 0
  6991                           ; Regs used in _UARTInit: [wreg+status,2+status,0+pclath+cstack]
  6992                           
  6993                           
  6994                           ;UART.c: 11:     if (BRGH == 0) {
  6995  1671  1283               	bcf	3,5	;RP0=0, select bank0
  6996  1672  1303               	bcf	3,6	;RP1=0, select bank0
  6997  1673  082A               	movf	UARTInit@BRGH,w
  6998  1674  1D03               	btfss	3,2
  6999  1675  2E77               	goto	u4801
  7000  1676  2E78               	goto	u4800
  7001  1677                     u4801:
  7002  1677  2EA5               	goto	l3195
  7003  1678                     u4800:
  7004  1678                     l3191:
  7005                           
  7006                           ;UART.c: 12:         SPBRG = 8000000/(64*baud_rate) - 1;
  7007  1678  0826               	movf	UARTInit@baud_rate,w
  7008  1679  00AB               	movwf	??_UARTInit
  7009  167A  0827               	movf	UARTInit@baud_rate+1,w
  7010  167B  00AC               	movwf	??_UARTInit+1
  7011  167C  0828               	movf	UARTInit@baud_rate+2,w
  7012  167D  00AD               	movwf	??_UARTInit+2
  7013  167E  0829               	movf	UARTInit@baud_rate+3,w
  7014  167F  00AE               	movwf	??_UARTInit+3
  7015  1680  3006               	movlw	6
  7016  1681                     u4815:
  7017  1681  1003               	clrc
  7018  1682  0DAB               	rlf	??_UARTInit,f
  7019  1683  0DAC               	rlf	??_UARTInit+1,f
  7020  1684  0DAD               	rlf	??_UARTInit+2,f
  7021  1685  0DAE               	rlf	??_UARTInit+3,f
  7022  1686                     u4810:
  7023  1686  3EFF               	addlw	-1
  7024  1687  1D03               	skipz
  7025  1688  2E81               	goto	u4815
  7026  1689  082E               	movf	??_UARTInit+3,w
  7027  168A  00F5               	movwf	___lldiv@divisor+3
  7028  168B  082D               	movf	??_UARTInit+2,w
  7029  168C  00F4               	movwf	___lldiv@divisor+2
  7030  168D  082C               	movf	??_UARTInit+1,w
  7031  168E  00F3               	movwf	___lldiv@divisor+1
  7032  168F  082B               	movf	??_UARTInit,w
  7033  1690  00F2               	movwf	___lldiv@divisor
  7034  1691  3000               	movlw	0
  7035  1692  00F9               	movwf	___lldiv@dividend+3
  7036  1693  307A               	movlw	122
  7037  1694  00F8               	movwf	___lldiv@dividend+2
  7038  1695  3012               	movlw	18
  7039  1696  00F7               	movwf	___lldiv@dividend+1
  7040  1697  3000               	movlw	0
  7041  1698  00F6               	movwf	___lldiv@dividend
  7042  1699  160A  118A  25A0  160A  118A  	fcall	___lldiv
  7043  169E  0872               	movf	?___lldiv,w
  7044  169F  3EFF               	addlw	255
  7045  16A0  1683               	bsf	3,5	;RP0=1, select bank1
  7046  16A1  1303               	bcf	3,6	;RP1=0, select bank1
  7047  16A2  0099               	movwf	25	;volatile
  7048  16A3                     l3193:
  7049                           
  7050                           ;UART.c: 13:         TXSTAbits.BRGH = 0;
  7051  16A3  1118               	bcf	24,2	;volatile
  7052                           
  7053                           ;UART.c: 14:     } else {
  7054  16A4  2ED1               	goto	l3199
  7055  16A5                     l3195:
  7056                           
  7057                           ;UART.c: 15:         SPBRG = 8000000/(16*baud_rate) - 1;
  7058  16A5  0826               	movf	UARTInit@baud_rate,w
  7059  16A6  00AB               	movwf	??_UARTInit
  7060  16A7  0827               	movf	UARTInit@baud_rate+1,w
  7061  16A8  00AC               	movwf	??_UARTInit+1
  7062  16A9  0828               	movf	UARTInit@baud_rate+2,w
  7063  16AA  00AD               	movwf	??_UARTInit+2
  7064  16AB  0829               	movf	UARTInit@baud_rate+3,w
  7065  16AC  00AE               	movwf	??_UARTInit+3
  7066  16AD  3004               	movlw	4
  7067  16AE                     u4825:
  7068  16AE  1003               	clrc
  7069  16AF  0DAB               	rlf	??_UARTInit,f
  7070  16B0  0DAC               	rlf	??_UARTInit+1,f
  7071  16B1  0DAD               	rlf	??_UARTInit+2,f
  7072  16B2  0DAE               	rlf	??_UARTInit+3,f
  7073  16B3                     u4820:
  7074  16B3  3EFF               	addlw	-1
  7075  16B4  1D03               	skipz
  7076  16B5  2EAE               	goto	u4825
  7077  16B6  082E               	movf	??_UARTInit+3,w
  7078  16B7  00F5               	movwf	___lldiv@divisor+3
  7079  16B8  082D               	movf	??_UARTInit+2,w
  7080  16B9  00F4               	movwf	___lldiv@divisor+2
  7081  16BA  082C               	movf	??_UARTInit+1,w
  7082  16BB  00F3               	movwf	___lldiv@divisor+1
  7083  16BC  082B               	movf	??_UARTInit,w
  7084  16BD  00F2               	movwf	___lldiv@divisor
  7085  16BE  3000               	movlw	0
  7086  16BF  00F9               	movwf	___lldiv@dividend+3
  7087  16C0  307A               	movlw	122
  7088  16C1  00F8               	movwf	___lldiv@dividend+2
  7089  16C2  3012               	movlw	18
  7090  16C3  00F7               	movwf	___lldiv@dividend+1
  7091  16C4  3000               	movlw	0
  7092  16C5  00F6               	movwf	___lldiv@dividend
  7093  16C6  160A  118A  25A0  160A  118A  	fcall	___lldiv
  7094  16CB  0872               	movf	?___lldiv,w
  7095  16CC  3EFF               	addlw	255
  7096  16CD  1683               	bsf	3,5	;RP0=1, select bank1
  7097  16CE  1303               	bcf	3,6	;RP1=0, select bank1
  7098  16CF  0099               	movwf	25	;volatile
  7099  16D0                     l3197:
  7100                           
  7101                           ;UART.c: 16:         TXSTAbits.BRGH = 1;
  7102  16D0  1518               	bsf	24,2	;volatile
  7103  16D1                     l3199:
  7104                           
  7105                           ;UART.c: 20:     TXSTAbits.TX9 = 0;
  7106  16D1  1318               	bcf	24,6	;volatile
  7107  16D2                     l3201:
  7108                           
  7109                           ;UART.c: 21:     TXSTAbits.TXEN = 1;
  7110  16D2  1698               	bsf	24,5	;volatile
  7111  16D3                     l3203:
  7112                           
  7113                           ;UART.c: 22:     TXSTAbits.SYNC = 0;
  7114  16D3  1218               	bcf	24,4	;volatile
  7115  16D4                     l3205:
  7116                           
  7117                           ;UART.c: 25:     RCSTAbits.SPEN = 1;
  7118  16D4  1283               	bcf	3,5	;RP0=0, select bank0
  7119  16D5  1303               	bcf	3,6	;RP1=0, select bank0
  7120  16D6  1798               	bsf	24,7	;volatile
  7121  16D7                     l3207:
  7122                           
  7123                           ;UART.c: 26:     RCSTAbits.RX9 = 0;
  7124  16D7  1318               	bcf	24,6	;volatile
  7125  16D8                     l3209:
  7126                           
  7127                           ;UART.c: 27:     RCSTAbits.CREN = 1;
  7128  16D8  1618               	bsf	24,4	;volatile
  7129  16D9                     l3211:
  7130                           
  7131                           ;UART.c: 28:     RCSTAbits.FERR = 0;
  7132  16D9  1118               	bcf	24,2	;volatile
  7133  16DA                     l3213:
  7134                           
  7135                           ;UART.c: 29:     RCSTAbits.OERR = 0;
  7136  16DA  1098               	bcf	24,1	;volatile
  7137  16DB                     l3215:
  7138                           
  7139                           ;UART.c: 32:     TRISBbits.TRISB2 = 1;
  7140  16DB  1683               	bsf	3,5	;RP0=1, select bank1
  7141  16DC  1303               	bcf	3,6	;RP1=0, select bank1
  7142  16DD  1506               	bsf	6,2	;volatile
  7143  16DE                     l3217:
  7144                           
  7145                           ;UART.c: 33:     TRISBbits.TRISB5 = 0;
  7146  16DE  1286               	bcf	6,5	;volatile
  7147  16DF                     l169:
  7148  16DF  0008               	return
  7149  16E0                     __end_of_UARTInit:
  7150                           
  7151                           	psect	text15
  7152  15A0                     __ptext15:	
  7153 ;; *************** function ___lldiv *****************
  7154 ;; Defined at:
  7155 ;;		line 5 in file "C:\Program Files\Microchip\xc8\v2.31\pic\sources\c90\common\__lldiv.c"
  7156 ;; Parameters:    Size  Location     Type
  7157 ;;  divisor         4    2[COMMON] unsigned long 
  7158 ;;  dividend        4    6[COMMON] unsigned long 
  7159 ;; Auto vars:     Size  Location     Type
  7160 ;;  quotient        4    1[BANK0 ] unsigned long 
  7161 ;;  counter         1    5[BANK0 ] unsigned char 
  7162 ;; Return value:  Size  Location     Type
  7163 ;;                  4    2[COMMON] unsigned long 
  7164 ;; Registers used:
  7165 ;;		wreg, status,2, status,0
  7166 ;; Tracked objects:
  7167 ;;		On entry : 0/0
  7168 ;;		On exit  : 0/0
  7169 ;;		Unchanged: 0/0
  7170 ;; Data sizes:     COMMON   BANK0   BANK1   BANK3   BANK2
  7171 ;;      Params:         8       0       0       0       0
  7172 ;;      Locals:         0       5       0       0       0
  7173 ;;      Temps:          0       1       0       0       0
  7174 ;;      Totals:         8       6       0       0       0
  7175 ;;Total ram usage:       14 bytes
  7176 ;; Hardware stack levels used:    1
  7177 ;; Hardware stack levels required when called:    1
  7178 ;; This function calls:
  7179 ;;		Nothing
  7180 ;; This function is called by:
  7181 ;;		_UARTInit
  7182 ;; This function uses a non-reentrant model
  7183 ;;
  7184                           
  7185                           
  7186                           ;psect for function ___lldiv
  7187  15A0                     ___lldiv:
  7188  15A0                     l2945:	
  7189                           ;incstack = 0
  7190                           ; Regs used in ___lldiv: [wreg+status,2+status,0]
  7191                           
  7192  15A0  3000               	movlw	0
  7193  15A1  1283               	bcf	3,5	;RP0=0, select bank0
  7194  15A2  1303               	bcf	3,6	;RP1=0, select bank0
  7195  15A3  00A4               	movwf	___lldiv@quotient+3
  7196  15A4  3000               	movlw	0
  7197  15A5  00A3               	movwf	___lldiv@quotient+2
  7198  15A6  3000               	movlw	0
  7199  15A7  00A2               	movwf	___lldiv@quotient+1
  7200  15A8  3000               	movlw	0
  7201  15A9  00A1               	movwf	___lldiv@quotient
  7202  15AA  0875               	movf	___lldiv@divisor+3,w
  7203  15AB  0474               	iorwf	___lldiv@divisor+2,w
  7204  15AC  0473               	iorwf	___lldiv@divisor+1,w
  7205  15AD  0472               	iorwf	___lldiv@divisor,w
  7206  15AE  1903               	skipnz
  7207  15AF  2DB1               	goto	u4161
  7208  15B0  2DB2               	goto	u4160
  7209  15B1                     u4161:
  7210  15B1  2DFF               	goto	l2965
  7211  15B2                     u4160:
  7212  15B2                     l2947:
  7213  15B2  01A5               	clrf	___lldiv@counter
  7214  15B3  0AA5               	incf	___lldiv@counter,f
  7215  15B4  2DC2               	goto	l2951
  7216  15B5                     l2949:
  7217  15B5  3001               	movlw	1
  7218  15B6  00A0               	movwf	??___lldiv
  7219  15B7                     u4175:
  7220  15B7  1003               	clrc
  7221  15B8  0DF2               	rlf	___lldiv@divisor,f
  7222  15B9  0DF3               	rlf	___lldiv@divisor+1,f
  7223  15BA  0DF4               	rlf	___lldiv@divisor+2,f
  7224  15BB  0DF5               	rlf	___lldiv@divisor+3,f
  7225  15BC  0BA0               	decfsz	??___lldiv,f
  7226  15BD  2DB7               	goto	u4175
  7227  15BE  3001               	movlw	1
  7228  15BF  00A0               	movwf	??___lldiv
  7229  15C0  0820               	movf	??___lldiv,w
  7230  15C1  07A5               	addwf	___lldiv@counter,f
  7231  15C2                     l2951:
  7232  15C2  1FF5               	btfss	___lldiv@divisor+3,7
  7233  15C3  2DC5               	goto	u4181
  7234  15C4  2DC6               	goto	u4180
  7235  15C5                     u4181:
  7236  15C5  2DB5               	goto	l2949
  7237  15C6                     u4180:
  7238  15C6                     l2953:
  7239  15C6  3001               	movlw	1
  7240  15C7  00A0               	movwf	??___lldiv
  7241  15C8                     u4195:
  7242  15C8  1003               	clrc
  7243  15C9  0DA1               	rlf	___lldiv@quotient,f
  7244  15CA  0DA2               	rlf	___lldiv@quotient+1,f
  7245  15CB  0DA3               	rlf	___lldiv@quotient+2,f
  7246  15CC  0DA4               	rlf	___lldiv@quotient+3,f
  7247  15CD  0BA0               	decfsz	??___lldiv,f
  7248  15CE  2DC8               	goto	u4195
  7249  15CF                     l2955:
  7250  15CF  0875               	movf	___lldiv@divisor+3,w
  7251  15D0  0279               	subwf	___lldiv@dividend+3,w
  7252  15D1  1D03               	skipz
  7253  15D2  2DDD               	goto	u4205
  7254  15D3  0874               	movf	___lldiv@divisor+2,w
  7255  15D4  0278               	subwf	___lldiv@dividend+2,w
  7256  15D5  1D03               	skipz
  7257  15D6  2DDD               	goto	u4205
  7258  15D7  0873               	movf	___lldiv@divisor+1,w
  7259  15D8  0277               	subwf	___lldiv@dividend+1,w
  7260  15D9  1D03               	skipz
  7261  15DA  2DDD               	goto	u4205
  7262  15DB  0872               	movf	___lldiv@divisor,w
  7263  15DC  0276               	subwf	___lldiv@dividend,w
  7264  15DD                     u4205:
  7265  15DD  1C03               	skipc
  7266  15DE  2DE0               	goto	u4201
  7267  15DF  2DE1               	goto	u4200
  7268  15E0                     u4201:
  7269  15E0  2DF0               	goto	l2961
  7270  15E1                     u4200:
  7271  15E1                     l2957:
  7272  15E1  0872               	movf	___lldiv@divisor,w
  7273  15E2  02F6               	subwf	___lldiv@dividend,f
  7274  15E3  0873               	movf	___lldiv@divisor+1,w
  7275  15E4  1C03               	skipc
  7276  15E5  0F73               	incfsz	___lldiv@divisor+1,w
  7277  15E6  02F7               	subwf	___lldiv@dividend+1,f
  7278  15E7  0874               	movf	___lldiv@divisor+2,w
  7279  15E8  1C03               	skipc
  7280  15E9  0F74               	incfsz	___lldiv@divisor+2,w
  7281  15EA  02F8               	subwf	___lldiv@dividend+2,f
  7282  15EB  0875               	movf	___lldiv@divisor+3,w
  7283  15EC  1C03               	skipc
  7284  15ED  0F75               	incfsz	___lldiv@divisor+3,w
  7285  15EE  02F9               	subwf	___lldiv@dividend+3,f
  7286  15EF                     l2959:
  7287  15EF  1421               	bsf	___lldiv@quotient,0
  7288  15F0                     l2961:
  7289  15F0  3001               	movlw	1
  7290  15F1                     u4215:
  7291  15F1  1003               	clrc
  7292  15F2  0CF5               	rrf	___lldiv@divisor+3,f
  7293  15F3  0CF4               	rrf	___lldiv@divisor+2,f
  7294  15F4  0CF3               	rrf	___lldiv@divisor+1,f
  7295  15F5  0CF2               	rrf	___lldiv@divisor,f
  7296  15F6  3EFF               	addlw	-1
  7297  15F7  1D03               	skipz
  7298  15F8  2DF1               	goto	u4215
  7299  15F9                     l2963:
  7300  15F9  3001               	movlw	1
  7301  15FA  02A5               	subwf	___lldiv@counter,f
  7302  15FB  1D03               	btfss	3,2
  7303  15FC  2DFE               	goto	u4221
  7304  15FD  2DFF               	goto	u4220
  7305  15FE                     u4221:
  7306  15FE  2DC6               	goto	l2953
  7307  15FF                     u4220:
  7308  15FF                     l2965:
  7309  15FF  0824               	movf	___lldiv@quotient+3,w
  7310  1600  00F5               	movwf	?___lldiv+3
  7311  1601  0823               	movf	___lldiv@quotient+2,w
  7312  1602  00F4               	movwf	?___lldiv+2
  7313  1603  0822               	movf	___lldiv@quotient+1,w
  7314  1604  00F3               	movwf	?___lldiv+1
  7315  1605  0821               	movf	___lldiv@quotient,w
  7316  1606  00F2               	movwf	?___lldiv
  7317  1607                     l351:
  7318  1607  0008               	return
  7319  1608                     __end_of___lldiv:
  7320                           
  7321                           	psect	text16
  7322  1499                     __ptext16:	
  7323 ;; *************** function _Setup *****************
  7324 ;; Defined at:
  7325 ;;		line 135 in file "main.c"
  7326 ;; Parameters:    Size  Location     Type
  7327 ;;		None
  7328 ;; Auto vars:     Size  Location     Type
  7329 ;;		None
  7330 ;; Return value:  Size  Location     Type
  7331 ;;                  1    wreg      void 
  7332 ;; Registers used:
  7333 ;;		wreg, status,2
  7334 ;; Tracked objects:
  7335 ;;		On entry : 0/0
  7336 ;;		On exit  : 0/0
  7337 ;;		Unchanged: 0/0
  7338 ;; Data sizes:     COMMON   BANK0   BANK1   BANK3   BANK2
  7339 ;;      Params:         0       0       0       0       0
  7340 ;;      Locals:         0       0       0       0       0
  7341 ;;      Temps:          0       0       0       0       0
  7342 ;;      Totals:         0       0       0       0       0
  7343 ;;Total ram usage:        0 bytes
  7344 ;; Hardware stack levels used:    1
  7345 ;; Hardware stack levels required when called:    1
  7346 ;; This function calls:
  7347 ;;		Nothing
  7348 ;; This function is called by:
  7349 ;;		_main
  7350 ;; This function uses a non-reentrant model
  7351 ;;
  7352                           
  7353                           
  7354                           ;psect for function _Setup
  7355  1499                     _Setup:
  7356  1499                     l2587:	
  7357                           ;incstack = 0
  7358                           ; Regs used in _Setup: [wreg+status,2]
  7359                           
  7360                           
  7361                           ;main.c: 137:     TRISA = 255;
  7362  1499  30FF               	movlw	255
  7363  149A  1683               	bsf	3,5	;RP0=1, select bank1
  7364  149B  1303               	bcf	3,6	;RP1=0, select bank1
  7365  149C  0085               	movwf	5	;volatile
  7366  149D                     l2589:
  7367                           
  7368                           ;main.c: 138:     TRISD = 0;
  7369  149D  0188               	clrf	8	;volatile
  7370  149E                     l2591:
  7371                           
  7372                           ;main.c: 139:     TRISC = 0;
  7373  149E  0187               	clrf	7	;volatile
  7374  149F                     l2593:
  7375                           
  7376                           ;main.c: 140:     TRISB = 0;
  7377  149F  0186               	clrf	6	;volatile
  7378  14A0                     l2595:
  7379                           
  7380                           ;main.c: 143:     PORTA = 0;
  7381  14A0  1283               	bcf	3,5	;RP0=0, select bank0
  7382  14A1  1303               	bcf	3,6	;RP1=0, select bank0
  7383  14A2  0185               	clrf	5	;volatile
  7384  14A3                     l2597:
  7385                           
  7386                           ;main.c: 144:     PORTC = 0;
  7387  14A3  0187               	clrf	7	;volatile
  7388  14A4                     l2599:
  7389                           
  7390                           ;main.c: 145:     PORTD = 0;
  7391  14A4  0188               	clrf	8	;volatile
  7392  14A5                     l2601:
  7393                           
  7394                           ;main.c: 146:     PORTB = 0;
  7395  14A5  0186               	clrf	6	;volatile
  7396  14A6                     l2603:
  7397                           
  7398                           ;main.c: 148:     ANSEL = 0;
  7399  14A6  1683               	bsf	3,5	;RP0=1, select bank3
  7400  14A7  1703               	bsf	3,6	;RP1=1, select bank3
  7401  14A8  0188               	clrf	8	;volatile
  7402  14A9                     l2605:
  7403                           
  7404                           ;main.c: 149:     ANSELH = 0;
  7405  14A9  0189               	clrf	9	;volatile
  7406  14AA                     l2607:
  7407                           
  7408                           ;main.c: 150:     ANSELbits.ANS0 = 1;
  7409  14AA  1408               	bsf	8,0	;volatile
  7410  14AB                     l2609:
  7411                           
  7412                           ;main.c: 151:     ANSELbits.ANS1 = 1;
  7413  14AB  1488               	bsf	8,1	;volatile
  7414  14AC                     l85:
  7415  14AC  0008               	return
  7416  14AD                     __end_of_Setup:
  7417                           
  7418                           	psect	text17
  7419  0810                     __ptext17:	
  7420 ;; *************** function _Lcd_Write_String *****************
  7421 ;; Defined at:
  7422 ;;		line 58 in file "LCD8bits.c"
  7423 ;; Parameters:    Size  Location     Type
  7424 ;;  a               2    5[COMMON] PTR unsigned char 
  7425 ;;		 -> buf2(10), buf(10), STR_3(3), STR_2(3), 
  7426 ;;		 -> STR_1(3), 
  7427 ;; Auto vars:     Size  Location     Type
  7428 ;;  i               2    0[BANK0 ] int 
  7429 ;; Return value:  Size  Location     Type
  7430 ;;                  1    wreg      void 
  7431 ;; Registers used:
  7432 ;;		wreg, fsr0l, fsr0h, status,2, status,0, btemp+1, pclath, cstack
  7433 ;; Tracked objects:
  7434 ;;		On entry : 0/0
  7435 ;;		On exit  : 0/0
  7436 ;;		Unchanged: 0/0
  7437 ;; Data sizes:     COMMON   BANK0   BANK1   BANK3   BANK2
  7438 ;;      Params:         2       0       0       0       0
  7439 ;;      Locals:         0       2       0       0       0
  7440 ;;      Temps:          3       0       0       0       0
  7441 ;;      Totals:         5       2       0       0       0
  7442 ;;Total ram usage:        7 bytes
  7443 ;; Hardware stack levels used:    1
  7444 ;; Hardware stack levels required when called:    3
  7445 ;; This function calls:
  7446 ;;		_Lcd_Write_Char
  7447 ;; This function is called by:
  7448 ;;		_main
  7449 ;; This function uses a non-reentrant model
  7450 ;;
  7451                           
  7452                           
  7453                           ;psect for function _Lcd_Write_String
  7454  0810                     _Lcd_Write_String:
  7455  0810                     l3243:	
  7456                           ;incstack = 0
  7457                           ; Regs used in _Lcd_Write_String: [wreg-fsr0h+status,2+status,0+btemp+1+pclath+cstack]
  7458                           
  7459                           
  7460                           ;LCD8bits.c: 59:     int i;;LCD8bits.c: 60:     for (i = 0; a[i] != '\0'; i++)
  7461  0810  1283               	bcf	3,5	;RP0=0, select bank0
  7462  0811  1303               	bcf	3,6	;RP1=0, select bank0
  7463  0812  01A0               	clrf	Lcd_Write_String@i
  7464  0813  01A1               	clrf	Lcd_Write_String@i+1
  7465  0814  2839               	goto	l3249
  7466  0815                     l3245:
  7467                           
  7468                           ;LCD8bits.c: 61:         Lcd_Write_Char(a[i]);
  7469  0815  0820               	movf	Lcd_Write_String@i,w
  7470  0816  0775               	addwf	Lcd_Write_String@a,w
  7471  0817  00F8               	movwf	??_Lcd_Write_String+1
  7472  0818  0876               	movf	Lcd_Write_String@a+1,w
  7473  0819  00F7               	movwf	??_Lcd_Write_String
  7474  081A  1803               	skipnc
  7475  081B  0AF7               	incf	??_Lcd_Write_String,f
  7476  081C  1FA0               	btfss	Lcd_Write_String@i,7
  7477  081D  281F               	goto	u4850
  7478  081E  03F7               	decf	??_Lcd_Write_String,f
  7479  081F                     u4850:
  7480  081F  0877               	movf	??_Lcd_Write_String,w
  7481  0820  00F9               	movwf	??_Lcd_Write_String+2
  7482  0821  0879               	movf	??_Lcd_Write_String+2,w
  7483  0822  1283               	bcf	3,5	;RP0=0, select bank0
  7484  0823  1303               	bcf	3,6	;RP1=0, select bank0
  7485  0824  00FF               	movwf	btemp+1
  7486  0825  0878               	movf	??_Lcd_Write_String+1,w
  7487  0826  0084               	movwf	4
  7488  0827  160A  118A  2000  120A  158A  	fcall	stringtab
  7489  082C  160A  118A  24AD  120A  158A  	fcall	_Lcd_Write_Char
  7490  0831                     l3247:
  7491  0831  3001               	movlw	1
  7492  0832  1283               	bcf	3,5	;RP0=0, select bank0
  7493  0833  1303               	bcf	3,6	;RP1=0, select bank0
  7494  0834  07A0               	addwf	Lcd_Write_String@i,f
  7495  0835  1803               	skipnc
  7496  0836  0AA1               	incf	Lcd_Write_String@i+1,f
  7497  0837  3000               	movlw	0
  7498  0838  07A1               	addwf	Lcd_Write_String@i+1,f
  7499  0839                     l3249:
  7500  0839  0820               	movf	Lcd_Write_String@i,w
  7501  083A  0775               	addwf	Lcd_Write_String@a,w
  7502  083B  00F8               	movwf	??_Lcd_Write_String+1
  7503  083C  0876               	movf	Lcd_Write_String@a+1,w
  7504  083D  00F7               	movwf	??_Lcd_Write_String
  7505  083E  1803               	skipnc
  7506  083F  0AF7               	incf	??_Lcd_Write_String,f
  7507  0840  1FA0               	btfss	Lcd_Write_String@i,7
  7508  0841  2843               	goto	u4860
  7509  0842  03F7               	decf	??_Lcd_Write_String,f
  7510  0843                     u4860:
  7511  0843  0877               	movf	??_Lcd_Write_String,w
  7512  0844  00F9               	movwf	??_Lcd_Write_String+2
  7513  0845  0879               	movf	??_Lcd_Write_String+2,w
  7514  0846  1283               	bcf	3,5	;RP0=0, select bank0
  7515  0847  1303               	bcf	3,6	;RP1=0, select bank0
  7516  0848  00FF               	movwf	btemp+1
  7517  0849  0878               	movf	??_Lcd_Write_String+1,w
  7518  084A  0084               	movwf	4
  7519  084B  160A  118A  2000  120A  158A  	fcall	stringtab
  7520  0850  3A00               	xorlw	0
  7521  0851  1D03               	skipz
  7522  0852  2854               	goto	u4871
  7523  0853  2855               	goto	u4870
  7524  0854                     u4871:
  7525  0854  2815               	goto	l3245
  7526  0855                     u4870:
  7527  0855                     l118:
  7528  0855  0008               	return
  7529  0856                     __end_of_Lcd_Write_String:
  7530                           
  7531                           	psect	text18
  7532  14AD                     __ptext18:	
  7533 ;; *************** function _Lcd_Write_Char *****************
  7534 ;; Defined at:
  7535 ;;		line 50 in file "LCD8bits.c"
  7536 ;; Parameters:    Size  Location     Type
  7537 ;;  a               1    wreg     unsigned char 
  7538 ;; Auto vars:     Size  Location     Type
  7539 ;;  a               1    4[COMMON] unsigned char 
  7540 ;; Return value:  Size  Location     Type
  7541 ;;                  1    wreg      void 
  7542 ;; Registers used:
  7543 ;;		wreg, status,2, status,0, pclath, cstack
  7544 ;; Tracked objects:
  7545 ;;		On entry : 0/0
  7546 ;;		On exit  : 0/0
  7547 ;;		Unchanged: 0/0
  7548 ;; Data sizes:     COMMON   BANK0   BANK1   BANK3   BANK2
  7549 ;;      Params:         0       0       0       0       0
  7550 ;;      Locals:         1       0       0       0       0
  7551 ;;      Temps:          1       0       0       0       0
  7552 ;;      Totals:         2       0       0       0       0
  7553 ;;Total ram usage:        2 bytes
  7554 ;; Hardware stack levels used:    1
  7555 ;; Hardware stack levels required when called:    2
  7556 ;; This function calls:
  7557 ;;		_Lcd_Port
  7558 ;; This function is called by:
  7559 ;;		_Lcd_Write_String
  7560 ;; This function uses a non-reentrant model
  7561 ;;
  7562                           
  7563                           
  7564                           ;psect for function _Lcd_Write_Char
  7565  14AD                     _Lcd_Write_Char:
  7566                           
  7567                           ;incstack = 0
  7568                           ; Regs used in _Lcd_Write_Char: [wreg+status,2+status,0+pclath+cstack]
  7569                           ;Lcd_Write_Char@a stored from wreg
  7570  14AD  00F4               	movwf	Lcd_Write_Char@a
  7571  14AE                     l2921:
  7572                           
  7573                           ;LCD8bits.c: 51:     PORTCbits.RC0 = 1;
  7574  14AE  1283               	bcf	3,5	;RP0=0, select bank0
  7575  14AF  1303               	bcf	3,6	;RP1=0, select bank0
  7576  14B0  1407               	bsf	7,0	;volatile
  7577  14B1                     l2923:
  7578                           
  7579                           ;LCD8bits.c: 52:     Lcd_Port(a);
  7580  14B1  0874               	movf	Lcd_Write_Char@a,w
  7581  14B2  160A  118A  2471  160A  118A  	fcall	_Lcd_Port
  7582  14B7                     l2925:
  7583                           
  7584                           ;LCD8bits.c: 53:     PORTCbits.RC1 = 1;
  7585  14B7  1283               	bcf	3,5	;RP0=0, select bank0
  7586  14B8  1303               	bcf	3,6	;RP1=0, select bank0
  7587  14B9  1487               	bsf	7,1	;volatile
  7588  14BA                     l2927:
  7589                           
  7590                           ;LCD8bits.c: 54:     _delay((unsigned long)((10)*(8000000/4000000.0)));
  7591  14BA  3006               	movlw	6
  7592  14BB  00F3               	movwf	??_Lcd_Write_Char
  7593  14BC                     u5007:
  7594  14BC  0BF3               	decfsz	??_Lcd_Write_Char,f
  7595  14BD  2CBC               	goto	u5007
  7596  14BE  0000               	nop
  7597  14BF                     l2929:
  7598                           
  7599                           ;LCD8bits.c: 55:     PORTCbits.RC1 = 0;
  7600  14BF  1283               	bcf	3,5	;RP0=0, select bank0
  7601  14C0  1303               	bcf	3,6	;RP1=0, select bank0
  7602  14C1  1087               	bcf	7,1	;volatile
  7603  14C2                     l112:
  7604  14C2  0008               	return
  7605  14C3                     __end_of_Lcd_Write_Char:
  7606                           
  7607                           	psect	text19
  7608  14C3                     __ptext19:	
  7609 ;; *************** function _Lcd_Set_Cursor *****************
  7610 ;; Defined at:
  7611 ;;		line 24 in file "LCD8bits.c"
  7612 ;; Parameters:    Size  Location     Type
  7613 ;;  a               1    wreg     unsigned char 
  7614 ;;  b               1    6[COMMON] unsigned char 
  7615 ;; Auto vars:     Size  Location     Type
  7616 ;;  a               1    8[COMMON] unsigned char 
  7617 ;;  temp            1    9[COMMON] unsigned char 
  7618 ;;  y               1    0        unsigned char 
  7619 ;;  z               1    0        unsigned char 
  7620 ;; Return value:  Size  Location     Type
  7621 ;;                  1    wreg      void 
  7622 ;; Registers used:
  7623 ;;		wreg, status,2, status,0, pclath, cstack
  7624 ;; Tracked objects:
  7625 ;;		On entry : 0/0
  7626 ;;		On exit  : 0/0
  7627 ;;		Unchanged: 0/0
  7628 ;; Data sizes:     COMMON   BANK0   BANK1   BANK3   BANK2
  7629 ;;      Params:         1       0       0       0       0
  7630 ;;      Locals:         2       0       0       0       0
  7631 ;;      Temps:          1       0       0       0       0
  7632 ;;      Totals:         4       0       0       0       0
  7633 ;;Total ram usage:        4 bytes
  7634 ;; Hardware stack levels used:    1
  7635 ;; Hardware stack levels required when called:    3
  7636 ;; This function calls:
  7637 ;;		_Lcd_Cmd
  7638 ;; This function is called by:
  7639 ;;		_main
  7640 ;; This function uses a non-reentrant model
  7641 ;;
  7642                           
  7643                           
  7644                           ;psect for function _Lcd_Set_Cursor
  7645  14C3                     _Lcd_Set_Cursor:
  7646                           
  7647                           ;incstack = 0
  7648                           ; Regs used in _Lcd_Set_Cursor: [wreg+status,2+status,0+pclath+cstack]
  7649                           ;Lcd_Set_Cursor@a stored from wreg
  7650  14C3  00F8               	movwf	Lcd_Set_Cursor@a
  7651  14C4                     l3231:
  7652                           
  7653                           ;LCD8bits.c: 25:     char temp, z, y;;LCD8bits.c: 26:     if (a == 1) {
  7654  14C4  0378               	decf	Lcd_Set_Cursor@a,w
  7655  14C5  1D03               	btfss	3,2
  7656  14C6  2CC8               	goto	u4831
  7657  14C7  2CC9               	goto	u4830
  7658  14C8                     u4831:
  7659  14C8  2CD5               	goto	l3237
  7660  14C9                     u4830:
  7661  14C9                     l3233:
  7662                           
  7663                           ;LCD8bits.c: 27:         temp = 0x80 + b - 1;
  7664  14C9  0876               	movf	Lcd_Set_Cursor@b,w
  7665  14CA  3E7F               	addlw	127
  7666  14CB  00F7               	movwf	??_Lcd_Set_Cursor
  7667  14CC  0877               	movf	??_Lcd_Set_Cursor,w
  7668  14CD  00F9               	movwf	Lcd_Set_Cursor@temp
  7669  14CE                     l3235:
  7670                           
  7671                           ;LCD8bits.c: 28:         Lcd_Cmd(temp);
  7672  14CE  0879               	movf	Lcd_Set_Cursor@temp,w
  7673  14CF  120A  118A  27E1  160A  118A  	fcall	_Lcd_Cmd
  7674                           
  7675                           ;LCD8bits.c: 29:     } else if (a == 2) {
  7676  14D4  2CE6               	goto	l106
  7677  14D5                     l3237:
  7678  14D5  3002               	movlw	2
  7679  14D6  0678               	xorwf	Lcd_Set_Cursor@a,w
  7680  14D7  1D03               	btfss	3,2
  7681  14D8  2CDA               	goto	u4841
  7682  14D9  2CDB               	goto	u4840
  7683  14DA                     u4841:
  7684  14DA  2CE6               	goto	l106
  7685  14DB                     u4840:
  7686  14DB                     l3239:
  7687                           
  7688                           ;LCD8bits.c: 30:         temp = 0xC0 + b - 1;
  7689  14DB  0876               	movf	Lcd_Set_Cursor@b,w
  7690  14DC  3EBF               	addlw	191
  7691  14DD  00F7               	movwf	??_Lcd_Set_Cursor
  7692  14DE  0877               	movf	??_Lcd_Set_Cursor,w
  7693  14DF  00F9               	movwf	Lcd_Set_Cursor@temp
  7694  14E0                     l3241:
  7695                           
  7696                           ;LCD8bits.c: 31:         Lcd_Cmd(temp);
  7697  14E0  0879               	movf	Lcd_Set_Cursor@temp,w
  7698  14E1  120A  118A  27E1  160A  118A  	fcall	_Lcd_Cmd
  7699  14E6                     l106:
  7700  14E6  0008               	return
  7701  14E7                     __end_of_Lcd_Set_Cursor:
  7702                           
  7703                           	psect	text20
  7704  155B                     __ptext20:	
  7705 ;; *************** function _Lcd_Init *****************
  7706 ;; Defined at:
  7707 ;;		line 35 in file "LCD8bits.c"
  7708 ;; Parameters:    Size  Location     Type
  7709 ;;		None
  7710 ;; Auto vars:     Size  Location     Type
  7711 ;;		None
  7712 ;; Return value:  Size  Location     Type
  7713 ;;                  1    wreg      void 
  7714 ;; Registers used:
  7715 ;;		wreg, status,2, status,0, pclath, cstack
  7716 ;; Tracked objects:
  7717 ;;		On entry : 0/0
  7718 ;;		On exit  : 0/0
  7719 ;;		Unchanged: 0/0
  7720 ;; Data sizes:     COMMON   BANK0   BANK1   BANK3   BANK2
  7721 ;;      Params:         0       0       0       0       0
  7722 ;;      Locals:         0       0       0       0       0
  7723 ;;      Temps:          2       0       0       0       0
  7724 ;;      Totals:         2       0       0       0       0
  7725 ;;Total ram usage:        2 bytes
  7726 ;; Hardware stack levels used:    1
  7727 ;; Hardware stack levels required when called:    3
  7728 ;; This function calls:
  7729 ;;		_Lcd_Cmd
  7730 ;;		_Lcd_Port
  7731 ;; This function is called by:
  7732 ;;		_main
  7733 ;; This function uses a non-reentrant model
  7734 ;;
  7735                           
  7736                           
  7737                           ;psect for function _Lcd_Init
  7738  155B                     _Lcd_Init:
  7739  155B                     l3219:	
  7740                           ;incstack = 0
  7741                           ; Regs used in _Lcd_Init: [wreg+status,2+status,0+pclath+cstack]
  7742                           
  7743                           
  7744                           ;LCD8bits.c: 36:     Lcd_Port(0x00);
  7745  155B  3000               	movlw	0
  7746  155C  160A  118A  2471  160A  118A  	fcall	_Lcd_Port
  7747  1561                     l3221:
  7748                           
  7749                           ;LCD8bits.c: 37:     _delay((unsigned long)((20)*(8000000/4000.0)));
  7750  1561  3034               	movlw	52
  7751  1562  00F7               	movwf	??_Lcd_Init+1
  7752  1563  30F1               	movlw	241
  7753  1564  00F6               	movwf	??_Lcd_Init
  7754  1565                     u5017:
  7755  1565  0BF6               	decfsz	??_Lcd_Init,f
  7756  1566  2D65               	goto	u5017
  7757  1567  0BF7               	decfsz	??_Lcd_Init+1,f
  7758  1568  2D65               	goto	u5017
  7759  1569  2D6A               	nop2
  7760  156A                     l3223:
  7761                           
  7762                           ;LCD8bits.c: 38:     Lcd_Cmd(0x30);
  7763  156A  3030               	movlw	48
  7764  156B  120A  118A  27E1  160A  118A  	fcall	_Lcd_Cmd
  7765                           
  7766                           ;LCD8bits.c: 39:     _delay((unsigned long)((5)*(8000000/4000.0)));
  7767  1570  300D               	movlw	13
  7768  1571  00F7               	movwf	??_Lcd_Init+1
  7769  1572  30FB               	movlw	251
  7770  1573  00F6               	movwf	??_Lcd_Init
  7771  1574                     u5027:
  7772  1574  0BF6               	decfsz	??_Lcd_Init,f
  7773  1575  2D74               	goto	u5027
  7774  1576  0BF7               	decfsz	??_Lcd_Init+1,f
  7775  1577  2D74               	goto	u5027
  7776  1578  2D79               	nop2
  7777  1579                     l3225:
  7778                           
  7779                           ;LCD8bits.c: 40:     Lcd_Cmd(0x30);
  7780  1579  3030               	movlw	48
  7781  157A  120A  118A  27E1  160A  118A  	fcall	_Lcd_Cmd
  7782  157F                     l3227:
  7783                           
  7784                           ;LCD8bits.c: 41:     _delay((unsigned long)((11)*(8000000/4000.0)));
  7785  157F  301D               	movlw	29
  7786  1580  00F7               	movwf	??_Lcd_Init+1
  7787  1581  3091               	movlw	145
  7788  1582  00F6               	movwf	??_Lcd_Init
  7789  1583                     u5037:
  7790  1583  0BF6               	decfsz	??_Lcd_Init,f
  7791  1584  2D83               	goto	u5037
  7792  1585  0BF7               	decfsz	??_Lcd_Init+1,f
  7793  1586  2D83               	goto	u5037
  7794                           
  7795                           ;LCD8bits.c: 42:     Lcd_Cmd(0x30);
  7796  1587  3030               	movlw	48
  7797  1588  120A  118A  27E1  160A  118A  	fcall	_Lcd_Cmd
  7798                           
  7799                           ;LCD8bits.c: 44:     Lcd_Cmd(0b00111000);
  7800  158D  3038               	movlw	56
  7801  158E  120A  118A  27E1  160A  118A  	fcall	_Lcd_Cmd
  7802                           
  7803                           ;LCD8bits.c: 45:     Lcd_Cmd(0x0C);
  7804  1593  300C               	movlw	12
  7805  1594  120A  118A  27E1  160A  118A  	fcall	_Lcd_Cmd
  7806                           
  7807                           ;LCD8bits.c: 46:     Lcd_Cmd(0x6);
  7808  1599  3006               	movlw	6
  7809  159A  120A  118A  27E1  160A  118A  	fcall	_Lcd_Cmd
  7810  159F                     l109:
  7811  159F  0008               	return
  7812  15A0                     __end_of_Lcd_Init:
  7813                           
  7814                           	psect	text21
  7815  0803                     __ptext21:	
  7816 ;; *************** function _Lcd_Clear *****************
  7817 ;; Defined at:
  7818 ;;		line 19 in file "LCD8bits.c"
  7819 ;; Parameters:    Size  Location     Type
  7820 ;;		None
  7821 ;; Auto vars:     Size  Location     Type
  7822 ;;		None
  7823 ;; Return value:  Size  Location     Type
  7824 ;;                  1    wreg      void 
  7825 ;; Registers used:
  7826 ;;		wreg, status,2, status,0, pclath, cstack
  7827 ;; Tracked objects:
  7828 ;;		On entry : 0/0
  7829 ;;		On exit  : 0/0
  7830 ;;		Unchanged: 0/0
  7831 ;; Data sizes:     COMMON   BANK0   BANK1   BANK3   BANK2
  7832 ;;      Params:         0       0       0       0       0
  7833 ;;      Locals:         0       0       0       0       0
  7834 ;;      Temps:          0       0       0       0       0
  7835 ;;      Totals:         0       0       0       0       0
  7836 ;;Total ram usage:        0 bytes
  7837 ;; Hardware stack levels used:    1
  7838 ;; Hardware stack levels required when called:    3
  7839 ;; This function calls:
  7840 ;;		_Lcd_Cmd
  7841 ;; This function is called by:
  7842 ;;		_main
  7843 ;; This function uses a non-reentrant model
  7844 ;;
  7845                           
  7846                           
  7847                           ;psect for function _Lcd_Clear
  7848  0803                     _Lcd_Clear:
  7849  0803                     l3229:	
  7850                           ;incstack = 0
  7851                           ; Regs used in _Lcd_Clear: [wreg+status,2+status,0+pclath+cstack]
  7852                           
  7853                           
  7854                           ;LCD8bits.c: 20:     Lcd_Cmd(0);
  7855  0803  3000               	movlw	0
  7856  0804  120A  118A  27E1  120A  158A  	fcall	_Lcd_Cmd
  7857                           
  7858                           ;LCD8bits.c: 21:     Lcd_Cmd(1);
  7859  0809  3001               	movlw	1
  7860  080A  120A  118A  27E1  120A  158A  	fcall	_Lcd_Cmd
  7861  080F                     l100:
  7862  080F  0008               	return
  7863  0810                     __end_of_Lcd_Clear:
  7864                           
  7865                           	psect	text22
  7866  07E1                     __ptext22:	
  7867 ;; *************** function _Lcd_Cmd *****************
  7868 ;; Defined at:
  7869 ;;		line 11 in file "LCD8bits.c"
  7870 ;; Parameters:    Size  Location     Type
  7871 ;;  a               1    wreg     unsigned char 
  7872 ;; Auto vars:     Size  Location     Type
  7873 ;;  a               1    5[COMMON] unsigned char 
  7874 ;; Return value:  Size  Location     Type
  7875 ;;                  1    wreg      void 
  7876 ;; Registers used:
  7877 ;;		wreg, status,2, status,0, pclath, cstack
  7878 ;; Tracked objects:
  7879 ;;		On entry : 0/0
  7880 ;;		On exit  : 0/0
  7881 ;;		Unchanged: 0/0
  7882 ;; Data sizes:     COMMON   BANK0   BANK1   BANK3   BANK2
  7883 ;;      Params:         0       0       0       0       0
  7884 ;;      Locals:         1       0       0       0       0
  7885 ;;      Temps:          2       0       0       0       0
  7886 ;;      Totals:         3       0       0       0       0
  7887 ;;Total ram usage:        3 bytes
  7888 ;; Hardware stack levels used:    1
  7889 ;; Hardware stack levels required when called:    2
  7890 ;; This function calls:
  7891 ;;		_Lcd_Port
  7892 ;; This function is called by:
  7893 ;;		_Lcd_Clear
  7894 ;;		_Lcd_Set_Cursor
  7895 ;;		_Lcd_Init
  7896 ;;		_Lcd_Shift_Right
  7897 ;;		_Lcd_Shift_Left
  7898 ;; This function uses a non-reentrant model
  7899 ;;
  7900                           
  7901                           
  7902                           ;psect for function _Lcd_Cmd
  7903  07E1                     _Lcd_Cmd:
  7904                           
  7905                           ;incstack = 0
  7906                           ; Regs used in _Lcd_Cmd: [wreg+status,2+status,0+pclath+cstack]
  7907                           ;Lcd_Cmd@a stored from wreg
  7908  07E1  00F5               	movwf	Lcd_Cmd@a
  7909  07E2                     l2911:
  7910                           
  7911                           ;LCD8bits.c: 12:     PORTCbits.RC0 = 0;
  7912  07E2  1283               	bcf	3,5	;RP0=0, select bank0
  7913  07E3  1303               	bcf	3,6	;RP1=0, select bank0
  7914  07E4  1007               	bcf	7,0	;volatile
  7915  07E5                     l2913:
  7916                           
  7917                           ;LCD8bits.c: 13:     Lcd_Port(a);
  7918  07E5  0875               	movf	Lcd_Cmd@a,w
  7919  07E6  160A  118A  2471  120A  118A  	fcall	_Lcd_Port
  7920  07EB                     l2915:
  7921                           
  7922                           ;LCD8bits.c: 14:     PORTCbits.RC1 = 1;
  7923  07EB  1283               	bcf	3,5	;RP0=0, select bank0
  7924  07EC  1303               	bcf	3,6	;RP1=0, select bank0
  7925  07ED  1487               	bsf	7,1	;volatile
  7926  07EE                     l2917:
  7927                           
  7928                           ;LCD8bits.c: 15:     _delay((unsigned long)((1)*(8000000/4000.0)));
  7929  07EE  3003               	movlw	3
  7930  07EF  00F4               	movwf	??_Lcd_Cmd+1
  7931  07F0  3097               	movlw	151
  7932  07F1  00F3               	movwf	??_Lcd_Cmd
  7933  07F2                     u5047:
  7934  07F2  0BF3               	decfsz	??_Lcd_Cmd,f
  7935  07F3  2FF2               	goto	u5047
  7936  07F4  0BF4               	decfsz	??_Lcd_Cmd+1,f
  7937  07F5  2FF2               	goto	u5047
  7938  07F6  2FF7               	nop2
  7939  07F7                     l2919:
  7940                           
  7941                           ;LCD8bits.c: 16:     PORTCbits.RC1 = 0;
  7942  07F7  1283               	bcf	3,5	;RP0=0, select bank0
  7943  07F8  1303               	bcf	3,6	;RP1=0, select bank0
  7944  07F9  1087               	bcf	7,1	;volatile
  7945  07FA                     l97:
  7946  07FA  0008               	return
  7947  07FB                     __end_of_Lcd_Cmd:
  7948                           
  7949                           	psect	text23
  7950  1471                     __ptext23:	
  7951 ;; *************** function _Lcd_Port *****************
  7952 ;; Defined at:
  7953 ;;		line 7 in file "LCD8bits.c"
  7954 ;; Parameters:    Size  Location     Type
  7955 ;;  a               1    wreg     unsigned char 
  7956 ;; Auto vars:     Size  Location     Type
  7957 ;;  a               1    2[COMMON] unsigned char 
  7958 ;; Return value:  Size  Location     Type
  7959 ;;                  1    wreg      void 
  7960 ;; Registers used:
  7961 ;;		wreg
  7962 ;; Tracked objects:
  7963 ;;		On entry : 0/0
  7964 ;;		On exit  : 0/0
  7965 ;;		Unchanged: 0/0
  7966 ;; Data sizes:     COMMON   BANK0   BANK1   BANK3   BANK2
  7967 ;;      Params:         0       0       0       0       0
  7968 ;;      Locals:         1       0       0       0       0
  7969 ;;      Temps:          0       0       0       0       0
  7970 ;;      Totals:         1       0       0       0       0
  7971 ;;Total ram usage:        1 bytes
  7972 ;; Hardware stack levels used:    1
  7973 ;; Hardware stack levels required when called:    1
  7974 ;; This function calls:
  7975 ;;		Nothing
  7976 ;; This function is called by:
  7977 ;;		_Lcd_Cmd
  7978 ;;		_Lcd_Init
  7979 ;;		_Lcd_Write_Char
  7980 ;; This function uses a non-reentrant model
  7981 ;;
  7982                           
  7983                           
  7984                           ;psect for function _Lcd_Port
  7985  1471                     _Lcd_Port:
  7986                           
  7987                           ;incstack = 0
  7988                           ; Regs used in _Lcd_Port: [wreg]
  7989                           ;Lcd_Port@a stored from wreg
  7990  1471  00F2               	movwf	Lcd_Port@a
  7991  1472                     l2895:
  7992                           
  7993                           ;LCD8bits.c: 8:     PORTD = a;
  7994  1472  0872               	movf	Lcd_Port@a,w
  7995  1473  1283               	bcf	3,5	;RP0=0, select bank0
  7996  1474  1303               	bcf	3,6	;RP1=0, select bank0
  7997  1475  0088               	movwf	8	;volatile
  7998  1476                     l94:
  7999  1476  0008               	return
  8000  1477                     __end_of_Lcd_Port:
  8001                           
  8002                           	psect	text24
  8003  1477                     __ptext24:	
  8004 ;; *************** function _ISR *****************
  8005 ;; Defined at:
  8006 ;;		line 57 in file "main.c"
  8007 ;; Parameters:    Size  Location     Type
  8008 ;;		None
  8009 ;; Auto vars:     Size  Location     Type
  8010 ;;		None
  8011 ;; Return value:  Size  Location     Type
  8012 ;;                  1    wreg      void 
  8013 ;; Registers used:
  8014 ;;		None
  8015 ;; Tracked objects:
  8016 ;;		On entry : 0/0
  8017 ;;		On exit  : 0/0
  8018 ;;		Unchanged: 0/0
  8019 ;; Data sizes:     COMMON   BANK0   BANK1   BANK3   BANK2
  8020 ;;      Params:         0       0       0       0       0
  8021 ;;      Locals:         0       0       0       0       0
  8022 ;;      Temps:          2       0       0       0       0
  8023 ;;      Totals:         2       0       0       0       0
  8024 ;;Total ram usage:        2 bytes
  8025 ;; Hardware stack levels used:    1
  8026 ;; This function calls:
  8027 ;;		Nothing
  8028 ;; This function is called by:
  8029 ;;		Interrupt level 1
  8030 ;; This function uses a non-reentrant model
  8031 ;;
  8032                           
  8033                           
  8034                           ;psect for function _ISR
  8035  1477                     _ISR:
  8036  1477                     i1l71:
  8037  1477  0871               	movf	??_ISR+1,w
  8038  1478  008A               	movwf	10
  8039  1479  0E70               	swapf	??_ISR,w
  8040  147A  0083               	movwf	3
  8041  147B  0EFE               	swapf	btemp,f
  8042  147C  0E7E               	swapf	btemp,w
  8043  147D  0009               	retfie
  8044  147E                     __end_of_ISR:
  8045  007E                     btemp	set	126	;btemp
  8046  007E                     wtemp0	set	126
  8047                           
  8048                           	psect	intentry
  8049  0004                     __pintentry:	
  8050                           ;incstack = 0
  8051                           ; Regs used in _ISR: []
  8052                           
  8053  0004                     interrupt_function:
  8054  007E                     saved_w	set	btemp
  8055  0004  00FE               	movwf	btemp
  8056  0005  0E03               	swapf	3,w
  8057  0006  00F0               	movwf	??_ISR
  8058  0007  080A               	movf	10,w
  8059  0008  00F1               	movwf	??_ISR+1
  8060  0009  160A  118A  2C77   	ljmp	_ISR
  8061                           
  8062                           	psect	config
  8063                           
  8064                           ;Config register CONFIG1 @ 0x2007
  8065                           ;	Oscillator Selection bits
  8066                           ;	FOSC = INTRC_NOCLKOUT, INTOSCIO oscillator: I/O function on RA6/OSC2/CLKOUT pin, I/O f
      +                          unction on RA7/OSC1/CLKIN
  8067                           ;	Watchdog Timer Enable bit
  8068                           ;	WDTE = OFF, WDT disabled and can be enabled by SWDTEN bit of the WDTCON register
  8069                           ;	Power-up Timer Enable bit
  8070                           ;	PWRTE = OFF, PWRT disabled
  8071                           ;	RE3/MCLR pin function select bit
  8072                           ;	MCLRE = OFF, RE3/MCLR pin function is digital input, MCLR internally tied to VDD
  8073                           ;	Code Protection bit
  8074                           ;	CP = OFF, Program memory code protection is disabled
  8075                           ;	Data Code Protection bit
  8076                           ;	CPD = OFF, Data memory code protection is disabled
  8077                           ;	Brown Out Reset Selection bits
  8078                           ;	BOREN = OFF, BOR disabled
  8079                           ;	Internal External Switchover bit
  8080                           ;	IESO = OFF, Internal/External Switchover mode is disabled
  8081                           ;	Fail-Safe Clock Monitor Enabled bit
  8082                           ;	FCMEN = OFF, Fail-Safe Clock Monitor is disabled
  8083                           ;	Low Voltage Programming Enable bit
  8084                           ;	LVP = OFF, RB3 pin has digital I/O, HV on MCLR must be used for programming
  8085                           ;	In-Circuit Debugger Mode bit
  8086                           ;	DEBUG = 0x1, unprogrammed default
  8087  2007                     	org	8199
  8088  2007  20D4               	dw	8404
  8089                           
  8090                           ;Config register CONFIG2 @ 0x2008
  8091                           ;	Brown-out Reset Selection bit
  8092                           ;	BOR4V = BOR40V, Brown-out Reset set to 4.0V
  8093                           ;	Flash Program Memory Self Write Enable bits
  8094                           ;	WRT = OFF, Write protection off
  8095  2008                     	org	8200
  8096  2008  3FFF               	dw	16383

Data Sizes:
    Strings     9
    Constant    0
    Data        0
    BSS         33
    Persistent  0
    Stack       0

Auto Spaces:
    Space          Size  Autos    Used
    COMMON           14     10      12
    BANK0            80     77      77
    BANK1            80     25      56
    BANK3            96      0       0
    BANK2            96      0       0

Pointer List with Targets:

    convert@data	PTR unsigned char  size(1) Largest target is 10
		 -> buf2(BANK1[10]), buf(BANK1[10]), 

    Lcd_Write_String@a	PTR unsigned char  size(2) Largest target is 10
		 -> buf2(BANK1[10]), buf(BANK1[10]), STR_3(CODE[3]), STR_2(CODE[3]), 
		 -> STR_1(CODE[3]), 


Critical Paths under _main in COMMON

    _main->_Lcd_Set_Cursor
    _main->_Lcd_Write_String
    _convert->___flge
    _convert->___wmul
    ___xxtofl->___wmul
    ___wmul->___fltol
    ___flsub->___fladd
    ___flsub->___wmul
    _UARTInit->___lldiv
    _Lcd_Write_String->_Lcd_Write_Char
    _Lcd_Write_Char->_Lcd_Port
    _Lcd_Set_Cursor->_Lcd_Cmd
    _Lcd_Init->_Lcd_Cmd
    _Lcd_Clear->_Lcd_Cmd
    _Lcd_Cmd->_Lcd_Port

Critical Paths under _ISR in COMMON

    None.

Critical Paths under _main in BANK0

    _main->_convert
    _convert->___flmul
    ___xxtofl->___wmul
    ___wmul->___fltol
    ___flsub->___xxtofl
    ___flmul->___fldiv
    ___fldiv->___xxtofl
    _UARTInit->___lldiv

Critical Paths under _ISR in BANK0

    None.

Critical Paths under _main in BANK1

    _main->_convert

Critical Paths under _ISR in BANK1

    None.

Critical Paths under _main in BANK3

    None.

Critical Paths under _ISR in BANK3

    None.

Critical Paths under _main in BANK2

    None.

Critical Paths under _ISR in BANK2

    None.

Call Graph Tables:

 ---------------------------------------------------------------------------------
 (Depth) Function   	        Calls       Base Space   Used Autos Params    Refs
 ---------------------------------------------------------------------------------
 (0) _main                                                 4     4      0   23361
                                             21 BANK1      4     4      0
                          _Lcd_Clear
                           _Lcd_Init
                     _Lcd_Set_Cursor
                   _Lcd_Write_String
                              _Setup
                           _UARTInit
                            ___fldiv
                            ___flmul
                           ___xxtofl
                           _canalADC
                          _configADC
                            _convert
 ---------------------------------------------------------------------------------
 (1) _convert                                             23    17      6   14126
                                             75 BANK0      2     2      0
                                              0 BANK1     21    15      6
                            ___awdiv
                            ___fldiv
                             ___flge
                            ___flmul
                            ___flsub
                            ___fltol
                             ___wmul
                           ___xxtofl
 ---------------------------------------------------------------------------------
 (2) ___xxtofl                                            14    10      4     930
                                              9 BANK0     14    10      4
                            ___fltol (ARG)
                             ___wmul (ARG)
 ---------------------------------------------------------------------------------
 (2) ___wmul                                               6     2      4    1036
                                              8 COMMON     2     2      0
                                              5 BANK0      4     0      4
                            ___fltol (ARG)
 ---------------------------------------------------------------------------------
 (2) ___fltol                                             11     7      4     967
                                              2 COMMON     6     2      4
                                              0 BANK0      5     5      0
 ---------------------------------------------------------------------------------
 (2) ___flsub                                              8     0      8    2637
                                             23 BANK0      8     0      8
                            ___fladd
                            ___fltol (ARG)
                             ___wmul (ARG)
                           ___xxtofl (ARG)
 ---------------------------------------------------------------------------------
 (3) ___fladd                                             20    12      8    2136
                                              2 COMMON     8     0      8
                                              0 BANK0     12    12      0
 ---------------------------------------------------------------------------------
 (2) ___flmul                                             26    18      8    3893
                                             49 BANK0     26    18      8
                          __Umul8_16
                            ___fldiv (ARG)
                            ___flsub (ARG)
                            ___fltol (ARG)
                           ___xxtofl (ARG)
 ---------------------------------------------------------------------------------
 (3) __Umul8_16                                            9     7      2     980
                                              2 COMMON     4     2      2
                                              0 BANK0      5     5      0
 ---------------------------------------------------------------------------------
 (2) ___flge                                              12     4      8     334
                                              2 COMMON     8     0      8
                                              0 BANK0      4     4      0
 ---------------------------------------------------------------------------------
 (2) ___fldiv                                             26    18      8    1729
                                             23 BANK0     26    18      8
                           ___xxtofl (ARG)
 ---------------------------------------------------------------------------------
 (2) ___awdiv                                              9     5      4     625
                                              2 COMMON     5     1      4
                                              0 BANK0      4     4      0
 ---------------------------------------------------------------------------------
 (1) _configADC                                            0     0      0       0
 ---------------------------------------------------------------------------------
 (1) _canalADC                                             1     1      0     308
                                              2 COMMON     1     1      0
 ---------------------------------------------------------------------------------
 (1) _UARTInit                                             9     4      5     874
                                              6 BANK0      9     4      5
                            ___lldiv
 ---------------------------------------------------------------------------------
 (2) ___lldiv                                             14     6      8     601
                                              2 COMMON     8     0      8
                                              0 BANK0      6     6      0
 ---------------------------------------------------------------------------------
 (1) _Setup                                                0     0      0       0
 ---------------------------------------------------------------------------------
 (1) _Lcd_Write_String                                     7     5      2     642
                                              5 COMMON     5     3      2
                                              0 BANK0      2     2      0
                     _Lcd_Write_Char
 ---------------------------------------------------------------------------------
 (2) _Lcd_Write_Char                                       2     2      0      62
                                              3 COMMON     2     2      0
                           _Lcd_Port
 ---------------------------------------------------------------------------------
 (1) _Lcd_Set_Cursor                                       6     5      1     704
                                              6 COMMON     4     3      1
                            _Lcd_Cmd
 ---------------------------------------------------------------------------------
 (1) _Lcd_Init                                             2     2      0      93
                                              6 COMMON     2     2      0
                            _Lcd_Cmd
                           _Lcd_Port
 ---------------------------------------------------------------------------------
 (1) _Lcd_Clear                                            0     0      0      62
                            _Lcd_Cmd
 ---------------------------------------------------------------------------------
 (2) _Lcd_Cmd                                              3     3      0      62
                                              3 COMMON     3     3      0
                           _Lcd_Port
 ---------------------------------------------------------------------------------
 (3) _Lcd_Port                                             1     1      0      31
                                              2 COMMON     1     1      0
 ---------------------------------------------------------------------------------
 Estimated maximum stack depth 3
 ---------------------------------------------------------------------------------
 (Depth) Function   	        Calls       Base Space   Used Autos Params    Refs
 ---------------------------------------------------------------------------------
 (4) _ISR                                                  2     2      0       0
                                              0 COMMON     2     2      0
 ---------------------------------------------------------------------------------
 Estimated maximum stack depth 4
 ---------------------------------------------------------------------------------

 Call Graph Graphs:

 _main (ROOT)
   _Lcd_Clear
     _Lcd_Cmd
       _Lcd_Port
   _Lcd_Init
     _Lcd_Cmd
       _Lcd_Port
     _Lcd_Port
   _Lcd_Set_Cursor
     _Lcd_Cmd
       _Lcd_Port
   _Lcd_Write_String
     _Lcd_Write_Char
       _Lcd_Port
   _Setup
   _UARTInit
     ___lldiv
   ___fldiv
     ___xxtofl (ARG)
       ___fltol (ARG)
       ___wmul (ARG)
         ___fltol (ARG)
   ___flmul
     __Umul8_16
     ___fldiv (ARG)
       ___xxtofl (ARG)
         ___fltol (ARG)
         ___wmul (ARG)
           ___fltol (ARG)
     ___flsub (ARG)
       ___fladd
       ___fltol (ARG)
       ___wmul (ARG)
         ___fltol (ARG)
       ___xxtofl (ARG)
         ___fltol (ARG)
         ___wmul (ARG)
           ___fltol (ARG)
     ___fltol (ARG)
     ___xxtofl (ARG)
       ___fltol (ARG)
       ___wmul (ARG)
         ___fltol (ARG)
   ___xxtofl
     ___fltol (ARG)
     ___wmul (ARG)
       ___fltol (ARG)
   _canalADC
   _configADC
   _convert
     ___awdiv
     ___fldiv
       ___xxtofl (ARG)
         ___fltol (ARG)
         ___wmul (ARG)
           ___fltol (ARG)
     ___flge
     ___flmul
       __Umul8_16
       ___fldiv (ARG)
         ___xxtofl (ARG)
           ___fltol (ARG)
           ___wmul (ARG)
             ___fltol (ARG)
       ___flsub (ARG)
         ___fladd
         ___fltol (ARG)
         ___wmul (ARG)
           ___fltol (ARG)
         ___xxtofl (ARG)
           ___fltol (ARG)
           ___wmul (ARG)
             ___fltol (ARG)
       ___fltol (ARG)
       ___xxtofl (ARG)
         ___fltol (ARG)
         ___wmul (ARG)
           ___fltol (ARG)
     ___flsub
       ___fladd
       ___fltol (ARG)
       ___wmul (ARG)
         ___fltol (ARG)
       ___xxtofl (ARG)
         ___fltol (ARG)
         ___wmul (ARG)
           ___fltol (ARG)
     ___fltol
     ___wmul
       ___fltol (ARG)
     ___xxtofl
       ___fltol (ARG)
       ___wmul (ARG)
         ___fltol (ARG)

 _ISR (ROOT)

 Address spaces:
Name               Size   Autos  Total    Cost      Usage
BITCOMMON            E      0       0       0        0.0%
EEDATA             100      0       0       0        0.0%
NULL                 0      0       0       0        0.0%
CODE                 0      0       0       0        0.0%
COMMON               E      A       C       1       85.7%
BITSFR0              0      0       0       1        0.0%
SFR0                 0      0       0       1        0.0%
BITSFR1              0      0       0       2        0.0%
SFR1                 0      0       0       2        0.0%
STACK                0      0       0       2        0.0%
ABS                  0      0      91       3        0.0%
BITBANK0            50      0       0       4        0.0%
BITSFR3              0      0       0       4        0.0%
SFR3                 0      0       0       4        0.0%
BANK0               50     4D      4D       5       96.2%
BITSFR2              0      0       0       5        0.0%
SFR2                 0      0       0       5        0.0%
BITBANK1            50      0       0       6        0.0%
BANK1               50     19      38       7       70.0%
BITBANK3            60      0       0       8        0.0%
BANK3               60      0       0       9        0.0%
BITBANK2            60      0       0      10        0.0%
BANK2               60      0       0      11        0.0%
DATA                 0      0      91      12        0.0%


Microchip Technology PIC Macro Assembler V2.31 build 20201012212115 
Symbol Table                                                                                   Mon Feb 08 11:07:08 2021

        UARTInit@baud_rate 0026               ___fldiv@aexp 0050               ___fldiv@bexp 004F  
                        pc 0002               ___fldiv@sign 0048                         l85 14AC  
                       l94 1476                         l97 07FA               ___awdiv@sign 0021  
                       fsr 0004        ___wmul@multiplicand 0027        __Umul8_16@word_mpld 0022  
                      l100 080F                        l112 14C2                        l106 14E6  
                      l109 159F                        l118 0855                        l150 047F  
                      l225 08FD                        l226 0900                        l315 1519  
                      l229 1498                        l501 175B                        l317 1531  
                      l351 1607                        l511 175B                        l169 16DF  
                      l612 0E82                        l508 1746                        l621 0FFF  
                      l710 074C                        l614 0E59                        l704 07E0  
                      l608 0DDB                        l633 0F71                        l650 0FF3  
                      l642 0FD1                        l723 1548                        l651 0FFF  
                      l468 1670                        l492 17E6                        l716 07D4  
                      l493 17FF                        l725 155A                        l629 0F4D  
                      l654 150A                        l750 09BC                        l639 0F93  
                      l680 0B0B                        l664 0A19                        l489 177A  
                      l761 0986                        l666 0B99                        l762 0992  
                      l754 096A                        l748 0925                        l686 0B7D  
                      l688 0B8D                        _ISR 1477                        _buf 00B5  
                      fsr0 0004                        indf 0000               ___flmul@aexp 005F  
             ___flmul@bexp 0064               ___flmul@sign 005E               ___flmul@temp 0069  
             ___flmul@prod 0065                       ?_ISR 0070               ___fltol@exp1 0077  
                     l2001 0EBC                       l2003 0EBE                       l2011 0ED1  
                     l2013 0EE7                       l2021 0F3F                       l2005 0EC2  
                     l2031 0F6C                       l2023 0F55                       l2015 0F25  
                     l2007 0EC3                       l3001 1655                       l2201 1772  
                     l2041 0F7F                       l2033 0F70                       l2025 0F5A  
                     l2017 0F2B                       l2009 0ECC                       l3003 165C  
                     l2211 17C2                       l2203 178E                       l2051 0F90  
                     l2035 0F75                       l2043 0F81                       l2019 0F30  
                     l3005 1662                       l2301 0A21                       l2213 17FC  
                     l2205 1796                       l3101 0543                       l2061 0FAF  
                     l2037 0F78                       l2029 0F63                       l2045 0F85  
                     l3021 170B                       l3013 16E0                       l3007 1667  
                     l2311 0A3F                       l2303 0A2D                       l2215 17FE  
                     l2207 179A                       l3111 05C0                       l3103 056F  
                     l2071 0FE8                       l2063 0FCD                       l2055 0F98  
                     l2047 0F86                       l2039 0F7A                       l3023 170C  
                     l3015 16ED                       l3201 16D2                       l3009 166C  
                     l2321 0A6A                       l2305 0A31                       l2209 17BE  
                     l3121 0640                       l3113 05DD                       l3105 058B  
                     l2081 0FFE                       l2073 0FE9                       l2065 0FD6  
                     l2057 0F9D                       l2049 0F8A                       l3025 1714  
                     l3211 16D9                       l3203 16D3                       l2331 0A8F  
                     l2323 0A72                       l2315 0A48                       l3131 06F8  
                     l3123 066D                       l3115 05ED                       l3107 05A7  
                     l3051 0487                       l2075 0FED                       l2067 0FDB  
                     l2059 0FAB                       l3043 173B                       l3035 1722  
                     l3027 1716                       l3019 16F6                       l3221 1561  
                     l3213 16DA                       l3205 16D4                       l2341 0ABA  
                     l2333 0A90                       l2325 0A74                       l2317 0A5A  
                     l2309 0A3A                       l2261 09BD                       l3141 071D  
                     l3133 0701                       l3125 067D                       l3117 060A  
                     l3109 05B0                       l3061 049C                       l3053 048D  
                     l2077 0FEF                       l2069 0FE3                       l3045 174B  
                     l3029 171A                       l3037 1734                       l3301 0219  
                     l3223 156A                       l3231 14C4                       l3215 16DB  
                     l3207 16D7                       l2351 0AD7                       l2327 0A79  
                     l2335 0A99                       l2343 0ABE                       l2319 0A62  
                     l2271 09D4                       l2263 09C4                       l3151 0735  
                     l3143 0726                       l3135 070F                       l3127 06AA  
                     l3119 0623                       l3071 04B9                       l3063 04A4  
                     l3055 0491                       l2079 0FFA                       l2255 14E7  
                     l3047 1750                       l3311 0257                       l3303 0229  
                     l3225 1579                       l3241 14E0                       l3233 14C9  
                     l2601 14A5                       l3217 16DE                       l3209 16D8  
                     l2361 0AEF                       l2353 0ADB                       l2345 0AC4  
                     l2337 0AAB                       l2329 0A8B                       l2281 09EC  
                     l2273 09D9                       l2265 09CA                       l3161 0764  
                     l3153 0749                       l3137 0718                       l3145 072C  
                     l3129 06D0                       l3081 04D0                       l3073 04BD  
                     l3065 04A6                       l3057 0492                       l3049 0480  
                     l2257 14EB                       l3321 0317                       l3313 025D  
                     l3305 0231                       l3401 0D44                       l3227 157F  
                     l3219 155B                       l3235 14CE                       l3243 0810  
                     l2603 14A6                       l2371 0B10                       l2363 0AF0  
                     l2355 0ADC                       l2347 0ACC                       l2339 0AAC  
                     l2291 0A01                       l2283 09F1                       l2275 09E1  
                     l2267 09CE                       l3171 079F                       l3163 0768  
                     l3147 0730                       l3139 071C                       l3083 04D2  
                     l3075 04BE                       l3067 04AE                       l3059 0497  
                     l3331 032D                       l3323 0317                       l3315 0273  
                     l3307 0231                       l3251 0021                       l3403 0D4C  
                     l3229 0803                       l3237 14D5                       l3245 0815  
                     l2605 14A9                       l2701 08A3                       l2373 0B15  
                     l2381 0B46                       l2365 0AF4                       l2357 0AE5  
                     l2349 0ACE                       l2293 0A06                       l2285 09F7  
                     l2277 09E2                       l2269 09CF                       l3181 07CC  
                     l3173 07AE                       l3165 0781                       l3157 0751  
                     l3149 0731                       l3093 04ED                       l3085 04DA  
                     l3077 04C3                       l3069 04B3                       l1901 0D94  
                     l3341 0439                       l3333 0332                       l3325 031D  
                     l3317 0302                       l3309 0236                       l3261 003C  
                     l3253 0034                       l3405 0D55                       l3239 14DB  
                     l3247 0831                       l2607 14AA                       l3191 1678  
                     l2711 08C1                       l2703 08A9                       l2391 0B7C  
                     l2383 0B53                       l2375 0B23                       l2367 0B08  
                     l2359 0AEB                       l2295 0A0E                       l2287 09FB  
                     l2279 09E4                       l2199 175C                       l3183 07CD  
                     l3175 07B8                       l3159 0756                       l3167 0787  
                     l3095 04FD                       l3087 04DF                       l3079 04C8  
                     l1911 0DAC                       l1903 0D9C                       l2551 092D  
                     l2543 0904                       l3351 046F                       l3343 0457  
                     l3335 0353                       l3327 0322                       l3319 030A  
                     l3271 00AA                       l3263 003C                       l3255 0034  
                     l3407 0D61                       l3249 0839                       l2609 14AB  
                     l3193 16A3                       l2721 08DF                       l2713 08C7  
                     l2705 08AF                       l2393 0B83                       l2385 0B61  
                     l2377 0B27                       l2297 0A0F                       l2289 09FC  
                     l3185 07D8                       l3177 07BA                       l3169 0794  
                     l3097 050A                       l3089 04E4                       l1921 0DBE  
                     l1913 0DB2                       l1905 0D9D                       l2561 094F  
                     l2545 0909                       l3345 045F                       l3337 0359  
                     l3329 0328                       l3281 00D7                       l3273 00BD  
                     l3265 0055                       l3257 0036                       l3409 0D6A  
                     l3361 0BEB                       l3353 0B9A                       l3195 16A5  
                     l2723 08E5                       l2715 08CD                       l2707 08B5  
                     l2395 0B87                       l2387 0B70                       l2379 0B40  
                     l2299 0A11                       l3179 07C8                       l3099 0527  
                     l1923 0DC3                       l1931 0DD3                       l1915 0DB3  
                     l1907 0D9F                       l2571 0980                       l2563 0953  
                     l2555 0936                       l2547 090D                       l3347 0465  
                     l3339 036F                       l3291 01E3                       l3283 00DC  
                     l3267 0094                       l3275 00C3                       l3259 0038  
                     l3371 0C0C                       l3363 0BF4                       l3355 0BC1  
                     l3197 16D0                       l3189 1671                       l2725 08EB  
                     l2717 08D3                       l2709 08BB                       l2397 0B89  
                     l2389 0B74                       l2901 153E                       l1941 0DF1  
                     l1933 0DE1                       l1925 0DC8                       l1917 0DB9  
                     l1909 0DA7                       l2581 09B3                       l2573 098A  
                     l2565 0961                       l2557 093B                       l2549 091D  
                     l3349 0469                       l3293 0201                       l3285 00FD  
                     l3277 00CC                       l3269 00A1                       l3381 0C2F  
                     l3373 0C14                       l3365 0BF9                       l3357 0BCA  
                     l2911 07E2                       l2591 149E                       l3199 16D1  
                     l2727 08F1                       l2719 08D9                       l2903 1542  
                     l1951 0E05                       l1943 0DF5                       l1935 0DE5  
                     l1927 0DD0                       l1919 0DBD                       l2583 09B4  
                     l2575 0994                       l2567 0971                       l2559 0948  
                     l3295 0209                       l3287 0103                       l3279 00D2  
                     l3391 0C42                       l3383 0C32                       l3375 0C1A  
                     l3367 0BFF                       l3359 0BDF                       l2913 07E5  
                     l2921 14AE                       l2593 149F                       l2729 08F7  
                     l2681 0867                       l2673 1486                       l2905 1551  
                     l1961 0E19                       l1953 0E09                       l1945 0DF9  
                     l1937 0DE9                       l1929 0DD1                       l2577 09AA  
                     l2569 097C                       l3297 020F                       l3289 0119  
                     l3393 0C4A                       l3385 0C36                       l3377 0C21  
                     l3369 0C05                       l2915 07EB                       l2923 14B1  
                     l2595 14A0                       l2587 1499                       l2691 0885  
                     l2683 086D                       l2675 0857                       l2907 1556  
                     l1971 0E3D                       l1963 0E1D                       l1955 0E0D  
                     l1947 0DFD                       l1939 0DED                       l1891 0D7F  
                     l2931 150B                       l2579 09AF                       l3299 0213  
                     l3395 0CB5                       l3387 0C37                       l3379 0C29  
                     l2917 07EE                       l2925 14B7                       l2597 14A3  
                     l2589 149D                       l2693 088B                       l2685 0873  
                     l2677 085C                       l1981 0E6D                       l1973 0E5D  
                     l1965 0E21                       l1957 0E11                       l1949 0E01  
                     l1893 0D85                       l2941 152D                       l2933 150D  
                     l3397 0CC7                       l3389 0C38                       l2919 07F7  
                     l2927 14BA                       l2599 14A4                       l2951 15C2  
                     l2695 0891                       l2687 0879                       l2679 0862  
                     l1983 0E76                       l1975 0E66                       l1959 0E15  
                     l1967 0E25                       l1895 0D89                       l2935 1513  
                     l3399 0D32                       l2929 14BF                       l2961 15F0  
                     l2953 15C6                       l2945 15A0                       l2697 0897  
                     l2689 087F                       l1993 0E94                       l1977 0E68  
                     l1985 0E7A                       l1969 0E26                       l1897 0D8A  
                     l1889 0D78                       l2937 1520                       l2963 15F9  
                     l2955 15CF                       l2947 15B2                       l2699 089D  
                     l2971 160B                       l1995 0EAB                       l1987 0E86  
                     l1979 0E6C                       l1899 0D8F                       l2939 1527  
                     l2957 15E1                       l2949 15B5                       l2965 15FF  
                     l2981 161F                       l2973 160F                       l1997 0EAF  
                     l1989 0E8B                       l2895 1472                       l2959 15EF  
                     l2991 1635                       l2983 1623                       l2975 1614  
                     l1999 0EB3                       l2993 1639                       l2985 1625  
                     l2977 1616                       l2969 1608                       l2897 1535  
                     l2995 163D                       l2987 162B                       l2979 161A  
                     l2899 1537                       l2997 164E                       l2989 162E  
                     l2999 1654                       _ADIF 0066                       STR_1 1010  
                     STR_2 1013                       STR_3 1016                       u2100 0D8F  
                     u2101 0D8E                       u2110 0D94                       u2111 0D93  
                     u3000 0A01                       u2200 0E47                       u2120 0DB2  
                     u3001 0A00                       u2121 0DB1                       u3010 0A06  
                     u2210 0E5D                       u2130 0DBD                       u3011 0A05  
                     u2211 0E5C                       u2131 0DBC                       u3100 0AC4  
                     u3020 0A21                       u2300 0EC2                       u2220 0E6C  
                     u2140 0DC3                       u3101 0AC3                       u3021 0A20  
                     u2301 0EC1                       u2221 0E6B                       u2141 0DC2  
                     u3110 0ACC                       u3030 0A3F                       u2150 0DC8  
                     u3111 0ACB                       u3031 0A3E                       u2151 0DC7  
                     u3200 0B27                       u3040 0A79                       u2400 0F75  
                     u2320 0EE7                       u2240 0E82                       u2160 0DE1  
                     u3201 0B26                       u3041 0A78                       u2401 0F74  
                     u2321 0EE6                       u2241 0E81                       u2161 0DE0  
                     u3210 0B36                       u3130 0ADB                       u2410 0F7F  
                     u2250 0E86                       u2170 0DE5                       u2090 0D89  
                     u3131 0ADA                       u2411 0F7E                       u2331 0EFE  
                     u2323 0EE3                       u2315 0EC5                       u2251 0E85  
                     u2235 0E6F                       u2171 0DE4                       u2091 0D88  
                     u3220 0B53                       u2500 0FD6                       u2420 0F85  
                     u2340 0F12                       u2332 0EFF                       u2260 0E8B  
                     u2180 0E3D                       u3221 0B52                       u3125 0AD0  
                     u2501 0FD5                       u2421 0F84                       u2341 0F13  
                     u2333 0F04                       u2261 0E8A                       u2181 0E3C  
                     u3230 0B70                       u3150 0AEF                       u3070 0A8F  
                     u4110 1556                       u2510 0FDB                       u2430 0F8A  
                     u2350 0F30                       u2342 0F18                       u2334 0F05  
                     u2190 0E46                       u3231 0B6F                       u3215 0B31  
                     u3151 0AEE                       u3071 0A8E                       u3055 0A7B  
                     u4111 1555                       u2511 0FDA                       u2431 0F89  
                     u2351 0F2F                       u2343 0F19                       u2335 0F0A  
                     u2271 0E9D                       u2191 0E44                       u4200 15E1  
                     u3240 0B87                       u3160 0AF4                       u2520 0FE8  
                     u2440 0F90                       u2360 0F55                       u2336 0F0B  
                     u2280 0EAF                       u2272 0EA4                       u4120 1513  
                     u4201 15E0                       u3241 0B86                       u3225 0B4F  
                     u3161 0AF3                       u3145 0ADE                       u3065 0A84  
                     u4105 1549                       u2521 0FE7                       u2441 0F8F  
                     u2361 0F54                       u2281 0EAE                       u2273 0EAB  
                     u2185 0E39                       u4121 1512                       u3170 0B08  
                     u3090 0AAB                       u2530 0FED                       u2450 0F97  
                     u2370 0F5A                       u2290 0EB3                       u3235 0B6C  
                     u3171 0B07                       u3091 0AAA                       u2531 0FEC  
                     u2451 0F96                       u2371 0F59                       u2291 0EB2  
                     u4220 15FF                       u3180 0B0F                       u2540 0FFE  
                     u2460 0F9D                       u4221 15FE                       u4205 15DD  
                     u3181 0B0E                       u3085 0A92                       u2541 0FFD  
                     u2461 0F9C                       u4310 1662                       u4230 160F  
                     u3190 0B15                       u2470 0FAF                       u2390 0F70  
                     u4150 152D                       u5007 14BC                       u4215 15F1  
                     u4311 1661                       u4231 160E                       u3191 0B14  
                     u3095 0AA7                       u2471 0FAE                       u2391 0F6F  
                     u4151 152C                       u4135 151A                       u4160 15B2  
                     u4320 1667                       u4240 161A                       u2800 178E  
                     u2480 0FBE                       u5017 1565                       u4161 15B1  
                     u4321 1666                       u4305 1656                       u4241 1619  
                     u2801 178D                       u2385 0F65                       u4145 1521  
                     u4250 162B                       u2810 179A                       u4090 1542  
                     u2490 0FCD                       u4410 174B                       u4330 16ED  
                     u5027 1574                       u4251 162A                       u2811 1799  
                     u4091 1541                       u2491 0FCC                       u4411 174A  
                     u4331 16EC                       u4180 15C6                       u4500 04E4  
                     u4420 1750                       u4340 1704                       u3700 0980  
                     u3620 0909                       u5037 1583                       u4181 15C5  
                     u2821 17A9                       u4501 04E3                       u2485 0FB9  
                     u4421 174F                       u4405 173D                       u3701 097F  
                     u3621 0908                       u4270 163D                       u2830 17C2  
                     u2822 17AA                       u4430 0491                       u4350 171A  
                     u3710 0986                       u3630 090D                       u5047 07F2  
                     u4175 15B7                       u4271 163C                       u2831 17C1  
                     u2823 17AF                       u4511 0535                       u4431 0490  
                     u4351 1719                       u3711 0985                       u3631 090C  
                     u2824 17B0                       u4512 053C                       u4440 0497  
                     u4360 1721                       u3720 098A                       u3640 092D  
                     u4265 162F                       u2841 17D1                       u2825 17B5  
                     u4601 065F                       u4521 0551                       u4513 0543  
                     u4441 0496                       u4361 1720                       u4345 16FF  
                     u3721 0989                       u3641 092C                       u4290 164E  
                     u2850 17FC                       u2842 17D2                       u2826 17B6  
                     u4602 0666                       u4522 0558                       u4450 049C  
                     u3730 099F                       u4195 15C8                       u4291 164D  
                     u2851 17FB                       u2843 17D7                       u4611 068C  
                     u4603 066D                       u4531 057D                       u4523 055F  
                     u4451 049B                       u3900 08A3                       u2844 17D8  
                     u4700 0730                       u4620 06B6                       u4612 0693  
                     u4532 0584                       u4460 04BD                       u4380 1733  
                     u3740 09AF                       u3660 094E                       u3901 08A2  
                     u4285 163E                       u2845 17DD                       u4701 072F  
                     u4613 069A                       u4541 0599                       u4533 058B  
                     u4461 04BC                       u4381 1732                       u3741 09AE  
                     u3661 094D                       u3910 08AF                       u2846 17DE  
                     u2790 1772                       u4710 0735                       u4542 05A0  
                     u4470 04C3                       u4390 173A                       u3750 09B3  
                     u3911 08AE                       u4295 164A                       u2855 17F8  
                     u2791 1771                       u4711 0734                       u4631 06C2  
                     u4543 05A7                       u4471 04C2                       u4391 1739  
                     u4375 1723                       u3751 09B2                       u3735 099A  
                     u3655 0940                       u4800 1678                       u3920 08BB  
                     u3840 085C                       u2960 09CE                       u4720 0749  
                     u4640 06DE                       u4632 06C9                       u4480 04C8  
                     u3680 0970                       u4801 1677                       u3921 08BA  
                     u3841 085B                       u2961 09CD                       u4721 0748  
                     u4633 06D0                       u4625 06B1                       u4561 05CF  
                     u4481 04C7                       u3681 096F                       u4810 1686  
                     u3930 08C7                       u3850 0867                       u2970 09D4  
                     u4730 0750                       u4562 05D6                       u4490 04DF  
                     u3931 08C6                       u3851 0866                       u2971 09D3  
                     u4731 074F                       u4651 06EA                       u4571 05FC  
                     u4563 05DD                       u4555 05A9                       u4491 04DE  
                     u3675 0962                       u4820 16B3                       u3940 08D3  
                     u3860 0873                       u2980 09D9                       u4740 0756  
                     u4652 06F1                       u4572 0603                       u4900 00D2  
                     u3941 08D2                       u3861 0872                       u2981 09D8  
                     u4741 0755                       u4653 06F8                       u4645 06D9  
                     u4573 060A                       u4901 00D1                       u4830 14C9  
                     u3950 08DF                       u3870 087F                       u2990 09FB  
                     u4750 0768                       u4910 0119                       i1l71 1477  
                     u4831 14C8                       u4815 1681                       u3951 08DE  
                     u3871 087E                       u2991 09FA                       u4751 0767  
                     u4591 0632                       u3695 0975                       u4911 0118  
                     u4840 14DB                       u3960 08EB                       u3880 088B  
                     u4760 0777                       u4680 071C                       u4592 0639  
                     u4920 0219                       u4841 14DA                       u4825 16AE  
                     u3961 08EA                       u3881 088A                       u4681 071B  
                     u4665 06FA                       u4593 0640                       u4585 060C  
                     u4921 0218                       u4850 081F                       u3970 08F7  
                     u3890 0897                       u4770 0794                       u4930 0273  
                     u3971 08F6                       u3891 0896                       u4771 0793  
                     u4675 0711                       u4931 0272                       u4915 0115  
                     u4860 0843                       u4780 07AE                       u4940 0328  
                     u4781 07AD                       u4765 0772                       u4941 0327  
                     u4870 0855                       u4790 07CC                       u4950 036F  
                     u4871 0854                       u4791 07CB                       u4775 0790  
                     u4695 071F                       u4951 036E                       u4935 026F  
                     u4960 046F                       u4880 0055                       u4785 07AA  
                     u4961 046E                       u4881 0054                       u4890 00CB  
                     u4970 0C05                       u4955 036B                       u4891 00CA  
                     u4971 0C04                       u4980 0C0C                       u4981 0C0B  
                     u4997 0D70                       _buf2 00AB          ?_Lcd_Write_String 0075  
                     _main 0B9A                       btemp 007E                       start 000C  
       ??_Lcd_Write_String 0077            ___fldiv@new_exp 0049            __end_of_Lcd_Cmd 07FB  
                    ??_ISR 0070              ___fltol@sign1 0076            __end_of___fladd 1000  
                    ?_main 0070            __end_of___fldiv 0B9A            __end_of___awdiv 1671  
          __end_of___flmul 07E1            __end_of___flsub 150B            __end_of___fltol 175C  
                    _ANSEL 0188            __end_of___lldiv 1608            ___awdiv@divisor 0072  
          ___awdiv@counter 0020                      _RCREG 001A                      _SPBRG 0099  
                    _PORTA 0005                      _PORTB 0006                      _PORTC 0007  
                    _PORTD 0008    __size_of_Lcd_Set_Cursor 0024                      _TRISA 0085  
                    _TRISB 0086                      _TRISC 0087                      _TRISD 0088  
                    _TXREG 0019                convert@data 00C9           __end_of_UARTInit 16E0  
                    _Setup 1499                convert@temp 00C5            __end_of_convert 0480  
                    pclath 000A                      status 0003                      wtemp0 007E  
         __end_of_Lcd_Init 15A0           __end_of_Lcd_Port 1477            __initialization 000F  
             __end_of_main 0D78                     ??_main 00D4         __size_of_Lcd_Clear 000D  
                   ?_Setup 0070                     _ADRESH 001E           ___awdiv@dividend 0074  
                   _ANSELH 0189           __end_of_canalADC 0901                  ??_Lcd_Cmd 0073  
  __size_of_Lcd_Write_Char 0016           __end_of___xxtofl 09BD                     ___flge 175C  
             convert@place 00C3                  ??___fladd 0020                     ___wmul 150B  
                ??___fldiv 003F                  ??___awdiv 0076                  ??___flmul 0059  
                ??___flsub 007A                  ??___fltol 0020                  ??___lldiv 0020  
         ___awdiv@quotient 0022                  ??_convert 006B         __size_of__Umul8_16 0029  
                   saved_w 007E            Lcd_Set_Cursor@a 0078            Lcd_Set_Cursor@b 0076  
               ___flge@ff1 0072                 ___flge@ff2 0076               ___xxtofl@arg 0033  
             ___xxtofl@exp 0032               ___xxtofl@val 0029    __end_of__initialization 001A  
        __end_of_Lcd_Clear 0810                 ___fltol@f1 0072             __pcstackCOMMON 0070  
            __end_of_Setup 14AD                  ?_UARTInit 0026             _Lcd_Set_Cursor 14C3  
       __size_of_configADC 0013                    ??_Setup 0072                  ?_Lcd_Init 0070  
                ?_Lcd_Port 0070                 __pbssBANK1 00A0          __end_of__Umul8_16 155B  
               __pmaintext 0B9A                    ?___flge 0072                    ?___wmul 0025  
               ??_UARTInit 002B                 __pintentry 0004  __size_of_Lcd_Write_String 0046  
   __end_of_Lcd_Set_Cursor 14E7                  ?_canalADC 0070                  ?___xxtofl 0029  
               ??_Lcd_Init 0076                 ??_Lcd_Port 0072                 __stringtab 1000  
           _Lcd_Write_Char 14AD                    _Lcd_Cmd 07E1                 _convertir2 00A0  
        __end_of_configADC 1499              convert@digits 00D0            __size_of___flge 00A4  
                  ___fladd 0D78                    ___fldiv 09BD                    ___awdiv 1608  
                  ___flmul 0480                    ___flsub 14E7                    ___fltol 16E0  
                  ___lldiv 15A0            __size_of___wmul 0027                    _bandera 00A8  
                _ANSELbits 0188            ?_Lcd_Set_Cursor 0076                    __ptext1 001E  
                  __ptext2 0901                    __ptext3 150B                    __ptext4 16E0  
                  __ptext5 14E7                    __ptext6 0D78                    __ptext7 0480  
                  __ptext8 1532                    __ptext9 175C                 ??_canalADC 0072  
                  _convert 001E               __size_of_ISR 0007                    _control 007A  
                  _lectura 007B                    _varADC1 00AA                    _varADC2 00A9  
               ??___xxtofl 002D                    clrloop0 147F     __end_of_Lcd_Write_Char 14C3  
     end_of_initialization 001A            ___lldiv@divisor 0072            ___lldiv@counter 0025  
                _RCSTAbits 0018                  Lcd_Port@a 0072                  _PORTCbits 0007  
              ___fladd@grs 002B              ___xxtofl@sign 0031                  _TRISBbits 0086  
              ___fldiv@grs 004B                ___fldiv@rem 0044            ?_Lcd_Write_Char 0070  
        Lcd_Write_String@a 0075          Lcd_Write_String@i 0020                ___flmul@grs 0060  
                _TXSTAbits 0098                  _Lcd_Clear 0803             __end_of___flge 1800  
           __end_of___wmul 1532           _Lcd_Write_String 0810          __size_of_UARTInit 006F  
      start_initialization 000F                __end_of_ISR 147E          __size_of_Lcd_Init 0045  
        __size_of_Lcd_Port 0006                 ?_Lcd_Clear 0070                   ??___flge 0020  
                 ??___wmul 0078                  __Umul8_16 1532            Lcd_Write_Char@a 0074  
                ___fladd@a 0076                  ___fladd@b 0072                  ___fldiv@a 0037  
                ___fldiv@b 003B                  ___flmul@a 0055                  ___flmul@b 0051  
              __pbssCOMMON 007A                  ___flsub@a 0037                  ___flsub@b 003B  
                ___latbits 0002          __size_of_canalADC 00AB              __pcstackBANK0 0020  
            __pcstackBANK1 00BF          __size_of___xxtofl 00BC                   ?_Lcd_Cmd 0070  
         ??_Lcd_Set_Cursor 0077                   ?___fladd 0072                   ?___fldiv 0037  
                 ?___awdiv 0072                   ?___flmul 0051                   ?___flsub 0037  
                 ?___fltol 0072                   ?___lldiv 0072                 ?__Umul8_16 0072  
                _configADC 1486                  __pstrings 1000                   ?_convert 00BF  
                _convertir 00A4             __size_of_Setup 0014          interrupt_function 0004  
           ___wmul@product 0078                  clear_ram0 147E                   _PIE1bits 008C  
                 Lcd_Cmd@a 0075                   _PIR1bits 000C                ??_Lcd_Clear 0076  
                 _UARTInit 1671                 ?_configADC 0070                 _ADCON0bits 001F  
              __stringbase 100F                 _ADCON1bits 009F          ___wmul@multiplier 0025  
         ??_Lcd_Write_Char 0073                   _Lcd_Init 155B                   _Lcd_Port 1471  
                convert@mu 00D2   __end_of_Lcd_Write_String 0856           __size_of_Lcd_Cmd 001A  
             UARTInit@BRGH 002A                ??__Umul8_16 0074           __size_of___fladd 0288  
         __size_of___fldiv 01DD           __size_of___awdiv 0069           __size_of___flmul 0361  
         __size_of___flsub 0024           __size_of___fltol 007C           __size_of___lldiv 0068  
       __end_of__stringtab 1010                   _canalADC 0856           __size_of_convert 0462  
                 ___xxtofl 0901              canalADC@canal 0072                   __ptext10 09BD  
                 __ptext11 1608                   __ptext20 155B                   __ptext12 1486  
                 __ptext21 0803                   __ptext13 0856                   __ptext22 07E1  
                 __ptext14 1671                   __ptext23 1471                   __ptext15 15A0  
                 __ptext24 1477                   __ptext16 1499                   __ptext17 0810  
                 __ptext18 14AD                   __ptext19 14C3              __size_of_main 01DE  
              ??_configADC 0072                   convert@a 00BF                   convert@i 00CE  
                 convert@j 00C7                   convert@x 00CA                   intlevel1 0000  
         ___lldiv@dividend 0076                  stringcode 100A         Lcd_Set_Cursor@temp 0079  
   __Umul8_16@multiplicand 0072           ___lldiv@quotient 0021                   stringdir 100A  
                 stringtab 1000              ___fladd@signs 0028               ___fladd@aexp 0029  
             ___fladd@bexp 002A       __Umul8_16@multiplier 0024          __Umul8_16@product 0020  
