

Microchip MPLAB XC8 Assembler V2.31 build 20201012212115 
                                                                                               Mon Feb 08 16:00:25 2021

Microchip MPLAB XC8 C Compiler v2.31 (Free license) build 20201012212115 Og1 
     1                           	processor	16F887
     2                           	pagewidth 120
     3                           	opt	flic
     4                           	psect	strings,global,class=STRING,delta=2,noexec
     5                           	psect	cinit,global,class=CODE,merge=1,delta=2
     6                           	psect	bssCOMMON,global,class=COMMON,space=1,delta=1,noexec
     7                           	psect	bssBANK1,global,class=BANK1,space=1,delta=1,noexec
     8                           	psect	clrtext,global,class=CODE,delta=2
     9                           	psect	cstackBANK1,global,class=BANK1,space=1,delta=1,noexec
    10                           	psect	cstackCOMMON,global,class=COMMON,space=1,delta=1,noexec
    11                           	psect	cstackBANK0,global,class=BANK0,space=1,delta=1,noexec
    12                           	psect	maintext,global,class=CODE,split=1,delta=2
    13                           	psect	text1,local,class=CODE,merge=1,delta=2
    14                           	psect	text2,local,class=CODE,merge=1,delta=2,group=1
    15                           	psect	text3,local,class=CODE,merge=1,delta=2,group=1
    16                           	psect	text4,local,class=CODE,merge=1,delta=2
    17                           	psect	text5,local,class=CODE,merge=1,delta=2,group=1
    18                           	psect	text6,local,class=CODE,merge=1,delta=2,group=1
    19                           	psect	text7,local,class=CODE,merge=1,delta=2,group=1
    20                           	psect	text8,local,class=CODE,merge=1,delta=2,group=1
    21                           	psect	text9,local,class=CODE,merge=1,delta=2,group=1
    22                           	psect	text10,local,class=CODE,merge=1,delta=2,group=1
    23                           	psect	text11,local,class=CODE,merge=1,delta=2,group=1
    24                           	psect	text12,local,class=CODE,merge=1,delta=2,group=1
    25                           	psect	text13,local,class=CODE,merge=1,delta=2,group=1
    26                           	psect	text14,local,class=CODE,merge=1,delta=2,group=1
    27                           	psect	text15,local,class=CODE,merge=1,delta=2
    28                           	psect	text16,local,class=CODE,merge=1,delta=2
    29                           	psect	text17,local,class=CODE,merge=1,delta=2
    30                           	psect	text18,local,class=CODE,merge=1,delta=2
    31                           	psect	text19,local,class=CODE,merge=1,delta=2
    32                           	psect	text20,local,class=CODE,merge=1,delta=2
    33                           	psect	text21,local,class=CODE,merge=1,delta=2
    34                           	psect	text22,local,class=CODE,merge=1,delta=2,group=1
    35                           	psect	text23,local,class=CODE,merge=1,delta=2
    36                           	psect	text24,local,class=CODE,merge=1,delta=2
    37                           	psect	text25,local,class=CODE,merge=1,delta=2
    38                           	psect	text26,local,class=CODE,merge=1,delta=2
    39                           	psect	text27,local,class=CODE,merge=1,delta=2
    40                           	psect	text28,local,class=CODE,merge=1,delta=2
    41                           	psect	text29,local,class=CODE,merge=1,delta=2
    42                           	psect	text30,local,class=CODE,merge=1,delta=2
    43                           	psect	text31,local,class=CODE,merge=1,delta=2
    44                           	psect	intentry,global,class=CODE,delta=2
    45                           	psect	config,global,abs,ovrld,class=CONFIG,space=4,delta=2,noexec
    46                           	dabs	1,0x7E,2
    47  0000                     
    48                           ; Version 2.20
    49                           ; Generated 12/02/2020 GMT
    50                           ; 
    51                           ; Copyright © 2020, Microchip Technology Inc. and its subsidiaries ("Microchip")
    52                           ; All rights reserved.
    53                           ; 
    54                           ; This software is developed by Microchip Technology Inc. and its subsidiaries ("Microch
      +                          ip").
    55                           ; 
    56                           ; Redistribution and use in source and binary forms, with or without modification, are
    57                           ; permitted provided that the following conditions are met:
    58                           ; 
    59                           ;     1. Redistributions of source code must retain the above copyright notice, this lis
      +                          t of
    60                           ;        conditions and the following disclaimer.
    61                           ; 
    62                           ;     2. Redistributions in binary form must reproduce the above copyright notice, this 
      +                          list
    63                           ;        of conditions and the following disclaimer in the documentation and/or other
    64                           ;        materials provided with the distribution.
    65                           ; 
    66                           ;     3. Microchip's name may not be used to endorse or promote products derived from th
      +                          is
    67                           ;        software without specific prior written permission.
    68                           ; 
    69                           ; THIS SOFTWARE IS PROVIDED BY MICROCHIP "AS IS" AND ANY EXPRESS OR IMPLIED WARRANTIES,
    70                           ; INCLUDING, BUT NOT LIMITED TO, THE IMPLIED WARRANTIES OF MERCHANTABILITY AND FITNESS F
      +                          OR
    71                           ; PURPOSE ARE DISCLAIMED.  IN NO EVENT SHALL MICROCHIP BE LIABLE FOR ANY DIRECT, INDIREC
      +                          T,
    72                           ; INCIDENTAL, SPECIAL, EXEMPLARY, OR CONSEQUENTIAL DAMAGES (INCLUDING BUT NOT LIMITED TO
    73                           ; PROCUREMENT OF SUBSTITUTE GOODS OR SERVICES; LOSS OF USE, DATA OR PROFITS; OR BUSINESS
    74                           ; INTERRUPTION) HOWSOEVER CAUSED AND ON ANY THEORY OF LIABILITY, WHETHER IN CONTRACT, ST
      +                          RICT
    75                           ; LIABILITY, OR TORT (INCLUDING NEGLIGENCE OR OTHERWISE) ARISING IN ANY WAY OUT OF THE U
      +                          SE OF
    76                           ; THIS SOFTWARE, EVEN IF ADVISED OF THE POSSIBILITY OF SUCH DAMAGE.
    77                           ; 
    78                           ; 
    79                           ; Code-generator required, PIC16F887 Definitions
    80                           ; 
    81                           ; SFR Addresses
    82  0000                     	;# 
    83  0001                     	;# 
    84  0002                     	;# 
    85  0003                     	;# 
    86  0004                     	;# 
    87  0005                     	;# 
    88  0006                     	;# 
    89  0007                     	;# 
    90  0008                     	;# 
    91  0009                     	;# 
    92  000A                     	;# 
    93  000B                     	;# 
    94  000C                     	;# 
    95  000D                     	;# 
    96  000E                     	;# 
    97  000E                     	;# 
    98  000F                     	;# 
    99  0010                     	;# 
   100  0011                     	;# 
   101  0012                     	;# 
   102  0013                     	;# 
   103  0014                     	;# 
   104  0015                     	;# 
   105  0015                     	;# 
   106  0016                     	;# 
   107  0017                     	;# 
   108  0018                     	;# 
   109  0019                     	;# 
   110  001A                     	;# 
   111  001B                     	;# 
   112  001B                     	;# 
   113  001C                     	;# 
   114  001D                     	;# 
   115  001E                     	;# 
   116  001F                     	;# 
   117  0081                     	;# 
   118  0085                     	;# 
   119  0086                     	;# 
   120  0087                     	;# 
   121  0088                     	;# 
   122  0089                     	;# 
   123  008C                     	;# 
   124  008D                     	;# 
   125  008E                     	;# 
   126  008F                     	;# 
   127  0090                     	;# 
   128  0091                     	;# 
   129  0092                     	;# 
   130  0093                     	;# 
   131  0093                     	;# 
   132  0093                     	;# 
   133  0094                     	;# 
   134  0095                     	;# 
   135  0096                     	;# 
   136  0097                     	;# 
   137  0098                     	;# 
   138  0099                     	;# 
   139  009A                     	;# 
   140  009B                     	;# 
   141  009C                     	;# 
   142  009D                     	;# 
   143  009E                     	;# 
   144  009F                     	;# 
   145  0105                     	;# 
   146  0107                     	;# 
   147  0108                     	;# 
   148  0109                     	;# 
   149  010C                     	;# 
   150  010C                     	;# 
   151  010D                     	;# 
   152  010E                     	;# 
   153  010F                     	;# 
   154  0185                     	;# 
   155  0187                     	;# 
   156  0188                     	;# 
   157  0189                     	;# 
   158  018C                     	;# 
   159  018D                     	;# 
   160  0000                     	;# 
   161  0001                     	;# 
   162  0002                     	;# 
   163  0003                     	;# 
   164  0004                     	;# 
   165  0005                     	;# 
   166  0006                     	;# 
   167  0007                     	;# 
   168  0008                     	;# 
   169  0009                     	;# 
   170  000A                     	;# 
   171  000B                     	;# 
   172  000C                     	;# 
   173  000D                     	;# 
   174  000E                     	;# 
   175  000E                     	;# 
   176  000F                     	;# 
   177  0010                     	;# 
   178  0011                     	;# 
   179  0012                     	;# 
   180  0013                     	;# 
   181  0014                     	;# 
   182  0015                     	;# 
   183  0015                     	;# 
   184  0016                     	;# 
   185  0017                     	;# 
   186  0018                     	;# 
   187  0019                     	;# 
   188  001A                     	;# 
   189  001B                     	;# 
   190  001B                     	;# 
   191  001C                     	;# 
   192  001D                     	;# 
   193  001E                     	;# 
   194  001F                     	;# 
   195  0081                     	;# 
   196  0085                     	;# 
   197  0086                     	;# 
   198  0087                     	;# 
   199  0088                     	;# 
   200  0089                     	;# 
   201  008C                     	;# 
   202  008D                     	;# 
   203  008E                     	;# 
   204  008F                     	;# 
   205  0090                     	;# 
   206  0091                     	;# 
   207  0092                     	;# 
   208  0093                     	;# 
   209  0093                     	;# 
   210  0093                     	;# 
   211  0094                     	;# 
   212  0095                     	;# 
   213  0096                     	;# 
   214  0097                     	;# 
   215  0098                     	;# 
   216  0099                     	;# 
   217  009A                     	;# 
   218  009B                     	;# 
   219  009C                     	;# 
   220  009D                     	;# 
   221  009E                     	;# 
   222  009F                     	;# 
   223  0105                     	;# 
   224  0107                     	;# 
   225  0108                     	;# 
   226  0109                     	;# 
   227  010C                     	;# 
   228  010C                     	;# 
   229  010D                     	;# 
   230  010E                     	;# 
   231  010F                     	;# 
   232  0185                     	;# 
   233  0187                     	;# 
   234  0188                     	;# 
   235  0189                     	;# 
   236  018C                     	;# 
   237  018D                     	;# 
   238  0000                     	;# 
   239  0001                     	;# 
   240  0002                     	;# 
   241  0003                     	;# 
   242  0004                     	;# 
   243  0005                     	;# 
   244  0006                     	;# 
   245  0007                     	;# 
   246  0008                     	;# 
   247  0009                     	;# 
   248  000A                     	;# 
   249  000B                     	;# 
   250  000C                     	;# 
   251  000D                     	;# 
   252  000E                     	;# 
   253  000E                     	;# 
   254  000F                     	;# 
   255  0010                     	;# 
   256  0011                     	;# 
   257  0012                     	;# 
   258  0013                     	;# 
   259  0014                     	;# 
   260  0015                     	;# 
   261  0015                     	;# 
   262  0016                     	;# 
   263  0017                     	;# 
   264  0018                     	;# 
   265  0019                     	;# 
   266  001A                     	;# 
   267  001B                     	;# 
   268  001B                     	;# 
   269  001C                     	;# 
   270  001D                     	;# 
   271  001E                     	;# 
   272  001F                     	;# 
   273  0081                     	;# 
   274  0085                     	;# 
   275  0086                     	;# 
   276  0087                     	;# 
   277  0088                     	;# 
   278  0089                     	;# 
   279  008C                     	;# 
   280  008D                     	;# 
   281  008E                     	;# 
   282  008F                     	;# 
   283  0090                     	;# 
   284  0091                     	;# 
   285  0092                     	;# 
   286  0093                     	;# 
   287  0093                     	;# 
   288  0093                     	;# 
   289  0094                     	;# 
   290  0095                     	;# 
   291  0096                     	;# 
   292  0097                     	;# 
   293  0098                     	;# 
   294  0099                     	;# 
   295  009A                     	;# 
   296  009B                     	;# 
   297  009C                     	;# 
   298  009D                     	;# 
   299  009E                     	;# 
   300  009F                     	;# 
   301  0105                     	;# 
   302  0107                     	;# 
   303  0108                     	;# 
   304  0109                     	;# 
   305  010C                     	;# 
   306  010C                     	;# 
   307  010D                     	;# 
   308  010E                     	;# 
   309  010F                     	;# 
   310  0185                     	;# 
   311  0187                     	;# 
   312  0188                     	;# 
   313  0189                     	;# 
   314  018C                     	;# 
   315  018D                     	;# 
   316  0000                     	;# 
   317  0001                     	;# 
   318  0002                     	;# 
   319  0003                     	;# 
   320  0004                     	;# 
   321  0005                     	;# 
   322  0006                     	;# 
   323  0007                     	;# 
   324  0008                     	;# 
   325  0009                     	;# 
   326  000A                     	;# 
   327  000B                     	;# 
   328  000C                     	;# 
   329  000D                     	;# 
   330  000E                     	;# 
   331  000E                     	;# 
   332  000F                     	;# 
   333  0010                     	;# 
   334  0011                     	;# 
   335  0012                     	;# 
   336  0013                     	;# 
   337  0014                     	;# 
   338  0015                     	;# 
   339  0015                     	;# 
   340  0016                     	;# 
   341  0017                     	;# 
   342  0018                     	;# 
   343  0019                     	;# 
   344  001A                     	;# 
   345  001B                     	;# 
   346  001B                     	;# 
   347  001C                     	;# 
   348  001D                     	;# 
   349  001E                     	;# 
   350  001F                     	;# 
   351  0081                     	;# 
   352  0085                     	;# 
   353  0086                     	;# 
   354  0087                     	;# 
   355  0088                     	;# 
   356  0089                     	;# 
   357  008C                     	;# 
   358  008D                     	;# 
   359  008E                     	;# 
   360  008F                     	;# 
   361  0090                     	;# 
   362  0091                     	;# 
   363  0092                     	;# 
   364  0093                     	;# 
   365  0093                     	;# 
   366  0093                     	;# 
   367  0094                     	;# 
   368  0095                     	;# 
   369  0096                     	;# 
   370  0097                     	;# 
   371  0098                     	;# 
   372  0099                     	;# 
   373  009A                     	;# 
   374  009B                     	;# 
   375  009C                     	;# 
   376  009D                     	;# 
   377  009E                     	;# 
   378  009F                     	;# 
   379  0105                     	;# 
   380  0107                     	;# 
   381  0108                     	;# 
   382  0109                     	;# 
   383  010C                     	;# 
   384  010C                     	;# 
   385  010D                     	;# 
   386  010E                     	;# 
   387  010F                     	;# 
   388  0185                     	;# 
   389  0187                     	;# 
   390  0188                     	;# 
   391  0189                     	;# 
   392  018C                     	;# 
   393  018D                     	;# 
   394  0000                     	;# 
   395  0001                     	;# 
   396  0002                     	;# 
   397  0003                     	;# 
   398  0004                     	;# 
   399  0005                     	;# 
   400  0006                     	;# 
   401  0007                     	;# 
   402  0008                     	;# 
   403  0009                     	;# 
   404  000A                     	;# 
   405  000B                     	;# 
   406  000C                     	;# 
   407  000D                     	;# 
   408  000E                     	;# 
   409  000E                     	;# 
   410  000F                     	;# 
   411  0010                     	;# 
   412  0011                     	;# 
   413  0012                     	;# 
   414  0013                     	;# 
   415  0014                     	;# 
   416  0015                     	;# 
   417  0015                     	;# 
   418  0016                     	;# 
   419  0017                     	;# 
   420  0018                     	;# 
   421  0019                     	;# 
   422  001A                     	;# 
   423  001B                     	;# 
   424  001B                     	;# 
   425  001C                     	;# 
   426  001D                     	;# 
   427  001E                     	;# 
   428  001F                     	;# 
   429  0081                     	;# 
   430  0085                     	;# 
   431  0086                     	;# 
   432  0087                     	;# 
   433  0088                     	;# 
   434  0089                     	;# 
   435  008C                     	;# 
   436  008D                     	;# 
   437  008E                     	;# 
   438  008F                     	;# 
   439  0090                     	;# 
   440  0091                     	;# 
   441  0092                     	;# 
   442  0093                     	;# 
   443  0093                     	;# 
   444  0093                     	;# 
   445  0094                     	;# 
   446  0095                     	;# 
   447  0096                     	;# 
   448  0097                     	;# 
   449  0098                     	;# 
   450  0099                     	;# 
   451  009A                     	;# 
   452  009B                     	;# 
   453  009C                     	;# 
   454  009D                     	;# 
   455  009E                     	;# 
   456  009F                     	;# 
   457  0105                     	;# 
   458  0107                     	;# 
   459  0108                     	;# 
   460  0109                     	;# 
   461  010C                     	;# 
   462  010C                     	;# 
   463  010D                     	;# 
   464  010E                     	;# 
   465  010F                     	;# 
   466  0185                     	;# 
   467  0187                     	;# 
   468  0188                     	;# 
   469  0189                     	;# 
   470  018C                     	;# 
   471  018D                     	;# 
   472  001A                     _RCREG	set	26
   473  000C                     _PIR1bits	set	12
   474  0019                     _TXREG	set	25
   475  0018                     _RCSTAbits	set	24
   476  0007                     _PORTCbits	set	7
   477  0006                     _PORTB	set	6
   478  0008                     _PORTD	set	8
   479  0007                     _PORTC	set	7
   480  0005                     _PORTA	set	5
   481  001F                     _ADCON0bits	set	31
   482  001E                     _ADRESH	set	30
   483  0066                     _ADIF	set	102
   484  008C                     _PIE1bits	set	140
   485  009F                     _ADCON1bits	set	159
   486  0098                     _TXSTAbits	set	152
   487  0099                     _SPBRG	set	153
   488  0087                     _TRISCbits	set	135
   489  0086                     _TRISB	set	134
   490  0087                     _TRISC	set	135
   491  0088                     _TRISD	set	136
   492  0085                     _TRISA	set	133
   493  0188                     _ANSELbits	set	392
   494  0189                     _ANSELH	set	393
   495  0188                     _ANSEL	set	392
   496                           
   497                           	psect	strings
   498  07E1                     __pstrings:
   499  07E1                     stringtab:
   500  07E1                     __stringtab:
   501                           
   502                           ;	String table - string pointers are 1 byte each
   503  07E1  1BFF               	btfsc	btemp+1,7
   504  07E2  2FEB               	ljmp	stringcode
   505  07E3  1383               	bcf	3,7
   506  07E4  187F               	btfsc	btemp+1,0
   507  07E5  1783               	bsf	3,7
   508  07E6  0800               	movf	0,w
   509  07E7  0A84               	incf	4,f
   510  07E8  1903               	skipnz
   511  07E9  0AFF               	incf	btemp+1,f
   512  07EA  0008               	return
   513  07EB                     stringcode:
   514  07EB                     stringdir:
   515  07EB  3007               	movlw	high stringdir
   516  07EC  008A               	movwf	10
   517  07ED  0804               	movf	4,w
   518  07EE  0A84               	incf	4,f
   519  07EF  0782               	addwf	2,f
   520  07F0                     __stringbase:
   521  07F0  3400               	retlw	0
   522  07F1                     __end_of__stringtab:
   523  07F1                     STR_1:
   524  07F1  3453               	retlw	83	;'S'
   525  07F2  3431               	retlw	49	;'1'
   526  07F3  3400               	retlw	0
   527  07F4                     STR_2:
   528  07F4  3453               	retlw	83	;'S'
   529  07F5  3432               	retlw	50	;'2'
   530  07F6  3400               	retlw	0
   531  07F7                     STR_3:
   532  07F7  3453               	retlw	83	;'S'
   533  07F8  3433               	retlw	51	;'3'
   534  07F9  3400               	retlw	0
   535                           
   536                           	psect	cinit
   537  000F                     start_initialization:	
   538                           ; #config settings
   539                           
   540  000F                     __initialization:
   541                           
   542                           ; Clear objects allocated to COMMON
   543  000F  01FA               	clrf	__pbssCOMMON& (0+127)
   544  0010  01FB               	clrf	(__pbssCOMMON+1)& (0+127)
   545                           
   546                           ; Clear objects allocated to BANK1
   547  0011  1383               	bcf	3,7	;select IRP bank0
   548  0012  30A0               	movlw	low __pbssBANK1
   549  0013  0084               	movwf	4
   550  0014  30CB               	movlw	low (__pbssBANK1+43)
   551  0015  120A  158A  2002  120A  118A  	fcall	clear_ram0
   552  001A                     end_of_initialization:	
   553                           ;End of C runtime variable initialization code
   554                           
   555  001A                     __end_of__initialization:
   556  001A  0183               	clrf	3
   557  001B  120A  158A  2B1F   	ljmp	_main	;jump to C main() function
   558                           
   559                           	psect	bssCOMMON
   560  007A                     __pbssCOMMON:
   561  007A                     _varUART:
   562  007A                     	ds	1
   563  007B                     _varADC1:
   564  007B                     	ds	1
   565                           
   566                           	psect	bssBANK1
   567  00A0                     __pbssBANK1:
   568  00A0                     _buf3:
   569  00A0                     	ds	10
   570  00AA                     _convertir2:
   571  00AA                     	ds	4
   572  00AE                     _convertir:
   573  00AE                     	ds	4
   574  00B2                     _UARTstring:
   575  00B2                     	ds	1
   576  00B3                     _control:
   577  00B3                     	ds	1
   578  00B4                     _lectura:
   579  00B4                     	ds	1
   580  00B5                     _bandera:
   581  00B5                     	ds	1
   582  00B6                     _varADC2:
   583  00B6                     	ds	1
   584  00B7                     _buf2:
   585  00B7                     	ds	10
   586  00C1                     _buf:
   587  00C1                     	ds	10
   588                           
   589                           	psect	clrtext
   590  0802                     clear_ram0:	
   591                           ;	Called with FSR containing the base address, and
   592                           ;	W with the last address+1
   593                           
   594  0802  0064               	clrwdt	;clear the watchdog before getting into this loop
   595  0803                     clrloop0:
   596  0803  0180               	clrf	0	;clear RAM location pointed to by FSR
   597  0804  0A84               	incf	4,f	;increment pointer
   598  0805  0604               	xorwf	4,w	;XOR with final address
   599  0806  1903               	btfsc	3,2	;have we reached the end yet?
   600  0807  3400               	retlw	0	;all done for this memory range, return
   601  0808  0604               	xorwf	4,w	;XOR again to restore value
   602  0809  2803               	goto	clrloop0	;do the next byte
   603                           
   604                           	psect	cstackBANK1
   605  00CB                     __pcstackBANK1:
   606  00CB                     ?_convert:
   607  00CB                     convert@a:	
   608                           ; 1 bytes @ 0x0
   609                           
   610                           
   611                           ; 4 bytes @ 0x0
   612  00CB                     	ds	4
   613  00CF                     convert@place:
   614                           
   615                           ; 2 bytes @ 0x4
   616  00CF                     	ds	2
   617  00D1                     convert@temp:
   618                           
   619                           ; 2 bytes @ 0x6
   620  00D1                     	ds	2
   621  00D3                     convert@j:
   622                           
   623                           ; 2 bytes @ 0x8
   624  00D3                     	ds	2
   625  00D5                     convert@data:
   626                           
   627                           ; 1 bytes @ 0xA
   628  00D5                     	ds	1
   629  00D6                     convert@x:
   630                           
   631                           ; 4 bytes @ 0xB
   632  00D6                     	ds	4
   633  00DA                     convert@i:
   634                           
   635                           ; 2 bytes @ 0xF
   636  00DA                     	ds	2
   637  00DC                     convert@digits:
   638                           
   639                           ; 2 bytes @ 0x11
   640  00DC                     	ds	2
   641  00DE                     convert@mu:
   642                           
   643                           ; 2 bytes @ 0x13
   644  00DE                     	ds	2
   645  00E0                     ??_main:
   646                           
   647                           ; 1 bytes @ 0x15
   648  00E0                     	ds	4
   649                           
   650                           	psect	cstackCOMMON
   651  0070                     __pcstackCOMMON:
   652  0070                     ?_Setup:
   653  0070                     ?_Lcd_Init:	
   654                           ; 1 bytes @ 0x0
   655                           
   656  0070                     ?_Lcd_Clear:	
   657                           ; 1 bytes @ 0x0
   658                           
   659  0070                     ?_configADC:	
   660                           ; 1 bytes @ 0x0
   661                           
   662  0070                     ?_canalADC:	
   663                           ; 1 bytes @ 0x0
   664                           
   665  0070                     ?_UARTDataReady:	
   666                           ; 1 bytes @ 0x0
   667                           
   668  0070                     ?_UARTReadChar:	
   669                           ; 1 bytes @ 0x0
   670                           
   671  0070                     ?_intToString:	
   672                           ; 1 bytes @ 0x0
   673                           
   674  0070                     ?_ISR:	
   675                           ; 1 bytes @ 0x0
   676                           
   677  0070                     ??_ISR:	
   678                           ; 1 bytes @ 0x0
   679                           
   680  0070                     ?_main:	
   681                           ; 1 bytes @ 0x0
   682                           
   683  0070                     ?_Lcd_Port:	
   684                           ; 1 bytes @ 0x0
   685                           
   686  0070                     ?_Lcd_Cmd:	
   687                           ; 1 bytes @ 0x0
   688                           
   689  0070                     ?_Lcd_Write_Char:	
   690                           ; 1 bytes @ 0x0
   691                           
   692  0070                     ?_UARTSendChar:	
   693                           ; 1 bytes @ 0x0
   694                           
   695                           
   696                           ; 1 bytes @ 0x0
   697  0070                     	ds	2
   698  0072                     ?___flge:
   699  0072                     ??_Setup:	
   700                           ; 1 bit 
   701                           
   702  0072                     ??_configADC:	
   703                           ; 1 bytes @ 0x2
   704                           
   705  0072                     ??_canalADC:	
   706                           ; 1 bytes @ 0x2
   707                           
   708  0072                     ??_UARTDataReady:	
   709                           ; 1 bytes @ 0x2
   710                           
   711  0072                     ??_Lcd_Port:	
   712                           ; 1 bytes @ 0x2
   713                           
   714  0072                     ??_UARTSendChar:	
   715                           ; 1 bytes @ 0x2
   716                           
   717  0072                     ?___bmul:	
   718                           ; 1 bytes @ 0x2
   719                           
   720  0072                     ?__Umul8_16:	
   721                           ; 1 bytes @ 0x2
   722                           
   723  0072                     ?___awdiv:	
   724                           ; 2 bytes @ 0x2
   725                           
   726  0072                     ?___awmod:	
   727                           ; 2 bytes @ 0x2
   728                           
   729  0072                     ?___lldiv:	
   730                           ; 2 bytes @ 0x2
   731                           
   732  0072                     ?___fltol:	
   733                           ; 4 bytes @ 0x2
   734                           
   735  0072                     ?___fladd:	
   736                           ; 4 bytes @ 0x2
   737                           
   738  0072                     Lcd_Port@a:	
   739                           ; 4 bytes @ 0x2
   740                           
   741  0072                     UARTSendChar@c:	
   742                           ; 1 bytes @ 0x2
   743                           
   744  0072                     canalADC@canal:	
   745                           ; 1 bytes @ 0x2
   746                           
   747  0072                     ___bmul@multiplicand:	
   748                           ; 1 bytes @ 0x2
   749                           
   750  0072                     __Umul8_16@multiplicand:	
   751                           ; 1 bytes @ 0x2
   752                           
   753  0072                     ___awdiv@divisor:	
   754                           ; 1 bytes @ 0x2
   755                           
   756  0072                     ___awmod@divisor:	
   757                           ; 2 bytes @ 0x2
   758                           
   759  0072                     ___lldiv@divisor:	
   760                           ; 2 bytes @ 0x2
   761                           
   762  0072                     ___flge@ff1:	
   763                           ; 4 bytes @ 0x2
   764                           
   765  0072                     ___fltol@f1:	
   766                           ; 4 bytes @ 0x2
   767                           
   768  0072                     ___fladd@b:	
   769                           ; 4 bytes @ 0x2
   770                           
   771                           
   772                           ; 4 bytes @ 0x2
   773  0072                     	ds	1
   774  0073                     ?_UARTSendString:
   775  0073                     ??_UARTReadChar:	
   776                           ; 1 bytes @ 0x3
   777                           
   778  0073                     ??_Lcd_Cmd:	
   779                           ; 1 bytes @ 0x3
   780                           
   781  0073                     ??_Lcd_Write_Char:	
   782                           ; 1 bytes @ 0x3
   783                           
   784  0073                     ??___bmul:	
   785                           ; 1 bytes @ 0x3
   786                           
   787  0073                     UARTSendString@max_length:	
   788                           ; 1 bytes @ 0x3
   789                           
   790                           
   791                           ; 1 bytes @ 0x3
   792  0073                     	ds	1
   793  0074                     ??_UARTSendString:
   794  0074                     ??__Umul8_16:	
   795                           ; 1 bytes @ 0x4
   796                           
   797  0074                     Lcd_Cmd@a:	
   798                           ; 1 bytes @ 0x4
   799                           
   800  0074                     Lcd_Write_Char@a:	
   801                           ; 1 bytes @ 0x4
   802                           
   803  0074                     ___bmul@product:	
   804                           ; 1 bytes @ 0x4
   805                           
   806  0074                     ___awdiv@dividend:	
   807                           ; 1 bytes @ 0x4
   808                           
   809  0074                     ___awmod@dividend:	
   810                           ; 2 bytes @ 0x4
   811                           
   812                           
   813                           ; 2 bytes @ 0x4
   814  0074                     	ds	1
   815  0075                     ??_Lcd_Init:
   816  0075                     ??_Lcd_Clear:	
   817                           ; 1 bytes @ 0x5
   818                           
   819  0075                     ?_Lcd_Set_Cursor:	
   820                           ; 1 bytes @ 0x5
   821                           
   822  0075                     ?_Lcd_Write_String:	
   823                           ; 1 bytes @ 0x5
   824                           
   825  0075                     Lcd_Set_Cursor@b:	
   826                           ; 1 bytes @ 0x5
   827                           
   828  0075                     UARTSendString@str:	
   829                           ; 1 bytes @ 0x5
   830                           
   831  0075                     ___bmul@multiplier:	
   832                           ; 1 bytes @ 0x5
   833                           
   834  0075                     Lcd_Write_String@a:	
   835                           ; 1 bytes @ 0x5
   836                           
   837                           
   838                           ; 2 bytes @ 0x5
   839  0075                     	ds	1
   840  0076                     ??_Lcd_Set_Cursor:
   841  0076                     ??___awdiv:	
   842                           ; 1 bytes @ 0x6
   843                           
   844  0076                     ??___awmod:	
   845                           ; 1 bytes @ 0x6
   846                           
   847  0076                     ___fltol@sign1:	
   848                           ; 1 bytes @ 0x6
   849                           
   850  0076                     UARTSendString@i:	
   851                           ; 1 bytes @ 0x6
   852                           
   853  0076                     ___lldiv@dividend:	
   854                           ; 2 bytes @ 0x6
   855                           
   856  0076                     ___flge@ff2:	
   857                           ; 4 bytes @ 0x6
   858                           
   859  0076                     ___fladd@a:	
   860                           ; 4 bytes @ 0x6
   861                           
   862                           
   863                           ; 4 bytes @ 0x6
   864  0076                     	ds	1
   865  0077                     ??_Lcd_Write_String:
   866  0077                     Lcd_Set_Cursor@a:	
   867                           ; 1 bytes @ 0x7
   868                           
   869  0077                     ___awmod@counter:	
   870                           ; 1 bytes @ 0x7
   871                           
   872  0077                     ___fltol@exp1:	
   873                           ; 1 bytes @ 0x7
   874                           
   875  0077                     Lcd_Write_String@i:	
   876                           ; 1 bytes @ 0x7
   877                           
   878                           
   879                           ; 2 bytes @ 0x7
   880  0077                     	ds	1
   881  0078                     ??___wmul:
   882  0078                     Lcd_Set_Cursor@temp:	
   883                           ; 1 bytes @ 0x8
   884                           
   885  0078                     ___awmod@sign:	
   886                           ; 1 bytes @ 0x8
   887                           
   888  0078                     ___wmul@product:	
   889                           ; 1 bytes @ 0x8
   890                           
   891                           
   892                           ; 2 bytes @ 0x8
   893  0078                     	ds	2
   894  007A                     ??___flsub:
   895                           
   896                           	psect	cstackBANK0
   897  0020                     __pcstackBANK0:	
   898                           ; 1 bytes @ 0xA
   899                           
   900  0020                     ??___lldiv:
   901  0020                     ??___flge:	
   902                           ; 1 bytes @ 0x0
   903                           
   904  0020                     ??___fltol:	
   905                           ; 1 bytes @ 0x0
   906                           
   907  0020                     ??___fladd:	
   908                           ; 1 bytes @ 0x0
   909                           
   910  0020                     ___awdiv@counter:	
   911                           ; 1 bytes @ 0x0
   912                           
   913  0020                     __Umul8_16@product:	
   914                           ; 1 bytes @ 0x0
   915                           
   916                           
   917                           ; 2 bytes @ 0x0
   918  0020                     	ds	1
   919  0021                     ___awdiv@sign:
   920  0021                     ___lldiv@quotient:	
   921                           ; 1 bytes @ 0x1
   922                           
   923                           
   924                           ; 4 bytes @ 0x1
   925  0021                     	ds	1
   926  0022                     ___awdiv@quotient:
   927  0022                     __Umul8_16@word_mpld:	
   928                           ; 2 bytes @ 0x2
   929                           
   930                           
   931                           ; 2 bytes @ 0x2
   932  0022                     	ds	2
   933  0024                     ??_intToString:
   934  0024                     __Umul8_16@multiplier:	
   935                           ; 1 bytes @ 0x4
   936                           
   937                           
   938                           ; 1 bytes @ 0x4
   939  0024                     	ds	1
   940  0025                     ?___wmul:
   941  0025                     ___lldiv@counter:	
   942                           ; 2 bytes @ 0x5
   943                           
   944  0025                     ___wmul@multiplier:	
   945                           ; 1 bytes @ 0x5
   946                           
   947                           
   948                           ; 2 bytes @ 0x5
   949  0025                     	ds	1
   950  0026                     ?_UARTInit:
   951  0026                     UARTInit@baud_rate:	
   952                           ; 1 bytes @ 0x6
   953                           
   954                           
   955                           ; 4 bytes @ 0x6
   956  0026                     	ds	1
   957  0027                     ___wmul@multiplicand:
   958  0027                     intToString@valor:	
   959                           ; 2 bytes @ 0x7
   960                           
   961                           
   962                           ; 4 bytes @ 0x7
   963  0027                     	ds	1
   964  0028                     ___fladd@signs:
   965                           
   966                           ; 1 bytes @ 0x8
   967  0028                     	ds	1
   968  0029                     ?___xxtofl:
   969  0029                     ___fladd@aexp:	
   970                           ; 4 bytes @ 0x9
   971                           
   972  0029                     ___xxtofl@val:	
   973                           ; 1 bytes @ 0x9
   974                           
   975                           
   976                           ; 4 bytes @ 0x9
   977  0029                     	ds	1
   978  002A                     UARTInit@BRGH:
   979  002A                     ___fladd@bexp:	
   980                           ; 1 bytes @ 0xA
   981                           
   982                           
   983                           ; 1 bytes @ 0xA
   984  002A                     	ds	1
   985  002B                     ??_UARTInit:
   986  002B                     intToString@entero:	
   987                           ; 1 bytes @ 0xB
   988                           
   989  002B                     ___fladd@grs:	
   990                           ; 1 bytes @ 0xB
   991                           
   992                           
   993                           ; 1 bytes @ 0xB
   994  002B                     	ds	1
   995  002C                     intToString@value:
   996                           
   997                           ; 1 bytes @ 0xC
   998  002C                     	ds	1
   999  002D                     ??___xxtofl:
  1000                           
  1001                           ; 1 bytes @ 0xD
  1002  002D                     	ds	4
  1003  0031                     ___xxtofl@sign:
  1004                           
  1005                           ; 1 bytes @ 0x11
  1006  0031                     	ds	1
  1007  0032                     ___xxtofl@exp:
  1008                           
  1009                           ; 1 bytes @ 0x12
  1010  0032                     	ds	1
  1011  0033                     ___xxtofl@arg:
  1012                           
  1013                           ; 4 bytes @ 0x13
  1014  0033                     	ds	4
  1015  0037                     ?___flsub:
  1016  0037                     ?___fldiv:	
  1017                           ; 4 bytes @ 0x17
  1018                           
  1019  0037                     ___flsub@a:	
  1020                           ; 4 bytes @ 0x17
  1021                           
  1022  0037                     ___fldiv@a:	
  1023                           ; 4 bytes @ 0x17
  1024                           
  1025                           
  1026                           ; 4 bytes @ 0x17
  1027  0037                     	ds	4
  1028  003B                     ___flsub@b:
  1029  003B                     ___fldiv@b:	
  1030                           ; 4 bytes @ 0x1B
  1031                           
  1032                           
  1033                           ; 4 bytes @ 0x1B
  1034  003B                     	ds	4
  1035  003F                     ??___fldiv:
  1036                           
  1037                           ; 1 bytes @ 0x1F
  1038  003F                     	ds	5
  1039  0044                     ___fldiv@rem:
  1040                           
  1041                           ; 4 bytes @ 0x24
  1042  0044                     	ds	4
  1043  0048                     ___fldiv@sign:
  1044                           
  1045                           ; 1 bytes @ 0x28
  1046  0048                     	ds	1
  1047  0049                     ___fldiv@new_exp:
  1048                           
  1049                           ; 2 bytes @ 0x29
  1050  0049                     	ds	2
  1051  004B                     ___fldiv@grs:
  1052                           
  1053                           ; 4 bytes @ 0x2B
  1054  004B                     	ds	4
  1055  004F                     ___fldiv@bexp:
  1056                           
  1057                           ; 1 bytes @ 0x2F
  1058  004F                     	ds	1
  1059  0050                     ___fldiv@aexp:
  1060                           
  1061                           ; 1 bytes @ 0x30
  1062  0050                     	ds	1
  1063  0051                     ?___flmul:
  1064  0051                     ___flmul@b:	
  1065                           ; 4 bytes @ 0x31
  1066                           
  1067                           
  1068                           ; 4 bytes @ 0x31
  1069  0051                     	ds	4
  1070  0055                     ___flmul@a:
  1071                           
  1072                           ; 4 bytes @ 0x35
  1073  0055                     	ds	4
  1074  0059                     ??___flmul:
  1075                           
  1076                           ; 1 bytes @ 0x39
  1077  0059                     	ds	5
  1078  005E                     ___flmul@sign:
  1079                           
  1080                           ; 1 bytes @ 0x3E
  1081  005E                     	ds	1
  1082  005F                     ___flmul@aexp:
  1083                           
  1084                           ; 1 bytes @ 0x3F
  1085  005F                     	ds	1
  1086  0060                     ___flmul@grs:
  1087                           
  1088                           ; 4 bytes @ 0x40
  1089  0060                     	ds	4
  1090  0064                     ___flmul@bexp:
  1091                           
  1092                           ; 1 bytes @ 0x44
  1093  0064                     	ds	1
  1094  0065                     ___flmul@prod:
  1095                           
  1096                           ; 4 bytes @ 0x45
  1097  0065                     	ds	4
  1098  0069                     ___flmul@temp:
  1099                           
  1100                           ; 2 bytes @ 0x49
  1101  0069                     	ds	2
  1102  006B                     ??_convert:
  1103                           
  1104                           ; 1 bytes @ 0x4B
  1105  006B                     	ds	2
  1106  006D                     main@entrada:
  1107                           
  1108                           ; 1 bytes @ 0x4D
  1109  006D                     	ds	1
  1110                           
  1111                           	psect	maintext
  1112  0B1F                     __pmaintext:	
  1113 ;;
  1114 ;;Main: autosize = 0, tempsize = 4, incstack = 0, save=0
  1115 ;;
  1116 ;; *************** function _main *****************
  1117 ;; Defined at:
  1118 ;;		line 67 in file "main.c"
  1119 ;; Parameters:    Size  Location     Type
  1120 ;;		None
  1121 ;; Auto vars:     Size  Location     Type
  1122 ;;  entrada         1   77[BANK0 ] unsigned char 
  1123 ;; Return value:  Size  Location     Type
  1124 ;;                  1    wreg      void 
  1125 ;; Registers used:
  1126 ;;		wreg, fsr0l, fsr0h, status,2, status,0, btemp+1, pclath, cstack
  1127 ;; Tracked objects:
  1128 ;;		On entry : B00/0
  1129 ;;		On exit  : 0/0
  1130 ;;		Unchanged: 0/0
  1131 ;; Data sizes:     COMMON   BANK0   BANK1   BANK3   BANK2
  1132 ;;      Params:         0       0       0       0       0
  1133 ;;      Locals:         0       1       0       0       0
  1134 ;;      Temps:          0       0       4       0       0
  1135 ;;      Totals:         0       1       4       0       0
  1136 ;;Total ram usage:        5 bytes
  1137 ;; Hardware stack levels required when called:    4
  1138 ;; This function calls:
  1139 ;;		_Lcd_Clear
  1140 ;;		_Lcd_Init
  1141 ;;		_Lcd_Set_Cursor
  1142 ;;		_Lcd_Write_String
  1143 ;;		_Setup
  1144 ;;		_UARTDataReady
  1145 ;;		_UARTInit
  1146 ;;		_UARTReadChar
  1147 ;;		_UARTSendString
  1148 ;;		___fldiv
  1149 ;;		___flmul
  1150 ;;		___xxtofl
  1151 ;;		_canalADC
  1152 ;;		_configADC
  1153 ;;		_convert
  1154 ;;		_intToString
  1155 ;; This function is called by:
  1156 ;;		Startup code after reset
  1157 ;; This function uses a non-reentrant model
  1158 ;;
  1159                           
  1160                           
  1161                           ;psect for function _main
  1162  0B1F                     _main:
  1163  0B1F                     l4206:	
  1164                           ;incstack = 0
  1165                           ; Regs used in _main: [wreg-fsr0h+status,2+status,0+btemp+1+pclath+cstack]
  1166                           
  1167                           
  1168                           ;main.c: 68:             ADIF = 0;
  1169  0B1F  160A  118A  234E  120A  158A  	fcall	_Setup
  1170                           
  1171                           ;main.c: 69:             ADCON0bits.GO = 1;
  1172  0B24  3000               	movlw	0
  1173  0B25  1283               	bcf	3,5	;RP0=0, select bank0
  1174  0B26  1303               	bcf	3,6	;RP1=0, select bank0
  1175  0B27  00A9               	movwf	UARTInit@baud_rate+3
  1176  0B28  3000               	movlw	0
  1177  0B29  00A8               	movwf	UARTInit@baud_rate+2
  1178  0B2A  3025               	movlw	37
  1179  0B2B  00A7               	movwf	UARTInit@baud_rate+1
  1180  0B2C  3080               	movlw	128
  1181  0B2D  00A6               	movwf	UARTInit@baud_rate
  1182  0B2E  01AA               	clrf	UARTInit@BRGH
  1183  0B2F  0AAA               	incf	UARTInit@BRGH,f
  1184  0B30  160A  118A  2642  120A  158A  	fcall	_UARTInit
  1185                           
  1186                           ;main.c: 70: 
  1187  0B35  160A  118A  2474  120A  158A  	fcall	_Lcd_Init
  1188                           
  1189                           ;main.c: 71:         }
  1190  0B3A  160A  118A  22F6  120A  158A  	fcall	_Lcd_Clear
  1191                           
  1192                           ;main.c: 73: 
  1193  0B3F  01F5               	clrf	Lcd_Set_Cursor@b
  1194  0B40  0AF5               	incf	Lcd_Set_Cursor@b,f
  1195  0B41  3001               	movlw	1
  1196  0B42  160A  118A  237C  120A  158A  	fcall	_Lcd_Set_Cursor
  1197  0B47                     l4208:
  1198                           
  1199                           ;main.c: 74:         convertir = 0;
  1200  0B47  3001               	movlw	(low ((STR_1-__stringbase)| (0+32768)))& (0+255)
  1201  0B48  00F5               	movwf	Lcd_Write_String@a
  1202  0B49  3080               	movlw	128
  1203  0B4A  00F6               	movwf	Lcd_Write_String@a+1
  1204  0B4B  160A  118A  2414  120A  158A  	fcall	_Lcd_Write_String
  1205  0B50                     l4210:
  1206                           
  1207                           ;main.c: 75:         convertir2 = 0;
  1208  0B50  3008               	movlw	8
  1209  0B51  1683               	bsf	3,5	;RP0=1, select bank1
  1210  0B52  1303               	bcf	3,6	;RP1=0, select bank1
  1211  0B53  00E0               	movwf	??_main^(0+128)
  1212  0B54  0860               	movf	??_main^(0+128),w
  1213  0B55  00F5               	movwf	Lcd_Set_Cursor@b
  1214  0B56  3001               	movlw	1
  1215  0B57  160A  118A  237C  120A  158A  	fcall	_Lcd_Set_Cursor
  1216                           
  1217                           ;main.c: 76: 
  1218  0B5C  3004               	movlw	(low ((STR_2-__stringbase)| (0+32768)))& (0+255)
  1219  0B5D  00F5               	movwf	Lcd_Write_String@a
  1220  0B5E  3080               	movlw	128
  1221  0B5F  00F6               	movwf	Lcd_Write_String@a+1
  1222  0B60  160A  118A  2414  120A  158A  	fcall	_Lcd_Write_String
  1223  0B65                     l4212:
  1224                           
  1225                           ;main.c: 77:         convertir = (varADC1 / (float) 255)*5;
  1226  0B65  300F               	movlw	15
  1227  0B66  1683               	bsf	3,5	;RP0=1, select bank1
  1228  0B67  1303               	bcf	3,6	;RP1=0, select bank1
  1229  0B68  00E0               	movwf	??_main^(0+128)
  1230  0B69  0860               	movf	??_main^(0+128),w
  1231  0B6A  00F5               	movwf	Lcd_Set_Cursor@b
  1232  0B6B  3001               	movlw	1
  1233  0B6C  160A  118A  237C  120A  158A  	fcall	_Lcd_Set_Cursor
  1234  0B71                     l4214:
  1235                           
  1236                           ;main.c: 78:         convert(buf, convertir, 2);
  1237  0B71  3007               	movlw	(low ((STR_3-__stringbase)| (0+32768)))& (0+255)
  1238  0B72  00F5               	movwf	Lcd_Write_String@a
  1239  0B73  3080               	movlw	128
  1240  0B74  00F6               	movwf	Lcd_Write_String@a+1
  1241  0B75  160A  118A  2414  120A  158A  	fcall	_Lcd_Write_String
  1242  0B7A                     l4216:
  1243                           
  1244                           ;main.c: 80:         Lcd_Write_String(buf);
  1245  0B7A  160A  118A  2311  120A  158A  	fcall	_configADC
  1246  0B7F                     l4218:
  1247                           
  1248                           ;main.c: 81: 
  1249  0B7F  3000               	movlw	0
  1250  0B80  160A  118A  2755  120A  158A  	fcall	_canalADC
  1251  0B85                     l4220:
  1252                           
  1253                           ;main.c: 86:         Lcd_Set_Cursor(2, 8);
  1254  0B85  1283               	bcf	3,5	;RP0=0, select bank0
  1255  0B86  1303               	bcf	3,6	;RP1=0, select bank0
  1256  0B87  1F0C               	btfss	12,6	;volatile
  1257  0B88  2B8A               	goto	u6541
  1258  0B89  2B8B               	goto	u6540
  1259  0B8A                     u6541:
  1260  0B8A  2BBC               	goto	l4240
  1261  0B8B                     u6540:
  1262  0B8B                     l4222:
  1263                           
  1264                           ;main.c: 89: 
  1265  0B8B  1683               	bsf	3,5	;RP0=1, select bank1
  1266  0B8C  1303               	bcf	3,6	;RP1=0, select bank1
  1267  0B8D  0835               	movf	_bandera^(0+128),w
  1268  0B8E  1D03               	btfss	3,2
  1269  0B8F  2B91               	goto	u6551
  1270  0B90  2B92               	goto	u6550
  1271  0B91                     u6551:
  1272  0B91  2BA7               	goto	l4230
  1273  0B92                     u6550:
  1274  0B92                     l4224:
  1275                           
  1276                           ;main.c: 90:         Lcd_Set_Cursor(2, 15);
  1277  0B92  1283               	bcf	3,5	;RP0=0, select bank0
  1278  0B93  1303               	bcf	3,6	;RP1=0, select bank0
  1279  0B94  081E               	movf	30,w	;volatile
  1280  0B95  1683               	bsf	3,5	;RP0=1, select bank1
  1281  0B96  1303               	bcf	3,6	;RP1=0, select bank1
  1282  0B97  00E0               	movwf	??_main^(0+128)
  1283  0B98  0860               	movf	??_main^(0+128),w
  1284  0B99  00FB               	movwf	_varADC1
  1285  0B9A                     l4226:
  1286                           
  1287                           ;main.c: 91:         Lcd_Write_String(UARTstring);
  1288  0B9A  3001               	movlw	1
  1289  0B9B  160A  118A  2755  120A  158A  	fcall	_canalADC
  1290  0BA0                     l4228:
  1291                           
  1292                           ;main.c: 92:         _delay((unsigned long)((20)*(4000000/4000.0)));
  1293  0BA0  3001               	movlw	1
  1294  0BA1  1683               	bsf	3,5	;RP0=1, select bank1
  1295  0BA2  1303               	bcf	3,6	;RP1=0, select bank1
  1296  0BA3  00E0               	movwf	??_main^(0+128)
  1297  0BA4  0860               	movf	??_main^(0+128),w
  1298  0BA5  07B5               	addwf	_bandera^(0+128),f
  1299                           
  1300                           ;main.c: 93: 
  1301  0BA6  2BB8               	goto	l4236
  1302  0BA7                     l4230:
  1303                           
  1304                           ;main.c: 94: 
  1305  0BA7  1283               	bcf	3,5	;RP0=0, select bank0
  1306  0BA8  1303               	bcf	3,6	;RP1=0, select bank0
  1307  0BA9  081E               	movf	30,w	;volatile
  1308  0BAA  1683               	bsf	3,5	;RP0=1, select bank1
  1309  0BAB  1303               	bcf	3,6	;RP1=0, select bank1
  1310  0BAC  00E0               	movwf	??_main^(0+128)
  1311  0BAD  0860               	movf	??_main^(0+128),w
  1312  0BAE  00B6               	movwf	_varADC2^(0+128)
  1313  0BAF                     l4232:
  1314                           
  1315                           ;main.c: 95: 
  1316  0BAF  3000               	movlw	0
  1317  0BB0  160A  118A  2755  120A  158A  	fcall	_canalADC
  1318  0BB5                     l4234:
  1319                           
  1320                           ;main.c: 96: 
  1321  0BB5  1683               	bsf	3,5	;RP0=1, select bank1
  1322  0BB6  1303               	bcf	3,6	;RP1=0, select bank1
  1323  0BB7  01B5               	clrf	_bandera^(0+128)
  1324  0BB8                     l4236:
  1325                           
  1326                           ;main.c: 100:             if (entrada == '+') {
  1327  0BB8  1283               	bcf	3,5	;RP0=0, select bank0
  1328  0BB9  1303               	bcf	3,6	;RP1=0, select bank0
  1329  0BBA  130C               	bcf	12,6	;volatile
  1330  0BBB                     l4238:
  1331                           
  1332                           ;main.c: 101:                 varUART++;
  1333  0BBB  149F               	bsf	31,1	;volatile
  1334  0BBC                     l4240:
  1335                           
  1336                           ;main.c: 106:                     varUART--;
  1337  0BBC  3000               	movlw	0
  1338  0BBD  1683               	bsf	3,5	;RP0=1, select bank1
  1339  0BBE  1303               	bcf	3,6	;RP1=0, select bank1
  1340  0BBF  00B1               	movwf	(_convertir+3)^(0+128)
  1341  0BC0  3000               	movlw	0
  1342  0BC1  00B0               	movwf	(_convertir+2)^(0+128)
  1343  0BC2  3000               	movlw	0
  1344  0BC3  00AF               	movwf	(_convertir+1)^(0+128)
  1345  0BC4  3000               	movlw	0
  1346  0BC5  00AE               	movwf	_convertir^(0+128)
  1347  0BC6                     l4242:
  1348                           
  1349                           ;main.c: 107:                 }
  1350  0BC6  3000               	movlw	0
  1351  0BC7  00AD               	movwf	(_convertir2+3)^(0+128)
  1352  0BC8  3000               	movlw	0
  1353  0BC9  00AC               	movwf	(_convertir2+2)^(0+128)
  1354  0BCA  3000               	movlw	0
  1355  0BCB  00AB               	movwf	(_convertir2+1)^(0+128)
  1356  0BCC  3000               	movlw	0
  1357  0BCD  00AA               	movwf	_convertir2^(0+128)
  1358  0BCE                     l4244:
  1359                           
  1360                           ;main.c: 109: 
  1361  0BCE  3040               	movlw	64
  1362  0BCF  1283               	bcf	3,5	;RP0=0, select bank0
  1363  0BD0  1303               	bcf	3,6	;RP1=0, select bank0
  1364  0BD1  00D4               	movwf	___flmul@b+3
  1365  0BD2  30A0               	movlw	160
  1366  0BD3  00D3               	movwf	___flmul@b+2
  1367  0BD4  3000               	movlw	0
  1368  0BD5  00D2               	movwf	___flmul@b+1
  1369  0BD6  3000               	movlw	0
  1370  0BD7  00D1               	movwf	___flmul@b
  1371  0BD8  3043               	movlw	67
  1372  0BD9  00BA               	movwf	___fldiv@a+3
  1373  0BDA  307F               	movlw	127
  1374  0BDB  00B9               	movwf	___fldiv@a+2
  1375  0BDC  3000               	movlw	0
  1376  0BDD  00B8               	movwf	___fldiv@a+1
  1377  0BDE  3000               	movlw	0
  1378  0BDF  00B7               	movwf	___fldiv@a
  1379  0BE0  087B               	movf	_varADC1,w
  1380  0BE1  1683               	bsf	3,5	;RP0=1, select bank1
  1381  0BE2  1303               	bcf	3,6	;RP1=0, select bank1
  1382  0BE3  00E0               	movwf	??_main^(0+128)
  1383  0BE4  01E1               	clrf	(??_main^(0+128)+1)
  1384  0BE5  01E2               	clrf	(??_main^(0+128)+2)
  1385  0BE6  01E3               	clrf	(??_main^(0+128)+3)
  1386  0BE7  0863               	movf	(??_main+3)^(0+128),w
  1387  0BE8  1283               	bcf	3,5	;RP0=0, select bank0
  1388  0BE9  1303               	bcf	3,6	;RP1=0, select bank0
  1389  0BEA  00AC               	movwf	___xxtofl@val+3
  1390  0BEB  1683               	bsf	3,5	;RP0=1, select bank1
  1391  0BEC  1303               	bcf	3,6	;RP1=0, select bank1
  1392  0BED  0862               	movf	(??_main+2)^(0+128),w
  1393  0BEE  1283               	bcf	3,5	;RP0=0, select bank0
  1394  0BEF  1303               	bcf	3,6	;RP1=0, select bank0
  1395  0BF0  00AB               	movwf	___xxtofl@val+2
  1396  0BF1  1683               	bsf	3,5	;RP0=1, select bank1
  1397  0BF2  1303               	bcf	3,6	;RP1=0, select bank1
  1398  0BF3  0861               	movf	(??_main+1)^(0+128),w
  1399  0BF4  1283               	bcf	3,5	;RP0=0, select bank0
  1400  0BF5  1303               	bcf	3,6	;RP1=0, select bank0
  1401  0BF6  00AA               	movwf	___xxtofl@val+1
  1402  0BF7  1683               	bsf	3,5	;RP0=1, select bank1
  1403  0BF8  1303               	bcf	3,6	;RP1=0, select bank1
  1404  0BF9  0860               	movf	??_main^(0+128),w
  1405  0BFA  1283               	bcf	3,5	;RP0=0, select bank0
  1406  0BFB  1303               	bcf	3,6	;RP1=0, select bank0
  1407  0BFC  00A9               	movwf	___xxtofl@val
  1408  0BFD  3001               	movlw	1
  1409  0BFE  120A  158A  2086  120A  158A  	fcall	___xxtofl
  1410  0C03  1283               	bcf	3,5	;RP0=0, select bank0
  1411  0C04  1303               	bcf	3,6	;RP1=0, select bank0
  1412  0C05  082C               	movf	?___xxtofl+3,w
  1413  0C06  00BE               	movwf	___fldiv@b+3
  1414  0C07  082B               	movf	?___xxtofl+2,w
  1415  0C08  00BD               	movwf	___fldiv@b+2
  1416  0C09  082A               	movf	?___xxtofl+1,w
  1417  0C0A  00BC               	movwf	___fldiv@b+1
  1418  0C0B  0829               	movf	?___xxtofl,w
  1419  0C0C  00BB               	movwf	___fldiv@b
  1420  0C0D  120A  158A  2142  120A  158A  	fcall	___fldiv
  1421  0C12  1283               	bcf	3,5	;RP0=0, select bank0
  1422  0C13  1303               	bcf	3,6	;RP1=0, select bank0
  1423  0C14  083A               	movf	?___fldiv+3,w
  1424  0C15  00D8               	movwf	___flmul@a+3
  1425  0C16  0839               	movf	?___fldiv+2,w
  1426  0C17  00D7               	movwf	___flmul@a+2
  1427  0C18  0838               	movf	?___fldiv+1,w
  1428  0C19  00D6               	movwf	___flmul@a+1
  1429  0C1A  0837               	movf	?___fldiv,w
  1430  0C1B  00D5               	movwf	___flmul@a
  1431  0C1C  120A  118A  2480  120A  158A  	fcall	___flmul
  1432  0C21  1283               	bcf	3,5	;RP0=0, select bank0
  1433  0C22  1303               	bcf	3,6	;RP1=0, select bank0
  1434  0C23  0854               	movf	?___flmul+3,w
  1435  0C24  1683               	bsf	3,5	;RP0=1, select bank1
  1436  0C25  1303               	bcf	3,6	;RP1=0, select bank1
  1437  0C26  00B1               	movwf	(_convertir+3)^(0+128)
  1438  0C27  1283               	bcf	3,5	;RP0=0, select bank0
  1439  0C28  1303               	bcf	3,6	;RP1=0, select bank0
  1440  0C29  0853               	movf	?___flmul+2,w
  1441  0C2A  1683               	bsf	3,5	;RP0=1, select bank1
  1442  0C2B  1303               	bcf	3,6	;RP1=0, select bank1
  1443  0C2C  00B0               	movwf	(_convertir+2)^(0+128)
  1444  0C2D  1283               	bcf	3,5	;RP0=0, select bank0
  1445  0C2E  1303               	bcf	3,6	;RP1=0, select bank0
  1446  0C2F  0852               	movf	?___flmul+1,w
  1447  0C30  1683               	bsf	3,5	;RP0=1, select bank1
  1448  0C31  1303               	bcf	3,6	;RP1=0, select bank1
  1449  0C32  00AF               	movwf	(_convertir+1)^(0+128)
  1450  0C33  1283               	bcf	3,5	;RP0=0, select bank0
  1451  0C34  1303               	bcf	3,6	;RP1=0, select bank0
  1452  0C35  0851               	movf	?___flmul,w
  1453  0C36  1683               	bsf	3,5	;RP0=1, select bank1
  1454  0C37  1303               	bcf	3,6	;RP1=0, select bank1
  1455  0C38  00AE               	movwf	_convertir^(0+128)
  1456  0C39                     l4246:
  1457                           
  1458                           ;main.c: 110: 
  1459  0C39  0831               	movf	(_convertir+3)^(0+128),w
  1460  0C3A  00CE               	movwf	(convert@a+3)^(0+128)
  1461  0C3B  0830               	movf	(_convertir+2)^(0+128),w
  1462  0C3C  00CD               	movwf	(convert@a+2)^(0+128)
  1463  0C3D  082F               	movf	(_convertir+1)^(0+128),w
  1464  0C3E  00CC               	movwf	(convert@a+1)^(0+128)
  1465  0C3F  082E               	movf	_convertir^(0+128),w
  1466  0C40  00CB               	movwf	convert@a^(0+128)
  1467  0C41  3002               	movlw	2
  1468  0C42  00CF               	movwf	convert@place^(0+128)
  1469  0C43  3000               	movlw	0
  1470  0C44  00D0               	movwf	(convert@place^(0+128)+1)
  1471  0C45  30C1               	movlw	(low (_buf| 0))& (0+255)
  1472  0C46  120A  118A  201E  120A  158A  	fcall	_convert
  1473  0C4B                     l4248:
  1474                           
  1475                           ;main.c: 111:             Lcd_Set_Cursor(2, 15);
  1476  0C4B  01F5               	clrf	Lcd_Set_Cursor@b
  1477  0C4C  0AF5               	incf	Lcd_Set_Cursor@b,f
  1478  0C4D  3002               	movlw	2
  1479  0C4E  160A  118A  237C  120A  158A  	fcall	_Lcd_Set_Cursor
  1480  0C53                     l4250:
  1481                           
  1482                           ;main.c: 112:             UARTstring = intToString(varUART);
  1483  0C53  30C1               	movlw	(low (_buf| 0))& (0+255)
  1484  0C54  00F5               	movwf	Lcd_Write_String@a
  1485  0C55  3000               	movlw	0
  1486  0C56  00F6               	movwf	Lcd_Write_String@a+1
  1487  0C57  160A  118A  2414  120A  158A  	fcall	_Lcd_Write_String
  1488  0C5C                     l4252:
  1489                           
  1490                           ;main.c: 114: 
  1491  0C5C  3003               	movlw	3
  1492  0C5D  1683               	bsf	3,5	;RP0=1, select bank1
  1493  0C5E  1303               	bcf	3,6	;RP1=0, select bank1
  1494  0C5F  00E0               	movwf	??_main^(0+128)
  1495  0C60  0860               	movf	??_main^(0+128),w
  1496  0C61  00F3               	movwf	UARTSendString@max_length
  1497  0C62  30C1               	movlw	(low (_buf| 0))& (0+255)
  1498  0C63  160A  118A  2444  120A  158A  	fcall	_UARTSendString
  1499  0C68                     l4254:
  1500                           
  1501                           ;main.c: 116: 
  1502  0C68  3040               	movlw	64
  1503  0C69  1283               	bcf	3,5	;RP0=0, select bank0
  1504  0C6A  1303               	bcf	3,6	;RP1=0, select bank0
  1505  0C6B  00D4               	movwf	___flmul@b+3
  1506  0C6C  30A0               	movlw	160
  1507  0C6D  00D3               	movwf	___flmul@b+2
  1508  0C6E  3000               	movlw	0
  1509  0C6F  00D2               	movwf	___flmul@b+1
  1510  0C70  3000               	movlw	0
  1511  0C71  00D1               	movwf	___flmul@b
  1512  0C72  3043               	movlw	67
  1513  0C73  00BA               	movwf	___fldiv@a+3
  1514  0C74  307F               	movlw	127
  1515  0C75  00B9               	movwf	___fldiv@a+2
  1516  0C76  3000               	movlw	0
  1517  0C77  00B8               	movwf	___fldiv@a+1
  1518  0C78  3000               	movlw	0
  1519  0C79  00B7               	movwf	___fldiv@a
  1520  0C7A  1683               	bsf	3,5	;RP0=1, select bank1
  1521  0C7B  1303               	bcf	3,6	;RP1=0, select bank1
  1522  0C7C  0836               	movf	_varADC2^(0+128),w
  1523  0C7D  00E0               	movwf	??_main^(0+128)
  1524  0C7E  01E1               	clrf	(??_main^(0+128)+1)
  1525  0C7F  01E2               	clrf	(??_main^(0+128)+2)
  1526  0C80  01E3               	clrf	(??_main^(0+128)+3)
  1527  0C81  0863               	movf	(??_main+3)^(0+128),w
  1528  0C82  1283               	bcf	3,5	;RP0=0, select bank0
  1529  0C83  1303               	bcf	3,6	;RP1=0, select bank0
  1530  0C84  00AC               	movwf	___xxtofl@val+3
  1531  0C85  1683               	bsf	3,5	;RP0=1, select bank1
  1532  0C86  1303               	bcf	3,6	;RP1=0, select bank1
  1533  0C87  0862               	movf	(??_main+2)^(0+128),w
  1534  0C88  1283               	bcf	3,5	;RP0=0, select bank0
  1535  0C89  1303               	bcf	3,6	;RP1=0, select bank0
  1536  0C8A  00AB               	movwf	___xxtofl@val+2
  1537  0C8B  1683               	bsf	3,5	;RP0=1, select bank1
  1538  0C8C  1303               	bcf	3,6	;RP1=0, select bank1
  1539  0C8D  0861               	movf	(??_main+1)^(0+128),w
  1540  0C8E  1283               	bcf	3,5	;RP0=0, select bank0
  1541  0C8F  1303               	bcf	3,6	;RP1=0, select bank0
  1542  0C90  00AA               	movwf	___xxtofl@val+1
  1543  0C91  1683               	bsf	3,5	;RP0=1, select bank1
  1544  0C92  1303               	bcf	3,6	;RP1=0, select bank1
  1545  0C93  0860               	movf	??_main^(0+128),w
  1546  0C94  1283               	bcf	3,5	;RP0=0, select bank0
  1547  0C95  1303               	bcf	3,6	;RP1=0, select bank0
  1548  0C96  00A9               	movwf	___xxtofl@val
  1549  0C97  3001               	movlw	1
  1550  0C98  120A  158A  2086  120A  158A  	fcall	___xxtofl
  1551  0C9D  1283               	bcf	3,5	;RP0=0, select bank0
  1552  0C9E  1303               	bcf	3,6	;RP1=0, select bank0
  1553  0C9F  082C               	movf	?___xxtofl+3,w
  1554  0CA0  00BE               	movwf	___fldiv@b+3
  1555  0CA1  082B               	movf	?___xxtofl+2,w
  1556  0CA2  00BD               	movwf	___fldiv@b+2
  1557  0CA3  082A               	movf	?___xxtofl+1,w
  1558  0CA4  00BC               	movwf	___fldiv@b+1
  1559  0CA5  0829               	movf	?___xxtofl,w
  1560  0CA6  00BB               	movwf	___fldiv@b
  1561  0CA7  120A  158A  2142  120A  158A  	fcall	___fldiv
  1562  0CAC  1283               	bcf	3,5	;RP0=0, select bank0
  1563  0CAD  1303               	bcf	3,6	;RP1=0, select bank0
  1564  0CAE  083A               	movf	?___fldiv+3,w
  1565  0CAF  00D8               	movwf	___flmul@a+3
  1566  0CB0  0839               	movf	?___fldiv+2,w
  1567  0CB1  00D7               	movwf	___flmul@a+2
  1568  0CB2  0838               	movf	?___fldiv+1,w
  1569  0CB3  00D6               	movwf	___flmul@a+1
  1570  0CB4  0837               	movf	?___fldiv,w
  1571  0CB5  00D5               	movwf	___flmul@a
  1572  0CB6  120A  118A  2480  120A  158A  	fcall	___flmul
  1573  0CBB  1283               	bcf	3,5	;RP0=0, select bank0
  1574  0CBC  1303               	bcf	3,6	;RP1=0, select bank0
  1575  0CBD  0854               	movf	?___flmul+3,w
  1576  0CBE  1683               	bsf	3,5	;RP0=1, select bank1
  1577  0CBF  1303               	bcf	3,6	;RP1=0, select bank1
  1578  0CC0  00AD               	movwf	(_convertir2+3)^(0+128)
  1579  0CC1  1283               	bcf	3,5	;RP0=0, select bank0
  1580  0CC2  1303               	bcf	3,6	;RP1=0, select bank0
  1581  0CC3  0853               	movf	?___flmul+2,w
  1582  0CC4  1683               	bsf	3,5	;RP0=1, select bank1
  1583  0CC5  1303               	bcf	3,6	;RP1=0, select bank1
  1584  0CC6  00AC               	movwf	(_convertir2+2)^(0+128)
  1585  0CC7  1283               	bcf	3,5	;RP0=0, select bank0
  1586  0CC8  1303               	bcf	3,6	;RP1=0, select bank0
  1587  0CC9  0852               	movf	?___flmul+1,w
  1588  0CCA  1683               	bsf	3,5	;RP0=1, select bank1
  1589  0CCB  1303               	bcf	3,6	;RP1=0, select bank1
  1590  0CCC  00AB               	movwf	(_convertir2+1)^(0+128)
  1591  0CCD  1283               	bcf	3,5	;RP0=0, select bank0
  1592  0CCE  1303               	bcf	3,6	;RP1=0, select bank0
  1593  0CCF  0851               	movf	?___flmul,w
  1594  0CD0  1683               	bsf	3,5	;RP0=1, select bank1
  1595  0CD1  1303               	bcf	3,6	;RP1=0, select bank1
  1596  0CD2  00AA               	movwf	_convertir2^(0+128)
  1597  0CD3                     l4256:
  1598                           
  1599                           ;main.c: 117: 
  1600  0CD3  082D               	movf	(_convertir2+3)^(0+128),w
  1601  0CD4  00CE               	movwf	(convert@a+3)^(0+128)
  1602  0CD5  082C               	movf	(_convertir2+2)^(0+128),w
  1603  0CD6  00CD               	movwf	(convert@a+2)^(0+128)
  1604  0CD7  082B               	movf	(_convertir2+1)^(0+128),w
  1605  0CD8  00CC               	movwf	(convert@a+1)^(0+128)
  1606  0CD9  082A               	movf	_convertir2^(0+128),w
  1607  0CDA  00CB               	movwf	convert@a^(0+128)
  1608  0CDB  3002               	movlw	2
  1609  0CDC  00CF               	movwf	convert@place^(0+128)
  1610  0CDD  3000               	movlw	0
  1611  0CDE  00D0               	movwf	(convert@place^(0+128)+1)
  1612  0CDF  30B7               	movlw	(low (_buf2| 0))& (0+255)
  1613  0CE0  120A  118A  201E  120A  158A  	fcall	_convert
  1614  0CE5                     l4258:
  1615                           
  1616                           ;main.c: 118: 
  1617  0CE5  3008               	movlw	8
  1618  0CE6  1683               	bsf	3,5	;RP0=1, select bank1
  1619  0CE7  1303               	bcf	3,6	;RP1=0, select bank1
  1620  0CE8  00E0               	movwf	??_main^(0+128)
  1621  0CE9  0860               	movf	??_main^(0+128),w
  1622  0CEA  00F5               	movwf	Lcd_Set_Cursor@b
  1623  0CEB  3002               	movlw	2
  1624  0CEC  160A  118A  237C  120A  158A  	fcall	_Lcd_Set_Cursor
  1625  0CF1                     l4260:
  1626                           
  1627                           ;main.c: 119:     }
  1628  0CF1  30B7               	movlw	(low (_buf2| 0))& (0+255)
  1629  0CF2  00F5               	movwf	Lcd_Write_String@a
  1630  0CF3  3000               	movlw	0
  1631  0CF4  00F6               	movwf	Lcd_Write_String@a+1
  1632  0CF5  160A  118A  2414  120A  158A  	fcall	_Lcd_Write_String
  1633  0CFA                     l4262:
  1634                           
  1635                           ;main.c: 120: 
  1636  0CFA  3006               	movlw	6
  1637  0CFB  1683               	bsf	3,5	;RP0=1, select bank1
  1638  0CFC  1303               	bcf	3,6	;RP1=0, select bank1
  1639  0CFD  00E0               	movwf	??_main^(0+128)
  1640  0CFE  0860               	movf	??_main^(0+128),w
  1641  0CFF  00F3               	movwf	UARTSendString@max_length
  1642  0D00  30B7               	movlw	(low (_buf2| 0))& (0+255)
  1643  0D01  160A  118A  2444  120A  158A  	fcall	_UARTSendString
  1644  0D06                     l4264:
  1645                           
  1646                           ;main.c: 122: }
  1647  0D06  300F               	movlw	15
  1648  0D07  1683               	bsf	3,5	;RP0=1, select bank1
  1649  0D08  1303               	bcf	3,6	;RP1=0, select bank1
  1650  0D09  00E0               	movwf	??_main^(0+128)
  1651  0D0A  0860               	movf	??_main^(0+128),w
  1652  0D0B  00F5               	movwf	Lcd_Set_Cursor@b
  1653  0D0C  3002               	movlw	2
  1654  0D0D  160A  118A  237C  120A  158A  	fcall	_Lcd_Set_Cursor
  1655  0D12                     l4266:
  1656                           
  1657                           ;main.c: 123: 
  1658  0D12  1683               	bsf	3,5	;RP0=1, select bank1
  1659  0D13  1303               	bcf	3,6	;RP1=0, select bank1
  1660  0D14  0832               	movf	_UARTstring^(0+128),w
  1661  0D15  00E0               	movwf	??_main^(0+128)
  1662  0D16  01E1               	clrf	(??_main^(0+128)+1)
  1663  0D17  0860               	movf	??_main^(0+128),w
  1664  0D18  00F5               	movwf	Lcd_Write_String@a
  1665  0D19  0861               	movf	(??_main^(0+128)+1),w
  1666  0D1A  00F6               	movwf	Lcd_Write_String@a+1
  1667  0D1B  160A  118A  2414  120A  158A  	fcall	_Lcd_Write_String
  1668  0D20                     l4268:
  1669                           
  1670                           ;main.c: 124: void Setup(void) {
  1671  0D20  301A               	movlw	26
  1672  0D21  1683               	bsf	3,5	;RP0=1, select bank1
  1673  0D22  1303               	bcf	3,6	;RP1=0, select bank1
  1674  0D23  00E1               	movwf	(??_main^(0+128)+1)
  1675  0D24  30F7               	movlw	247
  1676  0D25  00E0               	movwf	??_main^(0+128)
  1677  0D26                     u6647:
  1678  0D26  0BE0               	decfsz	??_main^(0+128),f
  1679  0D27  2D26               	goto	u6647
  1680  0D28  0BE1               	decfsz	(??_main^(0+128)+1),f
  1681  0D29  2D26               	goto	u6647
  1682  0D2A  2D2B               	nop2
  1683  0D2B                     l4270:
  1684                           
  1685                           ;main.c: 130:     TRISCbits.TRISC7 = 1;
  1686  0D2B  160A  118A  22E3  120A  158A  	fcall	_UARTDataReady
  1687  0D30  3A00               	xorlw	0
  1688  0D31  1903               	skipnz
  1689  0D32  2D34               	goto	u6561
  1690  0D33  2D35               	goto	u6560
  1691  0D34                     u6561:
  1692  0D34  2B85               	goto	l4220
  1693  0D35                     u6560:
  1694  0D35                     l4272:
  1695                           
  1696                           ;main.c: 131:     TRISCbits.TRISC6 = 0;
  1697  0D35  160A  118A  2303  120A  158A  	fcall	_UARTReadChar
  1698  0D3A  1683               	bsf	3,5	;RP0=1, select bank1
  1699  0D3B  1303               	bcf	3,6	;RP1=0, select bank1
  1700  0D3C  00E0               	movwf	??_main^(0+128)
  1701  0D3D  0860               	movf	??_main^(0+128),w
  1702  0D3E  1283               	bcf	3,5	;RP0=0, select bank0
  1703  0D3F  1303               	bcf	3,6	;RP1=0, select bank0
  1704  0D40  00ED               	movwf	main@entrada
  1705  0D41                     l4274:
  1706                           
  1707                           ;main.c: 132: 
  1708  0D41  302B               	movlw	43
  1709  0D42  066D               	xorwf	main@entrada,w
  1710  0D43  1D03               	btfss	3,2
  1711  0D44  2D46               	goto	u6571
  1712  0D45  2D47               	goto	u6570
  1713  0D46                     u6571:
  1714  0D46  2D4E               	goto	l4278
  1715  0D47                     u6570:
  1716  0D47                     l4276:
  1717                           
  1718                           ;main.c: 133: 
  1719  0D47  3001               	movlw	1
  1720  0D48  1683               	bsf	3,5	;RP0=1, select bank1
  1721  0D49  1303               	bcf	3,6	;RP1=0, select bank1
  1722  0D4A  00E0               	movwf	??_main^(0+128)
  1723  0D4B  0860               	movf	??_main^(0+128),w
  1724  0D4C  07FA               	addwf	_varUART,f
  1725                           
  1726                           ;main.c: 134:     PORTA = 0;
  1727  0D4D  2D5D               	goto	l4286
  1728  0D4E                     l4278:
  1729  0D4E  302D               	movlw	45
  1730  0D4F  066D               	xorwf	main@entrada,w
  1731  0D50  1D03               	btfss	3,2
  1732  0D51  2D53               	goto	u6581
  1733  0D52  2D54               	goto	u6580
  1734  0D53                     u6581:
  1735  0D53  2D5D               	goto	l4286
  1736  0D54                     u6580:
  1737  0D54                     l4280:
  1738                           
  1739                           ;main.c: 135:     PORTC = 0;
  1740  0D54  087A               	movf	_varUART,w
  1741  0D55  1D03               	btfss	3,2
  1742  0D56  2D58               	goto	u6591
  1743  0D57  2D59               	goto	u6590
  1744  0D58                     u6591:
  1745  0D58  2D5B               	goto	l4284
  1746  0D59                     u6590:
  1747  0D59                     l4282:
  1748                           
  1749                           ;main.c: 136:     PORTD = 0;
  1750  0D59  01FA               	clrf	_varUART
  1751                           
  1752                           ;main.c: 137:     PORTB = 0;
  1753  0D5A  2D5D               	goto	l4286
  1754  0D5B                     l4284:
  1755                           
  1756                           ;main.c: 138: 
  1757  0D5B  3001               	movlw	1
  1758  0D5C  02FA               	subwf	_varUART,f
  1759  0D5D                     l4286:
  1760                           
  1761                           ;main.c: 143: 
  1762  0D5D  300F               	movlw	15
  1763  0D5E  1683               	bsf	3,5	;RP0=1, select bank1
  1764  0D5F  1303               	bcf	3,6	;RP1=0, select bank1
  1765  0D60  00E0               	movwf	??_main^(0+128)
  1766  0D61  0860               	movf	??_main^(0+128),w
  1767  0D62  00F5               	movwf	Lcd_Set_Cursor@b
  1768  0D63  3002               	movlw	2
  1769  0D64  160A  118A  237C  120A  158A  	fcall	_Lcd_Set_Cursor
  1770  0D69                     l4288:
  1771                           
  1772                           ;main.c: 144: 
  1773  0D69  087A               	movf	_varUART,w
  1774  0D6A  160A  118A  2512  120A  158A  	fcall	_intToString
  1775  0D6F  1683               	bsf	3,5	;RP0=1, select bank1
  1776  0D70  1303               	bcf	3,6	;RP1=0, select bank1
  1777  0D71  00E0               	movwf	??_main^(0+128)
  1778  0D72  0860               	movf	??_main^(0+128),w
  1779  0D73  00B2               	movwf	_UARTstring^(0+128)
  1780  0D74  2B85               	goto	l4220
  1781  0D75  120A  118A  280C   	ljmp	start
  1782  0D78                     __end_of_main:
  1783                           
  1784                           	psect	text1
  1785  1512                     __ptext1:	
  1786 ;; *************** function _intToString *****************
  1787 ;; Defined at:
  1788 ;;		line 179 in file "main.c"
  1789 ;; Parameters:    Size  Location     Type
  1790 ;;  value           1    wreg     unsigned char 
  1791 ;; Auto vars:     Size  Location     Type
  1792 ;;  value           1   12[BANK0 ] unsigned char 
  1793 ;;  valor           4    7[BANK0 ] unsigned char [4]
  1794 ;;  entero          1   11[BANK0 ] unsigned char 
  1795 ;; Return value:  Size  Location     Type
  1796 ;;                  1    wreg      unsigned char 
  1797 ;; Registers used:
  1798 ;;		wreg, status,2, status,0, pclath, cstack
  1799 ;; Tracked objects:
  1800 ;;		On entry : 0/0
  1801 ;;		On exit  : 0/0
  1802 ;;		Unchanged: 0/0
  1803 ;; Data sizes:     COMMON   BANK0   BANK1   BANK3   BANK2
  1804 ;;      Params:         0       0       0       0       0
  1805 ;;      Locals:         0       6       0       0       0
  1806 ;;      Temps:          0       3       0       0       0
  1807 ;;      Totals:         0       9       0       0       0
  1808 ;;Total ram usage:        9 bytes
  1809 ;; Hardware stack levels used:    1
  1810 ;; Hardware stack levels required when called:    2
  1811 ;; This function calls:
  1812 ;;		___awdiv
  1813 ;;		___awmod
  1814 ;;		___bmul
  1815 ;; This function is called by:
  1816 ;;		_main
  1817 ;; This function uses a non-reentrant model
  1818 ;;
  1819                           
  1820                           
  1821                           ;psect for function _intToString
  1822  1512                     _intToString:
  1823                           
  1824                           ;incstack = 0
  1825                           ; Regs used in _intToString: [wreg+status,2+status,0+pclath+cstack]
  1826                           ;intToString@value stored from wreg
  1827  1512  1283               	bcf	3,5	;RP0=0, select bank0
  1828  1513  1303               	bcf	3,6	;RP1=0, select bank0
  1829  1514  00AC               	movwf	intToString@value
  1830  1515                     l4190:
  1831  1515  3064               	movlw	100
  1832  1516  00F2               	movwf	___awdiv@divisor
  1833  1517  3000               	movlw	0
  1834  1518  00F3               	movwf	___awdiv@divisor+1
  1835  1519  082C               	movf	intToString@value,w
  1836  151A  00A4               	movwf	??_intToString
  1837  151B  01A5               	clrf	??_intToString+1
  1838  151C  0824               	movf	??_intToString,w
  1839  151D  00F4               	movwf	___awdiv@dividend
  1840  151E  0825               	movf	??_intToString+1,w
  1841  151F  00F5               	movwf	___awdiv@dividend+1
  1842  1520  160A  118A  25D9  160A  118A  	fcall	___awdiv
  1843  1525  0872               	movf	?___awdiv,w
  1844  1526  1283               	bcf	3,5	;RP0=0, select bank0
  1845  1527  1303               	bcf	3,6	;RP1=0, select bank0
  1846  1528  00A6               	movwf	??_intToString+2
  1847  1529  0826               	movf	??_intToString+2,w
  1848  152A  00AB               	movwf	intToString@entero
  1849  152B                     l4192:
  1850  152B  082B               	movf	intToString@entero,w
  1851  152C  3E30               	addlw	48
  1852  152D  00A4               	movwf	??_intToString
  1853  152E  0824               	movf	??_intToString,w
  1854  152F  00A7               	movwf	intToString@valor
  1855  1530                     l4194:
  1856  1530  309C               	movlw	156
  1857  1531  00A4               	movwf	??_intToString
  1858  1532  0824               	movf	??_intToString,w
  1859  1533  00F2               	movwf	___bmul@multiplicand
  1860  1534  082B               	movf	intToString@entero,w
  1861  1535  160A  118A  2339  160A  118A  	fcall	___bmul
  1862  153A  1283               	bcf	3,5	;RP0=0, select bank0
  1863  153B  1303               	bcf	3,6	;RP1=0, select bank0
  1864  153C  072C               	addwf	intToString@value,w
  1865  153D  00A5               	movwf	??_intToString+1
  1866  153E  0825               	movf	??_intToString+1,w
  1867  153F  00AC               	movwf	intToString@value
  1868  1540                     l4196:
  1869  1540  300A               	movlw	10
  1870  1541  00F2               	movwf	___awdiv@divisor
  1871  1542  3000               	movlw	0
  1872  1543  00F3               	movwf	___awdiv@divisor+1
  1873  1544  082C               	movf	intToString@value,w
  1874  1545  00A4               	movwf	??_intToString
  1875  1546  01A5               	clrf	??_intToString+1
  1876  1547  0824               	movf	??_intToString,w
  1877  1548  00F4               	movwf	___awdiv@dividend
  1878  1549  0825               	movf	??_intToString+1,w
  1879  154A  00F5               	movwf	___awdiv@dividend+1
  1880  154B  160A  118A  25D9  160A  118A  	fcall	___awdiv
  1881  1550  0872               	movf	?___awdiv,w
  1882  1551  3E30               	addlw	48
  1883  1552  1283               	bcf	3,5	;RP0=0, select bank0
  1884  1553  1303               	bcf	3,6	;RP1=0, select bank0
  1885  1554  00A6               	movwf	??_intToString+2
  1886  1555  0826               	movf	??_intToString+2,w
  1887  1556  00A8               	movwf	intToString@valor+1
  1888  1557                     l4198:
  1889  1557  300A               	movlw	10
  1890  1558  00F2               	movwf	___awmod@divisor
  1891  1559  3000               	movlw	0
  1892  155A  00F3               	movwf	___awmod@divisor+1
  1893  155B  082C               	movf	intToString@value,w
  1894  155C  00A4               	movwf	??_intToString
  1895  155D  01A5               	clrf	??_intToString+1
  1896  155E  0824               	movf	??_intToString,w
  1897  155F  00F4               	movwf	___awmod@dividend
  1898  1560  0825               	movf	??_intToString+1,w
  1899  1561  00F5               	movwf	___awmod@dividend+1
  1900  1562  160A  118A  24B9  160A  118A  	fcall	___awmod
  1901  1567  0872               	movf	?___awmod,w
  1902  1568  3E30               	addlw	48
  1903  1569  1283               	bcf	3,5	;RP0=0, select bank0
  1904  156A  1303               	bcf	3,6	;RP1=0, select bank0
  1905  156B  00A6               	movwf	??_intToString+2
  1906  156C  0826               	movf	??_intToString+2,w
  1907  156D  00A9               	movwf	intToString@valor+2
  1908  156E                     l4200:
  1909  156E  01AA               	clrf	intToString@valor+3
  1910  156F                     l4202:
  1911  156F  3027               	movlw	(low intToString@valor)& (0+255)
  1912  1570                     l110:
  1913  1570  0008               	return
  1914  1571                     __end_of_intToString:
  1915                           
  1916                           	psect	text2
  1917  1339                     __ptext2:	
  1918 ;; *************** function ___bmul *****************
  1919 ;; Defined at:
  1920 ;;		line 4 in file "C:\Program Files\Microchip\xc8\v2.31\pic\sources\c90\common\Umul8.c"
  1921 ;; Parameters:    Size  Location     Type
  1922 ;;  multiplier      1    wreg     unsigned char 
  1923 ;;  multiplicand    1    2[COMMON] unsigned char 
  1924 ;; Auto vars:     Size  Location     Type
  1925 ;;  multiplier      1    5[COMMON] unsigned char 
  1926 ;;  product         1    4[COMMON] unsigned char 
  1927 ;; Return value:  Size  Location     Type
  1928 ;;                  1    wreg      unsigned char 
  1929 ;; Registers used:
  1930 ;;		wreg, status,2, status,0
  1931 ;; Tracked objects:
  1932 ;;		On entry : 0/0
  1933 ;;		On exit  : 0/0
  1934 ;;		Unchanged: 0/0
  1935 ;; Data sizes:     COMMON   BANK0   BANK1   BANK3   BANK2
  1936 ;;      Params:         1       0       0       0       0
  1937 ;;      Locals:         2       0       0       0       0
  1938 ;;      Temps:          1       0       0       0       0
  1939 ;;      Totals:         4       0       0       0       0
  1940 ;;Total ram usage:        4 bytes
  1941 ;; Hardware stack levels used:    1
  1942 ;; Hardware stack levels required when called:    1
  1943 ;; This function calls:
  1944 ;;		Nothing
  1945 ;; This function is called by:
  1946 ;;		_intToString
  1947 ;; This function uses a non-reentrant model
  1948 ;;
  1949                           
  1950                           
  1951                           ;psect for function ___bmul
  1952  1339                     ___bmul:
  1953                           
  1954                           ;incstack = 0
  1955                           ; Regs used in ___bmul: [wreg+status,2+status,0]
  1956                           ;___bmul@multiplier stored from wreg
  1957  1339  00F5               	movwf	___bmul@multiplier
  1958  133A                     l3414:
  1959  133A  01F4               	clrf	___bmul@product
  1960  133B                     l3416:
  1961  133B  1C75               	btfss	___bmul@multiplier,0
  1962  133C  2B3E               	goto	u4971
  1963  133D  2B3F               	goto	u4970
  1964  133E                     u4971:
  1965  133E  2B43               	goto	l3420
  1966  133F                     u4970:
  1967  133F                     l3418:
  1968  133F  0872               	movf	___bmul@multiplicand,w
  1969  1340  00F3               	movwf	??___bmul
  1970  1341  0873               	movf	??___bmul,w
  1971  1342  07F4               	addwf	___bmul@product,f
  1972  1343                     l3420:
  1973  1343  1003               	clrc
  1974  1344  0DF2               	rlf	___bmul@multiplicand,f
  1975  1345                     l3422:
  1976  1345  1003               	clrc
  1977  1346  0CF5               	rrf	___bmul@multiplier,f
  1978  1347  0875               	movf	___bmul@multiplier,w
  1979  1348  1D03               	btfss	3,2
  1980  1349  2B4B               	goto	u4981
  1981  134A  2B4C               	goto	u4980
  1982  134B                     u4981:
  1983  134B  2B3B               	goto	l3416
  1984  134C                     u4980:
  1985  134C                     l3424:
  1986  134C  0874               	movf	___bmul@product,w
  1987  134D                     l366:
  1988  134D  0008               	return
  1989  134E                     __end_of___bmul:
  1990                           
  1991                           	psect	text3
  1992  14B9                     __ptext3:	
  1993 ;; *************** function ___awmod *****************
  1994 ;; Defined at:
  1995 ;;		line 5 in file "C:\Program Files\Microchip\xc8\v2.31\pic\sources\c90\common\awmod.c"
  1996 ;; Parameters:    Size  Location     Type
  1997 ;;  divisor         2    2[COMMON] int 
  1998 ;;  dividend        2    4[COMMON] int 
  1999 ;; Auto vars:     Size  Location     Type
  2000 ;;  sign            1    8[COMMON] unsigned char 
  2001 ;;  counter         1    7[COMMON] unsigned char 
  2002 ;; Return value:  Size  Location     Type
  2003 ;;                  2    2[COMMON] int 
  2004 ;; Registers used:
  2005 ;;		wreg, status,2, status,0
  2006 ;; Tracked objects:
  2007 ;;		On entry : 0/0
  2008 ;;		On exit  : 0/0
  2009 ;;		Unchanged: 0/0
  2010 ;; Data sizes:     COMMON   BANK0   BANK1   BANK3   BANK2
  2011 ;;      Params:         4       0       0       0       0
  2012 ;;      Locals:         2       0       0       0       0
  2013 ;;      Temps:          1       0       0       0       0
  2014 ;;      Totals:         7       0       0       0       0
  2015 ;;Total ram usage:        7 bytes
  2016 ;; Hardware stack levels used:    1
  2017 ;; Hardware stack levels required when called:    1
  2018 ;; This function calls:
  2019 ;;		Nothing
  2020 ;; This function is called by:
  2021 ;;		_intToString
  2022 ;; This function uses a non-reentrant model
  2023 ;;
  2024                           
  2025                           
  2026                           ;psect for function ___awmod
  2027  14B9                     ___awmod:
  2028  14B9                     l3496:	
  2029                           ;incstack = 0
  2030                           ; Regs used in ___awmod: [wreg+status,2+status,0]
  2031                           
  2032  14B9  01F8               	clrf	___awmod@sign
  2033  14BA                     l3498:
  2034  14BA  1FF5               	btfss	___awmod@dividend+1,7
  2035  14BB  2CBD               	goto	u5161
  2036  14BC  2CBE               	goto	u5160
  2037  14BD                     u5161:
  2038  14BD  2CC5               	goto	l3504
  2039  14BE                     u5160:
  2040  14BE                     l3500:
  2041  14BE  09F4               	comf	___awmod@dividend,f
  2042  14BF  09F5               	comf	___awmod@dividend+1,f
  2043  14C0  0AF4               	incf	___awmod@dividend,f
  2044  14C1  1903               	skipnz
  2045  14C2  0AF5               	incf	___awmod@dividend+1,f
  2046  14C3                     l3502:
  2047  14C3  01F8               	clrf	___awmod@sign
  2048  14C4  0AF8               	incf	___awmod@sign,f
  2049  14C5                     l3504:
  2050  14C5  1FF3               	btfss	___awmod@divisor+1,7
  2051  14C6  2CC8               	goto	u5171
  2052  14C7  2CC9               	goto	u5170
  2053  14C8                     u5171:
  2054  14C8  2CCE               	goto	l3508
  2055  14C9                     u5170:
  2056  14C9                     l3506:
  2057  14C9  09F2               	comf	___awmod@divisor,f
  2058  14CA  09F3               	comf	___awmod@divisor+1,f
  2059  14CB  0AF2               	incf	___awmod@divisor,f
  2060  14CC  1903               	skipnz
  2061  14CD  0AF3               	incf	___awmod@divisor+1,f
  2062  14CE                     l3508:
  2063  14CE  0872               	movf	___awmod@divisor,w
  2064  14CF  0473               	iorwf	___awmod@divisor+1,w
  2065  14D0  1903               	btfsc	3,2
  2066  14D1  2CD3               	goto	u5181
  2067  14D2  2CD4               	goto	u5180
  2068  14D3                     u5181:
  2069  14D3  2D03               	goto	l3526
  2070  14D4                     u5180:
  2071  14D4                     l3510:
  2072  14D4  01F7               	clrf	___awmod@counter
  2073  14D5  0AF7               	incf	___awmod@counter,f
  2074  14D6  2CE2               	goto	l3516
  2075  14D7                     l3512:
  2076  14D7  3001               	movlw	1
  2077  14D8                     u5195:
  2078  14D8  1003               	clrc
  2079  14D9  0DF2               	rlf	___awmod@divisor,f
  2080  14DA  0DF3               	rlf	___awmod@divisor+1,f
  2081  14DB  3EFF               	addlw	-1
  2082  14DC  1D03               	skipz
  2083  14DD  2CD8               	goto	u5195
  2084  14DE                     l3514:
  2085  14DE  3001               	movlw	1
  2086  14DF  00F6               	movwf	??___awmod
  2087  14E0  0876               	movf	??___awmod,w
  2088  14E1  07F7               	addwf	___awmod@counter,f
  2089  14E2                     l3516:
  2090  14E2  1FF3               	btfss	___awmod@divisor+1,7
  2091  14E3  2CE5               	goto	u5201
  2092  14E4  2CE6               	goto	u5200
  2093  14E5                     u5201:
  2094  14E5  2CD7               	goto	l3512
  2095  14E6                     u5200:
  2096  14E6                     l3518:
  2097  14E6  0873               	movf	___awmod@divisor+1,w
  2098  14E7  0275               	subwf	___awmod@dividend+1,w
  2099  14E8  1D03               	skipz
  2100  14E9  2CEC               	goto	u5215
  2101  14EA  0872               	movf	___awmod@divisor,w
  2102  14EB  0274               	subwf	___awmod@dividend,w
  2103  14EC                     u5215:
  2104  14EC  1C03               	skipc
  2105  14ED  2CEF               	goto	u5211
  2106  14EE  2CF0               	goto	u5210
  2107  14EF                     u5211:
  2108  14EF  2CF6               	goto	l3522
  2109  14F0                     u5210:
  2110  14F0                     l3520:
  2111  14F0  0872               	movf	___awmod@divisor,w
  2112  14F1  02F4               	subwf	___awmod@dividend,f
  2113  14F2  0873               	movf	___awmod@divisor+1,w
  2114  14F3  1C03               	skipc
  2115  14F4  03F5               	decf	___awmod@dividend+1,f
  2116  14F5  02F5               	subwf	___awmod@dividend+1,f
  2117  14F6                     l3522:
  2118  14F6  3001               	movlw	1
  2119  14F7                     u5225:
  2120  14F7  1003               	clrc
  2121  14F8  0CF3               	rrf	___awmod@divisor+1,f
  2122  14F9  0CF2               	rrf	___awmod@divisor,f
  2123  14FA  3EFF               	addlw	-1
  2124  14FB  1D03               	skipz
  2125  14FC  2CF7               	goto	u5225
  2126  14FD                     l3524:
  2127  14FD  3001               	movlw	1
  2128  14FE  02F7               	subwf	___awmod@counter,f
  2129  14FF  1D03               	btfss	3,2
  2130  1500  2D02               	goto	u5231
  2131  1501  2D03               	goto	u5230
  2132  1502                     u5231:
  2133  1502  2CE6               	goto	l3518
  2134  1503                     u5230:
  2135  1503                     l3526:
  2136  1503  0878               	movf	___awmod@sign,w
  2137  1504  1903               	btfsc	3,2
  2138  1505  2D07               	goto	u5241
  2139  1506  2D08               	goto	u5240
  2140  1507                     u5241:
  2141  1507  2D0D               	goto	l3530
  2142  1508                     u5240:
  2143  1508                     l3528:
  2144  1508  09F4               	comf	___awmod@dividend,f
  2145  1509  09F5               	comf	___awmod@dividend+1,f
  2146  150A  0AF4               	incf	___awmod@dividend,f
  2147  150B  1903               	skipnz
  2148  150C  0AF5               	incf	___awmod@dividend+1,f
  2149  150D                     l3530:
  2150  150D  0875               	movf	___awmod@dividend+1,w
  2151  150E  00F3               	movwf	?___awmod+1
  2152  150F  0874               	movf	___awmod@dividend,w
  2153  1510  00F2               	movwf	?___awmod
  2154  1511                     l506:
  2155  1511  0008               	return
  2156  1512                     __end_of___awmod:
  2157                           
  2158                           	psect	text4
  2159  001E                     __ptext4:	
  2160 ;; *************** function _convert *****************
  2161 ;; Defined at:
  2162 ;;		line 79 in file "LCD8bits.c"
  2163 ;; Parameters:    Size  Location     Type
  2164 ;;  data            1    wreg     PTR unsigned char 
  2165 ;;		 -> buf2(10), buf(10), 
  2166 ;;  a               4    0[BANK1 ] float 
  2167 ;;  place           2    4[BANK1 ] int 
  2168 ;; Auto vars:     Size  Location     Type
  2169 ;;  data            1   10[BANK1 ] PTR unsigned char 
  2170 ;;		 -> buf2(10), buf(10), 
  2171 ;;  x               4   11[BANK1 ] float 
  2172 ;;  mu              2   19[BANK1 ] int 
  2173 ;;  digits          2   17[BANK1 ] int 
  2174 ;;  i               2   15[BANK1 ] int 
  2175 ;;  j               2    8[BANK1 ] int 
  2176 ;;  temp            2    6[BANK1 ] int 
  2177 ;; Return value:  Size  Location     Type
  2178 ;;                  1    wreg      void 
  2179 ;; Registers used:
  2180 ;;		wreg, fsr0l, fsr0h, status,2, status,0, btemp+1, pclath, cstack
  2181 ;; Tracked objects:
  2182 ;;		On entry : 0/0
  2183 ;;		On exit  : 0/0
  2184 ;;		Unchanged: 0/0
  2185 ;; Data sizes:     COMMON   BANK0   BANK1   BANK3   BANK2
  2186 ;;      Params:         0       0       6       0       0
  2187 ;;      Locals:         0       0      15       0       0
  2188 ;;      Temps:          0       2       0       0       0
  2189 ;;      Totals:         0       2      21       0       0
  2190 ;;Total ram usage:       23 bytes
  2191 ;; Hardware stack levels used:    1
  2192 ;; Hardware stack levels required when called:    3
  2193 ;; This function calls:
  2194 ;;		___awdiv
  2195 ;;		___fldiv
  2196 ;;		___flge
  2197 ;;		___flmul
  2198 ;;		___flsub
  2199 ;;		___fltol
  2200 ;;		___wmul
  2201 ;;		___xxtofl
  2202 ;; This function is called by:
  2203 ;;		_main
  2204 ;; This function uses a non-reentrant model
  2205 ;;
  2206                           
  2207                           
  2208                           ;psect for function _convert
  2209  001E                     _convert:
  2210                           
  2211                           ;incstack = 0
  2212                           ; Regs used in _convert: [wreg-fsr0h+status,2+status,0+btemp+1+pclath+cstack]
  2213                           ;convert@data stored from wreg
  2214  001E  1683               	bsf	3,5	;RP0=1, select bank1
  2215  001F  1303               	bcf	3,6	;RP1=0, select bank1
  2216  0020  00D5               	movwf	convert@data^(0+128)
  2217  0021                     l4070:
  2218                           
  2219                           ;LCD8bits.c: 79: void convert(char *data,float a, int place);LCD8bits.c: 80: {;LCD8bits.
      +                          c: 81:      int temp=a;
  2220  0021  084E               	movf	(convert@a+3)^(0+128),w
  2221  0022  00F5               	movwf	___fltol@f1+3
  2222  0023  084D               	movf	(convert@a+2)^(0+128),w
  2223  0024  00F4               	movwf	___fltol@f1+2
  2224  0025  084C               	movf	(convert@a+1)^(0+128),w
  2225  0026  00F3               	movwf	___fltol@f1+1
  2226  0027  084B               	movf	convert@a^(0+128),w
  2227  0028  00F2               	movwf	___fltol@f1
  2228  0029  120A  158A  200A  120A  118A  	fcall	___fltol
  2229  002E  0873               	movf	?___fltol+1,w
  2230  002F  1683               	bsf	3,5	;RP0=1, select bank1
  2231  0030  1303               	bcf	3,6	;RP1=0, select bank1
  2232  0031  00D2               	movwf	(convert@temp+1)^(0+128)
  2233  0032  0872               	movf	?___fltol,w
  2234  0033  00D1               	movwf	convert@temp^(0+128)
  2235  0034                     l4072:
  2236  0034                     l4074:
  2237                           
  2238                           ;LCD8bits.c: 83:      int digits=0;
  2239  0034  01DC               	clrf	convert@digits^(0+128)
  2240  0035  01DD               	clrf	(convert@digits+1)^(0+128)
  2241  0036                     l4076:
  2242                           
  2243                           ;LCD8bits.c: 84:      int i=0,mu=1;
  2244  0036  01DA               	clrf	convert@i^(0+128)
  2245  0037  01DB               	clrf	(convert@i+1)^(0+128)
  2246  0038                     l4078:
  2247  0038  3001               	movlw	1
  2248  0039  00DE               	movwf	convert@mu^(0+128)
  2249  003A  3000               	movlw	0
  2250  003B  00DF               	movwf	(convert@mu^(0+128)+1)
  2251  003C                     l4080:
  2252  003C                     l4082:
  2253                           
  2254                           ;LCD8bits.c: 86:      if(a<0)
  2255  003C  084E               	movf	(convert@a+3)^(0+128),w
  2256  003D  00F5               	movwf	___flge@ff1+3
  2257  003E  084D               	movf	(convert@a+2)^(0+128),w
  2258  003F  00F4               	movwf	___flge@ff1+2
  2259  0040  084C               	movf	(convert@a+1)^(0+128),w
  2260  0041  00F3               	movwf	___flge@ff1+1
  2261  0042  084B               	movf	convert@a^(0+128),w
  2262  0043  00F2               	movwf	___flge@ff1
  2263  0044  3000               	movlw	0
  2264  0045  00F9               	movwf	___flge@ff2+3
  2265  0046  3000               	movlw	0
  2266  0047  00F8               	movwf	___flge@ff2+2
  2267  0048  3000               	movlw	0
  2268  0049  00F7               	movwf	___flge@ff2+1
  2269  004A  3000               	movlw	0
  2270  004B  00F6               	movwf	___flge@ff2
  2271  004C  160A  118A  26B1  120A  118A  	fcall	___flge
  2272  0051  1803               	btfsc	3,0
  2273  0052  2854               	goto	u6421
  2274  0053  2855               	goto	u6420
  2275  0054                     u6421:
  2276  0054  28C3               	goto	l4094
  2277  0055                     u6420:
  2278  0055                     l4084:
  2279                           
  2280                           ;LCD8bits.c: 87:      {;LCD8bits.c: 88:             a=a*-1;
  2281  0055  30BF               	movlw	191
  2282  0056  1283               	bcf	3,5	;RP0=0, select bank0
  2283  0057  1303               	bcf	3,6	;RP1=0, select bank0
  2284  0058  00D4               	movwf	___flmul@b+3
  2285  0059  3080               	movlw	128
  2286  005A  00D3               	movwf	___flmul@b+2
  2287  005B  3000               	movlw	0
  2288  005C  00D2               	movwf	___flmul@b+1
  2289  005D  3000               	movlw	0
  2290  005E  00D1               	movwf	___flmul@b
  2291  005F  1683               	bsf	3,5	;RP0=1, select bank1
  2292  0060  1303               	bcf	3,6	;RP1=0, select bank1
  2293  0061  084E               	movf	(convert@a+3)^(0+128),w
  2294  0062  1283               	bcf	3,5	;RP0=0, select bank0
  2295  0063  1303               	bcf	3,6	;RP1=0, select bank0
  2296  0064  00D8               	movwf	___flmul@a+3
  2297  0065  1683               	bsf	3,5	;RP0=1, select bank1
  2298  0066  1303               	bcf	3,6	;RP1=0, select bank1
  2299  0067  084D               	movf	(convert@a+2)^(0+128),w
  2300  0068  1283               	bcf	3,5	;RP0=0, select bank0
  2301  0069  1303               	bcf	3,6	;RP1=0, select bank0
  2302  006A  00D7               	movwf	___flmul@a+2
  2303  006B  1683               	bsf	3,5	;RP0=1, select bank1
  2304  006C  1303               	bcf	3,6	;RP1=0, select bank1
  2305  006D  084C               	movf	(convert@a+1)^(0+128),w
  2306  006E  1283               	bcf	3,5	;RP0=0, select bank0
  2307  006F  1303               	bcf	3,6	;RP1=0, select bank0
  2308  0070  00D6               	movwf	___flmul@a+1
  2309  0071  1683               	bsf	3,5	;RP0=1, select bank1
  2310  0072  1303               	bcf	3,6	;RP1=0, select bank1
  2311  0073  084B               	movf	convert@a^(0+128),w
  2312  0074  1283               	bcf	3,5	;RP0=0, select bank0
  2313  0075  1303               	bcf	3,6	;RP1=0, select bank0
  2314  0076  00D5               	movwf	___flmul@a
  2315  0077  120A  118A  2480  120A  118A  	fcall	___flmul
  2316  007C  1283               	bcf	3,5	;RP0=0, select bank0
  2317  007D  1303               	bcf	3,6	;RP1=0, select bank0
  2318  007E  0854               	movf	?___flmul+3,w
  2319  007F  1683               	bsf	3,5	;RP0=1, select bank1
  2320  0080  1303               	bcf	3,6	;RP1=0, select bank1
  2321  0081  00CE               	movwf	(convert@a+3)^(0+128)
  2322  0082  1283               	bcf	3,5	;RP0=0, select bank0
  2323  0083  1303               	bcf	3,6	;RP1=0, select bank0
  2324  0084  0853               	movf	?___flmul+2,w
  2325  0085  1683               	bsf	3,5	;RP0=1, select bank1
  2326  0086  1303               	bcf	3,6	;RP1=0, select bank1
  2327  0087  00CD               	movwf	(convert@a+2)^(0+128)
  2328  0088  1283               	bcf	3,5	;RP0=0, select bank0
  2329  0089  1303               	bcf	3,6	;RP1=0, select bank0
  2330  008A  0852               	movf	?___flmul+1,w
  2331  008B  1683               	bsf	3,5	;RP0=1, select bank1
  2332  008C  1303               	bcf	3,6	;RP1=0, select bank1
  2333  008D  00CC               	movwf	(convert@a+1)^(0+128)
  2334  008E  1283               	bcf	3,5	;RP0=0, select bank0
  2335  008F  1303               	bcf	3,6	;RP1=0, select bank0
  2336  0090  0851               	movf	?___flmul,w
  2337  0091  1683               	bsf	3,5	;RP0=1, select bank1
  2338  0092  1303               	bcf	3,6	;RP1=0, select bank1
  2339  0093  00CB               	movwf	convert@a^(0+128)
  2340  0094                     l4086:
  2341                           
  2342                           ;LCD8bits.c: 89:             data[i]='-';
  2343  0094  302D               	movlw	45
  2344  0095  1283               	bcf	3,5	;RP0=0, select bank0
  2345  0096  1303               	bcf	3,6	;RP1=0, select bank0
  2346  0097  00EB               	movwf	??_convert
  2347  0098  1683               	bsf	3,5	;RP0=1, select bank1
  2348  0099  1303               	bcf	3,6	;RP1=0, select bank1
  2349  009A  0855               	movf	convert@data^(0+128),w
  2350  009B  0084               	movwf	4
  2351  009C  1283               	bcf	3,5	;RP0=0, select bank0
  2352  009D  1303               	bcf	3,6	;RP1=0, select bank0
  2353  009E  086B               	movf	??_convert,w
  2354  009F  1383               	bcf	3,7	;select IRP bank0
  2355  00A0  0080               	movwf	0
  2356  00A1                     l4088:
  2357                           
  2358                           ;LCD8bits.c: 90:             i++;
  2359  00A1  3001               	movlw	1
  2360  00A2  1683               	bsf	3,5	;RP0=1, select bank1
  2361  00A3  1303               	bcf	3,6	;RP1=0, select bank1
  2362  00A4  07DA               	addwf	convert@i^(0+128),f
  2363  00A5  1803               	skipnc
  2364  00A6  0ADB               	incf	(convert@i+1)^(0+128),f
  2365  00A7  3000               	movlw	0
  2366  00A8  07DB               	addwf	(convert@i+1)^(0+128),f
  2367  00A9  28C3               	goto	l4094
  2368  00AA                     l4090:
  2369                           
  2370                           ;LCD8bits.c: 94:      {;LCD8bits.c: 95:          temp=temp/10;
  2371  00AA  300A               	movlw	10
  2372  00AB  00F2               	movwf	___awdiv@divisor
  2373  00AC  3000               	movlw	0
  2374  00AD  00F3               	movwf	___awdiv@divisor+1
  2375  00AE  0852               	movf	(convert@temp+1)^(0+128),w
  2376  00AF  00F5               	movwf	___awdiv@dividend+1
  2377  00B0  0851               	movf	convert@temp^(0+128),w
  2378  00B1  00F4               	movwf	___awdiv@dividend
  2379  00B2  160A  118A  25D9  120A  118A  	fcall	___awdiv
  2380  00B7  0873               	movf	?___awdiv+1,w
  2381  00B8  1683               	bsf	3,5	;RP0=1, select bank1
  2382  00B9  1303               	bcf	3,6	;RP1=0, select bank1
  2383  00BA  00D2               	movwf	(convert@temp+1)^(0+128)
  2384  00BB  0872               	movf	?___awdiv,w
  2385  00BC  00D1               	movwf	convert@temp^(0+128)
  2386  00BD                     l4092:
  2387                           
  2388                           ;LCD8bits.c: 96:          digits++;
  2389  00BD  3001               	movlw	1
  2390  00BE  07DC               	addwf	convert@digits^(0+128),f
  2391  00BF  1803               	skipnc
  2392  00C0  0ADD               	incf	(convert@digits+1)^(0+128),f
  2393  00C1  3000               	movlw	0
  2394  00C2  07DD               	addwf	(convert@digits+1)^(0+128),f
  2395  00C3                     l4094:
  2396                           
  2397                           ;LCD8bits.c: 93:      while(temp!=0)
  2398  00C3  1683               	bsf	3,5	;RP0=1, select bank1
  2399  00C4  1303               	bcf	3,6	;RP1=0, select bank1
  2400  00C5  0851               	movf	convert@temp^(0+128),w
  2401  00C6  0452               	iorwf	(convert@temp+1)^(0+128),w
  2402  00C7  1D03               	btfss	3,2
  2403  00C8  28CA               	goto	u6431
  2404  00C9  28CB               	goto	u6430
  2405  00CA                     u6431:
  2406  00CA  28AA               	goto	l4090
  2407  00CB                     u6430:
  2408  00CB  2A13               	goto	l4118
  2409  00CC                     l4096:
  2410                           
  2411                           ;LCD8bits.c: 99:      {;LCD8bits.c: 100:          if(digits==1)mu=1;
  2412  00CC  035C               	decf	convert@digits^(0+128),w
  2413  00CD  045D               	iorwf	(convert@digits+1)^(0+128),w
  2414  00CE  1D03               	btfss	3,2
  2415  00CF  28D1               	goto	u6441
  2416  00D0  28D2               	goto	u6440
  2417  00D1                     u6441:
  2418  00D1  28D7               	goto	l4100
  2419  00D2                     u6440:
  2420  00D2                     l4098:
  2421  00D2  3001               	movlw	1
  2422  00D3  00DE               	movwf	convert@mu^(0+128)
  2423  00D4  3000               	movlw	0
  2424  00D5  00DF               	movwf	(convert@mu^(0+128)+1)
  2425  00D6  2919               	goto	l4108
  2426  00D7                     l4100:
  2427  00D7  3002               	movlw	2
  2428  00D8  00D3               	movwf	convert@j^(0+128)
  2429  00D9  3000               	movlw	0
  2430  00DA  00D4               	movwf	(convert@j^(0+128)+1)
  2431  00DB  2903               	goto	l4106
  2432  00DC                     l4102:
  2433  00DC  1683               	bsf	3,5	;RP0=1, select bank1
  2434  00DD  1303               	bcf	3,6	;RP1=0, select bank1
  2435  00DE  085F               	movf	(convert@mu+1)^(0+128),w
  2436  00DF  1283               	bcf	3,5	;RP0=0, select bank0
  2437  00E0  1303               	bcf	3,6	;RP1=0, select bank0
  2438  00E1  00A6               	movwf	___wmul@multiplier+1
  2439  00E2  1683               	bsf	3,5	;RP0=1, select bank1
  2440  00E3  1303               	bcf	3,6	;RP1=0, select bank1
  2441  00E4  085E               	movf	convert@mu^(0+128),w
  2442  00E5  1283               	bcf	3,5	;RP0=0, select bank0
  2443  00E6  1303               	bcf	3,6	;RP1=0, select bank0
  2444  00E7  00A5               	movwf	___wmul@multiplier
  2445  00E8  300A               	movlw	10
  2446  00E9  00A7               	movwf	___wmul@multiplicand
  2447  00EA  3000               	movlw	0
  2448  00EB  00A8               	movwf	___wmul@multiplicand+1
  2449  00EC  160A  118A  23C4  120A  118A  	fcall	___wmul
  2450  00F1  1283               	bcf	3,5	;RP0=0, select bank0
  2451  00F2  1303               	bcf	3,6	;RP1=0, select bank0
  2452  00F3  0826               	movf	?___wmul+1,w
  2453  00F4  1683               	bsf	3,5	;RP0=1, select bank1
  2454  00F5  1303               	bcf	3,6	;RP1=0, select bank1
  2455  00F6  00DF               	movwf	(convert@mu+1)^(0+128)
  2456  00F7  1283               	bcf	3,5	;RP0=0, select bank0
  2457  00F8  1303               	bcf	3,6	;RP1=0, select bank0
  2458  00F9  0825               	movf	?___wmul,w
  2459  00FA  1683               	bsf	3,5	;RP0=1, select bank1
  2460  00FB  1303               	bcf	3,6	;RP1=0, select bank1
  2461  00FC  00DE               	movwf	convert@mu^(0+128)
  2462  00FD                     l4104:
  2463  00FD  3001               	movlw	1
  2464  00FE  07D3               	addwf	convert@j^(0+128),f
  2465  00FF  1803               	skipnc
  2466  0100  0AD4               	incf	(convert@j+1)^(0+128),f
  2467  0101  3000               	movlw	0
  2468  0102  07D4               	addwf	(convert@j+1)^(0+128),f
  2469  0103                     l4106:
  2470  0103  085D               	movf	(convert@digits+1)^(0+128),w
  2471  0104  3A80               	xorlw	128
  2472  0105  1283               	bcf	3,5	;RP0=0, select bank0
  2473  0106  1303               	bcf	3,6	;RP1=0, select bank0
  2474  0107  00EB               	movwf	??_convert
  2475  0108  1683               	bsf	3,5	;RP0=1, select bank1
  2476  0109  1303               	bcf	3,6	;RP1=0, select bank1
  2477  010A  0854               	movf	(convert@j+1)^(0+128),w
  2478  010B  3A80               	xorlw	128
  2479  010C  1283               	bcf	3,5	;RP0=0, select bank0
  2480  010D  1303               	bcf	3,6	;RP1=0, select bank0
  2481  010E  026B               	subwf	??_convert,w
  2482  010F  1D03               	skipz
  2483  0110  2915               	goto	u6455
  2484  0111  1683               	bsf	3,5	;RP0=1, select bank1
  2485  0112  1303               	bcf	3,6	;RP1=0, select bank1
  2486  0113  0853               	movf	convert@j^(0+128),w
  2487  0114  025C               	subwf	convert@digits^(0+128),w
  2488  0115                     u6455:
  2489  0115  1803               	skipnc
  2490  0116  2918               	goto	u6451
  2491  0117  2919               	goto	u6450
  2492  0118                     u6451:
  2493  0118  28DC               	goto	l4102
  2494  0119                     u6450:
  2495  0119                     l4108:
  2496                           
  2497                           ;LCD8bits.c: 103:          x=a/mu;
  2498  0119  1683               	bsf	3,5	;RP0=1, select bank1
  2499  011A  1303               	bcf	3,6	;RP1=0, select bank1
  2500  011B  085E               	movf	convert@mu^(0+128),w
  2501  011C  1283               	bcf	3,5	;RP0=0, select bank0
  2502  011D  1303               	bcf	3,6	;RP1=0, select bank0
  2503  011E  00A9               	movwf	___xxtofl@val
  2504  011F  1683               	bsf	3,5	;RP0=1, select bank1
  2505  0120  1303               	bcf	3,6	;RP1=0, select bank1
  2506  0121  085F               	movf	(convert@mu+1)^(0+128),w
  2507  0122  1283               	bcf	3,5	;RP0=0, select bank0
  2508  0123  1303               	bcf	3,6	;RP1=0, select bank0
  2509  0124  00AA               	movwf	___xxtofl@val+1
  2510  0125  3000               	movlw	0
  2511  0126  1BAA               	btfsc	___xxtofl@val+1,7
  2512  0127  30FF               	movlw	255
  2513  0128  00AB               	movwf	___xxtofl@val+2
  2514  0129  00AC               	movwf	___xxtofl@val+3
  2515  012A  3001               	movlw	1
  2516  012B  120A  158A  2086  120A  118A  	fcall	___xxtofl
  2517  0130  1283               	bcf	3,5	;RP0=0, select bank0
  2518  0131  1303               	bcf	3,6	;RP1=0, select bank0
  2519  0132  082C               	movf	?___xxtofl+3,w
  2520  0133  00BA               	movwf	___fldiv@a+3
  2521  0134  082B               	movf	?___xxtofl+2,w
  2522  0135  00B9               	movwf	___fldiv@a+2
  2523  0136  082A               	movf	?___xxtofl+1,w
  2524  0137  00B8               	movwf	___fldiv@a+1
  2525  0138  0829               	movf	?___xxtofl,w
  2526  0139  00B7               	movwf	___fldiv@a
  2527  013A  1683               	bsf	3,5	;RP0=1, select bank1
  2528  013B  1303               	bcf	3,6	;RP1=0, select bank1
  2529  013C  084E               	movf	(convert@a+3)^(0+128),w
  2530  013D  1283               	bcf	3,5	;RP0=0, select bank0
  2531  013E  1303               	bcf	3,6	;RP1=0, select bank0
  2532  013F  00BE               	movwf	___fldiv@b+3
  2533  0140  1683               	bsf	3,5	;RP0=1, select bank1
  2534  0141  1303               	bcf	3,6	;RP1=0, select bank1
  2535  0142  084D               	movf	(convert@a+2)^(0+128),w
  2536  0143  1283               	bcf	3,5	;RP0=0, select bank0
  2537  0144  1303               	bcf	3,6	;RP1=0, select bank0
  2538  0145  00BD               	movwf	___fldiv@b+2
  2539  0146  1683               	bsf	3,5	;RP0=1, select bank1
  2540  0147  1303               	bcf	3,6	;RP1=0, select bank1
  2541  0148  084C               	movf	(convert@a+1)^(0+128),w
  2542  0149  1283               	bcf	3,5	;RP0=0, select bank0
  2543  014A  1303               	bcf	3,6	;RP1=0, select bank0
  2544  014B  00BC               	movwf	___fldiv@b+1
  2545  014C  1683               	bsf	3,5	;RP0=1, select bank1
  2546  014D  1303               	bcf	3,6	;RP1=0, select bank1
  2547  014E  084B               	movf	convert@a^(0+128),w
  2548  014F  1283               	bcf	3,5	;RP0=0, select bank0
  2549  0150  1303               	bcf	3,6	;RP1=0, select bank0
  2550  0151  00BB               	movwf	___fldiv@b
  2551  0152  120A  158A  2142  120A  118A  	fcall	___fldiv
  2552  0157  1283               	bcf	3,5	;RP0=0, select bank0
  2553  0158  1303               	bcf	3,6	;RP1=0, select bank0
  2554  0159  083A               	movf	?___fldiv+3,w
  2555  015A  1683               	bsf	3,5	;RP0=1, select bank1
  2556  015B  1303               	bcf	3,6	;RP1=0, select bank1
  2557  015C  00D9               	movwf	(convert@x+3)^(0+128)
  2558  015D  1283               	bcf	3,5	;RP0=0, select bank0
  2559  015E  1303               	bcf	3,6	;RP1=0, select bank0
  2560  015F  0839               	movf	?___fldiv+2,w
  2561  0160  1683               	bsf	3,5	;RP0=1, select bank1
  2562  0161  1303               	bcf	3,6	;RP1=0, select bank1
  2563  0162  00D8               	movwf	(convert@x+2)^(0+128)
  2564  0163  1283               	bcf	3,5	;RP0=0, select bank0
  2565  0164  1303               	bcf	3,6	;RP1=0, select bank0
  2566  0165  0838               	movf	?___fldiv+1,w
  2567  0166  1683               	bsf	3,5	;RP0=1, select bank1
  2568  0167  1303               	bcf	3,6	;RP1=0, select bank1
  2569  0168  00D7               	movwf	(convert@x+1)^(0+128)
  2570  0169  1283               	bcf	3,5	;RP0=0, select bank0
  2571  016A  1303               	bcf	3,6	;RP1=0, select bank0
  2572  016B  0837               	movf	?___fldiv,w
  2573  016C  1683               	bsf	3,5	;RP0=1, select bank1
  2574  016D  1303               	bcf	3,6	;RP1=0, select bank1
  2575  016E  00D6               	movwf	convert@x^(0+128)
  2576                           
  2577                           ;LCD8bits.c: 104:          a=a-((int)x*mu);
  2578  016F  085F               	movf	(convert@mu+1)^(0+128),w
  2579  0170  1283               	bcf	3,5	;RP0=0, select bank0
  2580  0171  1303               	bcf	3,6	;RP1=0, select bank0
  2581  0172  00A8               	movwf	___wmul@multiplicand+1
  2582  0173  1683               	bsf	3,5	;RP0=1, select bank1
  2583  0174  1303               	bcf	3,6	;RP1=0, select bank1
  2584  0175  085E               	movf	convert@mu^(0+128),w
  2585  0176  1283               	bcf	3,5	;RP0=0, select bank0
  2586  0177  1303               	bcf	3,6	;RP1=0, select bank0
  2587  0178  00A7               	movwf	___wmul@multiplicand
  2588  0179  1683               	bsf	3,5	;RP0=1, select bank1
  2589  017A  1303               	bcf	3,6	;RP1=0, select bank1
  2590  017B  0859               	movf	(convert@x+3)^(0+128),w
  2591  017C  00F5               	movwf	___fltol@f1+3
  2592  017D  0858               	movf	(convert@x+2)^(0+128),w
  2593  017E  00F4               	movwf	___fltol@f1+2
  2594  017F  0857               	movf	(convert@x+1)^(0+128),w
  2595  0180  00F3               	movwf	___fltol@f1+1
  2596  0181  0856               	movf	convert@x^(0+128),w
  2597  0182  00F2               	movwf	___fltol@f1
  2598  0183  120A  158A  200A  120A  118A  	fcall	___fltol
  2599  0188  0873               	movf	?___fltol+1,w
  2600  0189  1283               	bcf	3,5	;RP0=0, select bank0
  2601  018A  1303               	bcf	3,6	;RP1=0, select bank0
  2602  018B  00A6               	movwf	___wmul@multiplier+1
  2603  018C  0872               	movf	?___fltol,w
  2604  018D  00A5               	movwf	___wmul@multiplier
  2605  018E  160A  118A  23C4  120A  118A  	fcall	___wmul
  2606  0193  1283               	bcf	3,5	;RP0=0, select bank0
  2607  0194  1303               	bcf	3,6	;RP1=0, select bank0
  2608  0195  0825               	movf	?___wmul,w
  2609  0196  00A9               	movwf	___xxtofl@val
  2610  0197  0826               	movf	?___wmul+1,w
  2611  0198  00AA               	movwf	___xxtofl@val+1
  2612  0199  3000               	movlw	0
  2613  019A  1BAA               	btfsc	___xxtofl@val+1,7
  2614  019B  30FF               	movlw	255
  2615  019C  00AB               	movwf	___xxtofl@val+2
  2616  019D  00AC               	movwf	___xxtofl@val+3
  2617  019E  3001               	movlw	1
  2618  019F  120A  158A  2086  120A  118A  	fcall	___xxtofl
  2619  01A4  1283               	bcf	3,5	;RP0=0, select bank0
  2620  01A5  1303               	bcf	3,6	;RP1=0, select bank0
  2621  01A6  082C               	movf	?___xxtofl+3,w
  2622  01A7  00BA               	movwf	___flsub@a+3
  2623  01A8  082B               	movf	?___xxtofl+2,w
  2624  01A9  00B9               	movwf	___flsub@a+2
  2625  01AA  082A               	movf	?___xxtofl+1,w
  2626  01AB  00B8               	movwf	___flsub@a+1
  2627  01AC  0829               	movf	?___xxtofl,w
  2628  01AD  00B7               	movwf	___flsub@a
  2629  01AE  1683               	bsf	3,5	;RP0=1, select bank1
  2630  01AF  1303               	bcf	3,6	;RP1=0, select bank1
  2631  01B0  084E               	movf	(convert@a+3)^(0+128),w
  2632  01B1  1283               	bcf	3,5	;RP0=0, select bank0
  2633  01B2  1303               	bcf	3,6	;RP1=0, select bank0
  2634  01B3  00BE               	movwf	___flsub@b+3
  2635  01B4  1683               	bsf	3,5	;RP0=1, select bank1
  2636  01B5  1303               	bcf	3,6	;RP1=0, select bank1
  2637  01B6  084D               	movf	(convert@a+2)^(0+128),w
  2638  01B7  1283               	bcf	3,5	;RP0=0, select bank0
  2639  01B8  1303               	bcf	3,6	;RP1=0, select bank0
  2640  01B9  00BD               	movwf	___flsub@b+2
  2641  01BA  1683               	bsf	3,5	;RP0=1, select bank1
  2642  01BB  1303               	bcf	3,6	;RP1=0, select bank1
  2643  01BC  084C               	movf	(convert@a+1)^(0+128),w
  2644  01BD  1283               	bcf	3,5	;RP0=0, select bank0
  2645  01BE  1303               	bcf	3,6	;RP1=0, select bank0
  2646  01BF  00BC               	movwf	___flsub@b+1
  2647  01C0  1683               	bsf	3,5	;RP0=1, select bank1
  2648  01C1  1303               	bcf	3,6	;RP1=0, select bank1
  2649  01C2  084B               	movf	convert@a^(0+128),w
  2650  01C3  1283               	bcf	3,5	;RP0=0, select bank0
  2651  01C4  1303               	bcf	3,6	;RP1=0, select bank0
  2652  01C5  00BB               	movwf	___flsub@b
  2653  01C6  160A  118A  23A0  120A  118A  	fcall	___flsub
  2654  01CB  1283               	bcf	3,5	;RP0=0, select bank0
  2655  01CC  1303               	bcf	3,6	;RP1=0, select bank0
  2656  01CD  083A               	movf	?___flsub+3,w
  2657  01CE  1683               	bsf	3,5	;RP0=1, select bank1
  2658  01CF  1303               	bcf	3,6	;RP1=0, select bank1
  2659  01D0  00CE               	movwf	(convert@a+3)^(0+128)
  2660  01D1  1283               	bcf	3,5	;RP0=0, select bank0
  2661  01D2  1303               	bcf	3,6	;RP1=0, select bank0
  2662  01D3  0839               	movf	?___flsub+2,w
  2663  01D4  1683               	bsf	3,5	;RP0=1, select bank1
  2664  01D5  1303               	bcf	3,6	;RP1=0, select bank1
  2665  01D6  00CD               	movwf	(convert@a+2)^(0+128)
  2666  01D7  1283               	bcf	3,5	;RP0=0, select bank0
  2667  01D8  1303               	bcf	3,6	;RP1=0, select bank0
  2668  01D9  0838               	movf	?___flsub+1,w
  2669  01DA  1683               	bsf	3,5	;RP0=1, select bank1
  2670  01DB  1303               	bcf	3,6	;RP1=0, select bank1
  2671  01DC  00CC               	movwf	(convert@a+1)^(0+128)
  2672  01DD  1283               	bcf	3,5	;RP0=0, select bank0
  2673  01DE  1303               	bcf	3,6	;RP1=0, select bank0
  2674  01DF  0837               	movf	?___flsub,w
  2675  01E0  1683               	bsf	3,5	;RP0=1, select bank1
  2676  01E1  1303               	bcf	3,6	;RP1=0, select bank1
  2677  01E2  00CB               	movwf	convert@a^(0+128)
  2678  01E3                     l4110:
  2679                           
  2680                           ;LCD8bits.c: 105:          data[i]=0x30+((int)x);
  2681  01E3  0859               	movf	(convert@x+3)^(0+128),w
  2682  01E4  00F5               	movwf	___fltol@f1+3
  2683  01E5  0858               	movf	(convert@x+2)^(0+128),w
  2684  01E6  00F4               	movwf	___fltol@f1+2
  2685  01E7  0857               	movf	(convert@x+1)^(0+128),w
  2686  01E8  00F3               	movwf	___fltol@f1+1
  2687  01E9  0856               	movf	convert@x^(0+128),w
  2688  01EA  00F2               	movwf	___fltol@f1
  2689  01EB  120A  158A  200A  120A  118A  	fcall	___fltol
  2690  01F0  0872               	movf	?___fltol,w
  2691  01F1  3E30               	addlw	48
  2692  01F2  1283               	bcf	3,5	;RP0=0, select bank0
  2693  01F3  1303               	bcf	3,6	;RP1=0, select bank0
  2694  01F4  00EB               	movwf	??_convert
  2695  01F5  1683               	bsf	3,5	;RP0=1, select bank1
  2696  01F6  1303               	bcf	3,6	;RP1=0, select bank1
  2697  01F7  085A               	movf	convert@i^(0+128),w
  2698  01F8  0755               	addwf	convert@data^(0+128),w
  2699  01F9  1283               	bcf	3,5	;RP0=0, select bank0
  2700  01FA  1303               	bcf	3,6	;RP1=0, select bank0
  2701  01FB  00EC               	movwf	??_convert+1
  2702  01FC  086C               	movf	??_convert+1,w
  2703  01FD  0084               	movwf	4
  2704  01FE  086B               	movf	??_convert,w
  2705  01FF  1383               	bcf	3,7	;select IRP bank0
  2706  0200  0080               	movwf	0
  2707  0201                     l4112:
  2708                           
  2709                           ;LCD8bits.c: 106:          i++;
  2710  0201  3001               	movlw	1
  2711  0202  1683               	bsf	3,5	;RP0=1, select bank1
  2712  0203  1303               	bcf	3,6	;RP1=0, select bank1
  2713  0204  07DA               	addwf	convert@i^(0+128),f
  2714  0205  1803               	skipnc
  2715  0206  0ADB               	incf	(convert@i+1)^(0+128),f
  2716  0207  3000               	movlw	0
  2717  0208  07DB               	addwf	(convert@i+1)^(0+128),f
  2718  0209                     l4114:
  2719                           
  2720                           ;LCD8bits.c: 107:          digits--;
  2721  0209  30FF               	movlw	255
  2722  020A  07DC               	addwf	convert@digits^(0+128),f
  2723  020B  1803               	skipnc
  2724  020C  0ADD               	incf	(convert@digits+1)^(0+128),f
  2725  020D  30FF               	movlw	255
  2726  020E  07DD               	addwf	(convert@digits+1)^(0+128),f
  2727  020F                     l4116:
  2728                           
  2729                           ;LCD8bits.c: 108:          mu=1;
  2730  020F  3001               	movlw	1
  2731  0210  00DE               	movwf	convert@mu^(0+128)
  2732  0211  3000               	movlw	0
  2733  0212  00DF               	movwf	(convert@mu^(0+128)+1)
  2734  0213                     l4118:
  2735                           
  2736                           ;LCD8bits.c: 98:      while(digits!=0)
  2737  0213  085C               	movf	convert@digits^(0+128),w
  2738  0214  045D               	iorwf	(convert@digits+1)^(0+128),w
  2739  0215  1D03               	btfss	3,2
  2740  0216  2A18               	goto	u6461
  2741  0217  2A19               	goto	u6460
  2742  0218                     u6461:
  2743  0218  28CC               	goto	l4096
  2744  0219                     u6460:
  2745  0219                     l4120:
  2746                           
  2747                           ;LCD8bits.c: 111:      data[i]='.';
  2748  0219  302E               	movlw	46
  2749  021A  1283               	bcf	3,5	;RP0=0, select bank0
  2750  021B  1303               	bcf	3,6	;RP1=0, select bank0
  2751  021C  00EB               	movwf	??_convert
  2752  021D  1683               	bsf	3,5	;RP0=1, select bank1
  2753  021E  1303               	bcf	3,6	;RP1=0, select bank1
  2754  021F  085A               	movf	convert@i^(0+128),w
  2755  0220  0755               	addwf	convert@data^(0+128),w
  2756  0221  1283               	bcf	3,5	;RP0=0, select bank0
  2757  0222  1303               	bcf	3,6	;RP1=0, select bank0
  2758  0223  00EC               	movwf	??_convert+1
  2759  0224  086C               	movf	??_convert+1,w
  2760  0225  0084               	movwf	4
  2761  0226  086B               	movf	??_convert,w
  2762  0227  1383               	bcf	3,7	;select IRP bank0
  2763  0228  0080               	movwf	0
  2764  0229                     l4122:
  2765                           
  2766                           ;LCD8bits.c: 112:      i++;
  2767  0229  3001               	movlw	1
  2768  022A  1683               	bsf	3,5	;RP0=1, select bank1
  2769  022B  1303               	bcf	3,6	;RP1=0, select bank1
  2770  022C  07DA               	addwf	convert@i^(0+128),f
  2771  022D  1803               	skipnc
  2772  022E  0ADB               	incf	(convert@i+1)^(0+128),f
  2773  022F  3000               	movlw	0
  2774  0230  07DB               	addwf	(convert@i+1)^(0+128),f
  2775  0231                     l4124:
  2776  0231                     l4126:
  2777                           
  2778                           ;LCD8bits.c: 114:      for(j=1;j<=place;j++)mu=mu*10;
  2779  0231  3001               	movlw	1
  2780  0232  00D3               	movwf	convert@j^(0+128)
  2781  0233  3000               	movlw	0
  2782  0234  00D4               	movwf	(convert@j^(0+128)+1)
  2783  0235  2A5D               	goto	l4132
  2784  0236                     l4128:
  2785  0236  1683               	bsf	3,5	;RP0=1, select bank1
  2786  0237  1303               	bcf	3,6	;RP1=0, select bank1
  2787  0238  085F               	movf	(convert@mu+1)^(0+128),w
  2788  0239  1283               	bcf	3,5	;RP0=0, select bank0
  2789  023A  1303               	bcf	3,6	;RP1=0, select bank0
  2790  023B  00A6               	movwf	___wmul@multiplier+1
  2791  023C  1683               	bsf	3,5	;RP0=1, select bank1
  2792  023D  1303               	bcf	3,6	;RP1=0, select bank1
  2793  023E  085E               	movf	convert@mu^(0+128),w
  2794  023F  1283               	bcf	3,5	;RP0=0, select bank0
  2795  0240  1303               	bcf	3,6	;RP1=0, select bank0
  2796  0241  00A5               	movwf	___wmul@multiplier
  2797  0242  300A               	movlw	10
  2798  0243  00A7               	movwf	___wmul@multiplicand
  2799  0244  3000               	movlw	0
  2800  0245  00A8               	movwf	___wmul@multiplicand+1
  2801  0246  160A  118A  23C4  120A  118A  	fcall	___wmul
  2802  024B  1283               	bcf	3,5	;RP0=0, select bank0
  2803  024C  1303               	bcf	3,6	;RP1=0, select bank0
  2804  024D  0826               	movf	?___wmul+1,w
  2805  024E  1683               	bsf	3,5	;RP0=1, select bank1
  2806  024F  1303               	bcf	3,6	;RP1=0, select bank1
  2807  0250  00DF               	movwf	(convert@mu+1)^(0+128)
  2808  0251  1283               	bcf	3,5	;RP0=0, select bank0
  2809  0252  1303               	bcf	3,6	;RP1=0, select bank0
  2810  0253  0825               	movf	?___wmul,w
  2811  0254  1683               	bsf	3,5	;RP0=1, select bank1
  2812  0255  1303               	bcf	3,6	;RP1=0, select bank1
  2813  0256  00DE               	movwf	convert@mu^(0+128)
  2814  0257                     l4130:
  2815  0257  3001               	movlw	1
  2816  0258  07D3               	addwf	convert@j^(0+128),f
  2817  0259  1803               	skipnc
  2818  025A  0AD4               	incf	(convert@j+1)^(0+128),f
  2819  025B  3000               	movlw	0
  2820  025C  07D4               	addwf	(convert@j+1)^(0+128),f
  2821  025D                     l4132:
  2822  025D  0850               	movf	(convert@place+1)^(0+128),w
  2823  025E  3A80               	xorlw	128
  2824  025F  1283               	bcf	3,5	;RP0=0, select bank0
  2825  0260  1303               	bcf	3,6	;RP1=0, select bank0
  2826  0261  00EB               	movwf	??_convert
  2827  0262  1683               	bsf	3,5	;RP0=1, select bank1
  2828  0263  1303               	bcf	3,6	;RP1=0, select bank1
  2829  0264  0854               	movf	(convert@j+1)^(0+128),w
  2830  0265  3A80               	xorlw	128
  2831  0266  1283               	bcf	3,5	;RP0=0, select bank0
  2832  0267  1303               	bcf	3,6	;RP1=0, select bank0
  2833  0268  026B               	subwf	??_convert,w
  2834  0269  1D03               	skipz
  2835  026A  2A6F               	goto	u6475
  2836  026B  1683               	bsf	3,5	;RP0=1, select bank1
  2837  026C  1303               	bcf	3,6	;RP1=0, select bank1
  2838  026D  0853               	movf	convert@j^(0+128),w
  2839  026E  024F               	subwf	convert@place^(0+128),w
  2840  026F                     u6475:
  2841  026F  1803               	skipnc
  2842  0270  2A72               	goto	u6471
  2843  0271  2A73               	goto	u6470
  2844  0272                     u6471:
  2845  0272  2A36               	goto	l4128
  2846  0273                     u6470:
  2847  0273                     l4134:
  2848                           
  2849                           ;LCD8bits.c: 115:      x=(a-(int)a)*mu;
  2850  0273  1683               	bsf	3,5	;RP0=1, select bank1
  2851  0274  1303               	bcf	3,6	;RP1=0, select bank1
  2852  0275  085E               	movf	convert@mu^(0+128),w
  2853  0276  1283               	bcf	3,5	;RP0=0, select bank0
  2854  0277  1303               	bcf	3,6	;RP1=0, select bank0
  2855  0278  00A9               	movwf	___xxtofl@val
  2856  0279  1683               	bsf	3,5	;RP0=1, select bank1
  2857  027A  1303               	bcf	3,6	;RP1=0, select bank1
  2858  027B  085F               	movf	(convert@mu+1)^(0+128),w
  2859  027C  1283               	bcf	3,5	;RP0=0, select bank0
  2860  027D  1303               	bcf	3,6	;RP1=0, select bank0
  2861  027E  00AA               	movwf	___xxtofl@val+1
  2862  027F  3000               	movlw	0
  2863  0280  1BAA               	btfsc	___xxtofl@val+1,7
  2864  0281  30FF               	movlw	255
  2865  0282  00AB               	movwf	___xxtofl@val+2
  2866  0283  00AC               	movwf	___xxtofl@val+3
  2867  0284  3001               	movlw	1
  2868  0285  120A  158A  2086  120A  118A  	fcall	___xxtofl
  2869  028A  1283               	bcf	3,5	;RP0=0, select bank0
  2870  028B  1303               	bcf	3,6	;RP1=0, select bank0
  2871  028C  082C               	movf	?___xxtofl+3,w
  2872  028D  00D4               	movwf	___flmul@b+3
  2873  028E  082B               	movf	?___xxtofl+2,w
  2874  028F  00D3               	movwf	___flmul@b+2
  2875  0290  082A               	movf	?___xxtofl+1,w
  2876  0291  00D2               	movwf	___flmul@b+1
  2877  0292  0829               	movf	?___xxtofl,w
  2878  0293  00D1               	movwf	___flmul@b
  2879  0294  1683               	bsf	3,5	;RP0=1, select bank1
  2880  0295  1303               	bcf	3,6	;RP1=0, select bank1
  2881  0296  084E               	movf	(convert@a+3)^(0+128),w
  2882  0297  00F5               	movwf	___fltol@f1+3
  2883  0298  084D               	movf	(convert@a+2)^(0+128),w
  2884  0299  00F4               	movwf	___fltol@f1+2
  2885  029A  084C               	movf	(convert@a+1)^(0+128),w
  2886  029B  00F3               	movwf	___fltol@f1+1
  2887  029C  084B               	movf	convert@a^(0+128),w
  2888  029D  00F2               	movwf	___fltol@f1
  2889  029E  120A  158A  200A  120A  118A  	fcall	___fltol
  2890  02A3  0872               	movf	?___fltol,w
  2891  02A4  1283               	bcf	3,5	;RP0=0, select bank0
  2892  02A5  1303               	bcf	3,6	;RP1=0, select bank0
  2893  02A6  00A9               	movwf	___xxtofl@val
  2894  02A7  0873               	movf	?___fltol+1,w
  2895  02A8  00AA               	movwf	___xxtofl@val+1
  2896  02A9  3000               	movlw	0
  2897  02AA  1BAA               	btfsc	___xxtofl@val+1,7
  2898  02AB  30FF               	movlw	255
  2899  02AC  00AB               	movwf	___xxtofl@val+2
  2900  02AD  00AC               	movwf	___xxtofl@val+3
  2901  02AE  3001               	movlw	1
  2902  02AF  120A  158A  2086  120A  118A  	fcall	___xxtofl
  2903  02B4  1283               	bcf	3,5	;RP0=0, select bank0
  2904  02B5  1303               	bcf	3,6	;RP1=0, select bank0
  2905  02B6  082C               	movf	?___xxtofl+3,w
  2906  02B7  00BA               	movwf	___flsub@a+3
  2907  02B8  082B               	movf	?___xxtofl+2,w
  2908  02B9  00B9               	movwf	___flsub@a+2
  2909  02BA  082A               	movf	?___xxtofl+1,w
  2910  02BB  00B8               	movwf	___flsub@a+1
  2911  02BC  0829               	movf	?___xxtofl,w
  2912  02BD  00B7               	movwf	___flsub@a
  2913  02BE  1683               	bsf	3,5	;RP0=1, select bank1
  2914  02BF  1303               	bcf	3,6	;RP1=0, select bank1
  2915  02C0  084E               	movf	(convert@a+3)^(0+128),w
  2916  02C1  1283               	bcf	3,5	;RP0=0, select bank0
  2917  02C2  1303               	bcf	3,6	;RP1=0, select bank0
  2918  02C3  00BE               	movwf	___flsub@b+3
  2919  02C4  1683               	bsf	3,5	;RP0=1, select bank1
  2920  02C5  1303               	bcf	3,6	;RP1=0, select bank1
  2921  02C6  084D               	movf	(convert@a+2)^(0+128),w
  2922  02C7  1283               	bcf	3,5	;RP0=0, select bank0
  2923  02C8  1303               	bcf	3,6	;RP1=0, select bank0
  2924  02C9  00BD               	movwf	___flsub@b+2
  2925  02CA  1683               	bsf	3,5	;RP0=1, select bank1
  2926  02CB  1303               	bcf	3,6	;RP1=0, select bank1
  2927  02CC  084C               	movf	(convert@a+1)^(0+128),w
  2928  02CD  1283               	bcf	3,5	;RP0=0, select bank0
  2929  02CE  1303               	bcf	3,6	;RP1=0, select bank0
  2930  02CF  00BC               	movwf	___flsub@b+1
  2931  02D0  1683               	bsf	3,5	;RP0=1, select bank1
  2932  02D1  1303               	bcf	3,6	;RP1=0, select bank1
  2933  02D2  084B               	movf	convert@a^(0+128),w
  2934  02D3  1283               	bcf	3,5	;RP0=0, select bank0
  2935  02D4  1303               	bcf	3,6	;RP1=0, select bank0
  2936  02D5  00BB               	movwf	___flsub@b
  2937  02D6  160A  118A  23A0  120A  118A  	fcall	___flsub
  2938  02DB  1283               	bcf	3,5	;RP0=0, select bank0
  2939  02DC  1303               	bcf	3,6	;RP1=0, select bank0
  2940  02DD  083A               	movf	?___flsub+3,w
  2941  02DE  00D8               	movwf	___flmul@a+3
  2942  02DF  0839               	movf	?___flsub+2,w
  2943  02E0  00D7               	movwf	___flmul@a+2
  2944  02E1  0838               	movf	?___flsub+1,w
  2945  02E2  00D6               	movwf	___flmul@a+1
  2946  02E3  0837               	movf	?___flsub,w
  2947  02E4  00D5               	movwf	___flmul@a
  2948  02E5  120A  118A  2480  120A  118A  	fcall	___flmul
  2949  02EA  1283               	bcf	3,5	;RP0=0, select bank0
  2950  02EB  1303               	bcf	3,6	;RP1=0, select bank0
  2951  02EC  0854               	movf	?___flmul+3,w
  2952  02ED  1683               	bsf	3,5	;RP0=1, select bank1
  2953  02EE  1303               	bcf	3,6	;RP1=0, select bank1
  2954  02EF  00D9               	movwf	(convert@x+3)^(0+128)
  2955  02F0  1283               	bcf	3,5	;RP0=0, select bank0
  2956  02F1  1303               	bcf	3,6	;RP1=0, select bank0
  2957  02F2  0853               	movf	?___flmul+2,w
  2958  02F3  1683               	bsf	3,5	;RP0=1, select bank1
  2959  02F4  1303               	bcf	3,6	;RP1=0, select bank1
  2960  02F5  00D8               	movwf	(convert@x+2)^(0+128)
  2961  02F6  1283               	bcf	3,5	;RP0=0, select bank0
  2962  02F7  1303               	bcf	3,6	;RP1=0, select bank0
  2963  02F8  0852               	movf	?___flmul+1,w
  2964  02F9  1683               	bsf	3,5	;RP0=1, select bank1
  2965  02FA  1303               	bcf	3,6	;RP1=0, select bank1
  2966  02FB  00D7               	movwf	(convert@x+1)^(0+128)
  2967  02FC  1283               	bcf	3,5	;RP0=0, select bank0
  2968  02FD  1303               	bcf	3,6	;RP1=0, select bank0
  2969  02FE  0851               	movf	?___flmul,w
  2970  02FF  1683               	bsf	3,5	;RP0=1, select bank1
  2971  0300  1303               	bcf	3,6	;RP1=0, select bank1
  2972  0301  00D6               	movwf	convert@x^(0+128)
  2973  0302                     l4136:
  2974                           
  2975                           ;LCD8bits.c: 116:      a=x;
  2976  0302  0859               	movf	(convert@x+3)^(0+128),w
  2977  0303  00CE               	movwf	(convert@a+3)^(0+128)
  2978  0304  0858               	movf	(convert@x+2)^(0+128),w
  2979  0305  00CD               	movwf	(convert@a+2)^(0+128)
  2980  0306  0857               	movf	(convert@x+1)^(0+128),w
  2981  0307  00CC               	movwf	(convert@a+1)^(0+128)
  2982  0308  0856               	movf	convert@x^(0+128),w
  2983  0309  00CB               	movwf	convert@a^(0+128)
  2984  030A                     l4138:
  2985  030A  084E               	movf	(convert@a+3)^(0+128),w
  2986  030B  00F5               	movwf	___fltol@f1+3
  2987  030C  084D               	movf	(convert@a+2)^(0+128),w
  2988  030D  00F4               	movwf	___fltol@f1+2
  2989  030E  084C               	movf	(convert@a+1)^(0+128),w
  2990  030F  00F3               	movwf	___fltol@f1+1
  2991  0310  084B               	movf	convert@a^(0+128),w
  2992  0311  00F2               	movwf	___fltol@f1
  2993  0312  120A  158A  200A  120A  118A  	fcall	___fltol
  2994  0317                     l4140:
  2995  0317                     l4142:
  2996                           
  2997                           ;LCD8bits.c: 119:      mu=1;
  2998  0317  3001               	movlw	1
  2999  0318  1683               	bsf	3,5	;RP0=1, select bank1
  3000  0319  1303               	bcf	3,6	;RP1=0, select bank1
  3001  031A  00DE               	movwf	convert@mu^(0+128)
  3002  031B  3000               	movlw	0
  3003  031C  00DF               	movwf	(convert@mu^(0+128)+1)
  3004  031D                     l4144:
  3005                           
  3006                           ;LCD8bits.c: 120:      digits=place;
  3007  031D  0850               	movf	(convert@place+1)^(0+128),w
  3008  031E  00DD               	movwf	(convert@digits+1)^(0+128)
  3009  031F  084F               	movf	convert@place^(0+128),w
  3010  0320  00DC               	movwf	convert@digits^(0+128)
  3011                           
  3012                           ;LCD8bits.c: 121:      while(digits!=0)
  3013  0321  2C69               	goto	l4168
  3014  0322                     l4146:
  3015                           
  3016                           ;LCD8bits.c: 122:      {;LCD8bits.c: 123:          if(digits==1)mu=1;
  3017  0322  035C               	decf	convert@digits^(0+128),w
  3018  0323  045D               	iorwf	(convert@digits+1)^(0+128),w
  3019  0324  1D03               	btfss	3,2
  3020  0325  2B27               	goto	u6481
  3021  0326  2B28               	goto	u6480
  3022  0327                     u6481:
  3023  0327  2B2D               	goto	l4150
  3024  0328                     u6480:
  3025  0328                     l4148:
  3026  0328  3001               	movlw	1
  3027  0329  00DE               	movwf	convert@mu^(0+128)
  3028  032A  3000               	movlw	0
  3029  032B  00DF               	movwf	(convert@mu^(0+128)+1)
  3030  032C  2B6F               	goto	l4158
  3031  032D                     l4150:
  3032  032D  3002               	movlw	2
  3033  032E  00D3               	movwf	convert@j^(0+128)
  3034  032F  3000               	movlw	0
  3035  0330  00D4               	movwf	(convert@j^(0+128)+1)
  3036  0331  2B59               	goto	l4156
  3037  0332                     l4152:
  3038  0332  1683               	bsf	3,5	;RP0=1, select bank1
  3039  0333  1303               	bcf	3,6	;RP1=0, select bank1
  3040  0334  085F               	movf	(convert@mu+1)^(0+128),w
  3041  0335  1283               	bcf	3,5	;RP0=0, select bank0
  3042  0336  1303               	bcf	3,6	;RP1=0, select bank0
  3043  0337  00A6               	movwf	___wmul@multiplier+1
  3044  0338  1683               	bsf	3,5	;RP0=1, select bank1
  3045  0339  1303               	bcf	3,6	;RP1=0, select bank1
  3046  033A  085E               	movf	convert@mu^(0+128),w
  3047  033B  1283               	bcf	3,5	;RP0=0, select bank0
  3048  033C  1303               	bcf	3,6	;RP1=0, select bank0
  3049  033D  00A5               	movwf	___wmul@multiplier
  3050  033E  300A               	movlw	10
  3051  033F  00A7               	movwf	___wmul@multiplicand
  3052  0340  3000               	movlw	0
  3053  0341  00A8               	movwf	___wmul@multiplicand+1
  3054  0342  160A  118A  23C4  120A  118A  	fcall	___wmul
  3055  0347  1283               	bcf	3,5	;RP0=0, select bank0
  3056  0348  1303               	bcf	3,6	;RP1=0, select bank0
  3057  0349  0826               	movf	?___wmul+1,w
  3058  034A  1683               	bsf	3,5	;RP0=1, select bank1
  3059  034B  1303               	bcf	3,6	;RP1=0, select bank1
  3060  034C  00DF               	movwf	(convert@mu+1)^(0+128)
  3061  034D  1283               	bcf	3,5	;RP0=0, select bank0
  3062  034E  1303               	bcf	3,6	;RP1=0, select bank0
  3063  034F  0825               	movf	?___wmul,w
  3064  0350  1683               	bsf	3,5	;RP0=1, select bank1
  3065  0351  1303               	bcf	3,6	;RP1=0, select bank1
  3066  0352  00DE               	movwf	convert@mu^(0+128)
  3067  0353                     l4154:
  3068  0353  3001               	movlw	1
  3069  0354  07D3               	addwf	convert@j^(0+128),f
  3070  0355  1803               	skipnc
  3071  0356  0AD4               	incf	(convert@j+1)^(0+128),f
  3072  0357  3000               	movlw	0
  3073  0358  07D4               	addwf	(convert@j+1)^(0+128),f
  3074  0359                     l4156:
  3075  0359  085D               	movf	(convert@digits+1)^(0+128),w
  3076  035A  3A80               	xorlw	128
  3077  035B  1283               	bcf	3,5	;RP0=0, select bank0
  3078  035C  1303               	bcf	3,6	;RP1=0, select bank0
  3079  035D  00EB               	movwf	??_convert
  3080  035E  1683               	bsf	3,5	;RP0=1, select bank1
  3081  035F  1303               	bcf	3,6	;RP1=0, select bank1
  3082  0360  0854               	movf	(convert@j+1)^(0+128),w
  3083  0361  3A80               	xorlw	128
  3084  0362  1283               	bcf	3,5	;RP0=0, select bank0
  3085  0363  1303               	bcf	3,6	;RP1=0, select bank0
  3086  0364  026B               	subwf	??_convert,w
  3087  0365  1D03               	skipz
  3088  0366  2B6B               	goto	u6495
  3089  0367  1683               	bsf	3,5	;RP0=1, select bank1
  3090  0368  1303               	bcf	3,6	;RP1=0, select bank1
  3091  0369  0853               	movf	convert@j^(0+128),w
  3092  036A  025C               	subwf	convert@digits^(0+128),w
  3093  036B                     u6495:
  3094  036B  1803               	skipnc
  3095  036C  2B6E               	goto	u6491
  3096  036D  2B6F               	goto	u6490
  3097  036E                     u6491:
  3098  036E  2B32               	goto	l4152
  3099  036F                     u6490:
  3100  036F                     l4158:
  3101                           
  3102                           ;LCD8bits.c: 126:          x=a/mu;
  3103  036F  1683               	bsf	3,5	;RP0=1, select bank1
  3104  0370  1303               	bcf	3,6	;RP1=0, select bank1
  3105  0371  085E               	movf	convert@mu^(0+128),w
  3106  0372  1283               	bcf	3,5	;RP0=0, select bank0
  3107  0373  1303               	bcf	3,6	;RP1=0, select bank0
  3108  0374  00A9               	movwf	___xxtofl@val
  3109  0375  1683               	bsf	3,5	;RP0=1, select bank1
  3110  0376  1303               	bcf	3,6	;RP1=0, select bank1
  3111  0377  085F               	movf	(convert@mu+1)^(0+128),w
  3112  0378  1283               	bcf	3,5	;RP0=0, select bank0
  3113  0379  1303               	bcf	3,6	;RP1=0, select bank0
  3114  037A  00AA               	movwf	___xxtofl@val+1
  3115  037B  3000               	movlw	0
  3116  037C  1BAA               	btfsc	___xxtofl@val+1,7
  3117  037D  30FF               	movlw	255
  3118  037E  00AB               	movwf	___xxtofl@val+2
  3119  037F  00AC               	movwf	___xxtofl@val+3
  3120  0380  3001               	movlw	1
  3121  0381  120A  158A  2086  120A  118A  	fcall	___xxtofl
  3122  0386  1283               	bcf	3,5	;RP0=0, select bank0
  3123  0387  1303               	bcf	3,6	;RP1=0, select bank0
  3124  0388  082C               	movf	?___xxtofl+3,w
  3125  0389  00BA               	movwf	___fldiv@a+3
  3126  038A  082B               	movf	?___xxtofl+2,w
  3127  038B  00B9               	movwf	___fldiv@a+2
  3128  038C  082A               	movf	?___xxtofl+1,w
  3129  038D  00B8               	movwf	___fldiv@a+1
  3130  038E  0829               	movf	?___xxtofl,w
  3131  038F  00B7               	movwf	___fldiv@a
  3132  0390  1683               	bsf	3,5	;RP0=1, select bank1
  3133  0391  1303               	bcf	3,6	;RP1=0, select bank1
  3134  0392  084E               	movf	(convert@a+3)^(0+128),w
  3135  0393  1283               	bcf	3,5	;RP0=0, select bank0
  3136  0394  1303               	bcf	3,6	;RP1=0, select bank0
  3137  0395  00BE               	movwf	___fldiv@b+3
  3138  0396  1683               	bsf	3,5	;RP0=1, select bank1
  3139  0397  1303               	bcf	3,6	;RP1=0, select bank1
  3140  0398  084D               	movf	(convert@a+2)^(0+128),w
  3141  0399  1283               	bcf	3,5	;RP0=0, select bank0
  3142  039A  1303               	bcf	3,6	;RP1=0, select bank0
  3143  039B  00BD               	movwf	___fldiv@b+2
  3144  039C  1683               	bsf	3,5	;RP0=1, select bank1
  3145  039D  1303               	bcf	3,6	;RP1=0, select bank1
  3146  039E  084C               	movf	(convert@a+1)^(0+128),w
  3147  039F  1283               	bcf	3,5	;RP0=0, select bank0
  3148  03A0  1303               	bcf	3,6	;RP1=0, select bank0
  3149  03A1  00BC               	movwf	___fldiv@b+1
  3150  03A2  1683               	bsf	3,5	;RP0=1, select bank1
  3151  03A3  1303               	bcf	3,6	;RP1=0, select bank1
  3152  03A4  084B               	movf	convert@a^(0+128),w
  3153  03A5  1283               	bcf	3,5	;RP0=0, select bank0
  3154  03A6  1303               	bcf	3,6	;RP1=0, select bank0
  3155  03A7  00BB               	movwf	___fldiv@b
  3156  03A8  120A  158A  2142  120A  118A  	fcall	___fldiv
  3157  03AD  1283               	bcf	3,5	;RP0=0, select bank0
  3158  03AE  1303               	bcf	3,6	;RP1=0, select bank0
  3159  03AF  083A               	movf	?___fldiv+3,w
  3160  03B0  1683               	bsf	3,5	;RP0=1, select bank1
  3161  03B1  1303               	bcf	3,6	;RP1=0, select bank1
  3162  03B2  00D9               	movwf	(convert@x+3)^(0+128)
  3163  03B3  1283               	bcf	3,5	;RP0=0, select bank0
  3164  03B4  1303               	bcf	3,6	;RP1=0, select bank0
  3165  03B5  0839               	movf	?___fldiv+2,w
  3166  03B6  1683               	bsf	3,5	;RP0=1, select bank1
  3167  03B7  1303               	bcf	3,6	;RP1=0, select bank1
  3168  03B8  00D8               	movwf	(convert@x+2)^(0+128)
  3169  03B9  1283               	bcf	3,5	;RP0=0, select bank0
  3170  03BA  1303               	bcf	3,6	;RP1=0, select bank0
  3171  03BB  0838               	movf	?___fldiv+1,w
  3172  03BC  1683               	bsf	3,5	;RP0=1, select bank1
  3173  03BD  1303               	bcf	3,6	;RP1=0, select bank1
  3174  03BE  00D7               	movwf	(convert@x+1)^(0+128)
  3175  03BF  1283               	bcf	3,5	;RP0=0, select bank0
  3176  03C0  1303               	bcf	3,6	;RP1=0, select bank0
  3177  03C1  0837               	movf	?___fldiv,w
  3178  03C2  1683               	bsf	3,5	;RP0=1, select bank1
  3179  03C3  1303               	bcf	3,6	;RP1=0, select bank1
  3180  03C4  00D6               	movwf	convert@x^(0+128)
  3181                           
  3182                           ;LCD8bits.c: 127:          a=a-((int)x*mu);
  3183  03C5  085F               	movf	(convert@mu+1)^(0+128),w
  3184  03C6  1283               	bcf	3,5	;RP0=0, select bank0
  3185  03C7  1303               	bcf	3,6	;RP1=0, select bank0
  3186  03C8  00A8               	movwf	___wmul@multiplicand+1
  3187  03C9  1683               	bsf	3,5	;RP0=1, select bank1
  3188  03CA  1303               	bcf	3,6	;RP1=0, select bank1
  3189  03CB  085E               	movf	convert@mu^(0+128),w
  3190  03CC  1283               	bcf	3,5	;RP0=0, select bank0
  3191  03CD  1303               	bcf	3,6	;RP1=0, select bank0
  3192  03CE  00A7               	movwf	___wmul@multiplicand
  3193  03CF  1683               	bsf	3,5	;RP0=1, select bank1
  3194  03D0  1303               	bcf	3,6	;RP1=0, select bank1
  3195  03D1  0859               	movf	(convert@x+3)^(0+128),w
  3196  03D2  00F5               	movwf	___fltol@f1+3
  3197  03D3  0858               	movf	(convert@x+2)^(0+128),w
  3198  03D4  00F4               	movwf	___fltol@f1+2
  3199  03D5  0857               	movf	(convert@x+1)^(0+128),w
  3200  03D6  00F3               	movwf	___fltol@f1+1
  3201  03D7  0856               	movf	convert@x^(0+128),w
  3202  03D8  00F2               	movwf	___fltol@f1
  3203  03D9  120A  158A  200A  120A  118A  	fcall	___fltol
  3204  03DE  0873               	movf	?___fltol+1,w
  3205  03DF  1283               	bcf	3,5	;RP0=0, select bank0
  3206  03E0  1303               	bcf	3,6	;RP1=0, select bank0
  3207  03E1  00A6               	movwf	___wmul@multiplier+1
  3208  03E2  0872               	movf	?___fltol,w
  3209  03E3  00A5               	movwf	___wmul@multiplier
  3210  03E4  160A  118A  23C4  120A  118A  	fcall	___wmul
  3211  03E9  1283               	bcf	3,5	;RP0=0, select bank0
  3212  03EA  1303               	bcf	3,6	;RP1=0, select bank0
  3213  03EB  0825               	movf	?___wmul,w
  3214  03EC  00A9               	movwf	___xxtofl@val
  3215  03ED  0826               	movf	?___wmul+1,w
  3216  03EE  00AA               	movwf	___xxtofl@val+1
  3217  03EF  3000               	movlw	0
  3218  03F0  1BAA               	btfsc	___xxtofl@val+1,7
  3219  03F1  30FF               	movlw	255
  3220  03F2  00AB               	movwf	___xxtofl@val+2
  3221  03F3  00AC               	movwf	___xxtofl@val+3
  3222  03F4  3001               	movlw	1
  3223  03F5  120A  158A  2086  120A  118A  	fcall	___xxtofl
  3224  03FA  1283               	bcf	3,5	;RP0=0, select bank0
  3225  03FB  1303               	bcf	3,6	;RP1=0, select bank0
  3226  03FC  082C               	movf	?___xxtofl+3,w
  3227  03FD  00BA               	movwf	___flsub@a+3
  3228  03FE  082B               	movf	?___xxtofl+2,w
  3229  03FF  00B9               	movwf	___flsub@a+2
  3230  0400  082A               	movf	?___xxtofl+1,w
  3231  0401  00B8               	movwf	___flsub@a+1
  3232  0402  0829               	movf	?___xxtofl,w
  3233  0403  00B7               	movwf	___flsub@a
  3234  0404  1683               	bsf	3,5	;RP0=1, select bank1
  3235  0405  1303               	bcf	3,6	;RP1=0, select bank1
  3236  0406  084E               	movf	(convert@a+3)^(0+128),w
  3237  0407  1283               	bcf	3,5	;RP0=0, select bank0
  3238  0408  1303               	bcf	3,6	;RP1=0, select bank0
  3239  0409  00BE               	movwf	___flsub@b+3
  3240  040A  1683               	bsf	3,5	;RP0=1, select bank1
  3241  040B  1303               	bcf	3,6	;RP1=0, select bank1
  3242  040C  084D               	movf	(convert@a+2)^(0+128),w
  3243  040D  1283               	bcf	3,5	;RP0=0, select bank0
  3244  040E  1303               	bcf	3,6	;RP1=0, select bank0
  3245  040F  00BD               	movwf	___flsub@b+2
  3246  0410  1683               	bsf	3,5	;RP0=1, select bank1
  3247  0411  1303               	bcf	3,6	;RP1=0, select bank1
  3248  0412  084C               	movf	(convert@a+1)^(0+128),w
  3249  0413  1283               	bcf	3,5	;RP0=0, select bank0
  3250  0414  1303               	bcf	3,6	;RP1=0, select bank0
  3251  0415  00BC               	movwf	___flsub@b+1
  3252  0416  1683               	bsf	3,5	;RP0=1, select bank1
  3253  0417  1303               	bcf	3,6	;RP1=0, select bank1
  3254  0418  084B               	movf	convert@a^(0+128),w
  3255  0419  1283               	bcf	3,5	;RP0=0, select bank0
  3256  041A  1303               	bcf	3,6	;RP1=0, select bank0
  3257  041B  00BB               	movwf	___flsub@b
  3258  041C  160A  118A  23A0  120A  118A  	fcall	___flsub
  3259  0421  1283               	bcf	3,5	;RP0=0, select bank0
  3260  0422  1303               	bcf	3,6	;RP1=0, select bank0
  3261  0423  083A               	movf	?___flsub+3,w
  3262  0424  1683               	bsf	3,5	;RP0=1, select bank1
  3263  0425  1303               	bcf	3,6	;RP1=0, select bank1
  3264  0426  00CE               	movwf	(convert@a+3)^(0+128)
  3265  0427  1283               	bcf	3,5	;RP0=0, select bank0
  3266  0428  1303               	bcf	3,6	;RP1=0, select bank0
  3267  0429  0839               	movf	?___flsub+2,w
  3268  042A  1683               	bsf	3,5	;RP0=1, select bank1
  3269  042B  1303               	bcf	3,6	;RP1=0, select bank1
  3270  042C  00CD               	movwf	(convert@a+2)^(0+128)
  3271  042D  1283               	bcf	3,5	;RP0=0, select bank0
  3272  042E  1303               	bcf	3,6	;RP1=0, select bank0
  3273  042F  0838               	movf	?___flsub+1,w
  3274  0430  1683               	bsf	3,5	;RP0=1, select bank1
  3275  0431  1303               	bcf	3,6	;RP1=0, select bank1
  3276  0432  00CC               	movwf	(convert@a+1)^(0+128)
  3277  0433  1283               	bcf	3,5	;RP0=0, select bank0
  3278  0434  1303               	bcf	3,6	;RP1=0, select bank0
  3279  0435  0837               	movf	?___flsub,w
  3280  0436  1683               	bsf	3,5	;RP0=1, select bank1
  3281  0437  1303               	bcf	3,6	;RP1=0, select bank1
  3282  0438  00CB               	movwf	convert@a^(0+128)
  3283  0439                     l4160:
  3284                           
  3285                           ;LCD8bits.c: 128:          data[i]=0x30+((int)x);
  3286  0439  0859               	movf	(convert@x+3)^(0+128),w
  3287  043A  00F5               	movwf	___fltol@f1+3
  3288  043B  0858               	movf	(convert@x+2)^(0+128),w
  3289  043C  00F4               	movwf	___fltol@f1+2
  3290  043D  0857               	movf	(convert@x+1)^(0+128),w
  3291  043E  00F3               	movwf	___fltol@f1+1
  3292  043F  0856               	movf	convert@x^(0+128),w
  3293  0440  00F2               	movwf	___fltol@f1
  3294  0441  120A  158A  200A  120A  118A  	fcall	___fltol
  3295  0446  0872               	movf	?___fltol,w
  3296  0447  3E30               	addlw	48
  3297  0448  1283               	bcf	3,5	;RP0=0, select bank0
  3298  0449  1303               	bcf	3,6	;RP1=0, select bank0
  3299  044A  00EB               	movwf	??_convert
  3300  044B  1683               	bsf	3,5	;RP0=1, select bank1
  3301  044C  1303               	bcf	3,6	;RP1=0, select bank1
  3302  044D  085A               	movf	convert@i^(0+128),w
  3303  044E  0755               	addwf	convert@data^(0+128),w
  3304  044F  1283               	bcf	3,5	;RP0=0, select bank0
  3305  0450  1303               	bcf	3,6	;RP1=0, select bank0
  3306  0451  00EC               	movwf	??_convert+1
  3307  0452  086C               	movf	??_convert+1,w
  3308  0453  0084               	movwf	4
  3309  0454  086B               	movf	??_convert,w
  3310  0455  1383               	bcf	3,7	;select IRP bank0
  3311  0456  0080               	movwf	0
  3312  0457                     l4162:
  3313                           
  3314                           ;LCD8bits.c: 129:          i++;
  3315  0457  3001               	movlw	1
  3316  0458  1683               	bsf	3,5	;RP0=1, select bank1
  3317  0459  1303               	bcf	3,6	;RP1=0, select bank1
  3318  045A  07DA               	addwf	convert@i^(0+128),f
  3319  045B  1803               	skipnc
  3320  045C  0ADB               	incf	(convert@i+1)^(0+128),f
  3321  045D  3000               	movlw	0
  3322  045E  07DB               	addwf	(convert@i+1)^(0+128),f
  3323  045F                     l4164:
  3324                           
  3325                           ;LCD8bits.c: 130:          digits--;
  3326  045F  30FF               	movlw	255
  3327  0460  07DC               	addwf	convert@digits^(0+128),f
  3328  0461  1803               	skipnc
  3329  0462  0ADD               	incf	(convert@digits+1)^(0+128),f
  3330  0463  30FF               	movlw	255
  3331  0464  07DD               	addwf	(convert@digits+1)^(0+128),f
  3332  0465                     l4166:
  3333                           
  3334                           ;LCD8bits.c: 131:          mu=1;
  3335  0465  3001               	movlw	1
  3336  0466  00DE               	movwf	convert@mu^(0+128)
  3337  0467  3000               	movlw	0
  3338  0468  00DF               	movwf	(convert@mu^(0+128)+1)
  3339  0469                     l4168:
  3340                           
  3341                           ;LCD8bits.c: 121:      while(digits!=0)
  3342  0469  085C               	movf	convert@digits^(0+128),w
  3343  046A  045D               	iorwf	(convert@digits+1)^(0+128),w
  3344  046B  1D03               	btfss	3,2
  3345  046C  2C6E               	goto	u6501
  3346  046D  2C6F               	goto	u6500
  3347  046E                     u6501:
  3348  046E  2B22               	goto	l4146
  3349  046F                     u6500:
  3350  046F                     l4170:
  3351                           
  3352                           ;LCD8bits.c: 134:     data[i]='\n';
  3353  046F  300A               	movlw	10
  3354  0470  1283               	bcf	3,5	;RP0=0, select bank0
  3355  0471  1303               	bcf	3,6	;RP1=0, select bank0
  3356  0472  00EB               	movwf	??_convert
  3357  0473  1683               	bsf	3,5	;RP0=1, select bank1
  3358  0474  1303               	bcf	3,6	;RP1=0, select bank1
  3359  0475  085A               	movf	convert@i^(0+128),w
  3360  0476  0755               	addwf	convert@data^(0+128),w
  3361  0477  1283               	bcf	3,5	;RP0=0, select bank0
  3362  0478  1303               	bcf	3,6	;RP1=0, select bank0
  3363  0479  00EC               	movwf	??_convert+1
  3364  047A  086C               	movf	??_convert+1,w
  3365  047B  0084               	movwf	4
  3366  047C  086B               	movf	??_convert,w
  3367  047D  1383               	bcf	3,7	;select IRP bank0
  3368  047E  0080               	movwf	0
  3369  047F                     l175:
  3370  047F  0008               	return
  3371  0480                     __end_of_convert:
  3372                           
  3373                           	psect	text5
  3374  0886                     __ptext5:	
  3375 ;; *************** function ___xxtofl *****************
  3376 ;; Defined at:
  3377 ;;		line 10 in file "C:\Program Files\Microchip\xc8\v2.31\pic\sources\c90\common\xxtofl.c"
  3378 ;; Parameters:    Size  Location     Type
  3379 ;;  sign            1    wreg     unsigned char 
  3380 ;;  val             4    9[BANK0 ] long 
  3381 ;; Auto vars:     Size  Location     Type
  3382 ;;  sign            1   17[BANK0 ] unsigned char 
  3383 ;;  arg             4   19[BANK0 ] unsigned long 
  3384 ;;  exp             1   18[BANK0 ] unsigned char 
  3385 ;; Return value:  Size  Location     Type
  3386 ;;                  4    9[BANK0 ] unsigned char 
  3387 ;; Registers used:
  3388 ;;		wreg, status,2, status,0
  3389 ;; Tracked objects:
  3390 ;;		On entry : 0/0
  3391 ;;		On exit  : 0/0
  3392 ;;		Unchanged: 0/0
  3393 ;; Data sizes:     COMMON   BANK0   BANK1   BANK3   BANK2
  3394 ;;      Params:         0       4       0       0       0
  3395 ;;      Locals:         0       6       0       0       0
  3396 ;;      Temps:          0       4       0       0       0
  3397 ;;      Totals:         0      14       0       0       0
  3398 ;;Total ram usage:       14 bytes
  3399 ;; Hardware stack levels used:    1
  3400 ;; Hardware stack levels required when called:    1
  3401 ;; This function calls:
  3402 ;;		Nothing
  3403 ;; This function is called by:
  3404 ;;		_main
  3405 ;;		_convert
  3406 ;; This function uses a non-reentrant model
  3407 ;;
  3408                           
  3409                           
  3410                           ;psect for function ___xxtofl
  3411  0886                     ___xxtofl:
  3412                           
  3413                           ;incstack = 0
  3414                           ; Regs used in ___xxtofl: [wreg+status,2+status,0]
  3415                           ;___xxtofl@sign stored from wreg
  3416  0886  1283               	bcf	3,5	;RP0=0, select bank0
  3417  0887  1303               	bcf	3,6	;RP1=0, select bank0
  3418  0888  00B1               	movwf	___xxtofl@sign
  3419  0889                     l3878:
  3420  0889  0831               	movf	___xxtofl@sign,w
  3421  088A  1903               	btfsc	3,2
  3422  088B  288D               	goto	u6081
  3423  088C  288E               	goto	u6080
  3424  088D                     u6081:
  3425  088D  28A2               	goto	l3884
  3426  088E                     u6080:
  3427  088E                     l3880:
  3428  088E  1FAC               	btfss	___xxtofl@val+3,7
  3429  088F  2891               	goto	u6091
  3430  0890  2892               	goto	u6090
  3431  0891                     u6091:
  3432  0891  28A2               	goto	l3884
  3433  0892                     u6090:
  3434  0892                     l3882:
  3435  0892  0929               	comf	___xxtofl@val,w
  3436  0893  00B3               	movwf	___xxtofl@arg
  3437  0894  092A               	comf	___xxtofl@val+1,w
  3438  0895  00B4               	movwf	___xxtofl@arg+1
  3439  0896  092B               	comf	___xxtofl@val+2,w
  3440  0897  00B5               	movwf	___xxtofl@arg+2
  3441  0898  092C               	comf	___xxtofl@val+3,w
  3442  0899  00B6               	movwf	___xxtofl@arg+3
  3443  089A  0AB3               	incf	___xxtofl@arg,f
  3444  089B  1903               	skipnz
  3445  089C  0AB4               	incf	___xxtofl@arg+1,f
  3446  089D  1903               	skipnz
  3447  089E  0AB5               	incf	___xxtofl@arg+2,f
  3448  089F  1903               	skipnz
  3449  08A0  0AB6               	incf	___xxtofl@arg+3,f
  3450  08A1  28AA               	goto	l773
  3451  08A2                     l3884:
  3452  08A2  082C               	movf	___xxtofl@val+3,w
  3453  08A3  00B6               	movwf	___xxtofl@arg+3
  3454  08A4  082B               	movf	___xxtofl@val+2,w
  3455  08A5  00B5               	movwf	___xxtofl@arg+2
  3456  08A6  082A               	movf	___xxtofl@val+1,w
  3457  08A7  00B4               	movwf	___xxtofl@arg+1
  3458  08A8  0829               	movf	___xxtofl@val,w
  3459  08A9  00B3               	movwf	___xxtofl@arg
  3460  08AA                     l773:
  3461  08AA  082C               	movf	___xxtofl@val+3,w
  3462  08AB  042B               	iorwf	___xxtofl@val+2,w
  3463  08AC  042A               	iorwf	___xxtofl@val+1,w
  3464  08AD  0429               	iorwf	___xxtofl@val,w
  3465  08AE  1D03               	skipz
  3466  08AF  28B1               	goto	u6101
  3467  08B0  28B2               	goto	u6100
  3468  08B1                     u6101:
  3469  08B1  28BB               	goto	l3890
  3470  08B2                     u6100:
  3471  08B2                     l3886:
  3472  08B2  3000               	movlw	0
  3473  08B3  00AC               	movwf	?___xxtofl+3
  3474  08B4  3000               	movlw	0
  3475  08B5  00AB               	movwf	?___xxtofl+2
  3476  08B6  3000               	movlw	0
  3477  08B7  00AA               	movwf	?___xxtofl+1
  3478  08B8  3000               	movlw	0
  3479  08B9  00A9               	movwf	?___xxtofl
  3480  08BA  2941               	goto	l775
  3481  08BB                     l3890:
  3482  08BB  3096               	movlw	150
  3483  08BC  00AD               	movwf	??___xxtofl
  3484  08BD  082D               	movf	??___xxtofl,w
  3485  08BE  00B2               	movwf	___xxtofl@exp
  3486  08BF  28CD               	goto	l3894
  3487  08C0                     l3892:
  3488  08C0  3001               	movlw	1
  3489  08C1  00AD               	movwf	??___xxtofl
  3490  08C2  082D               	movf	??___xxtofl,w
  3491  08C3  07B2               	addwf	___xxtofl@exp,f
  3492  08C4  3001               	movlw	1
  3493  08C5                     u6115:
  3494  08C5  1003               	clrc
  3495  08C6  0CB6               	rrf	___xxtofl@arg+3,f
  3496  08C7  0CB5               	rrf	___xxtofl@arg+2,f
  3497  08C8  0CB4               	rrf	___xxtofl@arg+1,f
  3498  08C9  0CB3               	rrf	___xxtofl@arg,f
  3499  08CA  3EFF               	addlw	-1
  3500  08CB  1D03               	skipz
  3501  08CC  28C5               	goto	u6115
  3502  08CD                     l3894:
  3503  08CD  30FE               	movlw	254
  3504  08CE  0536               	andwf	___xxtofl@arg+3,w
  3505  08CF  1D03               	btfss	3,2
  3506  08D0  28D2               	goto	u6121
  3507  08D1  28D3               	goto	u6120
  3508  08D2                     u6121:
  3509  08D2  28C0               	goto	l3892
  3510  08D3                     u6120:
  3511  08D3  28EF               	goto	l779
  3512  08D4                     l3896:
  3513  08D4  3001               	movlw	1
  3514  08D5  00AD               	movwf	??___xxtofl
  3515  08D6  082D               	movf	??___xxtofl,w
  3516  08D7  07B2               	addwf	___xxtofl@exp,f
  3517  08D8                     l3898:
  3518  08D8  3001               	movlw	1
  3519  08D9  07B3               	addwf	___xxtofl@arg,f
  3520  08DA  3000               	movlw	0
  3521  08DB  1803               	skipnc
  3522  08DC  3001               	movlw	1
  3523  08DD  07B4               	addwf	___xxtofl@arg+1,f
  3524  08DE  3000               	movlw	0
  3525  08DF  1803               	skipnc
  3526  08E0  3001               	movlw	1
  3527  08E1  07B5               	addwf	___xxtofl@arg+2,f
  3528  08E2  3000               	movlw	0
  3529  08E3  1803               	skipnc
  3530  08E4  3001               	movlw	1
  3531  08E5  07B6               	addwf	___xxtofl@arg+3,f
  3532  08E6                     l3900:
  3533  08E6  3001               	movlw	1
  3534  08E7                     u6135:
  3535  08E7  1003               	clrc
  3536  08E8  0CB6               	rrf	___xxtofl@arg+3,f
  3537  08E9  0CB5               	rrf	___xxtofl@arg+2,f
  3538  08EA  0CB4               	rrf	___xxtofl@arg+1,f
  3539  08EB  0CB3               	rrf	___xxtofl@arg,f
  3540  08EC  3EFF               	addlw	-1
  3541  08ED  1D03               	skipz
  3542  08EE  28E7               	goto	u6135
  3543  08EF                     l779:
  3544  08EF  30FF               	movlw	255
  3545  08F0  0536               	andwf	___xxtofl@arg+3,w
  3546  08F1  1D03               	btfss	3,2
  3547  08F2  28F4               	goto	u6141
  3548  08F3  28F5               	goto	u6140
  3549  08F4                     u6141:
  3550  08F4  28D4               	goto	l3896
  3551  08F5                     u6140:
  3552  08F5  2901               	goto	l3904
  3553  08F6                     l3902:
  3554  08F6  3001               	movlw	1
  3555  08F7  02B2               	subwf	___xxtofl@exp,f
  3556  08F8  3001               	movlw	1
  3557  08F9  00AD               	movwf	??___xxtofl
  3558  08FA                     u6155:
  3559  08FA  1003               	clrc
  3560  08FB  0DB3               	rlf	___xxtofl@arg,f
  3561  08FC  0DB4               	rlf	___xxtofl@arg+1,f
  3562  08FD  0DB5               	rlf	___xxtofl@arg+2,f
  3563  08FE  0DB6               	rlf	___xxtofl@arg+3,f
  3564  08FF  0BAD               	decfsz	??___xxtofl,f
  3565  0900  28FA               	goto	u6155
  3566  0901                     l3904:
  3567  0901  1BB5               	btfsc	___xxtofl@arg+2,7
  3568  0902  2904               	goto	u6161
  3569  0903  2905               	goto	u6160
  3570  0904                     u6161:
  3571  0904  290B               	goto	l786
  3572  0905                     u6160:
  3573  0905                     l3906:
  3574  0905  3002               	movlw	2
  3575  0906  0232               	subwf	___xxtofl@exp,w
  3576  0907  1803               	skipnc
  3577  0908  290A               	goto	u6171
  3578  0909  290B               	goto	u6170
  3579  090A                     u6171:
  3580  090A  28F6               	goto	l3902
  3581  090B                     u6170:
  3582  090B                     l786:
  3583  090B  1832               	btfsc	___xxtofl@exp,0
  3584  090C  290E               	goto	u6181
  3585  090D  290F               	goto	u6180
  3586  090E                     u6181:
  3587  090E  2917               	goto	l787
  3588  090F                     u6180:
  3589  090F                     l3908:
  3590  090F  30FF               	movlw	255
  3591  0910  05B3               	andwf	___xxtofl@arg,f
  3592  0911  30FF               	movlw	255
  3593  0912  05B4               	andwf	___xxtofl@arg+1,f
  3594  0913  307F               	movlw	127
  3595  0914  05B5               	andwf	___xxtofl@arg+2,f
  3596  0915  30FF               	movlw	255
  3597  0916  05B6               	andwf	___xxtofl@arg+3,f
  3598  0917                     l787:
  3599  0917  1003               	clrc
  3600  0918  0CB2               	rrf	___xxtofl@exp,f
  3601  0919                     l3910:
  3602  0919  0832               	movf	___xxtofl@exp,w
  3603  091A  00AD               	movwf	??___xxtofl
  3604  091B  01AE               	clrf	??___xxtofl+1
  3605  091C  01AF               	clrf	??___xxtofl+2
  3606  091D  01B0               	clrf	??___xxtofl+3
  3607  091E  3018               	movlw	24
  3608  091F                     u6195:
  3609  091F  1003               	clrc
  3610  0920  0DAD               	rlf	??___xxtofl,f
  3611  0921  0DAE               	rlf	??___xxtofl+1,f
  3612  0922  0DAF               	rlf	??___xxtofl+2,f
  3613  0923  0DB0               	rlf	??___xxtofl+3,f
  3614  0924                     u6190:
  3615  0924  3EFF               	addlw	-1
  3616  0925  1D03               	skipz
  3617  0926  291F               	goto	u6195
  3618  0927  082D               	movf	??___xxtofl,w
  3619  0928  04B3               	iorwf	___xxtofl@arg,f
  3620  0929  082E               	movf	??___xxtofl+1,w
  3621  092A  04B4               	iorwf	___xxtofl@arg+1,f
  3622  092B  082F               	movf	??___xxtofl+2,w
  3623  092C  04B5               	iorwf	___xxtofl@arg+2,f
  3624  092D  0830               	movf	??___xxtofl+3,w
  3625  092E  04B6               	iorwf	___xxtofl@arg+3,f
  3626  092F                     l3912:
  3627  092F  0831               	movf	___xxtofl@sign,w
  3628  0930  1903               	btfsc	3,2
  3629  0931  2933               	goto	u6201
  3630  0932  2934               	goto	u6200
  3631  0933                     u6201:
  3632  0933  2939               	goto	l3918
  3633  0934                     u6200:
  3634  0934                     l3914:
  3635  0934  1FAC               	btfss	___xxtofl@val+3,7
  3636  0935  2937               	goto	u6211
  3637  0936  2938               	goto	u6210
  3638  0937                     u6211:
  3639  0937  2939               	goto	l3918
  3640  0938                     u6210:
  3641  0938                     l3916:
  3642  0938  17B6               	bsf	___xxtofl@arg+3,7
  3643  0939                     l3918:
  3644  0939  0836               	movf	___xxtofl@arg+3,w
  3645  093A  00AC               	movwf	?___xxtofl+3
  3646  093B  0835               	movf	___xxtofl@arg+2,w
  3647  093C  00AB               	movwf	?___xxtofl+2
  3648  093D  0834               	movf	___xxtofl@arg+1,w
  3649  093E  00AA               	movwf	?___xxtofl+1
  3650  093F  0833               	movf	___xxtofl@arg,w
  3651  0940  00A9               	movwf	?___xxtofl
  3652  0941                     l775:
  3653  0941  0008               	return
  3654  0942                     __end_of___xxtofl:
  3655                           
  3656                           	psect	text6
  3657  13C4                     __ptext6:	
  3658 ;; *************** function ___wmul *****************
  3659 ;; Defined at:
  3660 ;;		line 15 in file "C:\Program Files\Microchip\xc8\v2.31\pic\sources\c90\common\Umul16.c"
  3661 ;; Parameters:    Size  Location     Type
  3662 ;;  multiplier      2    5[BANK0 ] unsigned int 
  3663 ;;  multiplicand    2    7[BANK0 ] unsigned int 
  3664 ;; Auto vars:     Size  Location     Type
  3665 ;;  product         2    8[COMMON] unsigned int 
  3666 ;; Return value:  Size  Location     Type
  3667 ;;                  2    5[BANK0 ] unsigned int 
  3668 ;; Registers used:
  3669 ;;		wreg, status,2, status,0
  3670 ;; Tracked objects:
  3671 ;;		On entry : 0/0
  3672 ;;		On exit  : 0/0
  3673 ;;		Unchanged: 0/0
  3674 ;; Data sizes:     COMMON   BANK0   BANK1   BANK3   BANK2
  3675 ;;      Params:         0       4       0       0       0
  3676 ;;      Locals:         2       0       0       0       0
  3677 ;;      Temps:          0       0       0       0       0
  3678 ;;      Totals:         2       4       0       0       0
  3679 ;;Total ram usage:        6 bytes
  3680 ;; Hardware stack levels used:    1
  3681 ;; Hardware stack levels required when called:    1
  3682 ;; This function calls:
  3683 ;;		Nothing
  3684 ;; This function is called by:
  3685 ;;		_convert
  3686 ;; This function uses a non-reentrant model
  3687 ;;
  3688                           
  3689                           
  3690                           ;psect for function ___wmul
  3691  13C4                     ___wmul:
  3692  13C4                     l3400:	
  3693                           ;incstack = 0
  3694                           ; Regs used in ___wmul: [wreg+status,2+status,0]
  3695                           
  3696  13C4  01F8               	clrf	___wmul@product
  3697  13C5  01F9               	clrf	___wmul@product+1
  3698  13C6                     l3402:
  3699  13C6  1283               	bcf	3,5	;RP0=0, select bank0
  3700  13C7  1303               	bcf	3,6	;RP1=0, select bank0
  3701  13C8  1C25               	btfss	___wmul@multiplier,0
  3702  13C9  2BCB               	goto	u4931
  3703  13CA  2BCC               	goto	u4930
  3704  13CB                     u4931:
  3705  13CB  2BD2               	goto	l340
  3706  13CC                     u4930:
  3707  13CC                     l3404:
  3708  13CC  0827               	movf	___wmul@multiplicand,w
  3709  13CD  07F8               	addwf	___wmul@product,f
  3710  13CE  1803               	skipnc
  3711  13CF  0AF9               	incf	___wmul@product+1,f
  3712  13D0  0828               	movf	___wmul@multiplicand+1,w
  3713  13D1  07F9               	addwf	___wmul@product+1,f
  3714  13D2                     l340:
  3715  13D2  3001               	movlw	1
  3716  13D3                     u4945:
  3717  13D3  1003               	clrc
  3718  13D4  0DA7               	rlf	___wmul@multiplicand,f
  3719  13D5  0DA8               	rlf	___wmul@multiplicand+1,f
  3720  13D6  3EFF               	addlw	-1
  3721  13D7  1D03               	skipz
  3722  13D8  2BD3               	goto	u4945
  3723  13D9                     l3406:
  3724  13D9  3001               	movlw	1
  3725  13DA                     u4955:
  3726  13DA  1003               	clrc
  3727  13DB  0CA6               	rrf	___wmul@multiplier+1,f
  3728  13DC  0CA5               	rrf	___wmul@multiplier,f
  3729  13DD  3EFF               	addlw	-1
  3730  13DE  1D03               	skipz
  3731  13DF  2BDA               	goto	u4955
  3732  13E0                     l3408:
  3733  13E0  0825               	movf	___wmul@multiplier,w
  3734  13E1  0426               	iorwf	___wmul@multiplier+1,w
  3735  13E2  1D03               	btfss	3,2
  3736  13E3  2BE5               	goto	u4961
  3737  13E4  2BE6               	goto	u4960
  3738  13E5                     u4961:
  3739  13E5  2BC6               	goto	l3402
  3740  13E6                     u4960:
  3741  13E6                     l3410:
  3742  13E6  0879               	movf	___wmul@product+1,w
  3743  13E7  00A6               	movwf	?___wmul+1
  3744  13E8  0878               	movf	___wmul@product,w
  3745  13E9  00A5               	movwf	?___wmul
  3746  13EA                     l342:
  3747  13EA  0008               	return
  3748  13EB                     __end_of___wmul:
  3749                           
  3750                           	psect	text7
  3751  080A                     __ptext7:	
  3752 ;; *************** function ___fltol *****************
  3753 ;; Defined at:
  3754 ;;		line 43 in file "C:\Program Files\Microchip\xc8\v2.31\pic\sources\c90\common\fltol.c"
  3755 ;; Parameters:    Size  Location     Type
  3756 ;;  f1              4    2[COMMON] unsigned int 
  3757 ;; Auto vars:     Size  Location     Type
  3758 ;;  exp1            1    7[COMMON] unsigned char 
  3759 ;;  sign1           1    6[COMMON] unsigned char 
  3760 ;; Return value:  Size  Location     Type
  3761 ;;                  4    2[COMMON] long 
  3762 ;; Registers used:
  3763 ;;		wreg, status,2, status,0
  3764 ;; Tracked objects:
  3765 ;;		On entry : 0/0
  3766 ;;		On exit  : 0/0
  3767 ;;		Unchanged: 0/0
  3768 ;; Data sizes:     COMMON   BANK0   BANK1   BANK3   BANK2
  3769 ;;      Params:         4       0       0       0       0
  3770 ;;      Locals:         2       0       0       0       0
  3771 ;;      Temps:          0       5       0       0       0
  3772 ;;      Totals:         6       5       0       0       0
  3773 ;;Total ram usage:       11 bytes
  3774 ;; Hardware stack levels used:    1
  3775 ;; Hardware stack levels required when called:    1
  3776 ;; This function calls:
  3777 ;;		Nothing
  3778 ;; This function is called by:
  3779 ;;		_convert
  3780 ;; This function uses a non-reentrant model
  3781 ;;
  3782                           
  3783                           
  3784                           ;psect for function ___fltol
  3785  080A                     ___fltol:
  3786  080A                     l3554:	
  3787                           ;incstack = 0
  3788                           ; Regs used in ___fltol: [wreg+status,2+status,0]
  3789                           
  3790  080A  1003               	clrc
  3791  080B  0D74               	rlf	___fltol@f1+2,w
  3792  080C  0D75               	rlf	___fltol@f1+3,w
  3793  080D  1283               	bcf	3,5	;RP0=0, select bank0
  3794  080E  1303               	bcf	3,6	;RP1=0, select bank0
  3795  080F  00A0               	movwf	??___fltol
  3796  0810  0820               	movf	??___fltol,w
  3797  0811  00F7               	movwf	___fltol@exp1
  3798  0812  0877               	movf	___fltol@exp1,w
  3799  0813  1D03               	btfss	3,2
  3800  0814  2816               	goto	u5321
  3801  0815  2817               	goto	u5320
  3802  0816                     u5321:
  3803  0816  2820               	goto	l3560
  3804  0817                     u5320:
  3805  0817                     l3556:
  3806  0817  3000               	movlw	0
  3807  0818  00F5               	movwf	?___fltol+3
  3808  0819  3000               	movlw	0
  3809  081A  00F4               	movwf	?___fltol+2
  3810  081B  3000               	movlw	0
  3811  081C  00F3               	movwf	?___fltol+1
  3812  081D  3000               	movlw	0
  3813  081E  00F2               	movwf	?___fltol
  3814  081F  2885               	goto	l526
  3815  0820                     l3560:
  3816  0820  0872               	movf	___fltol@f1,w
  3817  0821  00A0               	movwf	??___fltol
  3818  0822  0873               	movf	___fltol@f1+1,w
  3819  0823  00A1               	movwf	??___fltol+1
  3820  0824  0874               	movf	___fltol@f1+2,w
  3821  0825  00A2               	movwf	??___fltol+2
  3822  0826  0875               	movf	___fltol@f1+3,w
  3823  0827  00A3               	movwf	??___fltol+3
  3824  0828  301F               	movlw	31
  3825  0829                     u5335:
  3826  0829  1003               	clrc
  3827  082A  0CA3               	rrf	??___fltol+3,f
  3828  082B  0CA2               	rrf	??___fltol+2,f
  3829  082C  0CA1               	rrf	??___fltol+1,f
  3830  082D  0CA0               	rrf	??___fltol,f
  3831  082E                     u5330:
  3832  082E  3EFF               	addlw	-1
  3833  082F  1D03               	skipz
  3834  0830  2829               	goto	u5335
  3835  0831  0820               	movf	??___fltol,w
  3836  0832  00A4               	movwf	??___fltol+4
  3837  0833  0824               	movf	??___fltol+4,w
  3838  0834  00F6               	movwf	___fltol@sign1
  3839  0835                     l3562:
  3840  0835  17F4               	bsf	___fltol@f1+2,7
  3841  0836                     l3564:
  3842  0836  30FF               	movlw	255
  3843  0837  05F2               	andwf	___fltol@f1,f
  3844  0838  30FF               	movlw	255
  3845  0839  05F3               	andwf	___fltol@f1+1,f
  3846  083A  30FF               	movlw	255
  3847  083B  05F4               	andwf	___fltol@f1+2,f
  3848  083C  3000               	movlw	0
  3849  083D  05F5               	andwf	___fltol@f1+3,f
  3850  083E                     l3566:
  3851  083E  3096               	movlw	150
  3852  083F  02F7               	subwf	___fltol@exp1,f
  3853  0840                     l3568:
  3854  0840  1FF7               	btfss	___fltol@exp1,7
  3855  0841  2843               	goto	u5341
  3856  0842  2844               	goto	u5340
  3857  0843                     u5341:
  3858  0843  285E               	goto	l3578
  3859  0844                     u5340:
  3860  0844                     l3570:
  3861  0844  0877               	movf	___fltol@exp1,w
  3862  0845  3A80               	xorlw	128
  3863  0846  3E97               	addlw	151
  3864  0847  1803               	skipnc
  3865  0848  284A               	goto	u5351
  3866  0849  284B               	goto	u5350
  3867  084A                     u5351:
  3868  084A  284C               	goto	l3576
  3869  084B                     u5350:
  3870  084B  2817               	goto	l3556
  3871  084C                     l3576:
  3872  084C  3001               	movlw	1
  3873  084D                     u5365:
  3874  084D  1003               	clrc
  3875  084E  0CF5               	rrf	___fltol@f1+3,f
  3876  084F  0CF4               	rrf	___fltol@f1+2,f
  3877  0850  0CF3               	rrf	___fltol@f1+1,f
  3878  0851  0CF2               	rrf	___fltol@f1,f
  3879  0852  3EFF               	addlw	-1
  3880  0853  1D03               	skipz
  3881  0854  284D               	goto	u5365
  3882  0855  3001               	movlw	1
  3883  0856  00A0               	movwf	??___fltol
  3884  0857  0820               	movf	??___fltol,w
  3885  0858  07F7               	addwf	___fltol@exp1,f
  3886  0859  1D03               	btfss	3,2
  3887  085A  285C               	goto	u5371
  3888  085B  285D               	goto	u5370
  3889  085C                     u5371:
  3890  085C  284C               	goto	l3576
  3891  085D                     u5370:
  3892  085D  2875               	goto	l3586
  3893  085E                     l3578:
  3894  085E  3020               	movlw	32
  3895  085F  0277               	subwf	___fltol@exp1,w
  3896  0860  1C03               	skipc
  3897  0861  2863               	goto	u5381
  3898  0862  2864               	goto	u5380
  3899  0863                     u5381:
  3900  0863  2870               	goto	l533
  3901  0864                     u5380:
  3902  0864  2817               	goto	l3556
  3903  0865                     l3584:
  3904  0865  3001               	movlw	1
  3905  0866  00A0               	movwf	??___fltol
  3906  0867                     u5395:
  3907  0867  1003               	clrc
  3908  0868  0DF2               	rlf	___fltol@f1,f
  3909  0869  0DF3               	rlf	___fltol@f1+1,f
  3910  086A  0DF4               	rlf	___fltol@f1+2,f
  3911  086B  0DF5               	rlf	___fltol@f1+3,f
  3912  086C  0BA0               	decfsz	??___fltol,f
  3913  086D  2867               	goto	u5395
  3914  086E  3001               	movlw	1
  3915  086F  02F7               	subwf	___fltol@exp1,f
  3916  0870                     l533:
  3917  0870  0877               	movf	___fltol@exp1,w
  3918  0871  1D03               	btfss	3,2
  3919  0872  2874               	goto	u5401
  3920  0873  2875               	goto	u5400
  3921  0874                     u5401:
  3922  0874  2865               	goto	l3584
  3923  0875                     u5400:
  3924  0875                     l3586:
  3925  0875  0876               	movf	___fltol@sign1,w
  3926  0876  1903               	btfsc	3,2
  3927  0877  2879               	goto	u5411
  3928  0878  287A               	goto	u5410
  3929  0879                     u5411:
  3930  0879  2885               	goto	l536
  3931  087A                     u5410:
  3932  087A                     l3588:
  3933  087A  09F2               	comf	___fltol@f1,f
  3934  087B  09F3               	comf	___fltol@f1+1,f
  3935  087C  09F4               	comf	___fltol@f1+2,f
  3936  087D  09F5               	comf	___fltol@f1+3,f
  3937  087E  0AF2               	incf	___fltol@f1,f
  3938  087F  1903               	skipnz
  3939  0880  0AF3               	incf	___fltol@f1+1,f
  3940  0881  1903               	skipnz
  3941  0882  0AF4               	incf	___fltol@f1+2,f
  3942  0883  1903               	skipnz
  3943  0884  0AF5               	incf	___fltol@f1+3,f
  3944  0885                     l536:
  3945  0885                     l526:
  3946  0885  0008               	return
  3947  0886                     __end_of___fltol:
  3948                           
  3949                           	psect	text8
  3950  13A0                     __ptext8:	
  3951 ;; *************** function ___flsub *****************
  3952 ;; Defined at:
  3953 ;;		line 242 in file "C:\Program Files\Microchip\xc8\v2.31\pic\sources\c90\common\sprcadd.c"
  3954 ;; Parameters:    Size  Location     Type
  3955 ;;  a               4   23[BANK0 ] long 
  3956 ;;  b               4   27[BANK0 ] long 
  3957 ;; Auto vars:     Size  Location     Type
  3958 ;;		None
  3959 ;; Return value:  Size  Location     Type
  3960 ;;                  4   23[BANK0 ] long 
  3961 ;; Registers used:
  3962 ;;		wreg, status,2, status,0, btemp+1, pclath, cstack
  3963 ;; Tracked objects:
  3964 ;;		On entry : 0/0
  3965 ;;		On exit  : 0/0
  3966 ;;		Unchanged: 0/0
  3967 ;; Data sizes:     COMMON   BANK0   BANK1   BANK3   BANK2
  3968 ;;      Params:         0       8       0       0       0
  3969 ;;      Locals:         0       0       0       0       0
  3970 ;;      Temps:          0       0       0       0       0
  3971 ;;      Totals:         0       8       0       0       0
  3972 ;;Total ram usage:        8 bytes
  3973 ;; Hardware stack levels used:    1
  3974 ;; Hardware stack levels required when called:    2
  3975 ;; This function calls:
  3976 ;;		___fladd
  3977 ;; This function is called by:
  3978 ;;		_convert
  3979 ;; This function uses a non-reentrant model
  3980 ;;
  3981                           
  3982                           
  3983                           ;psect for function ___flsub
  3984  13A0                     ___flsub:
  3985  13A0                     l3590:	
  3986                           ;incstack = 0
  3987                           ; Regs used in ___flsub: [wreg+status,2+status,0+btemp+1+pclath+cstack]
  3988                           
  3989  13A0  3080               	movlw	128
  3990  13A1  1283               	bcf	3,5	;RP0=0, select bank0
  3991  13A2  1303               	bcf	3,6	;RP1=0, select bank0
  3992  13A3  06BA               	xorwf	___flsub@a+3,f
  3993  13A4                     l3592:
  3994  13A4  083E               	movf	___flsub@b+3,w
  3995  13A5  00F5               	movwf	___fladd@b+3
  3996  13A6  083D               	movf	___flsub@b+2,w
  3997  13A7  00F4               	movwf	___fladd@b+2
  3998  13A8  083C               	movf	___flsub@b+1,w
  3999  13A9  00F3               	movwf	___fladd@b+1
  4000  13AA  083B               	movf	___flsub@b,w
  4001  13AB  00F2               	movwf	___fladd@b
  4002  13AC  083A               	movf	___flsub@a+3,w
  4003  13AD  00F9               	movwf	___fladd@a+3
  4004  13AE  0839               	movf	___flsub@a+2,w
  4005  13AF  00F8               	movwf	___fladd@a+2
  4006  13B0  0838               	movf	___flsub@a+1,w
  4007  13B1  00F7               	movwf	___fladd@a+1
  4008  13B2  0837               	movf	___flsub@a,w
  4009  13B3  00F6               	movwf	___fladd@a
  4010  13B4  120A  158A  2578  160A  118A  	fcall	___fladd
  4011  13B9  0875               	movf	?___fladd+3,w
  4012  13BA  1283               	bcf	3,5	;RP0=0, select bank0
  4013  13BB  1303               	bcf	3,6	;RP1=0, select bank0
  4014  13BC  00BA               	movwf	?___flsub+3
  4015  13BD  0874               	movf	?___fladd+2,w
  4016  13BE  00B9               	movwf	?___flsub+2
  4017  13BF  0873               	movf	?___fladd+1,w
  4018  13C0  00B8               	movwf	?___flsub+1
  4019  13C1  0872               	movf	?___fladd,w
  4020  13C2  00B7               	movwf	?___flsub
  4021  13C3                     l679:
  4022  13C3  0008               	return
  4023  13C4                     __end_of___flsub:
  4024                           
  4025                           	psect	text9
  4026  0D78                     __ptext9:	
  4027 ;; *************** function ___fladd *****************
  4028 ;; Defined at:
  4029 ;;		line 10 in file "C:\Program Files\Microchip\xc8\v2.31\pic\sources\c90\common\sprcadd.c"
  4030 ;; Parameters:    Size  Location     Type
  4031 ;;  b               4    2[COMMON] long 
  4032 ;;  a               4    6[COMMON] long 
  4033 ;; Auto vars:     Size  Location     Type
  4034 ;;  grs             1   11[BANK0 ] unsigned char 
  4035 ;;  bexp            1   10[BANK0 ] unsigned char 
  4036 ;;  aexp            1    9[BANK0 ] unsigned char 
  4037 ;;  signs           1    8[BANK0 ] unsigned char 
  4038 ;; Return value:  Size  Location     Type
  4039 ;;                  4    2[COMMON] unsigned char 
  4040 ;; Registers used:
  4041 ;;		wreg, status,2, status,0, btemp+1
  4042 ;; Tracked objects:
  4043 ;;		On entry : 0/0
  4044 ;;		On exit  : 0/0
  4045 ;;		Unchanged: 0/0
  4046 ;; Data sizes:     COMMON   BANK0   BANK1   BANK3   BANK2
  4047 ;;      Params:         8       0       0       0       0
  4048 ;;      Locals:         0       4       0       0       0
  4049 ;;      Temps:          0       8       0       0       0
  4050 ;;      Totals:         8      12       0       0       0
  4051 ;;Total ram usage:       20 bytes
  4052 ;; Hardware stack levels used:    1
  4053 ;; Hardware stack levels required when called:    1
  4054 ;; This function calls:
  4055 ;;		Nothing
  4056 ;; This function is called by:
  4057 ;;		___flsub
  4058 ;; This function uses a non-reentrant model
  4059 ;;
  4060                           
  4061                           
  4062                           ;psect for function ___fladd
  4063  0D78                     ___fladd:
  4064  0D78                     l3164:	
  4065                           ;incstack = 0
  4066                           ; Regs used in ___fladd: [wreg+status,2+status,0+btemp+1]
  4067                           
  4068  0D78  0875               	movf	___fladd@b+3,w
  4069  0D79  3980               	andlw	128
  4070  0D7A  1283               	bcf	3,5	;RP0=0, select bank0
  4071  0D7B  1303               	bcf	3,6	;RP1=0, select bank0
  4072  0D7C  00A0               	movwf	??___fladd
  4073  0D7D  0820               	movf	??___fladd,w
  4074  0D7E  00A8               	movwf	___fladd@signs
  4075  0D7F                     l3166:
  4076  0D7F  0875               	movf	___fladd@b+3,w
  4077  0D80  00A0               	movwf	??___fladd
  4078  0D81  0720               	addwf	??___fladd,w
  4079  0D82  00A1               	movwf	??___fladd+1
  4080  0D83  0821               	movf	??___fladd+1,w
  4081  0D84  00AA               	movwf	___fladd@bexp
  4082  0D85                     l3168:
  4083  0D85  1FF4               	btfss	___fladd@b+2,7
  4084  0D86  2D88               	goto	u4431
  4085  0D87  2D89               	goto	u4430
  4086  0D88                     u4431:
  4087  0D88  2D8A               	goto	l3172
  4088  0D89                     u4430:
  4089  0D89                     l3170:
  4090  0D89  142A               	bsf	___fladd@bexp,0
  4091  0D8A                     l3172:
  4092  0D8A  082A               	movf	___fladd@bexp,w
  4093  0D8B  1903               	btfsc	3,2
  4094  0D8C  2D8E               	goto	u4441
  4095  0D8D  2D8F               	goto	u4440
  4096  0D8E                     u4441:
  4097  0D8E  2D9F               	goto	l3182
  4098  0D8F                     u4440:
  4099  0D8F                     l3174:
  4100  0D8F  0A2A               	incf	___fladd@bexp,w
  4101  0D90  1D03               	btfss	3,2
  4102  0D91  2D93               	goto	u4451
  4103  0D92  2D94               	goto	u4450
  4104  0D93                     u4451:
  4105  0D93  2D9C               	goto	l3178
  4106  0D94                     u4450:
  4107  0D94                     l3176:
  4108  0D94  3000               	movlw	0
  4109  0D95  00F5               	movwf	___fladd@b+3
  4110  0D96  3000               	movlw	0
  4111  0D97  00F4               	movwf	___fladd@b+2
  4112  0D98  3000               	movlw	0
  4113  0D99  00F3               	movwf	___fladd@b+1
  4114  0D9A  3000               	movlw	0
  4115  0D9B  00F2               	movwf	___fladd@b
  4116  0D9C                     l3178:
  4117  0D9C  17F4               	bsf	___fladd@b+2,7
  4118  0D9D                     l3180:
  4119  0D9D  01F5               	clrf	___fladd@b+3
  4120  0D9E  2DA7               	goto	l3184
  4121  0D9F                     l3182:
  4122  0D9F  3000               	movlw	0
  4123  0DA0  00F5               	movwf	___fladd@b+3
  4124  0DA1  3000               	movlw	0
  4125  0DA2  00F4               	movwf	___fladd@b+2
  4126  0DA3  3000               	movlw	0
  4127  0DA4  00F3               	movwf	___fladd@b+1
  4128  0DA5  3000               	movlw	0
  4129  0DA6  00F2               	movwf	___fladd@b
  4130  0DA7                     l3184:
  4131  0DA7  0879               	movf	___fladd@a+3,w
  4132  0DA8  3980               	andlw	128
  4133  0DA9  00A0               	movwf	??___fladd
  4134  0DAA  0820               	movf	??___fladd,w
  4135  0DAB  00A9               	movwf	___fladd@aexp
  4136  0DAC                     l3186:
  4137  0DAC  0829               	movf	___fladd@aexp,w
  4138  0DAD  0628               	xorwf	___fladd@signs,w
  4139  0DAE  1903               	skipnz
  4140  0DAF  2DB1               	goto	u4461
  4141  0DB0  2DB2               	goto	u4460
  4142  0DB1                     u4461:
  4143  0DB1  2DB3               	goto	l3190
  4144  0DB2                     u4460:
  4145  0DB2                     l3188:
  4146  0DB2  1728               	bsf	___fladd@signs,6
  4147  0DB3                     l3190:
  4148  0DB3  0879               	movf	___fladd@a+3,w
  4149  0DB4  00A0               	movwf	??___fladd
  4150  0DB5  0720               	addwf	??___fladd,w
  4151  0DB6  00A1               	movwf	??___fladd+1
  4152  0DB7  0821               	movf	??___fladd+1,w
  4153  0DB8  00A9               	movwf	___fladd@aexp
  4154  0DB9                     l3192:
  4155  0DB9  1FF8               	btfss	___fladd@a+2,7
  4156  0DBA  2DBC               	goto	u4471
  4157  0DBB  2DBD               	goto	u4470
  4158  0DBC                     u4471:
  4159  0DBC  2DBE               	goto	l3196
  4160  0DBD                     u4470:
  4161  0DBD                     l3194:
  4162  0DBD  1429               	bsf	___fladd@aexp,0
  4163  0DBE                     l3196:
  4164  0DBE  0829               	movf	___fladd@aexp,w
  4165  0DBF  1903               	btfsc	3,2
  4166  0DC0  2DC2               	goto	u4481
  4167  0DC1  2DC3               	goto	u4480
  4168  0DC2                     u4481:
  4169  0DC2  2DD3               	goto	l3206
  4170  0DC3                     u4480:
  4171  0DC3                     l3198:
  4172  0DC3  0A29               	incf	___fladd@aexp,w
  4173  0DC4  1D03               	btfss	3,2
  4174  0DC5  2DC7               	goto	u4491
  4175  0DC6  2DC8               	goto	u4490
  4176  0DC7                     u4491:
  4177  0DC7  2DD0               	goto	l3202
  4178  0DC8                     u4490:
  4179  0DC8                     l3200:
  4180  0DC8  3000               	movlw	0
  4181  0DC9  00F9               	movwf	___fladd@a+3
  4182  0DCA  3000               	movlw	0
  4183  0DCB  00F8               	movwf	___fladd@a+2
  4184  0DCC  3000               	movlw	0
  4185  0DCD  00F7               	movwf	___fladd@a+1
  4186  0DCE  3000               	movlw	0
  4187  0DCF  00F6               	movwf	___fladd@a
  4188  0DD0                     l3202:
  4189  0DD0  17F8               	bsf	___fladd@a+2,7
  4190  0DD1                     l3204:
  4191  0DD1  01F9               	clrf	___fladd@a+3
  4192  0DD2  2DDB               	goto	l633
  4193  0DD3                     l3206:
  4194  0DD3  3000               	movlw	0
  4195  0DD4  00F9               	movwf	___fladd@a+3
  4196  0DD5  3000               	movlw	0
  4197  0DD6  00F8               	movwf	___fladd@a+2
  4198  0DD7  3000               	movlw	0
  4199  0DD8  00F7               	movwf	___fladd@a+1
  4200  0DD9  3000               	movlw	0
  4201  0DDA  00F6               	movwf	___fladd@a
  4202  0DDB                     l633:
  4203  0DDB  082A               	movf	___fladd@bexp,w
  4204  0DDC  0229               	subwf	___fladd@aexp,w
  4205  0DDD  1803               	skipnc
  4206  0DDE  2DE0               	goto	u4501
  4207  0DDF  2DE1               	goto	u4500
  4208  0DE0                     u4501:
  4209  0DE0  2E25               	goto	l3242
  4210  0DE1                     u4500:
  4211  0DE1                     l3208:
  4212  0DE1  1F28               	btfss	___fladd@signs,6
  4213  0DE2  2DE4               	goto	u4511
  4214  0DE3  2DE5               	goto	u4510
  4215  0DE4                     u4511:
  4216  0DE4  2DE9               	goto	l3212
  4217  0DE5                     u4510:
  4218  0DE5                     l3210:
  4219  0DE5  3080               	movlw	128
  4220  0DE6  00A0               	movwf	??___fladd
  4221  0DE7  0820               	movf	??___fladd,w
  4222  0DE8  06A8               	xorwf	___fladd@signs,f
  4223  0DE9                     l3212:
  4224  0DE9  082A               	movf	___fladd@bexp,w
  4225  0DEA  00A0               	movwf	??___fladd
  4226  0DEB  0820               	movf	??___fladd,w
  4227  0DEC  00AB               	movwf	___fladd@grs
  4228  0DED                     l3214:
  4229  0DED  0829               	movf	___fladd@aexp,w
  4230  0DEE  00A0               	movwf	??___fladd
  4231  0DEF  0820               	movf	??___fladd,w
  4232  0DF0  00AA               	movwf	___fladd@bexp
  4233  0DF1                     l3216:
  4234  0DF1  082B               	movf	___fladd@grs,w
  4235  0DF2  00A0               	movwf	??___fladd
  4236  0DF3  0820               	movf	??___fladd,w
  4237  0DF4  00A9               	movwf	___fladd@aexp
  4238  0DF5                     l3218:
  4239  0DF5  0872               	movf	___fladd@b,w
  4240  0DF6  00A0               	movwf	??___fladd
  4241  0DF7  0820               	movf	??___fladd,w
  4242  0DF8  00AB               	movwf	___fladd@grs
  4243  0DF9                     l3220:
  4244  0DF9  0876               	movf	___fladd@a,w
  4245  0DFA  00A0               	movwf	??___fladd
  4246  0DFB  0820               	movf	??___fladd,w
  4247  0DFC  00F2               	movwf	___fladd@b
  4248  0DFD                     l3222:
  4249  0DFD  082B               	movf	___fladd@grs,w
  4250  0DFE  00A0               	movwf	??___fladd
  4251  0DFF  0820               	movf	??___fladd,w
  4252  0E00  00F6               	movwf	___fladd@a
  4253  0E01                     l3224:
  4254  0E01  0873               	movf	___fladd@b+1,w
  4255  0E02  00A0               	movwf	??___fladd
  4256  0E03  0820               	movf	??___fladd,w
  4257  0E04  00AB               	movwf	___fladd@grs
  4258  0E05                     l3226:
  4259  0E05  0877               	movf	___fladd@a+1,w
  4260  0E06  00A0               	movwf	??___fladd
  4261  0E07  0820               	movf	??___fladd,w
  4262  0E08  00F3               	movwf	___fladd@b+1
  4263  0E09                     l3228:
  4264  0E09  082B               	movf	___fladd@grs,w
  4265  0E0A  00A0               	movwf	??___fladd
  4266  0E0B  0820               	movf	??___fladd,w
  4267  0E0C  00F7               	movwf	___fladd@a+1
  4268  0E0D                     l3230:
  4269  0E0D  0874               	movf	___fladd@b+2,w
  4270  0E0E  00A0               	movwf	??___fladd
  4271  0E0F  0820               	movf	??___fladd,w
  4272  0E10  00AB               	movwf	___fladd@grs
  4273  0E11                     l3232:
  4274  0E11  0878               	movf	___fladd@a+2,w
  4275  0E12  00A0               	movwf	??___fladd
  4276  0E13  0820               	movf	??___fladd,w
  4277  0E14  00F4               	movwf	___fladd@b+2
  4278  0E15                     l3234:
  4279  0E15  082B               	movf	___fladd@grs,w
  4280  0E16  00A0               	movwf	??___fladd
  4281  0E17  0820               	movf	??___fladd,w
  4282  0E18  00F8               	movwf	___fladd@a+2
  4283  0E19                     l3236:
  4284  0E19  0875               	movf	___fladd@b+3,w
  4285  0E1A  00A0               	movwf	??___fladd
  4286  0E1B  0820               	movf	??___fladd,w
  4287  0E1C  00AB               	movwf	___fladd@grs
  4288  0E1D                     l3238:
  4289  0E1D  0879               	movf	___fladd@a+3,w
  4290  0E1E  00A0               	movwf	??___fladd
  4291  0E1F  0820               	movf	??___fladd,w
  4292  0E20  00F5               	movwf	___fladd@b+3
  4293  0E21                     l3240:
  4294  0E21  082B               	movf	___fladd@grs,w
  4295  0E22  00A0               	movwf	??___fladd
  4296  0E23  0820               	movf	??___fladd,w
  4297  0E24  00F9               	movwf	___fladd@a+3
  4298  0E25                     l3242:
  4299  0E25  01AB               	clrf	___fladd@grs
  4300  0E26                     l3244:
  4301  0E26  0829               	movf	___fladd@aexp,w
  4302  0E27  00A0               	movwf	??___fladd
  4303  0E28  01A1               	clrf	??___fladd+1
  4304  0E29  0821               	movf	??___fladd+1,w
  4305  0E2A  00A3               	movwf	??___fladd+3
  4306  0E2B  082A               	movf	___fladd@bexp,w
  4307  0E2C  0220               	subwf	??___fladd,w
  4308  0E2D  00A2               	movwf	??___fladd+2
  4309  0E2E  1C03               	skipc
  4310  0E2F  03A3               	decf	??___fladd+3,f
  4311  0E30  0823               	movf	??___fladd+3,w
  4312  0E31  3A80               	xorlw	128
  4313  0E32  00FF               	movwf	btemp+1
  4314  0E33  3080               	movlw	128
  4315  0E34  027F               	subwf	btemp+1,w
  4316  0E35  1D03               	skipz
  4317  0E36  2E39               	goto	u4525
  4318  0E37  301A               	movlw	26
  4319  0E38  0222               	subwf	??___fladd+2,w
  4320  0E39                     u4525:
  4321  0E39  1C03               	skipc
  4322  0E3A  2E3C               	goto	u4521
  4323  0E3B  2E3D               	goto	u4520
  4324  0E3C                     u4521:
  4325  0E3C  2E7A               	goto	l3260
  4326  0E3D                     u4520:
  4327  0E3D                     l3246:
  4328  0E3D  0875               	movf	___fladd@b+3,w
  4329  0E3E  0474               	iorwf	___fladd@b+2,w
  4330  0E3F  0473               	iorwf	___fladd@b+1,w
  4331  0E40  0472               	iorwf	___fladd@b,w
  4332  0E41  1D03               	skipz
  4333  0E42  2E44               	goto	u4531
  4334  0E43  2E46               	goto	u4530
  4335  0E44                     u4531:
  4336  0E44  3001               	movlw	1
  4337  0E45  2E47               	goto	u4540
  4338  0E46                     u4530:
  4339  0E46  3000               	movlw	0
  4340  0E47                     u4540:
  4341  0E47  1283               	bcf	3,5	;RP0=0, select bank0
  4342  0E48  1303               	bcf	3,6	;RP1=0, select bank0
  4343  0E49  00A0               	movwf	??___fladd
  4344  0E4A  0820               	movf	??___fladd,w
  4345  0E4B  00AB               	movwf	___fladd@grs
  4346  0E4C  3000               	movlw	0
  4347  0E4D  00F5               	movwf	___fladd@b+3
  4348  0E4E  3000               	movlw	0
  4349  0E4F  00F4               	movwf	___fladd@b+2
  4350  0E50  3000               	movlw	0
  4351  0E51  00F3               	movwf	___fladd@b+1
  4352  0E52  3000               	movlw	0
  4353  0E53  00F2               	movwf	___fladd@b
  4354  0E54  0829               	movf	___fladd@aexp,w
  4355  0E55  00A0               	movwf	??___fladd
  4356  0E56  0820               	movf	??___fladd,w
  4357  0E57  00AA               	movwf	___fladd@bexp
  4358  0E58  2E82               	goto	l637
  4359  0E59                     l639:
  4360  0E59  1C2B               	btfss	___fladd@grs,0
  4361  0E5A  2E5C               	goto	u4551
  4362  0E5B  2E5D               	goto	u4550
  4363  0E5C                     u4551:
  4364  0E5C  2E66               	goto	l3250
  4365  0E5D                     u4550:
  4366  0E5D                     l3248:
  4367  0E5D  082B               	movf	___fladd@grs,w
  4368  0E5E  00A0               	movwf	??___fladd
  4369  0E5F  1003               	clrc
  4370  0E60  0C20               	rrf	??___fladd,w
  4371  0E61  3801               	iorlw	1
  4372  0E62  00A1               	movwf	??___fladd+1
  4373  0E63  0821               	movf	??___fladd+1,w
  4374  0E64  00AB               	movwf	___fladd@grs
  4375  0E65  2E68               	goto	l3252
  4376  0E66                     l3250:
  4377  0E66  1003               	clrc
  4378  0E67  0CAB               	rrf	___fladd@grs,f
  4379  0E68                     l3252:
  4380  0E68  1C72               	btfss	___fladd@b,0
  4381  0E69  2E6B               	goto	u4561
  4382  0E6A  2E6C               	goto	u4560
  4383  0E6B                     u4561:
  4384  0E6B  2E6D               	goto	l3256
  4385  0E6C                     u4560:
  4386  0E6C                     l3254:
  4387  0E6C  17AB               	bsf	___fladd@grs,7
  4388  0E6D                     l3256:
  4389  0E6D  3001               	movlw	1
  4390  0E6E  00A0               	movwf	??___fladd
  4391  0E6F                     u4575:
  4392  0E6F  0D75               	rlf	___fladd@b+3,w
  4393  0E70  0CF5               	rrf	___fladd@b+3,f
  4394  0E71  0CF4               	rrf	___fladd@b+2,f
  4395  0E72  0CF3               	rrf	___fladd@b+1,f
  4396  0E73  0CF2               	rrf	___fladd@b,f
  4397  0E74  0BA0               	decfsz	??___fladd& (0+127),f
  4398  0E75  2E6F               	goto	u4575
  4399  0E76                     l3258:
  4400  0E76  3001               	movlw	1
  4401  0E77  00A0               	movwf	??___fladd
  4402  0E78  0820               	movf	??___fladd,w
  4403  0E79  07AA               	addwf	___fladd@bexp,f
  4404  0E7A                     l3260:
  4405  0E7A  1283               	bcf	3,5	;RP0=0, select bank0
  4406  0E7B  1303               	bcf	3,6	;RP1=0, select bank0
  4407  0E7C  0829               	movf	___fladd@aexp,w
  4408  0E7D  022A               	subwf	___fladd@bexp,w
  4409  0E7E  1C03               	skipc
  4410  0E7F  2E81               	goto	u4581
  4411  0E80  2E82               	goto	u4580
  4412  0E81                     u4581:
  4413  0E81  2E59               	goto	l639
  4414  0E82                     u4580:
  4415  0E82                     l637:
  4416  0E82  1B28               	btfsc	___fladd@signs,6
  4417  0E83  2E85               	goto	u4591
  4418  0E84  2E86               	goto	u4590
  4419  0E85                     u4591:
  4420  0E85  2ED1               	goto	l3286
  4421  0E86                     u4590:
  4422  0E86                     l3262:
  4423  0E86  082A               	movf	___fladd@bexp,w
  4424  0E87  1D03               	btfss	3,2
  4425  0E88  2E8A               	goto	u4601
  4426  0E89  2E8B               	goto	u4600
  4427  0E8A                     u4601:
  4428  0E8A  2E94               	goto	l3268
  4429  0E8B                     u4600:
  4430  0E8B                     l3264:
  4431  0E8B  3000               	movlw	0
  4432  0E8C  00F5               	movwf	?___fladd+3
  4433  0E8D  3000               	movlw	0
  4434  0E8E  00F4               	movwf	?___fladd+2
  4435  0E8F  3000               	movlw	0
  4436  0E90  00F3               	movwf	?___fladd+1
  4437  0E91  3000               	movlw	0
  4438  0E92  00F2               	movwf	?___fladd
  4439  0E93  2FFF               	goto	l646
  4440  0E94                     l3268:
  4441  0E94  0876               	movf	___fladd@a,w
  4442  0E95  07F2               	addwf	___fladd@b,f
  4443  0E96  0877               	movf	___fladd@a+1,w
  4444  0E97  1103               	clrz
  4445  0E98  1803               	skipnc
  4446  0E99  3E01               	addlw	1
  4447  0E9A  1903               	skipnz
  4448  0E9B  2E9D               	goto	u4611
  4449  0E9C  07F3               	addwf	___fladd@b+1,f
  4450  0E9D                     u4611:
  4451  0E9D  0878               	movf	___fladd@a+2,w
  4452  0E9E  1103               	clrz
  4453  0E9F  1803               	skipnc
  4454  0EA0  3E01               	addlw	1
  4455  0EA1  1903               	skipnz
  4456  0EA2  2EA4               	goto	u4612
  4457  0EA3  07F4               	addwf	___fladd@b+2,f
  4458  0EA4                     u4612:
  4459  0EA4  0879               	movf	___fladd@a+3,w
  4460  0EA5  1103               	clrz
  4461  0EA6  1803               	skipnc
  4462  0EA7  3E01               	addlw	1
  4463  0EA8  1903               	skipnz
  4464  0EA9  2EAB               	goto	u4613
  4465  0EAA  07F5               	addwf	___fladd@b+3,f
  4466  0EAB                     u4613:
  4467  0EAB                     l3270:
  4468  0EAB  1C75               	btfss	___fladd@b+3,0
  4469  0EAC  2EAE               	goto	u4621
  4470  0EAD  2EAF               	goto	u4620
  4471  0EAE                     u4621:
  4472  0EAE  2F85               	goto	l3320
  4473  0EAF                     u4620:
  4474  0EAF                     l3272:
  4475  0EAF  1C2B               	btfss	___fladd@grs,0
  4476  0EB0  2EB2               	goto	u4631
  4477  0EB1  2EB3               	goto	u4630
  4478  0EB2                     u4631:
  4479  0EB2  2EBC               	goto	l3276
  4480  0EB3                     u4630:
  4481  0EB3                     l3274:
  4482  0EB3  082B               	movf	___fladd@grs,w
  4483  0EB4  00A0               	movwf	??___fladd
  4484  0EB5  1003               	clrc
  4485  0EB6  0C20               	rrf	??___fladd,w
  4486  0EB7  3801               	iorlw	1
  4487  0EB8  00A1               	movwf	??___fladd+1
  4488  0EB9  0821               	movf	??___fladd+1,w
  4489  0EBA  00AB               	movwf	___fladd@grs
  4490  0EBB  2EBE               	goto	l3278
  4491  0EBC                     l3276:
  4492  0EBC  1003               	clrc
  4493  0EBD  0CAB               	rrf	___fladd@grs,f
  4494  0EBE                     l3278:
  4495  0EBE  1C72               	btfss	___fladd@b,0
  4496  0EBF  2EC1               	goto	u4641
  4497  0EC0  2EC2               	goto	u4640
  4498  0EC1                     u4641:
  4499  0EC1  2EC3               	goto	l3282
  4500  0EC2                     u4640:
  4501  0EC2                     l3280:
  4502  0EC2  17AB               	bsf	___fladd@grs,7
  4503  0EC3                     l3282:
  4504  0EC3  3001               	movlw	1
  4505  0EC4  00A0               	movwf	??___fladd
  4506  0EC5                     u4655:
  4507  0EC5  0D75               	rlf	___fladd@b+3,w
  4508  0EC6  0CF5               	rrf	___fladd@b+3,f
  4509  0EC7  0CF4               	rrf	___fladd@b+2,f
  4510  0EC8  0CF3               	rrf	___fladd@b+1,f
  4511  0EC9  0CF2               	rrf	___fladd@b,f
  4512  0ECA  0BA0               	decfsz	??___fladd& (0+127),f
  4513  0ECB  2EC5               	goto	u4655
  4514  0ECC                     l3284:
  4515  0ECC  3001               	movlw	1
  4516  0ECD  00A0               	movwf	??___fladd
  4517  0ECE  0820               	movf	??___fladd,w
  4518  0ECF  07AA               	addwf	___fladd@bexp,f
  4519  0ED0  2F85               	goto	l3320
  4520  0ED1                     l3286:
  4521  0ED1  0875               	movf	___fladd@b+3,w
  4522  0ED2  3A80               	xorlw	128
  4523  0ED3  00FF               	movwf	btemp+1
  4524  0ED4  0879               	movf	___fladd@a+3,w
  4525  0ED5  3A80               	xorlw	128
  4526  0ED6  027F               	subwf	btemp+1,w
  4527  0ED7  1D03               	skipz
  4528  0ED8  2EE3               	goto	u4663
  4529  0ED9  0878               	movf	___fladd@a+2,w
  4530  0EDA  0274               	subwf	___fladd@b+2,w
  4531  0EDB  1D03               	skipz
  4532  0EDC  2EE3               	goto	u4663
  4533  0EDD  0877               	movf	___fladd@a+1,w
  4534  0EDE  0273               	subwf	___fladd@b+1,w
  4535  0EDF  1D03               	skipz
  4536  0EE0  2EE3               	goto	u4663
  4537  0EE1  0876               	movf	___fladd@a,w
  4538  0EE2  0272               	subwf	___fladd@b,w
  4539  0EE3                     u4663:
  4540  0EE3  1803               	skipnc
  4541  0EE4  2EE6               	goto	u4661
  4542  0EE5  2EE7               	goto	u4660
  4543  0EE6                     u4661:
  4544  0EE6  2F3F               	goto	l3296
  4545  0EE7                     u4660:
  4546  0EE7                     l3288:
  4547  0EE7  30FF               	movlw	255
  4548  0EE8  00A0               	movwf	??___fladd
  4549  0EE9  30FF               	movlw	255
  4550  0EEA  00A1               	movwf	??___fladd+1
  4551  0EEB  30FF               	movlw	255
  4552  0EEC  00A2               	movwf	??___fladd+2
  4553  0EED  30FF               	movlw	255
  4554  0EEE  00A3               	movwf	??___fladd+3
  4555  0EEF  0876               	movf	___fladd@a,w
  4556  0EF0  00A4               	movwf	??___fladd+4
  4557  0EF1  0877               	movf	___fladd@a+1,w
  4558  0EF2  00A5               	movwf	??___fladd+5
  4559  0EF3  0878               	movf	___fladd@a+2,w
  4560  0EF4  00A6               	movwf	??___fladd+6
  4561  0EF5  0879               	movf	___fladd@a+3,w
  4562  0EF6  00A7               	movwf	??___fladd+7
  4563  0EF7  0872               	movf	___fladd@b,w
  4564  0EF8  02A4               	subwf	??___fladd+4,f
  4565  0EF9  0873               	movf	___fladd@b+1,w
  4566  0EFA  1C03               	skipc
  4567  0EFB  0F73               	incfsz	___fladd@b+1,w
  4568  0EFC  2EFE               	goto	u4671
  4569  0EFD  2EFF               	goto	u4672
  4570  0EFE                     u4671:
  4571  0EFE  02A5               	subwf	??___fladd+5,f
  4572  0EFF                     u4672:
  4573  0EFF  0874               	movf	___fladd@b+2,w
  4574  0F00  1C03               	skipc
  4575  0F01  0F74               	incfsz	___fladd@b+2,w
  4576  0F02  2F04               	goto	u4673
  4577  0F03  2F05               	goto	u4674
  4578  0F04                     u4673:
  4579  0F04  02A6               	subwf	??___fladd+6,f
  4580  0F05                     u4674:
  4581  0F05  0875               	movf	___fladd@b+3,w
  4582  0F06  1C03               	skipc
  4583  0F07  0F75               	incfsz	___fladd@b+3,w
  4584  0F08  2F0A               	goto	u4675
  4585  0F09  2F0B               	goto	u4676
  4586  0F0A                     u4675:
  4587  0F0A  02A7               	subwf	??___fladd+7,f
  4588  0F0B                     u4676:
  4589  0F0B  0824               	movf	??___fladd+4,w
  4590  0F0C  07A0               	addwf	??___fladd,f
  4591  0F0D  0825               	movf	??___fladd+5,w
  4592  0F0E  1803               	skipnc
  4593  0F0F  0F25               	incfsz	??___fladd+5,w
  4594  0F10  2F12               	goto	u4680
  4595  0F11  2F13               	goto	u4681
  4596  0F12                     u4680:
  4597  0F12  07A1               	addwf	??___fladd+1,f
  4598  0F13                     u4681:
  4599  0F13  0826               	movf	??___fladd+6,w
  4600  0F14  1803               	skipnc
  4601  0F15  0F26               	incfsz	??___fladd+6,w
  4602  0F16  2F18               	goto	u4682
  4603  0F17  2F19               	goto	u4683
  4604  0F18                     u4682:
  4605  0F18  07A2               	addwf	??___fladd+2,f
  4606  0F19                     u4683:
  4607  0F19  0827               	movf	??___fladd+7,w
  4608  0F1A  1803               	skipnc
  4609  0F1B  0A27               	incf	??___fladd+7,w
  4610  0F1C  07A3               	addwf	??___fladd+3,f
  4611  0F1D  0823               	movf	??___fladd+3,w
  4612  0F1E  00F5               	movwf	___fladd@b+3
  4613  0F1F  0822               	movf	??___fladd+2,w
  4614  0F20  00F4               	movwf	___fladd@b+2
  4615  0F21  0821               	movf	??___fladd+1,w
  4616  0F22  00F3               	movwf	___fladd@b+1
  4617  0F23  0820               	movf	??___fladd,w
  4618  0F24  00F2               	movwf	___fladd@b
  4619  0F25                     l3290:
  4620  0F25  3080               	movlw	128
  4621  0F26  00A0               	movwf	??___fladd
  4622  0F27  0820               	movf	??___fladd,w
  4623  0F28  06A8               	xorwf	___fladd@signs,f
  4624  0F29  09AB               	comf	___fladd@grs,f
  4625  0F2A  0AAB               	incf	___fladd@grs,f
  4626  0F2B                     l3292:
  4627  0F2B  082B               	movf	___fladd@grs,w
  4628  0F2C  1D03               	btfss	3,2
  4629  0F2D  2F2F               	goto	u4691
  4630  0F2E  2F30               	goto	u4690
  4631  0F2F                     u4691:
  4632  0F2F  2F4D               	goto	l654
  4633  0F30                     u4690:
  4634  0F30                     l3294:
  4635  0F30  3001               	movlw	1
  4636  0F31  07F2               	addwf	___fladd@b,f
  4637  0F32  3000               	movlw	0
  4638  0F33  1803               	skipnc
  4639  0F34  3001               	movlw	1
  4640  0F35  07F3               	addwf	___fladd@b+1,f
  4641  0F36  3000               	movlw	0
  4642  0F37  1803               	skipnc
  4643  0F38  3001               	movlw	1
  4644  0F39  07F4               	addwf	___fladd@b+2,f
  4645  0F3A  3000               	movlw	0
  4646  0F3B  1803               	skipnc
  4647  0F3C  3001               	movlw	1
  4648  0F3D  07F5               	addwf	___fladd@b+3,f
  4649  0F3E  2F4D               	goto	l654
  4650  0F3F                     l3296:
  4651  0F3F  0876               	movf	___fladd@a,w
  4652  0F40  02F2               	subwf	___fladd@b,f
  4653  0F41  0877               	movf	___fladd@a+1,w
  4654  0F42  1C03               	skipc
  4655  0F43  0F77               	incfsz	___fladd@a+1,w
  4656  0F44  02F3               	subwf	___fladd@b+1,f
  4657  0F45  0878               	movf	___fladd@a+2,w
  4658  0F46  1C03               	skipc
  4659  0F47  0F78               	incfsz	___fladd@a+2,w
  4660  0F48  02F4               	subwf	___fladd@b+2,f
  4661  0F49  0879               	movf	___fladd@a+3,w
  4662  0F4A  1C03               	skipc
  4663  0F4B  0F79               	incfsz	___fladd@a+3,w
  4664  0F4C  02F5               	subwf	___fladd@b+3,f
  4665  0F4D                     l654:
  4666  0F4D  0875               	movf	___fladd@b+3,w
  4667  0F4E  0474               	iorwf	___fladd@b+2,w
  4668  0F4F  0473               	iorwf	___fladd@b+1,w
  4669  0F50  0472               	iorwf	___fladd@b,w
  4670  0F51  1D03               	skipz
  4671  0F52  2F54               	goto	u4701
  4672  0F53  2F55               	goto	u4700
  4673  0F54                     u4701:
  4674  0F54  2F81               	goto	l3318
  4675  0F55                     u4700:
  4676  0F55                     l3298:
  4677  0F55  082B               	movf	___fladd@grs,w
  4678  0F56  1D03               	btfss	3,2
  4679  0F57  2F59               	goto	u4711
  4680  0F58  2F5A               	goto	u4710
  4681  0F59                     u4711:
  4682  0F59  2F81               	goto	l3318
  4683  0F5A                     u4710:
  4684  0F5A                     l3300:
  4685  0F5A  3000               	movlw	0
  4686  0F5B  00F5               	movwf	?___fladd+3
  4687  0F5C  3000               	movlw	0
  4688  0F5D  00F4               	movwf	?___fladd+2
  4689  0F5E  3000               	movlw	0
  4690  0F5F  00F3               	movwf	?___fladd+1
  4691  0F60  3000               	movlw	0
  4692  0F61  00F2               	movwf	?___fladd
  4693  0F62  2FFF               	goto	l646
  4694  0F63                     l3304:
  4695  0F63  3001               	movlw	1
  4696  0F64  00A0               	movwf	??___fladd
  4697  0F65                     u4725:
  4698  0F65  1003               	clrc
  4699  0F66  0DF2               	rlf	___fladd@b,f
  4700  0F67  0DF3               	rlf	___fladd@b+1,f
  4701  0F68  0DF4               	rlf	___fladd@b+2,f
  4702  0F69  0DF5               	rlf	___fladd@b+3,f
  4703  0F6A  0BA0               	decfsz	??___fladd,f
  4704  0F6B  2F65               	goto	u4725
  4705  0F6C                     l3306:
  4706  0F6C  1FAB               	btfss	___fladd@grs,7
  4707  0F6D  2F6F               	goto	u4731
  4708  0F6E  2F70               	goto	u4730
  4709  0F6F                     u4731:
  4710  0F6F  2F71               	goto	l658
  4711  0F70                     u4730:
  4712  0F70                     l3308:
  4713  0F70  1472               	bsf	___fladd@b,0
  4714  0F71                     l658:
  4715  0F71  1C2B               	btfss	___fladd@grs,0
  4716  0F72  2F74               	goto	u4741
  4717  0F73  2F75               	goto	u4740
  4718  0F74                     u4741:
  4719  0F74  2F78               	goto	l3312
  4720  0F75                     u4740:
  4721  0F75                     l3310:
  4722  0F75  1403               	setc
  4723  0F76  0DAB               	rlf	___fladd@grs,f
  4724  0F77  2F7A               	goto	l3314
  4725  0F78                     l3312:
  4726  0F78  1003               	clrc
  4727  0F79  0DAB               	rlf	___fladd@grs,f
  4728  0F7A                     l3314:
  4729  0F7A  082A               	movf	___fladd@bexp,w
  4730  0F7B  1903               	btfsc	3,2
  4731  0F7C  2F7E               	goto	u4751
  4732  0F7D  2F7F               	goto	u4750
  4733  0F7E                     u4751:
  4734  0F7E  2F81               	goto	l3318
  4735  0F7F                     u4750:
  4736  0F7F                     l3316:
  4737  0F7F  3001               	movlw	1
  4738  0F80  02AA               	subwf	___fladd@bexp,f
  4739  0F81                     l3318:
  4740  0F81  1FF4               	btfss	___fladd@b+2,7
  4741  0F82  2F84               	goto	u4761
  4742  0F83  2F85               	goto	u4760
  4743  0F84                     u4761:
  4744  0F84  2F63               	goto	l3304
  4745  0F85                     u4760:
  4746  0F85                     l3320:
  4747  0F85  01A9               	clrf	___fladd@aexp
  4748  0F86                     l3322:
  4749  0F86  1FAB               	btfss	___fladd@grs,7
  4750  0F87  2F89               	goto	u4771
  4751  0F88  2F8A               	goto	u4770
  4752  0F89                     u4771:
  4753  0F89  2F98               	goto	l3330
  4754  0F8A                     u4770:
  4755  0F8A                     l3324:
  4756  0F8A  082B               	movf	___fladd@grs,w
  4757  0F8B  397F               	andlw	127
  4758  0F8C  1903               	btfsc	3,2
  4759  0F8D  2F8F               	goto	u4781
  4760  0F8E  2F90               	goto	u4780
  4761  0F8F                     u4781:
  4762  0F8F  2F93               	goto	l664
  4763  0F90                     u4780:
  4764  0F90                     l3326:
  4765  0F90  01A9               	clrf	___fladd@aexp
  4766  0F91  0AA9               	incf	___fladd@aexp,f
  4767  0F92  2F98               	goto	l3330
  4768  0F93                     l664:
  4769  0F93  1C72               	btfss	___fladd@b,0
  4770  0F94  2F96               	goto	u4791
  4771  0F95  2F97               	goto	u4790
  4772  0F96                     u4791:
  4773  0F96  2F98               	goto	l3330
  4774  0F97                     u4790:
  4775  0F97  2F90               	goto	l3326
  4776  0F98                     l3330:
  4777  0F98  0829               	movf	___fladd@aexp,w
  4778  0F99  1903               	btfsc	3,2
  4779  0F9A  2F9C               	goto	u4801
  4780  0F9B  2F9D               	goto	u4800
  4781  0F9C                     u4801:
  4782  0F9C  2FD1               	goto	l667
  4783  0F9D                     u4800:
  4784  0F9D                     l3332:
  4785  0F9D  3001               	movlw	1
  4786  0F9E  07F2               	addwf	___fladd@b,f
  4787  0F9F  3000               	movlw	0
  4788  0FA0  1803               	skipnc
  4789  0FA1  3001               	movlw	1
  4790  0FA2  07F3               	addwf	___fladd@b+1,f
  4791  0FA3  3000               	movlw	0
  4792  0FA4  1803               	skipnc
  4793  0FA5  3001               	movlw	1
  4794  0FA6  07F4               	addwf	___fladd@b+2,f
  4795  0FA7  3000               	movlw	0
  4796  0FA8  1803               	skipnc
  4797  0FA9  3001               	movlw	1
  4798  0FAA  07F5               	addwf	___fladd@b+3,f
  4799  0FAB                     l3334:
  4800  0FAB  1C75               	btfss	___fladd@b+3,0
  4801  0FAC  2FAE               	goto	u4811
  4802  0FAD  2FAF               	goto	u4810
  4803  0FAE                     u4811:
  4804  0FAE  2FD1               	goto	l667
  4805  0FAF                     u4810:
  4806  0FAF                     l3336:
  4807  0FAF  0872               	movf	___fladd@b,w
  4808  0FB0  00A0               	movwf	??___fladd
  4809  0FB1  0873               	movf	___fladd@b+1,w
  4810  0FB2  00A1               	movwf	??___fladd+1
  4811  0FB3  0874               	movf	___fladd@b+2,w
  4812  0FB4  00A2               	movwf	??___fladd+2
  4813  0FB5  0875               	movf	___fladd@b+3,w
  4814  0FB6  00A3               	movwf	??___fladd+3
  4815  0FB7  3001               	movlw	1
  4816  0FB8  00A4               	movwf	??___fladd+4
  4817  0FB9                     u4825:
  4818  0FB9  0D23               	rlf	??___fladd+3,w
  4819  0FBA  0CA3               	rrf	??___fladd+3,f
  4820  0FBB  0CA2               	rrf	??___fladd+2,f
  4821  0FBC  0CA1               	rrf	??___fladd+1,f
  4822  0FBD  0CA0               	rrf	??___fladd,f
  4823  0FBE                     u4820:
  4824  0FBE  0BA4               	decfsz	??___fladd+4,f
  4825  0FBF  2FB9               	goto	u4825
  4826  0FC0  0823               	movf	??___fladd+3,w
  4827  0FC1  00F5               	movwf	___fladd@b+3
  4828  0FC2  0822               	movf	??___fladd+2,w
  4829  0FC3  00F4               	movwf	___fladd@b+2
  4830  0FC4  0821               	movf	??___fladd+1,w
  4831  0FC5  00F3               	movwf	___fladd@b+1
  4832  0FC6  0820               	movf	??___fladd,w
  4833  0FC7  00F2               	movwf	___fladd@b
  4834  0FC8  0A2A               	incf	___fladd@bexp,w
  4835  0FC9  1903               	btfsc	3,2
  4836  0FCA  2FCC               	goto	u4831
  4837  0FCB  2FCD               	goto	u4830
  4838  0FCC                     u4831:
  4839  0FCC  2FD1               	goto	l667
  4840  0FCD                     u4830:
  4841  0FCD                     l3338:
  4842  0FCD  3001               	movlw	1
  4843  0FCE  00A0               	movwf	??___fladd
  4844  0FCF  0820               	movf	??___fladd,w
  4845  0FD0  07AA               	addwf	___fladd@bexp,f
  4846  0FD1                     l667:
  4847  0FD1  0A2A               	incf	___fladd@bexp,w
  4848  0FD2  1903               	btfsc	3,2
  4849  0FD3  2FD5               	goto	u4841
  4850  0FD4  2FD6               	goto	u4840
  4851  0FD5                     u4841:
  4852  0FD5  2FDB               	goto	l3342
  4853  0FD6                     u4840:
  4854  0FD6                     l3340:
  4855  0FD6  082A               	movf	___fladd@bexp,w
  4856  0FD7  1D03               	btfss	3,2
  4857  0FD8  2FDA               	goto	u4851
  4858  0FD9  2FDB               	goto	u4850
  4859  0FDA                     u4851:
  4860  0FDA  2FE9               	goto	l3348
  4861  0FDB                     u4850:
  4862  0FDB                     l3342:
  4863  0FDB  3000               	movlw	0
  4864  0FDC  00F5               	movwf	___fladd@b+3
  4865  0FDD  3000               	movlw	0
  4866  0FDE  00F4               	movwf	___fladd@b+2
  4867  0FDF  3000               	movlw	0
  4868  0FE0  00F3               	movwf	___fladd@b+1
  4869  0FE1  3000               	movlw	0
  4870  0FE2  00F2               	movwf	___fladd@b
  4871  0FE3                     l3344:
  4872  0FE3  082A               	movf	___fladd@bexp,w
  4873  0FE4  1D03               	btfss	3,2
  4874  0FE5  2FE7               	goto	u4861
  4875  0FE6  2FE8               	goto	u4860
  4876  0FE7                     u4861:
  4877  0FE7  2FE9               	goto	l3348
  4878  0FE8                     u4860:
  4879  0FE8                     l3346:
  4880  0FE8  01A8               	clrf	___fladd@signs
  4881  0FE9                     l3348:
  4882  0FE9  1C2A               	btfss	___fladd@bexp,0
  4883  0FEA  2FEC               	goto	u4871
  4884  0FEB  2FED               	goto	u4870
  4885  0FEC                     u4871:
  4886  0FEC  2FEF               	goto	l3352
  4887  0FED                     u4870:
  4888  0FED                     l3350:
  4889  0FED  17F4               	bsf	___fladd@b+2,7
  4890  0FEE  2FF3               	goto	l675
  4891  0FEF                     l3352:
  4892  0FEF  307F               	movlw	127
  4893  0FF0  00A0               	movwf	??___fladd
  4894  0FF1  0820               	movf	??___fladd,w
  4895  0FF2  05F4               	andwf	___fladd@b+2,f
  4896  0FF3                     l675:
  4897  0FF3  082A               	movf	___fladd@bexp,w
  4898  0FF4  00A0               	movwf	??___fladd
  4899  0FF5  1003               	clrc
  4900  0FF6  0C20               	rrf	??___fladd,w
  4901  0FF7  00A1               	movwf	??___fladd+1
  4902  0FF8  0821               	movf	??___fladd+1,w
  4903  0FF9  00F5               	movwf	___fladd@b+3
  4904  0FFA                     l3354:
  4905  0FFA  1FA8               	btfss	___fladd@signs,7
  4906  0FFB  2FFD               	goto	u4881
  4907  0FFC  2FFE               	goto	u4880
  4908  0FFD                     u4881:
  4909  0FFD  2FFF               	goto	l676
  4910  0FFE                     u4880:
  4911  0FFE                     l3356:
  4912  0FFE  17F5               	bsf	___fladd@b+3,7
  4913  0FFF                     l676:
  4914  0FFF                     l646:
  4915  0FFF  0008               	return
  4916  1000                     __end_of___fladd:
  4917                           
  4918                           	psect	text10
  4919  0480                     __ptext10:	
  4920 ;; *************** function ___flmul *****************
  4921 ;; Defined at:
  4922 ;;		line 8 in file "C:\Program Files\Microchip\xc8\v2.31\pic\sources\c90\common\sprcmul.c"
  4923 ;; Parameters:    Size  Location     Type
  4924 ;;  b               4   49[BANK0 ] unsigned char 
  4925 ;;  a               4   53[BANK0 ] unsigned char 
  4926 ;; Auto vars:     Size  Location     Type
  4927 ;;  prod            4   69[BANK0 ] struct .
  4928 ;;  grs             4   64[BANK0 ] unsigned long 
  4929 ;;  temp            2   73[BANK0 ] struct .
  4930 ;;  bexp            1   68[BANK0 ] unsigned char 
  4931 ;;  aexp            1   63[BANK0 ] unsigned char 
  4932 ;;  sign            1   62[BANK0 ] unsigned char 
  4933 ;; Return value:  Size  Location     Type
  4934 ;;                  4   49[BANK0 ] unsigned char 
  4935 ;; Registers used:
  4936 ;;		wreg, status,2, status,0, btemp+1, pclath, cstack
  4937 ;; Tracked objects:
  4938 ;;		On entry : 0/0
  4939 ;;		On exit  : 0/0
  4940 ;;		Unchanged: 0/0
  4941 ;; Data sizes:     COMMON   BANK0   BANK1   BANK3   BANK2
  4942 ;;      Params:         0       8       0       0       0
  4943 ;;      Locals:         0      13       0       0       0
  4944 ;;      Temps:          0       5       0       0       0
  4945 ;;      Totals:         0      26       0       0       0
  4946 ;;Total ram usage:       26 bytes
  4947 ;; Hardware stack levels used:    1
  4948 ;; Hardware stack levels required when called:    2
  4949 ;; This function calls:
  4950 ;;		__Umul8_16
  4951 ;; This function is called by:
  4952 ;;		_main
  4953 ;;		_convert
  4954 ;; This function uses a non-reentrant model
  4955 ;;
  4956                           
  4957                           
  4958                           ;psect for function ___flmul
  4959  0480                     ___flmul:
  4960  0480                     l3738:	
  4961                           ;incstack = 0
  4962                           ; Regs used in ___flmul: [wreg+status,2+status,0+btemp+1+pclath+cstack]
  4963                           
  4964  0480  1283               	bcf	3,5	;RP0=0, select bank0
  4965  0481  1303               	bcf	3,6	;RP1=0, select bank0
  4966  0482  0854               	movf	___flmul@b+3,w
  4967  0483  3980               	andlw	128
  4968  0484  00D9               	movwf	??___flmul
  4969  0485  0859               	movf	??___flmul,w
  4970  0486  00DE               	movwf	___flmul@sign
  4971  0487                     l3740:
  4972  0487  0854               	movf	___flmul@b+3,w
  4973  0488  00D9               	movwf	??___flmul
  4974  0489  0759               	addwf	??___flmul,w
  4975  048A  00DA               	movwf	??___flmul+1
  4976  048B  085A               	movf	??___flmul+1,w
  4977  048C  00E4               	movwf	___flmul@bexp
  4978  048D                     l3742:
  4979  048D  1FD3               	btfss	___flmul@b+2,7
  4980  048E  2C90               	goto	u5711
  4981  048F  2C91               	goto	u5710
  4982  0490                     u5711:
  4983  0490  2C92               	goto	l3746
  4984  0491                     u5710:
  4985  0491                     l3744:
  4986  0491  1464               	bsf	___flmul@bexp,0
  4987  0492                     l3746:
  4988  0492  0864               	movf	___flmul@bexp,w
  4989  0493  1903               	btfsc	3,2
  4990  0494  2C96               	goto	u5721
  4991  0495  2C97               	goto	u5720
  4992  0496                     u5721:
  4993  0496  2CA6               	goto	l3754
  4994  0497                     u5720:
  4995  0497                     l3748:
  4996  0497  0A64               	incf	___flmul@bexp,w
  4997  0498  1D03               	btfss	3,2
  4998  0499  2C9B               	goto	u5731
  4999  049A  2C9C               	goto	u5730
  5000  049B                     u5731:
  5001  049B  2CA4               	goto	l3752
  5002  049C                     u5730:
  5003  049C                     l3750:
  5004  049C  3000               	movlw	0
  5005  049D  00D4               	movwf	___flmul@b+3
  5006  049E  3000               	movlw	0
  5007  049F  00D3               	movwf	___flmul@b+2
  5008  04A0  3000               	movlw	0
  5009  04A1  00D2               	movwf	___flmul@b+1
  5010  04A2  3000               	movlw	0
  5011  04A3  00D1               	movwf	___flmul@b
  5012  04A4                     l3752:
  5013  04A4  17D3               	bsf	___flmul@b+2,7
  5014  04A5  2CAE               	goto	l3756
  5015  04A6                     l3754:
  5016  04A6  3000               	movlw	0
  5017  04A7  00D4               	movwf	___flmul@b+3
  5018  04A8  3000               	movlw	0
  5019  04A9  00D3               	movwf	___flmul@b+2
  5020  04AA  3000               	movlw	0
  5021  04AB  00D2               	movwf	___flmul@b+1
  5022  04AC  3000               	movlw	0
  5023  04AD  00D1               	movwf	___flmul@b
  5024  04AE                     l3756:
  5025  04AE  0858               	movf	___flmul@a+3,w
  5026  04AF  3980               	andlw	128
  5027  04B0  00D9               	movwf	??___flmul
  5028  04B1  0859               	movf	??___flmul,w
  5029  04B2  06DE               	xorwf	___flmul@sign,f
  5030  04B3                     l3758:
  5031  04B3  0858               	movf	___flmul@a+3,w
  5032  04B4  00D9               	movwf	??___flmul
  5033  04B5  0759               	addwf	??___flmul,w
  5034  04B6  00DA               	movwf	??___flmul+1
  5035  04B7  085A               	movf	??___flmul+1,w
  5036  04B8  00DF               	movwf	___flmul@aexp
  5037  04B9                     l3760:
  5038  04B9  1FD7               	btfss	___flmul@a+2,7
  5039  04BA  2CBC               	goto	u5741
  5040  04BB  2CBD               	goto	u5740
  5041  04BC                     u5741:
  5042  04BC  2CBE               	goto	l3764
  5043  04BD                     u5740:
  5044  04BD                     l3762:
  5045  04BD  145F               	bsf	___flmul@aexp,0
  5046  04BE                     l3764:
  5047  04BE  085F               	movf	___flmul@aexp,w
  5048  04BF  1903               	btfsc	3,2
  5049  04C0  2CC2               	goto	u5751
  5050  04C1  2CC3               	goto	u5750
  5051  04C2                     u5751:
  5052  04C2  2CD2               	goto	l3772
  5053  04C3                     u5750:
  5054  04C3                     l3766:
  5055  04C3  0A5F               	incf	___flmul@aexp,w
  5056  04C4  1D03               	btfss	3,2
  5057  04C5  2CC7               	goto	u5761
  5058  04C6  2CC8               	goto	u5760
  5059  04C7                     u5761:
  5060  04C7  2CD0               	goto	l3770
  5061  04C8                     u5760:
  5062  04C8                     l3768:
  5063  04C8  3000               	movlw	0
  5064  04C9  00D8               	movwf	___flmul@a+3
  5065  04CA  3000               	movlw	0
  5066  04CB  00D7               	movwf	___flmul@a+2
  5067  04CC  3000               	movlw	0
  5068  04CD  00D6               	movwf	___flmul@a+1
  5069  04CE  3000               	movlw	0
  5070  04CF  00D5               	movwf	___flmul@a
  5071  04D0                     l3770:
  5072  04D0  17D7               	bsf	___flmul@a+2,7
  5073  04D1  2CDA               	goto	l3774
  5074  04D2                     l3772:
  5075  04D2  3000               	movlw	0
  5076  04D3  00D8               	movwf	___flmul@a+3
  5077  04D4  3000               	movlw	0
  5078  04D5  00D7               	movwf	___flmul@a+2
  5079  04D6  3000               	movlw	0
  5080  04D7  00D6               	movwf	___flmul@a+1
  5081  04D8  3000               	movlw	0
  5082  04D9  00D5               	movwf	___flmul@a
  5083  04DA                     l3774:
  5084  04DA  085F               	movf	___flmul@aexp,w
  5085  04DB  1903               	btfsc	3,2
  5086  04DC  2CDE               	goto	u5771
  5087  04DD  2CDF               	goto	u5770
  5088  04DE                     u5771:
  5089  04DE  2CE4               	goto	l3778
  5090  04DF                     u5770:
  5091  04DF                     l3776:
  5092  04DF  0864               	movf	___flmul@bexp,w
  5093  04E0  1D03               	btfss	3,2
  5094  04E1  2CE3               	goto	u5781
  5095  04E2  2CE4               	goto	u5780
  5096  04E3                     u5781:
  5097  04E3  2CED               	goto	l3782
  5098  04E4                     u5780:
  5099  04E4                     l3778:
  5100  04E4  3000               	movlw	0
  5101  04E5  00D4               	movwf	?___flmul+3
  5102  04E6  3000               	movlw	0
  5103  04E7  00D3               	movwf	?___flmul+2
  5104  04E8  3000               	movlw	0
  5105  04E9  00D2               	movwf	?___flmul+1
  5106  04EA  3000               	movlw	0
  5107  04EB  00D1               	movwf	?___flmul
  5108  04EC  2FE0               	goto	l729
  5109  04ED                     l3782:
  5110  04ED  0851               	movf	___flmul@b,w
  5111  04EE  00D9               	movwf	??___flmul
  5112  04EF  0859               	movf	??___flmul,w
  5113  04F0  00F2               	movwf	__Umul8_16@multiplicand
  5114  04F1  0857               	movf	___flmul@a+2,w
  5115  04F2  160A  118A  23EB  120A  118A  	fcall	__Umul8_16
  5116  04F7  0873               	movf	?__Umul8_16+1,w
  5117  04F8  1283               	bcf	3,5	;RP0=0, select bank0
  5118  04F9  1303               	bcf	3,6	;RP1=0, select bank0
  5119  04FA  00EA               	movwf	___flmul@temp+1
  5120  04FB  0872               	movf	?__Umul8_16,w
  5121  04FC  00E9               	movwf	___flmul@temp
  5122  04FD                     l3784:
  5123  04FD  0869               	movf	___flmul@temp,w
  5124  04FE  00D9               	movwf	??___flmul
  5125  04FF  01DA               	clrf	??___flmul+1
  5126  0500  01DB               	clrf	??___flmul+2
  5127  0501  01DC               	clrf	??___flmul+3
  5128  0502  085C               	movf	??___flmul+3,w
  5129  0503  00E3               	movwf	___flmul@grs+3
  5130  0504  085B               	movf	??___flmul+2,w
  5131  0505  00E2               	movwf	___flmul@grs+2
  5132  0506  085A               	movf	??___flmul+1,w
  5133  0507  00E1               	movwf	___flmul@grs+1
  5134  0508  0859               	movf	??___flmul,w
  5135  0509  00E0               	movwf	___flmul@grs
  5136  050A                     l3786:
  5137  050A  086A               	movf	___flmul@temp+1,w
  5138  050B  00D9               	movwf	??___flmul
  5139  050C  01DA               	clrf	??___flmul+1
  5140  050D  01DB               	clrf	??___flmul+2
  5141  050E  01DC               	clrf	??___flmul+3
  5142  050F  085C               	movf	??___flmul+3,w
  5143  0510  00E8               	movwf	___flmul@prod+3
  5144  0511  085B               	movf	??___flmul+2,w
  5145  0512  00E7               	movwf	___flmul@prod+2
  5146  0513  085A               	movf	??___flmul+1,w
  5147  0514  00E6               	movwf	___flmul@prod+1
  5148  0515  0859               	movf	??___flmul,w
  5149  0516  00E5               	movwf	___flmul@prod
  5150  0517  0852               	movf	___flmul@b+1,w
  5151  0518  00D9               	movwf	??___flmul
  5152  0519  0859               	movf	??___flmul,w
  5153  051A  00F2               	movwf	__Umul8_16@multiplicand
  5154  051B  0856               	movf	___flmul@a+1,w
  5155  051C  160A  118A  23EB  120A  118A  	fcall	__Umul8_16
  5156  0521  0873               	movf	?__Umul8_16+1,w
  5157  0522  1283               	bcf	3,5	;RP0=0, select bank0
  5158  0523  1303               	bcf	3,6	;RP1=0, select bank0
  5159  0524  00EA               	movwf	___flmul@temp+1
  5160  0525  0872               	movf	?__Umul8_16,w
  5161  0526  00E9               	movwf	___flmul@temp
  5162  0527                     l3788:
  5163  0527  0869               	movf	___flmul@temp,w
  5164  0528  00D9               	movwf	??___flmul
  5165  0529  01DA               	clrf	??___flmul+1
  5166  052A  01DB               	clrf	??___flmul+2
  5167  052B  01DC               	clrf	??___flmul+3
  5168  052C  0859               	movf	??___flmul,w
  5169  052D  07E0               	addwf	___flmul@grs,f
  5170  052E  085A               	movf	??___flmul+1,w
  5171  052F  1103               	clrz
  5172  0530  1803               	skipnc
  5173  0531  3E01               	addlw	1
  5174  0532  1903               	skipnz
  5175  0533  2D35               	goto	u5791
  5176  0534  07E1               	addwf	___flmul@grs+1,f
  5177  0535                     u5791:
  5178  0535  085B               	movf	??___flmul+2,w
  5179  0536  1103               	clrz
  5180  0537  1803               	skipnc
  5181  0538  3E01               	addlw	1
  5182  0539  1903               	skipnz
  5183  053A  2D3C               	goto	u5792
  5184  053B  07E2               	addwf	___flmul@grs+2,f
  5185  053C                     u5792:
  5186  053C  085C               	movf	??___flmul+3,w
  5187  053D  1103               	clrz
  5188  053E  1803               	skipnc
  5189  053F  3E01               	addlw	1
  5190  0540  1903               	skipnz
  5191  0541  2D43               	goto	u5793
  5192  0542  07E3               	addwf	___flmul@grs+3,f
  5193  0543                     u5793:
  5194  0543                     l3790:
  5195  0543  086A               	movf	___flmul@temp+1,w
  5196  0544  00D9               	movwf	??___flmul
  5197  0545  01DA               	clrf	??___flmul+1
  5198  0546  01DB               	clrf	??___flmul+2
  5199  0547  01DC               	clrf	??___flmul+3
  5200  0548  0859               	movf	??___flmul,w
  5201  0549  07E5               	addwf	___flmul@prod,f
  5202  054A  085A               	movf	??___flmul+1,w
  5203  054B  1103               	clrz
  5204  054C  1803               	skipnc
  5205  054D  3E01               	addlw	1
  5206  054E  1903               	skipnz
  5207  054F  2D51               	goto	u5801
  5208  0550  07E6               	addwf	___flmul@prod+1,f
  5209  0551                     u5801:
  5210  0551  085B               	movf	??___flmul+2,w
  5211  0552  1103               	clrz
  5212  0553  1803               	skipnc
  5213  0554  3E01               	addlw	1
  5214  0555  1903               	skipnz
  5215  0556  2D58               	goto	u5802
  5216  0557  07E7               	addwf	___flmul@prod+2,f
  5217  0558                     u5802:
  5218  0558  085C               	movf	??___flmul+3,w
  5219  0559  1103               	clrz
  5220  055A  1803               	skipnc
  5221  055B  3E01               	addlw	1
  5222  055C  1903               	skipnz
  5223  055D  2D5F               	goto	u5803
  5224  055E  07E8               	addwf	___flmul@prod+3,f
  5225  055F                     u5803:
  5226  055F  0853               	movf	___flmul@b+2,w
  5227  0560  00D9               	movwf	??___flmul
  5228  0561  0859               	movf	??___flmul,w
  5229  0562  00F2               	movwf	__Umul8_16@multiplicand
  5230  0563  0855               	movf	___flmul@a,w
  5231  0564  160A  118A  23EB  120A  118A  	fcall	__Umul8_16
  5232  0569  0873               	movf	?__Umul8_16+1,w
  5233  056A  1283               	bcf	3,5	;RP0=0, select bank0
  5234  056B  1303               	bcf	3,6	;RP1=0, select bank0
  5235  056C  00EA               	movwf	___flmul@temp+1
  5236  056D  0872               	movf	?__Umul8_16,w
  5237  056E  00E9               	movwf	___flmul@temp
  5238  056F                     l3792:
  5239  056F  0869               	movf	___flmul@temp,w
  5240  0570  00D9               	movwf	??___flmul
  5241  0571  01DA               	clrf	??___flmul+1
  5242  0572  01DB               	clrf	??___flmul+2
  5243  0573  01DC               	clrf	??___flmul+3
  5244  0574  0859               	movf	??___flmul,w
  5245  0575  07E0               	addwf	___flmul@grs,f
  5246  0576  085A               	movf	??___flmul+1,w
  5247  0577  1103               	clrz
  5248  0578  1803               	skipnc
  5249  0579  3E01               	addlw	1
  5250  057A  1903               	skipnz
  5251  057B  2D7D               	goto	u5811
  5252  057C  07E1               	addwf	___flmul@grs+1,f
  5253  057D                     u5811:
  5254  057D  085B               	movf	??___flmul+2,w
  5255  057E  1103               	clrz
  5256  057F  1803               	skipnc
  5257  0580  3E01               	addlw	1
  5258  0581  1903               	skipnz
  5259  0582  2D84               	goto	u5812
  5260  0583  07E2               	addwf	___flmul@grs+2,f
  5261  0584                     u5812:
  5262  0584  085C               	movf	??___flmul+3,w
  5263  0585  1103               	clrz
  5264  0586  1803               	skipnc
  5265  0587  3E01               	addlw	1
  5266  0588  1903               	skipnz
  5267  0589  2D8B               	goto	u5813
  5268  058A  07E3               	addwf	___flmul@grs+3,f
  5269  058B                     u5813:
  5270  058B                     l3794:
  5271  058B  086A               	movf	___flmul@temp+1,w
  5272  058C  00D9               	movwf	??___flmul
  5273  058D  01DA               	clrf	??___flmul+1
  5274  058E  01DB               	clrf	??___flmul+2
  5275  058F  01DC               	clrf	??___flmul+3
  5276  0590  0859               	movf	??___flmul,w
  5277  0591  07E5               	addwf	___flmul@prod,f
  5278  0592  085A               	movf	??___flmul+1,w
  5279  0593  1103               	clrz
  5280  0594  1803               	skipnc
  5281  0595  3E01               	addlw	1
  5282  0596  1903               	skipnz
  5283  0597  2D99               	goto	u5821
  5284  0598  07E6               	addwf	___flmul@prod+1,f
  5285  0599                     u5821:
  5286  0599  085B               	movf	??___flmul+2,w
  5287  059A  1103               	clrz
  5288  059B  1803               	skipnc
  5289  059C  3E01               	addlw	1
  5290  059D  1903               	skipnz
  5291  059E  2DA0               	goto	u5822
  5292  059F  07E7               	addwf	___flmul@prod+2,f
  5293  05A0                     u5822:
  5294  05A0  085C               	movf	??___flmul+3,w
  5295  05A1  1103               	clrz
  5296  05A2  1803               	skipnc
  5297  05A3  3E01               	addlw	1
  5298  05A4  1903               	skipnz
  5299  05A5  2DA7               	goto	u5823
  5300  05A6  07E8               	addwf	___flmul@prod+3,f
  5301  05A7                     u5823:
  5302  05A7                     l3796:
  5303  05A7  3008               	movlw	8
  5304  05A8  00D9               	movwf	??___flmul
  5305  05A9                     u5835:
  5306  05A9  1003               	clrc
  5307  05AA  0DE0               	rlf	___flmul@grs,f
  5308  05AB  0DE1               	rlf	___flmul@grs+1,f
  5309  05AC  0DE2               	rlf	___flmul@grs+2,f
  5310  05AD  0DE3               	rlf	___flmul@grs+3,f
  5311  05AE  0BD9               	decfsz	??___flmul,f
  5312  05AF  2DA9               	goto	u5835
  5313  05B0                     l3798:
  5314  05B0  0852               	movf	___flmul@b+1,w
  5315  05B1  00D9               	movwf	??___flmul
  5316  05B2  0859               	movf	??___flmul,w
  5317  05B3  00F2               	movwf	__Umul8_16@multiplicand
  5318  05B4  0855               	movf	___flmul@a,w
  5319  05B5  160A  118A  23EB  120A  118A  	fcall	__Umul8_16
  5320  05BA  0873               	movf	?__Umul8_16+1,w
  5321  05BB  1283               	bcf	3,5	;RP0=0, select bank0
  5322  05BC  1303               	bcf	3,6	;RP1=0, select bank0
  5323  05BD  00EA               	movwf	___flmul@temp+1
  5324  05BE  0872               	movf	?__Umul8_16,w
  5325  05BF  00E9               	movwf	___flmul@temp
  5326  05C0                     l3800:
  5327  05C0  0869               	movf	___flmul@temp,w
  5328  05C1  00D9               	movwf	??___flmul
  5329  05C2  086A               	movf	___flmul@temp+1,w
  5330  05C3  00DA               	movwf	??___flmul+1
  5331  05C4  01DB               	clrf	??___flmul+2
  5332  05C5  01DC               	clrf	??___flmul+3
  5333  05C6  0859               	movf	??___flmul,w
  5334  05C7  07E0               	addwf	___flmul@grs,f
  5335  05C8  085A               	movf	??___flmul+1,w
  5336  05C9  1103               	clrz
  5337  05CA  1803               	skipnc
  5338  05CB  3E01               	addlw	1
  5339  05CC  1903               	skipnz
  5340  05CD  2DCF               	goto	u5841
  5341  05CE  07E1               	addwf	___flmul@grs+1,f
  5342  05CF                     u5841:
  5343  05CF  085B               	movf	??___flmul+2,w
  5344  05D0  1103               	clrz
  5345  05D1  1803               	skipnc
  5346  05D2  3E01               	addlw	1
  5347  05D3  1903               	skipnz
  5348  05D4  2DD6               	goto	u5842
  5349  05D5  07E2               	addwf	___flmul@grs+2,f
  5350  05D6                     u5842:
  5351  05D6  085C               	movf	??___flmul+3,w
  5352  05D7  1103               	clrz
  5353  05D8  1803               	skipnc
  5354  05D9  3E01               	addlw	1
  5355  05DA  1903               	skipnz
  5356  05DB  2DDD               	goto	u5843
  5357  05DC  07E3               	addwf	___flmul@grs+3,f
  5358  05DD                     u5843:
  5359  05DD                     l3802:
  5360  05DD  0851               	movf	___flmul@b,w
  5361  05DE  00D9               	movwf	??___flmul
  5362  05DF  0859               	movf	??___flmul,w
  5363  05E0  00F2               	movwf	__Umul8_16@multiplicand
  5364  05E1  0856               	movf	___flmul@a+1,w
  5365  05E2  160A  118A  23EB  120A  118A  	fcall	__Umul8_16
  5366  05E7  0873               	movf	?__Umul8_16+1,w
  5367  05E8  1283               	bcf	3,5	;RP0=0, select bank0
  5368  05E9  1303               	bcf	3,6	;RP1=0, select bank0
  5369  05EA  00EA               	movwf	___flmul@temp+1
  5370  05EB  0872               	movf	?__Umul8_16,w
  5371  05EC  00E9               	movwf	___flmul@temp
  5372  05ED                     l3804:
  5373  05ED  0869               	movf	___flmul@temp,w
  5374  05EE  00D9               	movwf	??___flmul
  5375  05EF  086A               	movf	___flmul@temp+1,w
  5376  05F0  00DA               	movwf	??___flmul+1
  5377  05F1  01DB               	clrf	??___flmul+2
  5378  05F2  01DC               	clrf	??___flmul+3
  5379  05F3  0859               	movf	??___flmul,w
  5380  05F4  07E0               	addwf	___flmul@grs,f
  5381  05F5  085A               	movf	??___flmul+1,w
  5382  05F6  1103               	clrz
  5383  05F7  1803               	skipnc
  5384  05F8  3E01               	addlw	1
  5385  05F9  1903               	skipnz
  5386  05FA  2DFC               	goto	u5851
  5387  05FB  07E1               	addwf	___flmul@grs+1,f
  5388  05FC                     u5851:
  5389  05FC  085B               	movf	??___flmul+2,w
  5390  05FD  1103               	clrz
  5391  05FE  1803               	skipnc
  5392  05FF  3E01               	addlw	1
  5393  0600  1903               	skipnz
  5394  0601  2E03               	goto	u5852
  5395  0602  07E2               	addwf	___flmul@grs+2,f
  5396  0603                     u5852:
  5397  0603  085C               	movf	??___flmul+3,w
  5398  0604  1103               	clrz
  5399  0605  1803               	skipnc
  5400  0606  3E01               	addlw	1
  5401  0607  1903               	skipnz
  5402  0608  2E0A               	goto	u5853
  5403  0609  07E3               	addwf	___flmul@grs+3,f
  5404  060A                     u5853:
  5405  060A                     l3806:
  5406  060A  3008               	movlw	8
  5407  060B  00D9               	movwf	??___flmul
  5408  060C                     u5865:
  5409  060C  1003               	clrc
  5410  060D  0DE0               	rlf	___flmul@grs,f
  5411  060E  0DE1               	rlf	___flmul@grs+1,f
  5412  060F  0DE2               	rlf	___flmul@grs+2,f
  5413  0610  0DE3               	rlf	___flmul@grs+3,f
  5414  0611  0BD9               	decfsz	??___flmul,f
  5415  0612  2E0C               	goto	u5865
  5416  0613  0851               	movf	___flmul@b,w
  5417  0614  00D9               	movwf	??___flmul
  5418  0615  0859               	movf	??___flmul,w
  5419  0616  00F2               	movwf	__Umul8_16@multiplicand
  5420  0617  0855               	movf	___flmul@a,w
  5421  0618  160A  118A  23EB  120A  118A  	fcall	__Umul8_16
  5422  061D  0873               	movf	?__Umul8_16+1,w
  5423  061E  1283               	bcf	3,5	;RP0=0, select bank0
  5424  061F  1303               	bcf	3,6	;RP1=0, select bank0
  5425  0620  00EA               	movwf	___flmul@temp+1
  5426  0621  0872               	movf	?__Umul8_16,w
  5427  0622  00E9               	movwf	___flmul@temp
  5428  0623                     l3808:
  5429  0623  0869               	movf	___flmul@temp,w
  5430  0624  00D9               	movwf	??___flmul
  5431  0625  086A               	movf	___flmul@temp+1,w
  5432  0626  00DA               	movwf	??___flmul+1
  5433  0627  01DB               	clrf	??___flmul+2
  5434  0628  01DC               	clrf	??___flmul+3
  5435  0629  0859               	movf	??___flmul,w
  5436  062A  07E0               	addwf	___flmul@grs,f
  5437  062B  085A               	movf	??___flmul+1,w
  5438  062C  1103               	clrz
  5439  062D  1803               	skipnc
  5440  062E  3E01               	addlw	1
  5441  062F  1903               	skipnz
  5442  0630  2E32               	goto	u5871
  5443  0631  07E1               	addwf	___flmul@grs+1,f
  5444  0632                     u5871:
  5445  0632  085B               	movf	??___flmul+2,w
  5446  0633  1103               	clrz
  5447  0634  1803               	skipnc
  5448  0635  3E01               	addlw	1
  5449  0636  1903               	skipnz
  5450  0637  2E39               	goto	u5872
  5451  0638  07E2               	addwf	___flmul@grs+2,f
  5452  0639                     u5872:
  5453  0639  085C               	movf	??___flmul+3,w
  5454  063A  1103               	clrz
  5455  063B  1803               	skipnc
  5456  063C  3E01               	addlw	1
  5457  063D  1903               	skipnz
  5458  063E  2E40               	goto	u5873
  5459  063F  07E3               	addwf	___flmul@grs+3,f
  5460  0640                     u5873:
  5461  0640                     l3810:
  5462  0640  0852               	movf	___flmul@b+1,w
  5463  0641  00D9               	movwf	??___flmul
  5464  0642  0859               	movf	??___flmul,w
  5465  0643  00F2               	movwf	__Umul8_16@multiplicand
  5466  0644  0857               	movf	___flmul@a+2,w
  5467  0645  160A  118A  23EB  120A  118A  	fcall	__Umul8_16
  5468  064A  0873               	movf	?__Umul8_16+1,w
  5469  064B  1283               	bcf	3,5	;RP0=0, select bank0
  5470  064C  1303               	bcf	3,6	;RP1=0, select bank0
  5471  064D  00EA               	movwf	___flmul@temp+1
  5472  064E  0872               	movf	?__Umul8_16,w
  5473  064F  00E9               	movwf	___flmul@temp
  5474  0650  0869               	movf	___flmul@temp,w
  5475  0651  00D9               	movwf	??___flmul
  5476  0652  086A               	movf	___flmul@temp+1,w
  5477  0653  00DA               	movwf	??___flmul+1
  5478  0654  01DB               	clrf	??___flmul+2
  5479  0655  01DC               	clrf	??___flmul+3
  5480  0656  0859               	movf	??___flmul,w
  5481  0657  07E5               	addwf	___flmul@prod,f
  5482  0658  085A               	movf	??___flmul+1,w
  5483  0659  1103               	clrz
  5484  065A  1803               	skipnc
  5485  065B  3E01               	addlw	1
  5486  065C  1903               	skipnz
  5487  065D  2E5F               	goto	u5881
  5488  065E  07E6               	addwf	___flmul@prod+1,f
  5489  065F                     u5881:
  5490  065F  085B               	movf	??___flmul+2,w
  5491  0660  1103               	clrz
  5492  0661  1803               	skipnc
  5493  0662  3E01               	addlw	1
  5494  0663  1903               	skipnz
  5495  0664  2E66               	goto	u5882
  5496  0665  07E7               	addwf	___flmul@prod+2,f
  5497  0666                     u5882:
  5498  0666  085C               	movf	??___flmul+3,w
  5499  0667  1103               	clrz
  5500  0668  1803               	skipnc
  5501  0669  3E01               	addlw	1
  5502  066A  1903               	skipnz
  5503  066B  2E6D               	goto	u5883
  5504  066C  07E8               	addwf	___flmul@prod+3,f
  5505  066D                     u5883:
  5506  066D                     l3812:
  5507  066D  0853               	movf	___flmul@b+2,w
  5508  066E  00D9               	movwf	??___flmul
  5509  066F  0859               	movf	??___flmul,w
  5510  0670  00F2               	movwf	__Umul8_16@multiplicand
  5511  0671  0856               	movf	___flmul@a+1,w
  5512  0672  160A  118A  23EB  120A  118A  	fcall	__Umul8_16
  5513  0677  0873               	movf	?__Umul8_16+1,w
  5514  0678  1283               	bcf	3,5	;RP0=0, select bank0
  5515  0679  1303               	bcf	3,6	;RP1=0, select bank0
  5516  067A  00EA               	movwf	___flmul@temp+1
  5517  067B  0872               	movf	?__Umul8_16,w
  5518  067C  00E9               	movwf	___flmul@temp
  5519  067D                     l3814:
  5520  067D  0869               	movf	___flmul@temp,w
  5521  067E  00D9               	movwf	??___flmul
  5522  067F  086A               	movf	___flmul@temp+1,w
  5523  0680  00DA               	movwf	??___flmul+1
  5524  0681  01DB               	clrf	??___flmul+2
  5525  0682  01DC               	clrf	??___flmul+3
  5526  0683  0859               	movf	??___flmul,w
  5527  0684  07E5               	addwf	___flmul@prod,f
  5528  0685  085A               	movf	??___flmul+1,w
  5529  0686  1103               	clrz
  5530  0687  1803               	skipnc
  5531  0688  3E01               	addlw	1
  5532  0689  1903               	skipnz
  5533  068A  2E8C               	goto	u5891
  5534  068B  07E6               	addwf	___flmul@prod+1,f
  5535  068C                     u5891:
  5536  068C  085B               	movf	??___flmul+2,w
  5537  068D  1103               	clrz
  5538  068E  1803               	skipnc
  5539  068F  3E01               	addlw	1
  5540  0690  1903               	skipnz
  5541  0691  2E93               	goto	u5892
  5542  0692  07E7               	addwf	___flmul@prod+2,f
  5543  0693                     u5892:
  5544  0693  085C               	movf	??___flmul+3,w
  5545  0694  1103               	clrz
  5546  0695  1803               	skipnc
  5547  0696  3E01               	addlw	1
  5548  0697  1903               	skipnz
  5549  0698  2E9A               	goto	u5893
  5550  0699  07E8               	addwf	___flmul@prod+3,f
  5551  069A                     u5893:
  5552  069A  0853               	movf	___flmul@b+2,w
  5553  069B  00D9               	movwf	??___flmul
  5554  069C  0859               	movf	??___flmul,w
  5555  069D  00F2               	movwf	__Umul8_16@multiplicand
  5556  069E  0857               	movf	___flmul@a+2,w
  5557  069F  160A  118A  23EB  120A  118A  	fcall	__Umul8_16
  5558  06A4  0873               	movf	?__Umul8_16+1,w
  5559  06A5  1283               	bcf	3,5	;RP0=0, select bank0
  5560  06A6  1303               	bcf	3,6	;RP1=0, select bank0
  5561  06A7  00EA               	movwf	___flmul@temp+1
  5562  06A8  0872               	movf	?__Umul8_16,w
  5563  06A9  00E9               	movwf	___flmul@temp
  5564  06AA                     l3816:
  5565  06AA  0869               	movf	___flmul@temp,w
  5566  06AB  00D9               	movwf	??___flmul
  5567  06AC  086A               	movf	___flmul@temp+1,w
  5568  06AD  00DA               	movwf	??___flmul+1
  5569  06AE  01DB               	clrf	??___flmul+2
  5570  06AF  01DC               	clrf	??___flmul+3
  5571  06B0  3008               	movlw	8
  5572  06B1                     u5905:
  5573  06B1  1003               	clrc
  5574  06B2  0DD9               	rlf	??___flmul,f
  5575  06B3  0DDA               	rlf	??___flmul+1,f
  5576  06B4  0DDB               	rlf	??___flmul+2,f
  5577  06B5  0DDC               	rlf	??___flmul+3,f
  5578  06B6                     u5900:
  5579  06B6  3EFF               	addlw	-1
  5580  06B7  1D03               	skipz
  5581  06B8  2EB1               	goto	u5905
  5582  06B9  0859               	movf	??___flmul,w
  5583  06BA  07E5               	addwf	___flmul@prod,f
  5584  06BB  085A               	movf	??___flmul+1,w
  5585  06BC  1103               	clrz
  5586  06BD  1803               	skipnc
  5587  06BE  3E01               	addlw	1
  5588  06BF  1903               	skipnz
  5589  06C0  2EC2               	goto	u5911
  5590  06C1  07E6               	addwf	___flmul@prod+1,f
  5591  06C2                     u5911:
  5592  06C2  085B               	movf	??___flmul+2,w
  5593  06C3  1103               	clrz
  5594  06C4  1803               	skipnc
  5595  06C5  3E01               	addlw	1
  5596  06C6  1903               	skipnz
  5597  06C7  2EC9               	goto	u5912
  5598  06C8  07E7               	addwf	___flmul@prod+2,f
  5599  06C9                     u5912:
  5600  06C9  085C               	movf	??___flmul+3,w
  5601  06CA  1103               	clrz
  5602  06CB  1803               	skipnc
  5603  06CC  3E01               	addlw	1
  5604  06CD  1903               	skipnz
  5605  06CE  2ED0               	goto	u5913
  5606  06CF  07E8               	addwf	___flmul@prod+3,f
  5607  06D0                     u5913:
  5608  06D0                     l3818:
  5609  06D0  0860               	movf	___flmul@grs,w
  5610  06D1  00D9               	movwf	??___flmul
  5611  06D2  0861               	movf	___flmul@grs+1,w
  5612  06D3  00DA               	movwf	??___flmul+1
  5613  06D4  0862               	movf	___flmul@grs+2,w
  5614  06D5  00DB               	movwf	??___flmul+2
  5615  06D6  0863               	movf	___flmul@grs+3,w
  5616  06D7  00DC               	movwf	??___flmul+3
  5617  06D8  3018               	movlw	24
  5618  06D9                     u5925:
  5619  06D9  1003               	clrc
  5620  06DA  0CDC               	rrf	??___flmul+3,f
  5621  06DB  0CDB               	rrf	??___flmul+2,f
  5622  06DC  0CDA               	rrf	??___flmul+1,f
  5623  06DD  0CD9               	rrf	??___flmul,f
  5624  06DE                     u5920:
  5625  06DE  3EFF               	addlw	-1
  5626  06DF  1D03               	skipz
  5627  06E0  2ED9               	goto	u5925
  5628  06E1  0859               	movf	??___flmul,w
  5629  06E2  07E5               	addwf	___flmul@prod,f
  5630  06E3  085A               	movf	??___flmul+1,w
  5631  06E4  1103               	clrz
  5632  06E5  1803               	skipnc
  5633  06E6  3E01               	addlw	1
  5634  06E7  1903               	skipnz
  5635  06E8  2EEA               	goto	u5931
  5636  06E9  07E6               	addwf	___flmul@prod+1,f
  5637  06EA                     u5931:
  5638  06EA  085B               	movf	??___flmul+2,w
  5639  06EB  1103               	clrz
  5640  06EC  1803               	skipnc
  5641  06ED  3E01               	addlw	1
  5642  06EE  1903               	skipnz
  5643  06EF  2EF1               	goto	u5932
  5644  06F0  07E7               	addwf	___flmul@prod+2,f
  5645  06F1                     u5932:
  5646  06F1  085C               	movf	??___flmul+3,w
  5647  06F2  1103               	clrz
  5648  06F3  1803               	skipnc
  5649  06F4  3E01               	addlw	1
  5650  06F5  1903               	skipnz
  5651  06F6  2EF8               	goto	u5933
  5652  06F7  07E8               	addwf	___flmul@prod+3,f
  5653  06F8                     u5933:
  5654  06F8                     l3820:
  5655  06F8  3008               	movlw	8
  5656  06F9  00D9               	movwf	??___flmul
  5657  06FA                     u5945:
  5658  06FA  1003               	clrc
  5659  06FB  0DE0               	rlf	___flmul@grs,f
  5660  06FC  0DE1               	rlf	___flmul@grs+1,f
  5661  06FD  0DE2               	rlf	___flmul@grs+2,f
  5662  06FE  0DE3               	rlf	___flmul@grs+3,f
  5663  06FF  0BD9               	decfsz	??___flmul,f
  5664  0700  2EFA               	goto	u5945
  5665  0701                     l3822:
  5666  0701  0864               	movf	___flmul@bexp,w
  5667  0702  075F               	addwf	___flmul@aexp,w
  5668  0703  00D9               	movwf	??___flmul
  5669  0704  01DA               	clrf	??___flmul+1
  5670  0705  0DDA               	rlf	??___flmul+1,f
  5671  0706  0859               	movf	??___flmul,w
  5672  0707  3E82               	addlw	130
  5673  0708  00E9               	movwf	___flmul@temp
  5674  0709  085A               	movf	??___flmul+1,w
  5675  070A  1803               	skipnc
  5676  070B  3E01               	addlw	1
  5677  070C  3EFF               	addlw	255
  5678  070D  00EA               	movwf	___flmul@temp+1
  5679  070E  2F2C               	goto	l3834
  5680  070F                     l3824:
  5681  070F  3001               	movlw	1
  5682  0710  00D9               	movwf	??___flmul
  5683  0711                     u5955:
  5684  0711  1003               	clrc
  5685  0712  0DE5               	rlf	___flmul@prod,f
  5686  0713  0DE6               	rlf	___flmul@prod+1,f
  5687  0714  0DE7               	rlf	___flmul@prod+2,f
  5688  0715  0DE8               	rlf	___flmul@prod+3,f
  5689  0716  0BD9               	decfsz	??___flmul,f
  5690  0717  2F11               	goto	u5955
  5691  0718                     l3826:
  5692  0718  1FE3               	btfss	___flmul@grs+3,7
  5693  0719  2F1B               	goto	u5961
  5694  071A  2F1C               	goto	u5960
  5695  071B                     u5961:
  5696  071B  2F1D               	goto	l3830
  5697  071C                     u5960:
  5698  071C                     l3828:
  5699  071C  1465               	bsf	___flmul@prod,0
  5700  071D                     l3830:
  5701  071D  3001               	movlw	1
  5702  071E  00D9               	movwf	??___flmul
  5703  071F                     u5975:
  5704  071F  1003               	clrc
  5705  0720  0DE0               	rlf	___flmul@grs,f
  5706  0721  0DE1               	rlf	___flmul@grs+1,f
  5707  0722  0DE2               	rlf	___flmul@grs+2,f
  5708  0723  0DE3               	rlf	___flmul@grs+3,f
  5709  0724  0BD9               	decfsz	??___flmul,f
  5710  0725  2F1F               	goto	u5975
  5711  0726                     l3832:
  5712  0726  30FF               	movlw	255
  5713  0727  07E9               	addwf	___flmul@temp,f
  5714  0728  1803               	skipnc
  5715  0729  0AEA               	incf	___flmul@temp+1,f
  5716  072A  30FF               	movlw	255
  5717  072B  07EA               	addwf	___flmul@temp+1,f
  5718  072C                     l3834:
  5719  072C  1FE7               	btfss	___flmul@prod+2,7
  5720  072D  2F2F               	goto	u5981
  5721  072E  2F30               	goto	u5980
  5722  072F                     u5981:
  5723  072F  2F0F               	goto	l3824
  5724  0730                     u5980:
  5725  0730                     l3836:
  5726  0730  01DF               	clrf	___flmul@aexp
  5727  0731                     l3838:
  5728  0731  1FE3               	btfss	___flmul@grs+3,7
  5729  0732  2F34               	goto	u5991
  5730  0733  2F35               	goto	u5990
  5731  0734                     u5991:
  5732  0734  2F51               	goto	l3846
  5733  0735                     u5990:
  5734  0735                     l3840:
  5735  0735  30FF               	movlw	255
  5736  0736  0560               	andwf	___flmul@grs,w
  5737  0737  00D9               	movwf	??___flmul
  5738  0738  30FF               	movlw	255
  5739  0739  0561               	andwf	___flmul@grs+1,w
  5740  073A  00DA               	movwf	??___flmul+1
  5741  073B  30FF               	movlw	255
  5742  073C  0562               	andwf	___flmul@grs+2,w
  5743  073D  00DB               	movwf	??___flmul+2
  5744  073E  307F               	movlw	127
  5745  073F  0563               	andwf	___flmul@grs+3,w
  5746  0740  00DC               	movwf	??___flmul+3
  5747  0741  085C               	movf	??___flmul+3,w
  5748  0742  045B               	iorwf	??___flmul+2,w
  5749  0743  045A               	iorwf	??___flmul+1,w
  5750  0744  0459               	iorwf	??___flmul,w
  5751  0745  1903               	skipnz
  5752  0746  2F48               	goto	u6001
  5753  0747  2F49               	goto	u6000
  5754  0748                     u6001:
  5755  0748  2F4C               	goto	l735
  5756  0749                     u6000:
  5757  0749                     l3842:
  5758  0749  01DF               	clrf	___flmul@aexp
  5759  074A  0ADF               	incf	___flmul@aexp,f
  5760  074B  2F51               	goto	l3846
  5761  074C                     l735:
  5762  074C  1C65               	btfss	___flmul@prod,0
  5763  074D  2F4F               	goto	u6011
  5764  074E  2F50               	goto	u6010
  5765  074F                     u6011:
  5766  074F  2F51               	goto	l3846
  5767  0750                     u6010:
  5768  0750  2F49               	goto	l3842
  5769  0751                     l3846:
  5770  0751  085F               	movf	___flmul@aexp,w
  5771  0752  1903               	btfsc	3,2
  5772  0753  2F55               	goto	u6021
  5773  0754  2F56               	goto	u6020
  5774  0755                     u6021:
  5775  0755  2F87               	goto	l3856
  5776  0756                     u6020:
  5777  0756                     l3848:
  5778  0756  3001               	movlw	1
  5779  0757  07E5               	addwf	___flmul@prod,f
  5780  0758  3000               	movlw	0
  5781  0759  1803               	skipnc
  5782  075A  3001               	movlw	1
  5783  075B  07E6               	addwf	___flmul@prod+1,f
  5784  075C  3000               	movlw	0
  5785  075D  1803               	skipnc
  5786  075E  3001               	movlw	1
  5787  075F  07E7               	addwf	___flmul@prod+2,f
  5788  0760  3000               	movlw	0
  5789  0761  1803               	skipnc
  5790  0762  3001               	movlw	1
  5791  0763  07E8               	addwf	___flmul@prod+3,f
  5792  0764                     l3850:
  5793  0764  1C68               	btfss	___flmul@prod+3,0
  5794  0765  2F67               	goto	u6031
  5795  0766  2F68               	goto	u6030
  5796  0767                     u6031:
  5797  0767  2F87               	goto	l3856
  5798  0768                     u6030:
  5799  0768                     l3852:
  5800  0768  0865               	movf	___flmul@prod,w
  5801  0769  00D9               	movwf	??___flmul
  5802  076A  0866               	movf	___flmul@prod+1,w
  5803  076B  00DA               	movwf	??___flmul+1
  5804  076C  0867               	movf	___flmul@prod+2,w
  5805  076D  00DB               	movwf	??___flmul+2
  5806  076E  0868               	movf	___flmul@prod+3,w
  5807  076F  00DC               	movwf	??___flmul+3
  5808  0770  3001               	movlw	1
  5809  0771  00DD               	movwf	??___flmul+4
  5810  0772                     u6045:
  5811  0772  0D5C               	rlf	??___flmul+3,w
  5812  0773  0CDC               	rrf	??___flmul+3,f
  5813  0774  0CDB               	rrf	??___flmul+2,f
  5814  0775  0CDA               	rrf	??___flmul+1,f
  5815  0776  0CD9               	rrf	??___flmul,f
  5816  0777                     u6040:
  5817  0777  0BDD               	decfsz	??___flmul+4,f
  5818  0778  2F72               	goto	u6045
  5819  0779  085C               	movf	??___flmul+3,w
  5820  077A  00E8               	movwf	___flmul@prod+3
  5821  077B  085B               	movf	??___flmul+2,w
  5822  077C  00E7               	movwf	___flmul@prod+2
  5823  077D  085A               	movf	??___flmul+1,w
  5824  077E  00E6               	movwf	___flmul@prod+1
  5825  077F  0859               	movf	??___flmul,w
  5826  0780  00E5               	movwf	___flmul@prod
  5827  0781                     l3854:
  5828  0781  3001               	movlw	1
  5829  0782  07E9               	addwf	___flmul@temp,f
  5830  0783  1803               	skipnc
  5831  0784  0AEA               	incf	___flmul@temp+1,f
  5832  0785  3000               	movlw	0
  5833  0786  07EA               	addwf	___flmul@temp+1,f
  5834  0787                     l3856:
  5835  0787  086A               	movf	___flmul@temp+1,w
  5836  0788  3A80               	xorlw	128
  5837  0789  00FF               	movwf	btemp+1
  5838  078A  3080               	movlw	128
  5839  078B  027F               	subwf	btemp+1,w
  5840  078C  1D03               	skipz
  5841  078D  2F90               	goto	u6055
  5842  078E  30FF               	movlw	255
  5843  078F  0269               	subwf	___flmul@temp,w
  5844  0790                     u6055:
  5845  0790  1C03               	skipc
  5846  0791  2F93               	goto	u6051
  5847  0792  2F94               	goto	u6050
  5848  0793                     u6051:
  5849  0793  2F9F               	goto	l3860
  5850  0794                     u6050:
  5851  0794                     l3858:
  5852  0794  307F               	movlw	127
  5853  0795  1283               	bcf	3,5	;RP0=0, select bank0
  5854  0796  1303               	bcf	3,6	;RP1=0, select bank0
  5855  0797  00E8               	movwf	___flmul@prod+3
  5856  0798  3080               	movlw	128
  5857  0799  00E7               	movwf	___flmul@prod+2
  5858  079A  3000               	movlw	0
  5859  079B  00E6               	movwf	___flmul@prod+1
  5860  079C  3000               	movlw	0
  5861  079D  00E5               	movwf	___flmul@prod
  5862  079E  2FD4               	goto	l741
  5863  079F                     l3860:
  5864  079F  1283               	bcf	3,5	;RP0=0, select bank0
  5865  07A0  1303               	bcf	3,6	;RP1=0, select bank0
  5866  07A1  086A               	movf	___flmul@temp+1,w
  5867  07A2  3A80               	xorlw	128
  5868  07A3  00FF               	movwf	btemp+1
  5869  07A4  3080               	movlw	128
  5870  07A5  027F               	subwf	btemp+1,w
  5871  07A6  1D03               	skipz
  5872  07A7  2FAA               	goto	u6065
  5873  07A8  3001               	movlw	1
  5874  07A9  0269               	subwf	___flmul@temp,w
  5875  07AA                     u6065:
  5876  07AA  1803               	skipnc
  5877  07AB  2FAD               	goto	u6061
  5878  07AC  2FAE               	goto	u6060
  5879  07AD                     u6061:
  5880  07AD  2FBA               	goto	l3866
  5881  07AE                     u6060:
  5882  07AE                     l3862:
  5883  07AE  3000               	movlw	0
  5884  07AF  1283               	bcf	3,5	;RP0=0, select bank0
  5885  07B0  1303               	bcf	3,6	;RP1=0, select bank0
  5886  07B1  00E8               	movwf	___flmul@prod+3
  5887  07B2  3000               	movlw	0
  5888  07B3  00E7               	movwf	___flmul@prod+2
  5889  07B4  3000               	movlw	0
  5890  07B5  00E6               	movwf	___flmul@prod+1
  5891  07B6  3000               	movlw	0
  5892  07B7  00E5               	movwf	___flmul@prod
  5893  07B8                     l3864:
  5894  07B8  01DE               	clrf	___flmul@sign
  5895  07B9  2FD4               	goto	l741
  5896  07BA                     l3866:
  5897  07BA  1283               	bcf	3,5	;RP0=0, select bank0
  5898  07BB  1303               	bcf	3,6	;RP1=0, select bank0
  5899  07BC  0869               	movf	___flmul@temp,w
  5900  07BD  00D9               	movwf	??___flmul
  5901  07BE  0859               	movf	??___flmul,w
  5902  07BF  00E4               	movwf	___flmul@bexp
  5903  07C0  30FF               	movlw	255
  5904  07C1  05E5               	andwf	___flmul@prod,f
  5905  07C2  30FF               	movlw	255
  5906  07C3  05E6               	andwf	___flmul@prod+1,f
  5907  07C4  307F               	movlw	127
  5908  07C5  05E7               	andwf	___flmul@prod+2,f
  5909  07C6  3000               	movlw	0
  5910  07C7  05E8               	andwf	___flmul@prod+3,f
  5911  07C8                     l3868:
  5912  07C8  1C64               	btfss	___flmul@bexp,0
  5913  07C9  2FCB               	goto	u6071
  5914  07CA  2FCC               	goto	u6070
  5915  07CB                     u6071:
  5916  07CB  2FCD               	goto	l3872
  5917  07CC                     u6070:
  5918  07CC                     l3870:
  5919  07CC  17E7               	bsf	___flmul@prod+2,7
  5920  07CD                     l3872:
  5921  07CD  0864               	movf	___flmul@bexp,w
  5922  07CE  00D9               	movwf	??___flmul
  5923  07CF  1003               	clrc
  5924  07D0  0C59               	rrf	??___flmul,w
  5925  07D1  00DA               	movwf	??___flmul+1
  5926  07D2  085A               	movf	??___flmul+1,w
  5927  07D3  00E8               	movwf	___flmul@prod+3
  5928  07D4                     l741:
  5929  07D4  085E               	movf	___flmul@sign,w
  5930  07D5  00D9               	movwf	??___flmul
  5931  07D6  0859               	movf	??___flmul,w
  5932  07D7  04E8               	iorwf	___flmul@prod+3,f
  5933  07D8                     l3874:
  5934  07D8  0868               	movf	___flmul@prod+3,w
  5935  07D9  00D4               	movwf	?___flmul+3
  5936  07DA  0867               	movf	___flmul@prod+2,w
  5937  07DB  00D3               	movwf	?___flmul+2
  5938  07DC  0866               	movf	___flmul@prod+1,w
  5939  07DD  00D2               	movwf	?___flmul+1
  5940  07DE  0865               	movf	___flmul@prod,w
  5941  07DF  00D1               	movwf	?___flmul
  5942  07E0                     l729:
  5943  07E0  0008               	return
  5944  07E1                     __end_of___flmul:
  5945                           
  5946                           	psect	text11
  5947  13EB                     __ptext11:	
  5948 ;; *************** function __Umul8_16 *****************
  5949 ;; Defined at:
  5950 ;;		line 4 in file "C:\Program Files\Microchip\xc8\v2.31\pic\sources\c90\common\Umul8_16.c"
  5951 ;; Parameters:    Size  Location     Type
  5952 ;;  multiplier      1    wreg     unsigned char 
  5953 ;;  multiplicand    1    2[COMMON] unsigned char 
  5954 ;; Auto vars:     Size  Location     Type
  5955 ;;  multiplier      1    4[BANK0 ] unsigned char 
  5956 ;;  word_mpld       2    2[BANK0 ] unsigned int 
  5957 ;;  product         2    0[BANK0 ] unsigned int 
  5958 ;; Return value:  Size  Location     Type
  5959 ;;                  2    2[COMMON] unsigned int 
  5960 ;; Registers used:
  5961 ;;		wreg, status,2, status,0
  5962 ;; Tracked objects:
  5963 ;;		On entry : 0/0
  5964 ;;		On exit  : 0/0
  5965 ;;		Unchanged: 0/0
  5966 ;; Data sizes:     COMMON   BANK0   BANK1   BANK3   BANK2
  5967 ;;      Params:         2       0       0       0       0
  5968 ;;      Locals:         0       5       0       0       0
  5969 ;;      Temps:          2       0       0       0       0
  5970 ;;      Totals:         4       5       0       0       0
  5971 ;;Total ram usage:        9 bytes
  5972 ;; Hardware stack levels used:    1
  5973 ;; Hardware stack levels required when called:    1
  5974 ;; This function calls:
  5975 ;;		Nothing
  5976 ;; This function is called by:
  5977 ;;		___flmul
  5978 ;; This function uses a non-reentrant model
  5979 ;;
  5980                           
  5981                           
  5982                           ;psect for function __Umul8_16
  5983  13EB                     __Umul8_16:
  5984                           
  5985                           ;incstack = 0
  5986                           ; Regs used in __Umul8_16: [wreg+status,2+status,0]
  5987                           ;__Umul8_16@multiplier stored from wreg
  5988  13EB  1283               	bcf	3,5	;RP0=0, select bank0
  5989  13EC  1303               	bcf	3,6	;RP1=0, select bank0
  5990  13ED  00A4               	movwf	__Umul8_16@multiplier
  5991  13EE                     l3358:
  5992  13EE  01A0               	clrf	__Umul8_16@product
  5993  13EF  01A1               	clrf	__Umul8_16@product+1
  5994  13F0                     l3360:
  5995  13F0  0872               	movf	__Umul8_16@multiplicand,w
  5996  13F1  00F4               	movwf	??__Umul8_16
  5997  13F2  01F5               	clrf	??__Umul8_16+1
  5998  13F3  0874               	movf	??__Umul8_16,w
  5999  13F4  00A2               	movwf	__Umul8_16@word_mpld
  6000  13F5  0875               	movf	??__Umul8_16+1,w
  6001  13F6  00A3               	movwf	__Umul8_16@word_mpld+1
  6002  13F7                     l3362:
  6003  13F7  1C24               	btfss	__Umul8_16@multiplier,0
  6004  13F8  2BFA               	goto	u4891
  6005  13F9  2BFB               	goto	u4890
  6006  13FA                     u4891:
  6007  13FA  2C01               	goto	l748
  6008  13FB                     u4890:
  6009  13FB                     l3364:
  6010  13FB  0822               	movf	__Umul8_16@word_mpld,w
  6011  13FC  07A0               	addwf	__Umul8_16@product,f
  6012  13FD  1803               	skipnc
  6013  13FE  0AA1               	incf	__Umul8_16@product+1,f
  6014  13FF  0823               	movf	__Umul8_16@word_mpld+1,w
  6015  1400  07A1               	addwf	__Umul8_16@product+1,f
  6016  1401                     l748:
  6017  1401  3001               	movlw	1
  6018  1402                     u4905:
  6019  1402  1003               	clrc
  6020  1403  0DA2               	rlf	__Umul8_16@word_mpld,f
  6021  1404  0DA3               	rlf	__Umul8_16@word_mpld+1,f
  6022  1405  3EFF               	addlw	-1
  6023  1406  1D03               	skipz
  6024  1407  2C02               	goto	u4905
  6025  1408  1003               	clrc
  6026  1409  0CA4               	rrf	__Umul8_16@multiplier,f
  6027  140A                     l3366:
  6028  140A  0824               	movf	__Umul8_16@multiplier,w
  6029  140B  1D03               	btfss	3,2
  6030  140C  2C0E               	goto	u4911
  6031  140D  2C0F               	goto	u4910
  6032  140E                     u4911:
  6033  140E  2BF7               	goto	l3362
  6034  140F                     u4910:
  6035  140F                     l3368:
  6036  140F  0821               	movf	__Umul8_16@product+1,w
  6037  1410  00F3               	movwf	?__Umul8_16+1
  6038  1411  0820               	movf	__Umul8_16@product,w
  6039  1412  00F2               	movwf	?__Umul8_16
  6040  1413                     l750:
  6041  1413  0008               	return
  6042  1414                     __end_of__Umul8_16:
  6043                           
  6044                           	psect	text12
  6045  16B1                     __ptext12:	
  6046 ;; *************** function ___flge *****************
  6047 ;; Defined at:
  6048 ;;		line 4 in file "C:\Program Files\Microchip\xc8\v2.31\pic\sources\c90\common\flge.c"
  6049 ;; Parameters:    Size  Location     Type
  6050 ;;  ff1             4    2[COMMON] unsigned int 
  6051 ;;  ff2             4    6[COMMON] unsigned int 
  6052 ;; Auto vars:     Size  Location     Type
  6053 ;;		None
  6054 ;; Return value:  Size  Location     Type
  6055 ;;		None               void
  6056 ;; Registers used:
  6057 ;;		wreg, status,2, status,0
  6058 ;; Tracked objects:
  6059 ;;		On entry : 0/0
  6060 ;;		On exit  : 0/0
  6061 ;;		Unchanged: 0/0
  6062 ;; Data sizes:     COMMON   BANK0   BANK1   BANK3   BANK2
  6063 ;;      Params:         8       0       0       0       0
  6064 ;;      Locals:         0       0       0       0       0
  6065 ;;      Temps:          0       4       0       0       0
  6066 ;;      Totals:         8       4       0       0       0
  6067 ;;Total ram usage:       12 bytes
  6068 ;; Hardware stack levels used:    1
  6069 ;; Hardware stack levels required when called:    1
  6070 ;; This function calls:
  6071 ;;		Nothing
  6072 ;; This function is called by:
  6073 ;;		_convert
  6074 ;; This function uses a non-reentrant model
  6075 ;;
  6076                           
  6077                           
  6078                           ;psect for function ___flge
  6079  16B1                     ___flge:
  6080  16B1                     l3534:	
  6081                           ;incstack = 0
  6082                           ; Regs used in ___flge: [wreg+status,2+status,0]
  6083                           
  6084  16B1  3000               	movlw	0
  6085  16B2  0572               	andwf	___flge@ff1,w
  6086  16B3  1283               	bcf	3,5	;RP0=0, select bank0
  6087  16B4  1303               	bcf	3,6	;RP1=0, select bank0
  6088  16B5  00A0               	movwf	??___flge
  6089  16B6  3000               	movlw	0
  6090  16B7  0573               	andwf	___flge@ff1+1,w
  6091  16B8  00A1               	movwf	??___flge+1
  6092  16B9  3080               	movlw	128
  6093  16BA  0574               	andwf	___flge@ff1+2,w
  6094  16BB  00A2               	movwf	??___flge+2
  6095  16BC  307F               	movlw	127
  6096  16BD  0575               	andwf	___flge@ff1+3,w
  6097  16BE  00A3               	movwf	??___flge+3
  6098  16BF  0823               	movf	??___flge+3,w
  6099  16C0  0422               	iorwf	??___flge+2,w
  6100  16C1  0421               	iorwf	??___flge+1,w
  6101  16C2  0420               	iorwf	??___flge,w
  6102  16C3  1D03               	skipz
  6103  16C4  2EC6               	goto	u5251
  6104  16C5  2EC7               	goto	u5250
  6105  16C6                     u5251:
  6106  16C6  2ECF               	goto	l514
  6107  16C7                     u5250:
  6108  16C7                     l3536:
  6109  16C7  3000               	movlw	0
  6110  16C8  00F5               	movwf	___flge@ff1+3
  6111  16C9  3000               	movlw	0
  6112  16CA  00F4               	movwf	___flge@ff1+2
  6113  16CB  3000               	movlw	0
  6114  16CC  00F3               	movwf	___flge@ff1+1
  6115  16CD  3000               	movlw	0
  6116  16CE  00F2               	movwf	___flge@ff1
  6117  16CF                     l514:
  6118  16CF  3000               	movlw	0
  6119  16D0  0576               	andwf	___flge@ff2,w
  6120  16D1  00A0               	movwf	??___flge
  6121  16D2  3000               	movlw	0
  6122  16D3  0577               	andwf	___flge@ff2+1,w
  6123  16D4  00A1               	movwf	??___flge+1
  6124  16D5  3080               	movlw	128
  6125  16D6  0578               	andwf	___flge@ff2+2,w
  6126  16D7  00A2               	movwf	??___flge+2
  6127  16D8  307F               	movlw	127
  6128  16D9  0579               	andwf	___flge@ff2+3,w
  6129  16DA  00A3               	movwf	??___flge+3
  6130  16DB  0823               	movf	??___flge+3,w
  6131  16DC  0422               	iorwf	??___flge+2,w
  6132  16DD  0421               	iorwf	??___flge+1,w
  6133  16DE  0420               	iorwf	??___flge,w
  6134  16DF  1D03               	skipz
  6135  16E0  2EE2               	goto	u5261
  6136  16E1  2EE3               	goto	u5260
  6137  16E2                     u5261:
  6138  16E2  2EEB               	goto	l3540
  6139  16E3                     u5260:
  6140  16E3                     l3538:
  6141  16E3  3000               	movlw	0
  6142  16E4  00F9               	movwf	___flge@ff2+3
  6143  16E5  3000               	movlw	0
  6144  16E6  00F8               	movwf	___flge@ff2+2
  6145  16E7  3000               	movlw	0
  6146  16E8  00F7               	movwf	___flge@ff2+1
  6147  16E9  3000               	movlw	0
  6148  16EA  00F6               	movwf	___flge@ff2
  6149  16EB                     l3540:
  6150  16EB  1FF5               	btfss	___flge@ff1+3,7
  6151  16EC  2EEE               	goto	u5271
  6152  16ED  2EEF               	goto	u5270
  6153  16EE                     u5271:
  6154  16EE  2F13               	goto	l3544
  6155  16EF                     u5270:
  6156  16EF                     l3542:
  6157  16EF  3000               	movlw	0
  6158  16F0  00A0               	movwf	??___flge
  6159  16F1  3000               	movlw	0
  6160  16F2  00A1               	movwf	??___flge+1
  6161  16F3  3000               	movlw	0
  6162  16F4  00A2               	movwf	??___flge+2
  6163  16F5  3080               	movlw	128
  6164  16F6  00A3               	movwf	??___flge+3
  6165  16F7  0872               	movf	___flge@ff1,w
  6166  16F8  02A0               	subwf	??___flge,f
  6167  16F9  0873               	movf	___flge@ff1+1,w
  6168  16FA  1C03               	skipc
  6169  16FB  0F73               	incfsz	___flge@ff1+1,w
  6170  16FC  2EFE               	goto	u5281
  6171  16FD  2EFF               	goto	u5282
  6172  16FE                     u5281:
  6173  16FE  02A1               	subwf	??___flge+1,f
  6174  16FF                     u5282:
  6175  16FF  0874               	movf	___flge@ff1+2,w
  6176  1700  1C03               	skipc
  6177  1701  0F74               	incfsz	___flge@ff1+2,w
  6178  1702  2F04               	goto	u5283
  6179  1703  2F05               	goto	u5284
  6180  1704                     u5283:
  6181  1704  02A2               	subwf	??___flge+2,f
  6182  1705                     u5284:
  6183  1705  0875               	movf	___flge@ff1+3,w
  6184  1706  1C03               	skipc
  6185  1707  0F75               	incfsz	___flge@ff1+3,w
  6186  1708  2F0A               	goto	u5285
  6187  1709  2F0B               	goto	u5286
  6188  170A                     u5285:
  6189  170A  02A3               	subwf	??___flge+3,f
  6190  170B                     u5286:
  6191  170B  0823               	movf	??___flge+3,w
  6192  170C  00F5               	movwf	___flge@ff1+3
  6193  170D  0822               	movf	??___flge+2,w
  6194  170E  00F4               	movwf	___flge@ff1+2
  6195  170F  0821               	movf	??___flge+1,w
  6196  1710  00F3               	movwf	___flge@ff1+1
  6197  1711  0820               	movf	??___flge,w
  6198  1712  00F2               	movwf	___flge@ff1
  6199  1713                     l3544:
  6200  1713  1FF9               	btfss	___flge@ff2+3,7
  6201  1714  2F16               	goto	u5291
  6202  1715  2F17               	goto	u5290
  6203  1716                     u5291:
  6204  1716  2F3B               	goto	l517
  6205  1717                     u5290:
  6206  1717                     l3546:
  6207  1717  3000               	movlw	0
  6208  1718  00A0               	movwf	??___flge
  6209  1719  3000               	movlw	0
  6210  171A  00A1               	movwf	??___flge+1
  6211  171B  3000               	movlw	0
  6212  171C  00A2               	movwf	??___flge+2
  6213  171D  3080               	movlw	128
  6214  171E  00A3               	movwf	??___flge+3
  6215  171F  0876               	movf	___flge@ff2,w
  6216  1720  02A0               	subwf	??___flge,f
  6217  1721  0877               	movf	___flge@ff2+1,w
  6218  1722  1C03               	skipc
  6219  1723  0F77               	incfsz	___flge@ff2+1,w
  6220  1724  2F26               	goto	u5301
  6221  1725  2F27               	goto	u5302
  6222  1726                     u5301:
  6223  1726  02A1               	subwf	??___flge+1,f
  6224  1727                     u5302:
  6225  1727  0878               	movf	___flge@ff2+2,w
  6226  1728  1C03               	skipc
  6227  1729  0F78               	incfsz	___flge@ff2+2,w
  6228  172A  2F2C               	goto	u5303
  6229  172B  2F2D               	goto	u5304
  6230  172C                     u5303:
  6231  172C  02A2               	subwf	??___flge+2,f
  6232  172D                     u5304:
  6233  172D  0879               	movf	___flge@ff2+3,w
  6234  172E  1C03               	skipc
  6235  172F  0F79               	incfsz	___flge@ff2+3,w
  6236  1730  2F32               	goto	u5305
  6237  1731  2F33               	goto	u5306
  6238  1732                     u5305:
  6239  1732  02A3               	subwf	??___flge+3,f
  6240  1733                     u5306:
  6241  1733  0823               	movf	??___flge+3,w
  6242  1734  00F9               	movwf	___flge@ff2+3
  6243  1735  0822               	movf	??___flge+2,w
  6244  1736  00F8               	movwf	___flge@ff2+2
  6245  1737  0821               	movf	??___flge+1,w
  6246  1738  00F7               	movwf	___flge@ff2+1
  6247  1739  0820               	movf	??___flge,w
  6248  173A  00F6               	movwf	___flge@ff2
  6249  173B                     l517:
  6250  173B  3080               	movlw	128
  6251  173C  06F5               	xorwf	___flge@ff1+3,f
  6252  173D  3080               	movlw	128
  6253  173E  06F9               	xorwf	___flge@ff2+3,f
  6254  173F  0879               	movf	___flge@ff2+3,w
  6255  1740  0275               	subwf	___flge@ff1+3,w
  6256  1741  1D03               	skipz
  6257  1742  2F4D               	goto	u5315
  6258  1743  0878               	movf	___flge@ff2+2,w
  6259  1744  0274               	subwf	___flge@ff1+2,w
  6260  1745  1D03               	skipz
  6261  1746  2F4D               	goto	u5315
  6262  1747  0877               	movf	___flge@ff2+1,w
  6263  1748  0273               	subwf	___flge@ff1+1,w
  6264  1749  1D03               	skipz
  6265  174A  2F4D               	goto	u5315
  6266  174B  0876               	movf	___flge@ff2,w
  6267  174C  0272               	subwf	___flge@ff1,w
  6268  174D                     u5315:
  6269  174D  1803               	skipnc
  6270  174E  2F50               	goto	u5311
  6271  174F  2F51               	goto	u5310
  6272  1750                     u5311:
  6273  1750  2F53               	goto	l3550
  6274  1751                     u5310:
  6275  1751                     l3548:
  6276  1751  1003               	clrc
  6277  1752  2F54               	goto	l518
  6278  1753                     l3550:
  6279  1753  1403               	setc
  6280  1754                     l518:
  6281  1754  0008               	return
  6282  1755                     __end_of___flge:
  6283                           
  6284                           	psect	text13
  6285  0942                     __ptext13:	
  6286 ;; *************** function ___fldiv *****************
  6287 ;; Defined at:
  6288 ;;		line 8 in file "C:\Program Files\Microchip\xc8\v2.31\pic\sources\c90\common\sprcdiv.c"
  6289 ;; Parameters:    Size  Location     Type
  6290 ;;  a               4   23[BANK0 ] unsigned int 
  6291 ;;  b               4   27[BANK0 ] unsigned int 
  6292 ;; Auto vars:     Size  Location     Type
  6293 ;;  grs             4   43[BANK0 ] unsigned long 
  6294 ;;  rem             4   36[BANK0 ] unsigned long 
  6295 ;;  new_exp         2   41[BANK0 ] int 
  6296 ;;  aexp            1   48[BANK0 ] unsigned char 
  6297 ;;  bexp            1   47[BANK0 ] unsigned char 
  6298 ;;  sign            1   40[BANK0 ] unsigned char 
  6299 ;; Return value:  Size  Location     Type
  6300 ;;                  4   23[BANK0 ] unsigned char 
  6301 ;; Registers used:
  6302 ;;		wreg, status,2, status,0, btemp+1
  6303 ;; Tracked objects:
  6304 ;;		On entry : 0/0
  6305 ;;		On exit  : 0/0
  6306 ;;		Unchanged: 0/0
  6307 ;; Data sizes:     COMMON   BANK0   BANK1   BANK3   BANK2
  6308 ;;      Params:         0       8       0       0       0
  6309 ;;      Locals:         0      13       0       0       0
  6310 ;;      Temps:          0       5       0       0       0
  6311 ;;      Totals:         0      26       0       0       0
  6312 ;;Total ram usage:       26 bytes
  6313 ;; Hardware stack levels used:    1
  6314 ;; Hardware stack levels required when called:    1
  6315 ;; This function calls:
  6316 ;;		Nothing
  6317 ;; This function is called by:
  6318 ;;		_main
  6319 ;;		_convert
  6320 ;; This function uses a non-reentrant model
  6321 ;;
  6322                           
  6323                           
  6324                           ;psect for function ___fldiv
  6325  0942                     ___fldiv:
  6326  0942                     l3596:	
  6327                           ;incstack = 0
  6328                           ; Regs used in ___fldiv: [wreg+status,2+status,0+btemp+1]
  6329                           
  6330  0942  1283               	bcf	3,5	;RP0=0, select bank0
  6331  0943  1303               	bcf	3,6	;RP1=0, select bank0
  6332  0944  083E               	movf	___fldiv@b+3,w
  6333  0945  3980               	andlw	128
  6334  0946  00BF               	movwf	??___fldiv
  6335  0947  083F               	movf	??___fldiv,w
  6336  0948  00C8               	movwf	___fldiv@sign
  6337  0949                     l3598:
  6338  0949  083E               	movf	___fldiv@b+3,w
  6339  094A  00BF               	movwf	??___fldiv
  6340  094B  073F               	addwf	??___fldiv,w
  6341  094C  00C0               	movwf	??___fldiv+1
  6342  094D  0840               	movf	??___fldiv+1,w
  6343  094E  00CF               	movwf	___fldiv@bexp
  6344  094F                     l3600:
  6345  094F  1FBD               	btfss	___fldiv@b+2,7
  6346  0950  2952               	goto	u5421
  6347  0951  2953               	goto	u5420
  6348  0952                     u5421:
  6349  0952  2954               	goto	l3604
  6350  0953                     u5420:
  6351  0953                     l3602:
  6352  0953  144F               	bsf	___fldiv@bexp,0
  6353  0954                     l3604:
  6354  0954  084F               	movf	___fldiv@bexp,w
  6355  0955  1903               	btfsc	3,2
  6356  0956  2958               	goto	u5431
  6357  0957  2959               	goto	u5430
  6358  0958                     u5431:
  6359  0958  2969               	goto	l3614
  6360  0959                     u5430:
  6361  0959                     l3606:
  6362  0959  0A4F               	incf	___fldiv@bexp,w
  6363  095A  1D03               	btfss	3,2
  6364  095B  295D               	goto	u5441
  6365  095C  295E               	goto	u5440
  6366  095D                     u5441:
  6367  095D  2966               	goto	l3610
  6368  095E                     u5440:
  6369  095E                     l3608:
  6370  095E  3000               	movlw	0
  6371  095F  00BE               	movwf	___fldiv@b+3
  6372  0960  3000               	movlw	0
  6373  0961  00BD               	movwf	___fldiv@b+2
  6374  0962  3000               	movlw	0
  6375  0963  00BC               	movwf	___fldiv@b+1
  6376  0964  3000               	movlw	0
  6377  0965  00BB               	movwf	___fldiv@b
  6378  0966                     l3610:
  6379  0966  17BD               	bsf	___fldiv@b+2,7
  6380  0967                     l3612:
  6381  0967  01BE               	clrf	___fldiv@b+3
  6382  0968  2971               	goto	l3616
  6383  0969                     l3614:
  6384  0969  3000               	movlw	0
  6385  096A  00BE               	movwf	___fldiv@b+3
  6386  096B  3000               	movlw	0
  6387  096C  00BD               	movwf	___fldiv@b+2
  6388  096D  3000               	movlw	0
  6389  096E  00BC               	movwf	___fldiv@b+1
  6390  096F  3000               	movlw	0
  6391  0970  00BB               	movwf	___fldiv@b
  6392  0971                     l3616:
  6393  0971  083A               	movf	___fldiv@a+3,w
  6394  0972  3980               	andlw	128
  6395  0973  00BF               	movwf	??___fldiv
  6396  0974  083F               	movf	??___fldiv,w
  6397  0975  06C8               	xorwf	___fldiv@sign,f
  6398  0976                     l3618:
  6399  0976  083A               	movf	___fldiv@a+3,w
  6400  0977  00BF               	movwf	??___fldiv
  6401  0978  073F               	addwf	??___fldiv,w
  6402  0979  00C0               	movwf	??___fldiv+1
  6403  097A  0840               	movf	??___fldiv+1,w
  6404  097B  00D0               	movwf	___fldiv@aexp
  6405  097C                     l3620:
  6406  097C  1FB9               	btfss	___fldiv@a+2,7
  6407  097D  297F               	goto	u5451
  6408  097E  2980               	goto	u5450
  6409  097F                     u5451:
  6410  097F  2981               	goto	l3624
  6411  0980                     u5450:
  6412  0980                     l3622:
  6413  0980  1450               	bsf	___fldiv@aexp,0
  6414  0981                     l3624:
  6415  0981  0850               	movf	___fldiv@aexp,w
  6416  0982  1903               	btfsc	3,2
  6417  0983  2985               	goto	u5461
  6418  0984  2986               	goto	u5460
  6419  0985                     u5461:
  6420  0985  2996               	goto	l3634
  6421  0986                     u5460:
  6422  0986                     l3626:
  6423  0986  0A50               	incf	___fldiv@aexp,w
  6424  0987  1D03               	btfss	3,2
  6425  0988  298A               	goto	u5471
  6426  0989  298B               	goto	u5470
  6427  098A                     u5471:
  6428  098A  2993               	goto	l3630
  6429  098B                     u5470:
  6430  098B                     l3628:
  6431  098B  3000               	movlw	0
  6432  098C  00BA               	movwf	___fldiv@a+3
  6433  098D  3000               	movlw	0
  6434  098E  00B9               	movwf	___fldiv@a+2
  6435  098F  3000               	movlw	0
  6436  0990  00B8               	movwf	___fldiv@a+1
  6437  0991  3000               	movlw	0
  6438  0992  00B7               	movwf	___fldiv@a
  6439  0993                     l3630:
  6440  0993  17B9               	bsf	___fldiv@a+2,7
  6441  0994                     l3632:
  6442  0994  01BA               	clrf	___fldiv@a+3
  6443  0995  299E               	goto	l689
  6444  0996                     l3634:
  6445  0996  3000               	movlw	0
  6446  0997  00BA               	movwf	___fldiv@a+3
  6447  0998  3000               	movlw	0
  6448  0999  00B9               	movwf	___fldiv@a+2
  6449  099A  3000               	movlw	0
  6450  099B  00B8               	movwf	___fldiv@a+1
  6451  099C  3000               	movlw	0
  6452  099D  00B7               	movwf	___fldiv@a
  6453  099E                     l689:
  6454  099E  083A               	movf	___fldiv@a+3,w
  6455  099F  0439               	iorwf	___fldiv@a+2,w
  6456  09A0  0438               	iorwf	___fldiv@a+1,w
  6457  09A1  0437               	iorwf	___fldiv@a,w
  6458  09A2  1D03               	skipz
  6459  09A3  29A5               	goto	u5481
  6460  09A4  29A6               	goto	u5480
  6461  09A5                     u5481:
  6462  09A5  29BF               	goto	l3644
  6463  09A6                     u5480:
  6464  09A6                     l3636:
  6465  09A6  3000               	movlw	0
  6466  09A7  00BE               	movwf	___fldiv@b+3
  6467  09A8  3000               	movlw	0
  6468  09A9  00BD               	movwf	___fldiv@b+2
  6469  09AA  3000               	movlw	0
  6470  09AB  00BC               	movwf	___fldiv@b+1
  6471  09AC  3000               	movlw	0
  6472  09AD  00BB               	movwf	___fldiv@b
  6473  09AE  3080               	movlw	128
  6474  09AF  04BD               	iorwf	___fldiv@b+2,f
  6475  09B0  307F               	movlw	127
  6476  09B1  04BE               	iorwf	___fldiv@b+3,f
  6477  09B2                     l3638:
  6478  09B2  0848               	movf	___fldiv@sign,w
  6479  09B3  00BF               	movwf	??___fldiv
  6480  09B4  083F               	movf	??___fldiv,w
  6481  09B5  04BE               	iorwf	___fldiv@b+3,f
  6482  09B6                     l3640:
  6483  09B6  083E               	movf	___fldiv@b+3,w
  6484  09B7  00BA               	movwf	?___fldiv+3
  6485  09B8  083D               	movf	___fldiv@b+2,w
  6486  09B9  00B9               	movwf	?___fldiv+2
  6487  09BA  083C               	movf	___fldiv@b+1,w
  6488  09BB  00B8               	movwf	?___fldiv+1
  6489  09BC  083B               	movf	___fldiv@b,w
  6490  09BD  00B7               	movwf	?___fldiv
  6491  09BE  2B1E               	goto	l691
  6492  09BF                     l3644:
  6493  09BF  084F               	movf	___fldiv@bexp,w
  6494  09C0  1D03               	btfss	3,2
  6495  09C1  29C3               	goto	u5491
  6496  09C2  29C4               	goto	u5490
  6497  09C3                     u5491:
  6498  09C3  29CD               	goto	l3650
  6499  09C4                     u5490:
  6500  09C4                     l3646:
  6501  09C4  3000               	movlw	0
  6502  09C5  00BA               	movwf	?___fldiv+3
  6503  09C6  3000               	movlw	0
  6504  09C7  00B9               	movwf	?___fldiv+2
  6505  09C8  3000               	movlw	0
  6506  09C9  00B8               	movwf	?___fldiv+1
  6507  09CA  3000               	movlw	0
  6508  09CB  00B7               	movwf	?___fldiv
  6509  09CC  2B1E               	goto	l691
  6510  09CD                     l3650:
  6511  09CD  084F               	movf	___fldiv@bexp,w
  6512  09CE  00BF               	movwf	??___fldiv
  6513  09CF  01C0               	clrf	??___fldiv+1
  6514  09D0  0840               	movf	??___fldiv+1,w
  6515  09D1  00C2               	movwf	??___fldiv+3
  6516  09D2  0850               	movf	___fldiv@aexp,w
  6517  09D3  023F               	subwf	??___fldiv,w
  6518  09D4  00C1               	movwf	??___fldiv+2
  6519  09D5  1C03               	skipc
  6520  09D6  03C2               	decf	??___fldiv+3,f
  6521  09D7  0841               	movf	??___fldiv+2,w
  6522  09D8  3E7F               	addlw	127
  6523  09D9  00C9               	movwf	___fldiv@new_exp
  6524  09DA  0842               	movf	??___fldiv+3,w
  6525  09DB  1803               	skipnc
  6526  09DC  3E01               	addlw	1
  6527  09DD  3E00               	addlw	0
  6528  09DE  00CA               	movwf	___fldiv@new_exp+1
  6529  09DF                     l3652:
  6530  09DF  083E               	movf	___fldiv@b+3,w
  6531  09E0  00C7               	movwf	___fldiv@rem+3
  6532  09E1  083D               	movf	___fldiv@b+2,w
  6533  09E2  00C6               	movwf	___fldiv@rem+2
  6534  09E3  083C               	movf	___fldiv@b+1,w
  6535  09E4  00C5               	movwf	___fldiv@rem+1
  6536  09E5  083B               	movf	___fldiv@b,w
  6537  09E6  00C4               	movwf	___fldiv@rem
  6538  09E7                     l3654:
  6539  09E7  3000               	movlw	0
  6540  09E8  00BE               	movwf	___fldiv@b+3
  6541  09E9  3000               	movlw	0
  6542  09EA  00BD               	movwf	___fldiv@b+2
  6543  09EB  3000               	movlw	0
  6544  09EC  00BC               	movwf	___fldiv@b+1
  6545  09ED  3000               	movlw	0
  6546  09EE  00BB               	movwf	___fldiv@b
  6547  09EF                     l3656:
  6548  09EF  3000               	movlw	0
  6549  09F0  00CE               	movwf	___fldiv@grs+3
  6550  09F1  3000               	movlw	0
  6551  09F2  00CD               	movwf	___fldiv@grs+2
  6552  09F3  3000               	movlw	0
  6553  09F4  00CC               	movwf	___fldiv@grs+1
  6554  09F5  3000               	movlw	0
  6555  09F6  00CB               	movwf	___fldiv@grs
  6556  09F7                     l3658:
  6557  09F7  01D0               	clrf	___fldiv@aexp
  6558  09F8  2A43               	goto	l3678
  6559  09F9                     l3660:
  6560  09F9  0850               	movf	___fldiv@aexp,w
  6561  09FA  1903               	btfsc	3,2
  6562  09FB  29FD               	goto	u5501
  6563  09FC  29FE               	goto	u5500
  6564  09FD                     u5501:
  6565  09FD  2A1E               	goto	l3670
  6566  09FE                     u5500:
  6567  09FE                     l3662:
  6568  09FE  3001               	movlw	1
  6569  09FF  00BF               	movwf	??___fldiv
  6570  0A00                     u5515:
  6571  0A00  1003               	clrc
  6572  0A01  0DC4               	rlf	___fldiv@rem,f
  6573  0A02  0DC5               	rlf	___fldiv@rem+1,f
  6574  0A03  0DC6               	rlf	___fldiv@rem+2,f
  6575  0A04  0DC7               	rlf	___fldiv@rem+3,f
  6576  0A05  0BBF               	decfsz	??___fldiv,f
  6577  0A06  2A00               	goto	u5515
  6578  0A07  3001               	movlw	1
  6579  0A08  00BF               	movwf	??___fldiv
  6580  0A09                     u5525:
  6581  0A09  1003               	clrc
  6582  0A0A  0DBB               	rlf	___fldiv@b,f
  6583  0A0B  0DBC               	rlf	___fldiv@b+1,f
  6584  0A0C  0DBD               	rlf	___fldiv@b+2,f
  6585  0A0D  0DBE               	rlf	___fldiv@b+3,f
  6586  0A0E  0BBF               	decfsz	??___fldiv,f
  6587  0A0F  2A09               	goto	u5525
  6588  0A10                     l3664:
  6589  0A10  1FCE               	btfss	___fldiv@grs+3,7
  6590  0A11  2A13               	goto	u5531
  6591  0A12  2A14               	goto	u5530
  6592  0A13                     u5531:
  6593  0A13  2A15               	goto	l3668
  6594  0A14                     u5530:
  6595  0A14                     l3666:
  6596  0A14  143B               	bsf	___fldiv@b,0
  6597  0A15                     l3668:
  6598  0A15  3001               	movlw	1
  6599  0A16  00BF               	movwf	??___fldiv
  6600  0A17                     u5545:
  6601  0A17  1003               	clrc
  6602  0A18  0DCB               	rlf	___fldiv@grs,f
  6603  0A19  0DCC               	rlf	___fldiv@grs+1,f
  6604  0A1A  0DCD               	rlf	___fldiv@grs+2,f
  6605  0A1B  0DCE               	rlf	___fldiv@grs+3,f
  6606  0A1C  0BBF               	decfsz	??___fldiv,f
  6607  0A1D  2A17               	goto	u5545
  6608  0A1E                     l3670:
  6609  0A1E  083A               	movf	___fldiv@a+3,w
  6610  0A1F  0247               	subwf	___fldiv@rem+3,w
  6611  0A20  1D03               	skipz
  6612  0A21  2A2C               	goto	u5555
  6613  0A22  0839               	movf	___fldiv@a+2,w
  6614  0A23  0246               	subwf	___fldiv@rem+2,w
  6615  0A24  1D03               	skipz
  6616  0A25  2A2C               	goto	u5555
  6617  0A26  0838               	movf	___fldiv@a+1,w
  6618  0A27  0245               	subwf	___fldiv@rem+1,w
  6619  0A28  1D03               	skipz
  6620  0A29  2A2C               	goto	u5555
  6621  0A2A  0837               	movf	___fldiv@a,w
  6622  0A2B  0244               	subwf	___fldiv@rem,w
  6623  0A2C                     u5555:
  6624  0A2C  1C03               	skipc
  6625  0A2D  2A2F               	goto	u5551
  6626  0A2E  2A30               	goto	u5550
  6627  0A2F                     u5551:
  6628  0A2F  2A3F               	goto	l3676
  6629  0A30                     u5550:
  6630  0A30                     l3672:
  6631  0A30  174E               	bsf	___fldiv@grs+3,6
  6632  0A31                     l3674:
  6633  0A31  0837               	movf	___fldiv@a,w
  6634  0A32  02C4               	subwf	___fldiv@rem,f
  6635  0A33  0838               	movf	___fldiv@a+1,w
  6636  0A34  1C03               	skipc
  6637  0A35  0F38               	incfsz	___fldiv@a+1,w
  6638  0A36  02C5               	subwf	___fldiv@rem+1,f
  6639  0A37  0839               	movf	___fldiv@a+2,w
  6640  0A38  1C03               	skipc
  6641  0A39  0F39               	incfsz	___fldiv@a+2,w
  6642  0A3A  02C6               	subwf	___fldiv@rem+2,f
  6643  0A3B  083A               	movf	___fldiv@a+3,w
  6644  0A3C  1C03               	skipc
  6645  0A3D  0F3A               	incfsz	___fldiv@a+3,w
  6646  0A3E  02C7               	subwf	___fldiv@rem+3,f
  6647  0A3F                     l3676:
  6648  0A3F  3001               	movlw	1
  6649  0A40  00BF               	movwf	??___fldiv
  6650  0A41  083F               	movf	??___fldiv,w
  6651  0A42  07D0               	addwf	___fldiv@aexp,f
  6652  0A43                     l3678:
  6653  0A43  301A               	movlw	26
  6654  0A44  0250               	subwf	___fldiv@aexp,w
  6655  0A45  1C03               	skipc
  6656  0A46  2A48               	goto	u5561
  6657  0A47  2A49               	goto	u5560
  6658  0A48                     u5561:
  6659  0A48  29F9               	goto	l3660
  6660  0A49                     u5560:
  6661  0A49                     l3680:
  6662  0A49  0847               	movf	___fldiv@rem+3,w
  6663  0A4A  0446               	iorwf	___fldiv@rem+2,w
  6664  0A4B  0445               	iorwf	___fldiv@rem+1,w
  6665  0A4C  0444               	iorwf	___fldiv@rem,w
  6666  0A4D  1903               	skipnz
  6667  0A4E  2A50               	goto	u5571
  6668  0A4F  2A51               	goto	u5570
  6669  0A50                     u5571:
  6670  0A50  2A70               	goto	l3694
  6671  0A51                     u5570:
  6672  0A51                     l3682:
  6673  0A51  144B               	bsf	___fldiv@grs,0
  6674  0A52  2A70               	goto	l3694
  6675  0A53                     l3684:
  6676  0A53  3001               	movlw	1
  6677  0A54  00BF               	movwf	??___fldiv
  6678  0A55                     u5585:
  6679  0A55  1003               	clrc
  6680  0A56  0DBB               	rlf	___fldiv@b,f
  6681  0A57  0DBC               	rlf	___fldiv@b+1,f
  6682  0A58  0DBD               	rlf	___fldiv@b+2,f
  6683  0A59  0DBE               	rlf	___fldiv@b+3,f
  6684  0A5A  0BBF               	decfsz	??___fldiv,f
  6685  0A5B  2A55               	goto	u5585
  6686  0A5C                     l3686:
  6687  0A5C  1FCE               	btfss	___fldiv@grs+3,7
  6688  0A5D  2A5F               	goto	u5591
  6689  0A5E  2A60               	goto	u5590
  6690  0A5F                     u5591:
  6691  0A5F  2A61               	goto	l3690
  6692  0A60                     u5590:
  6693  0A60                     l3688:
  6694  0A60  143B               	bsf	___fldiv@b,0
  6695  0A61                     l3690:
  6696  0A61  3001               	movlw	1
  6697  0A62  00BF               	movwf	??___fldiv
  6698  0A63                     u5605:
  6699  0A63  1003               	clrc
  6700  0A64  0DCB               	rlf	___fldiv@grs,f
  6701  0A65  0DCC               	rlf	___fldiv@grs+1,f
  6702  0A66  0DCD               	rlf	___fldiv@grs+2,f
  6703  0A67  0DCE               	rlf	___fldiv@grs+3,f
  6704  0A68  0BBF               	decfsz	??___fldiv,f
  6705  0A69  2A63               	goto	u5605
  6706  0A6A                     l3692:
  6707  0A6A  30FF               	movlw	255
  6708  0A6B  07C9               	addwf	___fldiv@new_exp,f
  6709  0A6C  1803               	skipnc
  6710  0A6D  0ACA               	incf	___fldiv@new_exp+1,f
  6711  0A6E  30FF               	movlw	255
  6712  0A6F  07CA               	addwf	___fldiv@new_exp+1,f
  6713  0A70                     l3694:
  6714  0A70  1FBD               	btfss	___fldiv@b+2,7
  6715  0A71  2A73               	goto	u5611
  6716  0A72  2A74               	goto	u5610
  6717  0A73                     u5611:
  6718  0A73  2A53               	goto	l3684
  6719  0A74                     u5610:
  6720  0A74                     l3696:
  6721  0A74  01D0               	clrf	___fldiv@aexp
  6722  0A75                     l3698:
  6723  0A75  1FCE               	btfss	___fldiv@grs+3,7
  6724  0A76  2A78               	goto	u5621
  6725  0A77  2A79               	goto	u5620
  6726  0A78                     u5621:
  6727  0A78  2A95               	goto	l3706
  6728  0A79                     u5620:
  6729  0A79                     l3700:
  6730  0A79  30FF               	movlw	255
  6731  0A7A  054B               	andwf	___fldiv@grs,w
  6732  0A7B  00BF               	movwf	??___fldiv
  6733  0A7C  30FF               	movlw	255
  6734  0A7D  054C               	andwf	___fldiv@grs+1,w
  6735  0A7E  00C0               	movwf	??___fldiv+1
  6736  0A7F  30FF               	movlw	255
  6737  0A80  054D               	andwf	___fldiv@grs+2,w
  6738  0A81  00C1               	movwf	??___fldiv+2
  6739  0A82  307F               	movlw	127
  6740  0A83  054E               	andwf	___fldiv@grs+3,w
  6741  0A84  00C2               	movwf	??___fldiv+3
  6742  0A85  0842               	movf	??___fldiv+3,w
  6743  0A86  0441               	iorwf	??___fldiv+2,w
  6744  0A87  0440               	iorwf	??___fldiv+1,w
  6745  0A88  043F               	iorwf	??___fldiv,w
  6746  0A89  1903               	skipnz
  6747  0A8A  2A8C               	goto	u5631
  6748  0A8B  2A8D               	goto	u5630
  6749  0A8C                     u5631:
  6750  0A8C  2A90               	goto	l705
  6751  0A8D                     u5630:
  6752  0A8D                     l3702:
  6753  0A8D  01D0               	clrf	___fldiv@aexp
  6754  0A8E  0AD0               	incf	___fldiv@aexp,f
  6755  0A8F  2A95               	goto	l3706
  6756  0A90                     l705:
  6757  0A90  1C3B               	btfss	___fldiv@b,0
  6758  0A91  2A93               	goto	u5641
  6759  0A92  2A94               	goto	u5640
  6760  0A93                     u5641:
  6761  0A93  2A95               	goto	l3706
  6762  0A94                     u5640:
  6763  0A94  2A8D               	goto	l3702
  6764  0A95                     l3706:
  6765  0A95  0850               	movf	___fldiv@aexp,w
  6766  0A96  1903               	btfsc	3,2
  6767  0A97  2A99               	goto	u5651
  6768  0A98  2A9A               	goto	u5650
  6769  0A99                     u5651:
  6770  0A99  2ACB               	goto	l3716
  6771  0A9A                     u5650:
  6772  0A9A                     l3708:
  6773  0A9A  3001               	movlw	1
  6774  0A9B  07BB               	addwf	___fldiv@b,f
  6775  0A9C  3000               	movlw	0
  6776  0A9D  1803               	skipnc
  6777  0A9E  3001               	movlw	1
  6778  0A9F  07BC               	addwf	___fldiv@b+1,f
  6779  0AA0  3000               	movlw	0
  6780  0AA1  1803               	skipnc
  6781  0AA2  3001               	movlw	1
  6782  0AA3  07BD               	addwf	___fldiv@b+2,f
  6783  0AA4  3000               	movlw	0
  6784  0AA5  1803               	skipnc
  6785  0AA6  3001               	movlw	1
  6786  0AA7  07BE               	addwf	___fldiv@b+3,f
  6787  0AA8                     l3710:
  6788  0AA8  1C3E               	btfss	___fldiv@b+3,0
  6789  0AA9  2AAB               	goto	u5661
  6790  0AAA  2AAC               	goto	u5660
  6791  0AAB                     u5661:
  6792  0AAB  2ACB               	goto	l3716
  6793  0AAC                     u5660:
  6794  0AAC                     l3712:
  6795  0AAC  083B               	movf	___fldiv@b,w
  6796  0AAD  00BF               	movwf	??___fldiv
  6797  0AAE  083C               	movf	___fldiv@b+1,w
  6798  0AAF  00C0               	movwf	??___fldiv+1
  6799  0AB0  083D               	movf	___fldiv@b+2,w
  6800  0AB1  00C1               	movwf	??___fldiv+2
  6801  0AB2  083E               	movf	___fldiv@b+3,w
  6802  0AB3  00C2               	movwf	??___fldiv+3
  6803  0AB4  3001               	movlw	1
  6804  0AB5  00C3               	movwf	??___fldiv+4
  6805  0AB6                     u5675:
  6806  0AB6  0D42               	rlf	??___fldiv+3,w
  6807  0AB7  0CC2               	rrf	??___fldiv+3,f
  6808  0AB8  0CC1               	rrf	??___fldiv+2,f
  6809  0AB9  0CC0               	rrf	??___fldiv+1,f
  6810  0ABA  0CBF               	rrf	??___fldiv,f
  6811  0ABB                     u5670:
  6812  0ABB  0BC3               	decfsz	??___fldiv+4,f
  6813  0ABC  2AB6               	goto	u5675
  6814  0ABD  0842               	movf	??___fldiv+3,w
  6815  0ABE  00BE               	movwf	___fldiv@b+3
  6816  0ABF  0841               	movf	??___fldiv+2,w
  6817  0AC0  00BD               	movwf	___fldiv@b+2
  6818  0AC1  0840               	movf	??___fldiv+1,w
  6819  0AC2  00BC               	movwf	___fldiv@b+1
  6820  0AC3  083F               	movf	??___fldiv,w
  6821  0AC4  00BB               	movwf	___fldiv@b
  6822  0AC5                     l3714:
  6823  0AC5  3001               	movlw	1
  6824  0AC6  07C9               	addwf	___fldiv@new_exp,f
  6825  0AC7  1803               	skipnc
  6826  0AC8  0ACA               	incf	___fldiv@new_exp+1,f
  6827  0AC9  3000               	movlw	0
  6828  0ACA  07CA               	addwf	___fldiv@new_exp+1,f
  6829  0ACB                     l3716:
  6830  0ACB  084A               	movf	___fldiv@new_exp+1,w
  6831  0ACC  3A80               	xorlw	128
  6832  0ACD  00FF               	movwf	btemp+1
  6833  0ACE  3080               	movlw	128
  6834  0ACF  027F               	subwf	btemp+1,w
  6835  0AD0  1D03               	skipz
  6836  0AD1  2AD4               	goto	u5685
  6837  0AD2  30FF               	movlw	255
  6838  0AD3  0249               	subwf	___fldiv@new_exp,w
  6839  0AD4                     u5685:
  6840  0AD4  1C03               	skipc
  6841  0AD5  2AD7               	goto	u5681
  6842  0AD6  2AD8               	goto	u5680
  6843  0AD7                     u5681:
  6844  0AD7  2AE6               	goto	l3720
  6845  0AD8                     u5680:
  6846  0AD8                     l3718:
  6847  0AD8  30FF               	movlw	255
  6848  0AD9  1283               	bcf	3,5	;RP0=0, select bank0
  6849  0ADA  1303               	bcf	3,6	;RP1=0, select bank0
  6850  0ADB  00C9               	movwf	___fldiv@new_exp
  6851  0ADC  3000               	movlw	0
  6852  0ADD  00CA               	movwf	___fldiv@new_exp+1
  6853  0ADE  3000               	movlw	0
  6854  0ADF  00BE               	movwf	___fldiv@b+3
  6855  0AE0  3000               	movlw	0
  6856  0AE1  00BD               	movwf	___fldiv@b+2
  6857  0AE2  3000               	movlw	0
  6858  0AE3  00BC               	movwf	___fldiv@b+1
  6859  0AE4  3000               	movlw	0
  6860  0AE5  00BB               	movwf	___fldiv@b
  6861  0AE6                     l3720:
  6862  0AE6  1283               	bcf	3,5	;RP0=0, select bank0
  6863  0AE7  1303               	bcf	3,6	;RP1=0, select bank0
  6864  0AE8  084A               	movf	___fldiv@new_exp+1,w
  6865  0AE9  3A80               	xorlw	128
  6866  0AEA  00FF               	movwf	btemp+1
  6867  0AEB  3080               	movlw	128
  6868  0AEC  027F               	subwf	btemp+1,w
  6869  0AED  1D03               	skipz
  6870  0AEE  2AF1               	goto	u5695
  6871  0AEF  3001               	movlw	1
  6872  0AF0  0249               	subwf	___fldiv@new_exp,w
  6873  0AF1                     u5695:
  6874  0AF1  1803               	skipnc
  6875  0AF2  2AF4               	goto	u5691
  6876  0AF3  2AF5               	goto	u5690
  6877  0AF4                     u5691:
  6878  0AF4  2B02               	goto	l711
  6879  0AF5                     u5690:
  6880  0AF5                     l3722:
  6881  0AF5  1283               	bcf	3,5	;RP0=0, select bank0
  6882  0AF6  1303               	bcf	3,6	;RP1=0, select bank0
  6883  0AF7  01C9               	clrf	___fldiv@new_exp
  6884  0AF8  01CA               	clrf	___fldiv@new_exp+1
  6885  0AF9                     l3724:
  6886  0AF9  3000               	movlw	0
  6887  0AFA  00BE               	movwf	___fldiv@b+3
  6888  0AFB  3000               	movlw	0
  6889  0AFC  00BD               	movwf	___fldiv@b+2
  6890  0AFD  3000               	movlw	0
  6891  0AFE  00BC               	movwf	___fldiv@b+1
  6892  0AFF  3000               	movlw	0
  6893  0B00  00BB               	movwf	___fldiv@b
  6894  0B01                     l3726:
  6895  0B01  01C8               	clrf	___fldiv@sign
  6896  0B02                     l711:
  6897  0B02  1283               	bcf	3,5	;RP0=0, select bank0
  6898  0B03  1303               	bcf	3,6	;RP1=0, select bank0
  6899  0B04  0849               	movf	___fldiv@new_exp,w
  6900  0B05  00BF               	movwf	??___fldiv
  6901  0B06  083F               	movf	??___fldiv,w
  6902  0B07  00CF               	movwf	___fldiv@bexp
  6903  0B08                     l3728:
  6904  0B08  1C4F               	btfss	___fldiv@bexp,0
  6905  0B09  2B0B               	goto	u5701
  6906  0B0A  2B0C               	goto	u5700
  6907  0B0B                     u5701:
  6908  0B0B  2B0E               	goto	l3732
  6909  0B0C                     u5700:
  6910  0B0C                     l3730:
  6911  0B0C  17BD               	bsf	___fldiv@b+2,7
  6912  0B0D  2B12               	goto	l713
  6913  0B0E                     l3732:
  6914  0B0E  307F               	movlw	127
  6915  0B0F  00BF               	movwf	??___fldiv
  6916  0B10  083F               	movf	??___fldiv,w
  6917  0B11  05BD               	andwf	___fldiv@b+2,f
  6918  0B12                     l713:
  6919  0B12  084F               	movf	___fldiv@bexp,w
  6920  0B13  00BF               	movwf	??___fldiv
  6921  0B14  1003               	clrc
  6922  0B15  0C3F               	rrf	??___fldiv,w
  6923  0B16  00C0               	movwf	??___fldiv+1
  6924  0B17  0840               	movf	??___fldiv+1,w
  6925  0B18  00BE               	movwf	___fldiv@b+3
  6926  0B19  0848               	movf	___fldiv@sign,w
  6927  0B1A  00BF               	movwf	??___fldiv
  6928  0B1B  083F               	movf	??___fldiv,w
  6929  0B1C  04BE               	iorwf	___fldiv@b+3,f
  6930  0B1D  29B6               	goto	l3640
  6931  0B1E                     l691:
  6932  0B1E  0008               	return
  6933  0B1F                     __end_of___fldiv:
  6934                           
  6935                           	psect	text14
  6936  15D9                     __ptext14:	
  6937 ;; *************** function ___awdiv *****************
  6938 ;; Defined at:
  6939 ;;		line 5 in file "C:\Program Files\Microchip\xc8\v2.31\pic\sources\c90\common\awdiv.c"
  6940 ;; Parameters:    Size  Location     Type
  6941 ;;  divisor         2    2[COMMON] int 
  6942 ;;  dividend        2    4[COMMON] int 
  6943 ;; Auto vars:     Size  Location     Type
  6944 ;;  quotient        2    2[BANK0 ] int 
  6945 ;;  sign            1    1[BANK0 ] unsigned char 
  6946 ;;  counter         1    0[BANK0 ] unsigned char 
  6947 ;; Return value:  Size  Location     Type
  6948 ;;                  2    2[COMMON] int 
  6949 ;; Registers used:
  6950 ;;		wreg, status,2, status,0
  6951 ;; Tracked objects:
  6952 ;;		On entry : 0/0
  6953 ;;		On exit  : 0/0
  6954 ;;		Unchanged: 0/0
  6955 ;; Data sizes:     COMMON   BANK0   BANK1   BANK3   BANK2
  6956 ;;      Params:         4       0       0       0       0
  6957 ;;      Locals:         0       4       0       0       0
  6958 ;;      Temps:          1       0       0       0       0
  6959 ;;      Totals:         5       4       0       0       0
  6960 ;;Total ram usage:        9 bytes
  6961 ;; Hardware stack levels used:    1
  6962 ;; Hardware stack levels required when called:    1
  6963 ;; This function calls:
  6964 ;;		Nothing
  6965 ;; This function is called by:
  6966 ;;		_intToString
  6967 ;;		_convert
  6968 ;; This function uses a non-reentrant model
  6969 ;;
  6970                           
  6971                           
  6972                           ;psect for function ___awdiv
  6973  15D9                     ___awdiv:
  6974  15D9                     l3452:	
  6975                           ;incstack = 0
  6976                           ; Regs used in ___awdiv: [wreg+status,2+status,0]
  6977                           
  6978  15D9  1283               	bcf	3,5	;RP0=0, select bank0
  6979  15DA  1303               	bcf	3,6	;RP1=0, select bank0
  6980  15DB  01A1               	clrf	___awdiv@sign
  6981  15DC                     l3454:
  6982  15DC  1FF3               	btfss	___awdiv@divisor+1,7
  6983  15DD  2DDF               	goto	u5061
  6984  15DE  2DE0               	goto	u5060
  6985  15DF                     u5061:
  6986  15DF  2DE7               	goto	l3460
  6987  15E0                     u5060:
  6988  15E0                     l3456:
  6989  15E0  09F2               	comf	___awdiv@divisor,f
  6990  15E1  09F3               	comf	___awdiv@divisor+1,f
  6991  15E2  0AF2               	incf	___awdiv@divisor,f
  6992  15E3  1903               	skipnz
  6993  15E4  0AF3               	incf	___awdiv@divisor+1,f
  6994  15E5                     l3458:
  6995  15E5  01A1               	clrf	___awdiv@sign
  6996  15E6  0AA1               	incf	___awdiv@sign,f
  6997  15E7                     l3460:
  6998  15E7  1FF5               	btfss	___awdiv@dividend+1,7
  6999  15E8  2DEA               	goto	u5071
  7000  15E9  2DEB               	goto	u5070
  7001  15EA                     u5071:
  7002  15EA  2DF4               	goto	l3466
  7003  15EB                     u5070:
  7004  15EB                     l3462:
  7005  15EB  09F4               	comf	___awdiv@dividend,f
  7006  15EC  09F5               	comf	___awdiv@dividend+1,f
  7007  15ED  0AF4               	incf	___awdiv@dividend,f
  7008  15EE  1903               	skipnz
  7009  15EF  0AF5               	incf	___awdiv@dividend+1,f
  7010  15F0                     l3464:
  7011  15F0  3001               	movlw	1
  7012  15F1  00F6               	movwf	??___awdiv
  7013  15F2  0876               	movf	??___awdiv,w
  7014  15F3  06A1               	xorwf	___awdiv@sign,f
  7015  15F4                     l3466:
  7016  15F4  01A2               	clrf	___awdiv@quotient
  7017  15F5  01A3               	clrf	___awdiv@quotient+1
  7018  15F6                     l3468:
  7019  15F6  0872               	movf	___awdiv@divisor,w
  7020  15F7  0473               	iorwf	___awdiv@divisor+1,w
  7021  15F8  1903               	btfsc	3,2
  7022  15F9  2DFB               	goto	u5081
  7023  15FA  2DFC               	goto	u5080
  7024  15FB                     u5081:
  7025  15FB  2E33               	goto	l3488
  7026  15FC                     u5080:
  7027  15FC                     l3470:
  7028  15FC  01A0               	clrf	___awdiv@counter
  7029  15FD  0AA0               	incf	___awdiv@counter,f
  7030  15FE  2E0A               	goto	l3476
  7031  15FF                     l3472:
  7032  15FF  3001               	movlw	1
  7033  1600                     u5095:
  7034  1600  1003               	clrc
  7035  1601  0DF2               	rlf	___awdiv@divisor,f
  7036  1602  0DF3               	rlf	___awdiv@divisor+1,f
  7037  1603  3EFF               	addlw	-1
  7038  1604  1D03               	skipz
  7039  1605  2E00               	goto	u5095
  7040  1606                     l3474:
  7041  1606  3001               	movlw	1
  7042  1607  00F6               	movwf	??___awdiv
  7043  1608  0876               	movf	??___awdiv,w
  7044  1609  07A0               	addwf	___awdiv@counter,f
  7045  160A                     l3476:
  7046  160A  1FF3               	btfss	___awdiv@divisor+1,7
  7047  160B  2E0D               	goto	u5101
  7048  160C  2E0E               	goto	u5100
  7049  160D                     u5101:
  7050  160D  2DFF               	goto	l3472
  7051  160E                     u5100:
  7052  160E                     l3478:
  7053  160E  3001               	movlw	1
  7054  160F                     u5115:
  7055  160F  1003               	clrc
  7056  1610  0DA2               	rlf	___awdiv@quotient,f
  7057  1611  0DA3               	rlf	___awdiv@quotient+1,f
  7058  1612  3EFF               	addlw	-1
  7059  1613  1D03               	skipz
  7060  1614  2E0F               	goto	u5115
  7061  1615  0873               	movf	___awdiv@divisor+1,w
  7062  1616  0275               	subwf	___awdiv@dividend+1,w
  7063  1617  1D03               	skipz
  7064  1618  2E1B               	goto	u5125
  7065  1619  0872               	movf	___awdiv@divisor,w
  7066  161A  0274               	subwf	___awdiv@dividend,w
  7067  161B                     u5125:
  7068  161B  1C03               	skipc
  7069  161C  2E1E               	goto	u5121
  7070  161D  2E1F               	goto	u5120
  7071  161E                     u5121:
  7072  161E  2E26               	goto	l3484
  7073  161F                     u5120:
  7074  161F                     l3480:
  7075  161F  0872               	movf	___awdiv@divisor,w
  7076  1620  02F4               	subwf	___awdiv@dividend,f
  7077  1621  0873               	movf	___awdiv@divisor+1,w
  7078  1622  1C03               	skipc
  7079  1623  03F5               	decf	___awdiv@dividend+1,f
  7080  1624  02F5               	subwf	___awdiv@dividend+1,f
  7081  1625                     l3482:
  7082  1625  1422               	bsf	___awdiv@quotient,0
  7083  1626                     l3484:
  7084  1626  3001               	movlw	1
  7085  1627                     u5135:
  7086  1627  1003               	clrc
  7087  1628  0CF3               	rrf	___awdiv@divisor+1,f
  7088  1629  0CF2               	rrf	___awdiv@divisor,f
  7089  162A  3EFF               	addlw	-1
  7090  162B  1D03               	skipz
  7091  162C  2E27               	goto	u5135
  7092  162D                     l3486:
  7093  162D  3001               	movlw	1
  7094  162E  02A0               	subwf	___awdiv@counter,f
  7095  162F  1D03               	btfss	3,2
  7096  1630  2E32               	goto	u5141
  7097  1631  2E33               	goto	u5140
  7098  1632                     u5141:
  7099  1632  2E0E               	goto	l3478
  7100  1633                     u5140:
  7101  1633                     l3488:
  7102  1633  0821               	movf	___awdiv@sign,w
  7103  1634  1903               	btfsc	3,2
  7104  1635  2E37               	goto	u5151
  7105  1636  2E38               	goto	u5150
  7106  1637                     u5151:
  7107  1637  2E3D               	goto	l3492
  7108  1638                     u5150:
  7109  1638                     l3490:
  7110  1638  09A2               	comf	___awdiv@quotient,f
  7111  1639  09A3               	comf	___awdiv@quotient+1,f
  7112  163A  0AA2               	incf	___awdiv@quotient,f
  7113  163B  1903               	skipnz
  7114  163C  0AA3               	incf	___awdiv@quotient+1,f
  7115  163D                     l3492:
  7116  163D  0823               	movf	___awdiv@quotient+1,w
  7117  163E  00F3               	movwf	?___awdiv+1
  7118  163F  0822               	movf	___awdiv@quotient,w
  7119  1640  00F2               	movwf	?___awdiv
  7120  1641                     l493:
  7121  1641  0008               	return
  7122  1642                     __end_of___awdiv:
  7123                           
  7124                           	psect	text15
  7125  1311                     __ptext15:	
  7126 ;; *************** function _configADC *****************
  7127 ;; Defined at:
  7128 ;;		line 141 in file "ADC.c"
  7129 ;; Parameters:    Size  Location     Type
  7130 ;;		None
  7131 ;; Auto vars:     Size  Location     Type
  7132 ;;		None
  7133 ;; Return value:  Size  Location     Type
  7134 ;;                  1    wreg      void 
  7135 ;; Registers used:
  7136 ;;		None
  7137 ;; Tracked objects:
  7138 ;;		On entry : 0/0
  7139 ;;		On exit  : 0/0
  7140 ;;		Unchanged: 0/0
  7141 ;; Data sizes:     COMMON   BANK0   BANK1   BANK3   BANK2
  7142 ;;      Params:         0       0       0       0       0
  7143 ;;      Locals:         0       0       0       0       0
  7144 ;;      Temps:          0       0       0       0       0
  7145 ;;      Totals:         0       0       0       0       0
  7146 ;;Total ram usage:        0 bytes
  7147 ;; Hardware stack levels used:    1
  7148 ;; Hardware stack levels required when called:    1
  7149 ;; This function calls:
  7150 ;;		Nothing
  7151 ;; This function is called by:
  7152 ;;		_main
  7153 ;; This function uses a non-reentrant model
  7154 ;;
  7155                           
  7156                           
  7157                           ;psect for function _configADC
  7158  1311                     _configADC:
  7159  1311                     l4012:	
  7160                           ;incstack = 0
  7161                           ; Regs used in _configADC: []
  7162                           
  7163                           
  7164                           ;ADC.c: 143:     ADCON0bits.ADCS0 = 1;
  7165  1311  1283               	bcf	3,5	;RP0=0, select bank0
  7166  1312  1303               	bcf	3,6	;RP1=0, select bank0
  7167  1313  171F               	bsf	31,6	;volatile
  7168                           
  7169                           ;ADC.c: 144:     ADCON0bits.ADCS1 = 0;
  7170  1314  139F               	bcf	31,7	;volatile
  7171                           
  7172                           ;ADC.c: 146:     ADCON1bits.VCFG0 = 0;
  7173  1315  1683               	bsf	3,5	;RP0=1, select bank1
  7174  1316  1303               	bcf	3,6	;RP1=0, select bank1
  7175  1317  121F               	bcf	31,4	;volatile
  7176                           
  7177                           ;ADC.c: 147:     ADCON1bits.VCFG1 = 0;
  7178  1318  129F               	bcf	31,5	;volatile
  7179                           
  7180                           ;ADC.c: 149:     ADCON1bits.ADFM = 0;
  7181  1319  139F               	bcf	31,7	;volatile
  7182                           
  7183                           ;ADC.c: 151:     PIR1bits.ADIF = 0;
  7184  131A  1283               	bcf	3,5	;RP0=0, select bank0
  7185  131B  1303               	bcf	3,6	;RP1=0, select bank0
  7186  131C  130C               	bcf	12,6	;volatile
  7187                           
  7188                           ;ADC.c: 152:     PIE1bits.ADIE = 1;
  7189  131D  1683               	bsf	3,5	;RP0=1, select bank1
  7190  131E  1303               	bcf	3,6	;RP1=0, select bank1
  7191  131F  170C               	bsf	12,6	;volatile
  7192                           
  7193                           ;ADC.c: 154:     ADCON0bits.ADON = 1;
  7194  1320  1283               	bcf	3,5	;RP0=0, select bank0
  7195  1321  1303               	bcf	3,6	;RP1=0, select bank0
  7196  1322  141F               	bsf	31,0	;volatile
  7197  1323                     l254:
  7198  1323  0008               	return
  7199  1324                     __end_of_configADC:
  7200                           
  7201                           	psect	text16
  7202  1755                     __ptext16:	
  7203 ;; *************** function _canalADC *****************
  7204 ;; Defined at:
  7205 ;;		line 13 in file "ADC.c"
  7206 ;; Parameters:    Size  Location     Type
  7207 ;;  canal           1    wreg     unsigned char 
  7208 ;; Auto vars:     Size  Location     Type
  7209 ;;  canal           1    2[COMMON] unsigned char 
  7210 ;; Return value:  Size  Location     Type
  7211 ;;                  1    wreg      void 
  7212 ;; Registers used:
  7213 ;;		wreg, status,2, status,0
  7214 ;; Tracked objects:
  7215 ;;		On entry : 0/0
  7216 ;;		On exit  : 0/0
  7217 ;;		Unchanged: 0/0
  7218 ;; Data sizes:     COMMON   BANK0   BANK1   BANK3   BANK2
  7219 ;;      Params:         0       0       0       0       0
  7220 ;;      Locals:         1       0       0       0       0
  7221 ;;      Temps:          0       0       0       0       0
  7222 ;;      Totals:         1       0       0       0       0
  7223 ;;Total ram usage:        1 bytes
  7224 ;; Hardware stack levels used:    1
  7225 ;; Hardware stack levels required when called:    1
  7226 ;; This function calls:
  7227 ;;		Nothing
  7228 ;; This function is called by:
  7229 ;;		_main
  7230 ;; This function uses a non-reentrant model
  7231 ;;
  7232                           
  7233                           
  7234                           ;psect for function _canalADC
  7235  1755                     _canalADC:
  7236                           
  7237                           ;incstack = 0
  7238                           ; Regs used in _canalADC: [wreg+status,2+status,0]
  7239                           ;canalADC@canal stored from wreg
  7240  1755  00F2               	movwf	canalADC@canal
  7241  1756                     l4014:
  7242                           
  7243                           ;ADC.c: 15:     if (canal == 0) {
  7244  1756  0872               	movf	canalADC@canal,w
  7245  1757  1D03               	btfss	3,2
  7246  1758  2F5A               	goto	u6281
  7247  1759  2F5B               	goto	u6280
  7248  175A                     u6281:
  7249  175A  2F61               	goto	l4018
  7250  175B                     u6280:
  7251  175B                     l4016:
  7252                           
  7253                           ;ADC.c: 16:         ADCON0bits.CHS3 = 0;
  7254  175B  1283               	bcf	3,5	;RP0=0, select bank0
  7255  175C  1303               	bcf	3,6	;RP1=0, select bank0
  7256  175D  129F               	bcf	31,5	;volatile
  7257                           
  7258                           ;ADC.c: 17:         ADCON0bits.CHS2 = 0;
  7259  175E  121F               	bcf	31,4	;volatile
  7260                           
  7261                           ;ADC.c: 18:         ADCON0bits.CHS1 = 0;
  7262  175F  119F               	bcf	31,3	;volatile
  7263                           
  7264                           ;ADC.c: 19:         ADCON0bits.CHS0 = 0;
  7265  1760  111F               	bcf	31,2	;volatile
  7266  1761                     l4018:
  7267                           
  7268                           ;ADC.c: 23:     if (canal == 1) {
  7269  1761  0372               	decf	canalADC@canal,w
  7270  1762  1D03               	btfss	3,2
  7271  1763  2F65               	goto	u6291
  7272  1764  2F66               	goto	u6290
  7273  1765                     u6291:
  7274  1765  2F6C               	goto	l4022
  7275  1766                     u6290:
  7276  1766                     l4020:
  7277                           
  7278                           ;ADC.c: 24:         ADCON0bits.CHS3 = 0;
  7279  1766  1283               	bcf	3,5	;RP0=0, select bank0
  7280  1767  1303               	bcf	3,6	;RP1=0, select bank0
  7281  1768  129F               	bcf	31,5	;volatile
  7282                           
  7283                           ;ADC.c: 25:         ADCON0bits.CHS2 = 0;
  7284  1769  121F               	bcf	31,4	;volatile
  7285                           
  7286                           ;ADC.c: 26:         ADCON0bits.CHS1 = 0;
  7287  176A  119F               	bcf	31,3	;volatile
  7288                           
  7289                           ;ADC.c: 27:         ADCON0bits.CHS0 = 1;
  7290  176B  151F               	bsf	31,2	;volatile
  7291  176C                     l4022:
  7292                           
  7293                           ;ADC.c: 32:     if (canal == 2) {
  7294  176C  3002               	movlw	2
  7295  176D  0672               	xorwf	canalADC@canal,w
  7296  176E  1D03               	btfss	3,2
  7297  176F  2F71               	goto	u6301
  7298  1770  2F72               	goto	u6300
  7299  1771                     u6301:
  7300  1771  2F78               	goto	l4026
  7301  1772                     u6300:
  7302  1772                     l4024:
  7303                           
  7304                           ;ADC.c: 33:         ADCON0bits.CHS3 = 0;
  7305  1772  1283               	bcf	3,5	;RP0=0, select bank0
  7306  1773  1303               	bcf	3,6	;RP1=0, select bank0
  7307  1774  129F               	bcf	31,5	;volatile
  7308                           
  7309                           ;ADC.c: 34:         ADCON0bits.CHS2 = 0;
  7310  1775  121F               	bcf	31,4	;volatile
  7311                           
  7312                           ;ADC.c: 35:         ADCON0bits.CHS1 = 1;
  7313  1776  159F               	bsf	31,3	;volatile
  7314                           
  7315                           ;ADC.c: 36:         ADCON0bits.CHS0 = 0;
  7316  1777  111F               	bcf	31,2	;volatile
  7317  1778                     l4026:
  7318                           
  7319                           ;ADC.c: 41:     if (canal == 3) {
  7320  1778  3003               	movlw	3
  7321  1779  0672               	xorwf	canalADC@canal,w
  7322  177A  1D03               	btfss	3,2
  7323  177B  2F7D               	goto	u6311
  7324  177C  2F7E               	goto	u6310
  7325  177D                     u6311:
  7326  177D  2F84               	goto	l4030
  7327  177E                     u6310:
  7328  177E                     l4028:
  7329                           
  7330                           ;ADC.c: 42:         ADCON0bits.CHS3 = 0;
  7331  177E  1283               	bcf	3,5	;RP0=0, select bank0
  7332  177F  1303               	bcf	3,6	;RP1=0, select bank0
  7333  1780  129F               	bcf	31,5	;volatile
  7334                           
  7335                           ;ADC.c: 43:         ADCON0bits.CHS2 = 0;
  7336  1781  121F               	bcf	31,4	;volatile
  7337                           
  7338                           ;ADC.c: 44:         ADCON0bits.CHS1 = 1;
  7339  1782  159F               	bsf	31,3	;volatile
  7340                           
  7341                           ;ADC.c: 45:         ADCON0bits.CHS0 = 1;
  7342  1783  151F               	bsf	31,2	;volatile
  7343  1784                     l4030:
  7344                           
  7345                           ;ADC.c: 50:     if (canal == 4) {
  7346  1784  3004               	movlw	4
  7347  1785  0672               	xorwf	canalADC@canal,w
  7348  1786  1D03               	btfss	3,2
  7349  1787  2F89               	goto	u6321
  7350  1788  2F8A               	goto	u6320
  7351  1789                     u6321:
  7352  1789  2F90               	goto	l4034
  7353  178A                     u6320:
  7354  178A                     l4032:
  7355                           
  7356                           ;ADC.c: 51:         ADCON0bits.CHS3 = 0;
  7357  178A  1283               	bcf	3,5	;RP0=0, select bank0
  7358  178B  1303               	bcf	3,6	;RP1=0, select bank0
  7359  178C  129F               	bcf	31,5	;volatile
  7360                           
  7361                           ;ADC.c: 52:         ADCON0bits.CHS2 = 1;
  7362  178D  161F               	bsf	31,4	;volatile
  7363                           
  7364                           ;ADC.c: 53:         ADCON0bits.CHS1 = 0;
  7365  178E  119F               	bcf	31,3	;volatile
  7366                           
  7367                           ;ADC.c: 54:         ADCON0bits.CHS0 = 0;
  7368  178F  111F               	bcf	31,2	;volatile
  7369  1790                     l4034:
  7370                           
  7371                           ;ADC.c: 59:     if (canal == 5) {
  7372  1790  3005               	movlw	5
  7373  1791  0672               	xorwf	canalADC@canal,w
  7374  1792  1D03               	btfss	3,2
  7375  1793  2F95               	goto	u6331
  7376  1794  2F96               	goto	u6330
  7377  1795                     u6331:
  7378  1795  2F9C               	goto	l4038
  7379  1796                     u6330:
  7380  1796                     l4036:
  7381                           
  7382                           ;ADC.c: 60:         ADCON0bits.CHS3 = 0;
  7383  1796  1283               	bcf	3,5	;RP0=0, select bank0
  7384  1797  1303               	bcf	3,6	;RP1=0, select bank0
  7385  1798  129F               	bcf	31,5	;volatile
  7386                           
  7387                           ;ADC.c: 61:         ADCON0bits.CHS2 = 1;
  7388  1799  161F               	bsf	31,4	;volatile
  7389                           
  7390                           ;ADC.c: 62:         ADCON0bits.CHS1 = 0;
  7391  179A  119F               	bcf	31,3	;volatile
  7392                           
  7393                           ;ADC.c: 63:         ADCON0bits.CHS0 = 1;
  7394  179B  151F               	bsf	31,2	;volatile
  7395  179C                     l4038:
  7396                           
  7397                           ;ADC.c: 68:     if (canal == 6) {
  7398  179C  3006               	movlw	6
  7399  179D  0672               	xorwf	canalADC@canal,w
  7400  179E  1D03               	btfss	3,2
  7401  179F  2FA1               	goto	u6341
  7402  17A0  2FA2               	goto	u6340
  7403  17A1                     u6341:
  7404  17A1  2FA8               	goto	l4042
  7405  17A2                     u6340:
  7406  17A2                     l4040:
  7407                           
  7408                           ;ADC.c: 69:         ADCON0bits.CHS3 = 0;
  7409  17A2  1283               	bcf	3,5	;RP0=0, select bank0
  7410  17A3  1303               	bcf	3,6	;RP1=0, select bank0
  7411  17A4  129F               	bcf	31,5	;volatile
  7412                           
  7413                           ;ADC.c: 70:         ADCON0bits.CHS2 = 1;
  7414  17A5  161F               	bsf	31,4	;volatile
  7415                           
  7416                           ;ADC.c: 71:         ADCON0bits.CHS1 = 1;
  7417  17A6  159F               	bsf	31,3	;volatile
  7418                           
  7419                           ;ADC.c: 72:         ADCON0bits.CHS0 = 0;
  7420  17A7  111F               	bcf	31,2	;volatile
  7421  17A8                     l4042:
  7422                           
  7423                           ;ADC.c: 77:     if (canal == 7) {
  7424  17A8  3007               	movlw	7
  7425  17A9  0672               	xorwf	canalADC@canal,w
  7426  17AA  1D03               	btfss	3,2
  7427  17AB  2FAD               	goto	u6351
  7428  17AC  2FAE               	goto	u6350
  7429  17AD                     u6351:
  7430  17AD  2FB4               	goto	l4046
  7431  17AE                     u6350:
  7432  17AE                     l4044:
  7433                           
  7434                           ;ADC.c: 78:         ADCON0bits.CHS3 = 0;
  7435  17AE  1283               	bcf	3,5	;RP0=0, select bank0
  7436  17AF  1303               	bcf	3,6	;RP1=0, select bank0
  7437  17B0  129F               	bcf	31,5	;volatile
  7438                           
  7439                           ;ADC.c: 79:         ADCON0bits.CHS2 = 1;
  7440  17B1  161F               	bsf	31,4	;volatile
  7441                           
  7442                           ;ADC.c: 80:         ADCON0bits.CHS1 = 1;
  7443  17B2  159F               	bsf	31,3	;volatile
  7444                           
  7445                           ;ADC.c: 81:         ADCON0bits.CHS0 = 1;
  7446  17B3  151F               	bsf	31,2	;volatile
  7447  17B4                     l4046:
  7448                           
  7449                           ;ADC.c: 86:     if (canal == 8) {
  7450  17B4  3008               	movlw	8
  7451  17B5  0672               	xorwf	canalADC@canal,w
  7452  17B6  1D03               	btfss	3,2
  7453  17B7  2FB9               	goto	u6361
  7454  17B8  2FBA               	goto	u6360
  7455  17B9                     u6361:
  7456  17B9  2FC0               	goto	l4050
  7457  17BA                     u6360:
  7458  17BA                     l4048:
  7459                           
  7460                           ;ADC.c: 87:         ADCON0bits.CHS3 = 1;
  7461  17BA  1283               	bcf	3,5	;RP0=0, select bank0
  7462  17BB  1303               	bcf	3,6	;RP1=0, select bank0
  7463  17BC  169F               	bsf	31,5	;volatile
  7464                           
  7465                           ;ADC.c: 88:         ADCON0bits.CHS2 = 0;
  7466  17BD  121F               	bcf	31,4	;volatile
  7467                           
  7468                           ;ADC.c: 89:         ADCON0bits.CHS1 = 0;
  7469  17BE  119F               	bcf	31,3	;volatile
  7470                           
  7471                           ;ADC.c: 90:         ADCON0bits.CHS0 = 0;
  7472  17BF  111F               	bcf	31,2	;volatile
  7473  17C0                     l4050:
  7474                           
  7475                           ;ADC.c: 94:     if (canal == 9) {
  7476  17C0  3009               	movlw	9
  7477  17C1  0672               	xorwf	canalADC@canal,w
  7478  17C2  1D03               	btfss	3,2
  7479  17C3  2FC5               	goto	u6371
  7480  17C4  2FC6               	goto	u6370
  7481  17C5                     u6371:
  7482  17C5  2FCC               	goto	l4054
  7483  17C6                     u6370:
  7484  17C6                     l4052:
  7485                           
  7486                           ;ADC.c: 95:         ADCON0bits.CHS3 = 1;
  7487  17C6  1283               	bcf	3,5	;RP0=0, select bank0
  7488  17C7  1303               	bcf	3,6	;RP1=0, select bank0
  7489  17C8  169F               	bsf	31,5	;volatile
  7490                           
  7491                           ;ADC.c: 96:         ADCON0bits.CHS2 = 0;
  7492  17C9  121F               	bcf	31,4	;volatile
  7493                           
  7494                           ;ADC.c: 97:         ADCON0bits.CHS1 = 0;
  7495  17CA  119F               	bcf	31,3	;volatile
  7496                           
  7497                           ;ADC.c: 98:         ADCON0bits.CHS0 = 1;
  7498  17CB  151F               	bsf	31,2	;volatile
  7499  17CC                     l4054:
  7500                           
  7501                           ;ADC.c: 102:     if (canal == 10) {
  7502  17CC  300A               	movlw	10
  7503  17CD  0672               	xorwf	canalADC@canal,w
  7504  17CE  1D03               	btfss	3,2
  7505  17CF  2FD1               	goto	u6381
  7506  17D0  2FD2               	goto	u6380
  7507  17D1                     u6381:
  7508  17D1  2FD8               	goto	l4058
  7509  17D2                     u6380:
  7510  17D2                     l4056:
  7511                           
  7512                           ;ADC.c: 103:         ADCON0bits.CHS3 = 1;
  7513  17D2  1283               	bcf	3,5	;RP0=0, select bank0
  7514  17D3  1303               	bcf	3,6	;RP1=0, select bank0
  7515  17D4  169F               	bsf	31,5	;volatile
  7516                           
  7517                           ;ADC.c: 104:         ADCON0bits.CHS2 = 0;
  7518  17D5  121F               	bcf	31,4	;volatile
  7519                           
  7520                           ;ADC.c: 105:         ADCON0bits.CHS1 = 1;
  7521  17D6  159F               	bsf	31,3	;volatile
  7522                           
  7523                           ;ADC.c: 106:         ADCON0bits.CHS0 = 0;
  7524  17D7  111F               	bcf	31,2	;volatile
  7525  17D8                     l4058:
  7526                           
  7527                           ;ADC.c: 111:     if (canal == 11) {
  7528  17D8  300B               	movlw	11
  7529  17D9  0672               	xorwf	canalADC@canal,w
  7530  17DA  1D03               	btfss	3,2
  7531  17DB  2FDD               	goto	u6391
  7532  17DC  2FDE               	goto	u6390
  7533  17DD                     u6391:
  7534  17DD  2FE4               	goto	l4062
  7535  17DE                     u6390:
  7536  17DE                     l4060:
  7537                           
  7538                           ;ADC.c: 112:         ADCON0bits.CHS3 = 1;
  7539  17DE  1283               	bcf	3,5	;RP0=0, select bank0
  7540  17DF  1303               	bcf	3,6	;RP1=0, select bank0
  7541  17E0  169F               	bsf	31,5	;volatile
  7542                           
  7543                           ;ADC.c: 113:         ADCON0bits.CHS2 = 0;
  7544  17E1  121F               	bcf	31,4	;volatile
  7545                           
  7546                           ;ADC.c: 114:         ADCON0bits.CHS1 = 1;
  7547  17E2  159F               	bsf	31,3	;volatile
  7548                           
  7549                           ;ADC.c: 115:         ADCON0bits.CHS0 = 1;
  7550  17E3  151F               	bsf	31,2	;volatile
  7551  17E4                     l4062:
  7552                           
  7553                           ;ADC.c: 120:     if (canal == 12) {
  7554  17E4  300C               	movlw	12
  7555  17E5  0672               	xorwf	canalADC@canal,w
  7556  17E6  1D03               	btfss	3,2
  7557  17E7  2FE9               	goto	u6401
  7558  17E8  2FEA               	goto	u6400
  7559  17E9                     u6401:
  7560  17E9  2FF0               	goto	l4066
  7561  17EA                     u6400:
  7562  17EA                     l4064:
  7563                           
  7564                           ;ADC.c: 121:         ADCON0bits.CHS3 = 1;
  7565  17EA  1283               	bcf	3,5	;RP0=0, select bank0
  7566  17EB  1303               	bcf	3,6	;RP1=0, select bank0
  7567  17EC  169F               	bsf	31,5	;volatile
  7568                           
  7569                           ;ADC.c: 122:         ADCON0bits.CHS2 = 1;
  7570  17ED  161F               	bsf	31,4	;volatile
  7571                           
  7572                           ;ADC.c: 123:         ADCON0bits.CHS1 = 0;
  7573  17EE  119F               	bcf	31,3	;volatile
  7574                           
  7575                           ;ADC.c: 124:         ADCON0bits.CHS0 = 0;
  7576  17EF  111F               	bcf	31,2	;volatile
  7577  17F0                     l4066:
  7578                           
  7579                           ;ADC.c: 129:     if (canal == 13) {
  7580  17F0  300D               	movlw	13
  7581  17F1  0672               	xorwf	canalADC@canal,w
  7582  17F2  1D03               	btfss	3,2
  7583  17F3  2FF5               	goto	u6411
  7584  17F4  2FF6               	goto	u6410
  7585  17F5                     u6411:
  7586  17F5  2FFC               	goto	l250
  7587  17F6                     u6410:
  7588  17F6                     l4068:
  7589                           
  7590                           ;ADC.c: 130:         ADCON0bits.CHS3 = 1;
  7591  17F6  1283               	bcf	3,5	;RP0=0, select bank0
  7592  17F7  1303               	bcf	3,6	;RP1=0, select bank0
  7593  17F8  169F               	bsf	31,5	;volatile
  7594                           
  7595                           ;ADC.c: 131:         ADCON0bits.CHS2 = 1;
  7596  17F9  161F               	bsf	31,4	;volatile
  7597                           
  7598                           ;ADC.c: 132:         ADCON0bits.CHS1 = 0;
  7599  17FA  119F               	bcf	31,3	;volatile
  7600                           
  7601                           ;ADC.c: 133:         ADCON0bits.CHS0 = 1;
  7602  17FB  151F               	bsf	31,2	;volatile
  7603  17FC                     l250:	
  7604                           ;ADC.c: 135:     }
  7605                           
  7606                           
  7607                           ;ADC.c: 137:     ADCON0bits.GO = 1;
  7608  17FC  1283               	bcf	3,5	;RP0=0, select bank0
  7609  17FD  1303               	bcf	3,6	;RP1=0, select bank0
  7610  17FE  149F               	bsf	31,1	;volatile
  7611  17FF                     l251:	
  7612                           ;ADC.c: 138:     return;
  7613                           
  7614  17FF  0008               	return
  7615  1800                     __end_of_canalADC:
  7616                           
  7617                           	psect	text17
  7618  1444                     __ptext17:	
  7619 ;; *************** function _UARTSendString *****************
  7620 ;; Defined at:
  7621 ;;		line 50 in file "UART.c"
  7622 ;; Parameters:    Size  Location     Type
  7623 ;;  str             1    wreg     PTR const unsigned char 
  7624 ;;		 -> buf2(10), buf(10), 
  7625 ;;  max_length      1    3[COMMON] const unsigned char 
  7626 ;; Auto vars:     Size  Location     Type
  7627 ;;  str             1    5[COMMON] PTR const unsigned char 
  7628 ;;		 -> buf2(10), buf(10), 
  7629 ;;  i               2    6[COMMON] int 
  7630 ;; Return value:  Size  Location     Type
  7631 ;;                  1    wreg      void 
  7632 ;; Registers used:
  7633 ;;		wreg, fsr0l, fsr0h, status,2, status,0, pclath, cstack
  7634 ;; Tracked objects:
  7635 ;;		On entry : 0/0
  7636 ;;		On exit  : 0/0
  7637 ;;		Unchanged: 0/0
  7638 ;; Data sizes:     COMMON   BANK0   BANK1   BANK3   BANK2
  7639 ;;      Params:         1       0       0       0       0
  7640 ;;      Locals:         3       0       0       0       0
  7641 ;;      Temps:          1       0       0       0       0
  7642 ;;      Totals:         5       0       0       0       0
  7643 ;;Total ram usage:        5 bytes
  7644 ;; Hardware stack levels used:    1
  7645 ;; Hardware stack levels required when called:    2
  7646 ;; This function calls:
  7647 ;;		_UARTSendChar
  7648 ;; This function is called by:
  7649 ;;		_main
  7650 ;; This function uses a non-reentrant model
  7651 ;;
  7652                           
  7653                           
  7654                           ;psect for function _UARTSendString
  7655  1444                     _UARTSendString:
  7656                           
  7657                           ;incstack = 0
  7658                           ; Regs used in _UARTSendString: [wreg-fsr0h+status,2+status,0+pclath+cstack]
  7659                           ;UARTSendString@str stored from wreg
  7660  1444  00F5               	movwf	UARTSendString@str
  7661  1445                     l4172:
  7662                           
  7663                           ;UART.c: 51:     int i = 0;
  7664  1445  01F6               	clrf	UARTSendString@i
  7665  1446  01F7               	clrf	UARTSendString@i+1
  7666                           
  7667                           ;UART.c: 52:     for (i=0 ; i<max_length && str[i]!='\0' ; i++) {
  7668  1447  01F6               	clrf	UARTSendString@i
  7669  1448  01F7               	clrf	UARTSendString@i+1
  7670  1449  2C5B               	goto	l4178
  7671  144A                     l4174:
  7672                           
  7673                           ;UART.c: 53:         UARTSendChar(str[i]);
  7674  144A  0876               	movf	UARTSendString@i,w
  7675  144B  0775               	addwf	UARTSendString@str,w
  7676  144C  00F4               	movwf	??_UARTSendString
  7677  144D  0874               	movf	??_UARTSendString,w
  7678  144E  0084               	movwf	4
  7679  144F  0800               	movf	0,w
  7680  1450  160A  118A  22EA  160A  118A  	fcall	_UARTSendChar
  7681  1455                     l4176:
  7682                           
  7683                           ;UART.c: 54:     }
  7684  1455  3001               	movlw	1
  7685  1456  07F6               	addwf	UARTSendString@i,f
  7686  1457  1803               	skipnc
  7687  1458  0AF7               	incf	UARTSendString@i+1,f
  7688  1459  3000               	movlw	0
  7689  145A  07F7               	addwf	UARTSendString@i+1,f
  7690  145B                     l4178:
  7691  145B  0877               	movf	UARTSendString@i+1,w
  7692  145C  3A80               	xorlw	128
  7693  145D  00F4               	movwf	??_UARTSendString
  7694  145E  3080               	movlw	128
  7695  145F  0274               	subwf	??_UARTSendString,w
  7696  1460  1D03               	skipz
  7697  1461  2C64               	goto	u6515
  7698  1462  0873               	movf	UARTSendString@max_length,w
  7699  1463  0276               	subwf	UARTSendString@i,w
  7700  1464                     u6515:
  7701  1464  1803               	skipnc
  7702  1465  2C67               	goto	u6511
  7703  1466  2C68               	goto	u6510
  7704  1467                     u6511:
  7705  1467  2C73               	goto	l208
  7706  1468                     u6510:
  7707  1468                     l4180:
  7708  1468  0876               	movf	UARTSendString@i,w
  7709  1469  0775               	addwf	UARTSendString@str,w
  7710  146A  00F4               	movwf	??_UARTSendString
  7711  146B  0874               	movf	??_UARTSendString,w
  7712  146C  0084               	movwf	4
  7713  146D  1383               	bcf	3,7	;select IRP bank0
  7714  146E  0800               	movf	0,w
  7715  146F  1D03               	btfss	3,2
  7716  1470  2C72               	goto	u6521
  7717  1471  2C73               	goto	u6520
  7718  1472                     u6521:
  7719  1472  2C4A               	goto	l4174
  7720  1473                     u6520:
  7721  1473                     l208:
  7722  1473  0008               	return
  7723  1474                     __end_of_UARTSendString:
  7724                           
  7725                           	psect	text18
  7726  12EA                     __ptext18:	
  7727 ;; *************** function _UARTSendChar *****************
  7728 ;; Defined at:
  7729 ;;		line 40 in file "UART.c"
  7730 ;; Parameters:    Size  Location     Type
  7731 ;;  c               1    wreg     const unsigned char 
  7732 ;; Auto vars:     Size  Location     Type
  7733 ;;  c               1    2[COMMON] const unsigned char 
  7734 ;; Return value:  Size  Location     Type
  7735 ;;                  1    wreg      void 
  7736 ;; Registers used:
  7737 ;;		wreg
  7738 ;; Tracked objects:
  7739 ;;		On entry : 0/0
  7740 ;;		On exit  : 0/0
  7741 ;;		Unchanged: 0/0
  7742 ;; Data sizes:     COMMON   BANK0   BANK1   BANK3   BANK2
  7743 ;;      Params:         0       0       0       0       0
  7744 ;;      Locals:         1       0       0       0       0
  7745 ;;      Temps:          0       0       0       0       0
  7746 ;;      Totals:         1       0       0       0       0
  7747 ;;Total ram usage:        1 bytes
  7748 ;; Hardware stack levels used:    1
  7749 ;; Hardware stack levels required when called:    1
  7750 ;; This function calls:
  7751 ;;		Nothing
  7752 ;; This function is called by:
  7753 ;;		_UARTSendString
  7754 ;; This function uses a non-reentrant model
  7755 ;;
  7756                           
  7757                           
  7758                           ;psect for function _UARTSendChar
  7759  12EA                     _UARTSendChar:
  7760                           
  7761                           ;incstack = 0
  7762                           ; Regs used in _UARTSendChar: [wreg]
  7763                           ;UARTSendChar@c stored from wreg
  7764  12EA  00F2               	movwf	UARTSendChar@c
  7765  12EB                     l3396:
  7766  12EB                     l197:	
  7767                           ;UART.c: 41:     while (TXSTAbits.TRMT == 0);
  7768                           
  7769  12EB  1683               	bsf	3,5	;RP0=1, select bank1
  7770  12EC  1303               	bcf	3,6	;RP1=0, select bank1
  7771  12ED  1C98               	btfss	24,1	;volatile
  7772  12EE  2AF0               	goto	u4921
  7773  12EF  2AF1               	goto	u4920
  7774  12F0                     u4921:
  7775  12F0  2AEB               	goto	l197
  7776  12F1                     u4920:
  7777  12F1                     l3398:
  7778                           
  7779                           ;UART.c: 42:     TXREG = c;
  7780  12F1  0872               	movf	UARTSendChar@c,w
  7781  12F2  1283               	bcf	3,5	;RP0=0, select bank0
  7782  12F3  1303               	bcf	3,6	;RP1=0, select bank0
  7783  12F4  0099               	movwf	25	;volatile
  7784  12F5                     l200:
  7785  12F5  0008               	return
  7786  12F6                     __end_of_UARTSendChar:
  7787                           
  7788                           	psect	text19
  7789  1303                     __ptext19:	
  7790 ;; *************** function _UARTReadChar *****************
  7791 ;; Defined at:
  7792 ;;		line 69 in file "UART.c"
  7793 ;; Parameters:    Size  Location     Type
  7794 ;;		None
  7795 ;; Auto vars:     Size  Location     Type
  7796 ;;		None
  7797 ;; Return value:  Size  Location     Type
  7798 ;;                  1    wreg      unsigned char 
  7799 ;; Registers used:
  7800 ;;		wreg, status,2, status,0, pclath, cstack
  7801 ;; Tracked objects:
  7802 ;;		On entry : 0/0
  7803 ;;		On exit  : 0/0
  7804 ;;		Unchanged: 0/0
  7805 ;; Data sizes:     COMMON   BANK0   BANK1   BANK3   BANK2
  7806 ;;      Params:         0       0       0       0       0
  7807 ;;      Locals:         0       0       0       0       0
  7808 ;;      Temps:          0       0       0       0       0
  7809 ;;      Totals:         0       0       0       0       0
  7810 ;;Total ram usage:        0 bytes
  7811 ;; Hardware stack levels used:    1
  7812 ;; Hardware stack levels required when called:    2
  7813 ;; This function calls:
  7814 ;;		_UARTDataReady
  7815 ;; This function is called by:
  7816 ;;		_main
  7817 ;;		_UARTReadString
  7818 ;; This function uses a non-reentrant model
  7819 ;;
  7820                           
  7821                           
  7822                           ;psect for function _UARTReadChar
  7823  1303                     _UARTReadChar:
  7824  1303                     l4182:	
  7825                           ;incstack = 0
  7826                           ; Regs used in _UARTReadChar: [wreg+status,2+status,0+pclath+cstack]
  7827                           
  7828  1303                     l4184:	
  7829                           ;UART.c: 70:     while (!UARTDataReady());
  7830                           
  7831  1303  160A  118A  22E3  160A  118A  	fcall	_UARTDataReady
  7832  1308  3A00               	xorlw	0
  7833  1309  1903               	skipnz
  7834  130A  2B0C               	goto	u6531
  7835  130B  2B0D               	goto	u6530
  7836  130C                     u6531:
  7837  130C  2B03               	goto	l4184
  7838  130D                     u6530:
  7839  130D                     l4186:
  7840                           
  7841                           ;UART.c: 71:     return RCREG;
  7842  130D  1283               	bcf	3,5	;RP0=0, select bank0
  7843  130E  1303               	bcf	3,6	;RP1=0, select bank0
  7844  130F  081A               	movf	26,w	;volatile
  7845  1310                     l217:
  7846  1310  0008               	return
  7847  1311                     __end_of_UARTReadChar:
  7848                           
  7849                           	psect	text20
  7850  12E3                     __ptext20:	
  7851 ;; *************** function _UARTDataReady *****************
  7852 ;; Defined at:
  7853 ;;		line 61 in file "UART.c"
  7854 ;; Parameters:    Size  Location     Type
  7855 ;;		None
  7856 ;; Auto vars:     Size  Location     Type
  7857 ;;		None
  7858 ;; Return value:  Size  Location     Type
  7859 ;;                  1    wreg      unsigned char 
  7860 ;; Registers used:
  7861 ;;		wreg, status,2, status,0
  7862 ;; Tracked objects:
  7863 ;;		On entry : 0/0
  7864 ;;		On exit  : 0/0
  7865 ;;		Unchanged: 0/0
  7866 ;; Data sizes:     COMMON   BANK0   BANK1   BANK3   BANK2
  7867 ;;      Params:         0       0       0       0       0
  7868 ;;      Locals:         0       0       0       0       0
  7869 ;;      Temps:          1       0       0       0       0
  7870 ;;      Totals:         1       0       0       0       0
  7871 ;;Total ram usage:        1 bytes
  7872 ;; Hardware stack levels used:    1
  7873 ;; Hardware stack levels required when called:    1
  7874 ;; This function calls:
  7875 ;;		Nothing
  7876 ;; This function is called by:
  7877 ;;		_main
  7878 ;;		_UARTReadChar
  7879 ;; This function uses a non-reentrant model
  7880 ;;
  7881                           
  7882                           
  7883                           ;psect for function _UARTDataReady
  7884  12E3                     _UARTDataReady:
  7885  12E3                     l3372:	
  7886                           ;incstack = 0
  7887                           ; Regs used in _UARTDataReady: [wreg+status,2+status,0]
  7888                           
  7889                           
  7890                           ;UART.c: 62:     return PIR1bits.RCIF;
  7891  12E3  1283               	bcf	3,5	;RP0=0, select bank0
  7892  12E4  1303               	bcf	3,6	;RP1=0, select bank0
  7893  12E5  0E0C               	swapf	12,w	;volatile
  7894  12E6  00F2               	movwf	??_UARTDataReady
  7895  12E7  0C72               	rrf	??_UARTDataReady,w
  7896  12E8  3901               	andlw	1
  7897  12E9                     l211:
  7898  12E9  0008               	return
  7899  12EA                     __end_of_UARTDataReady:
  7900                           
  7901                           	psect	text21
  7902  1642                     __ptext21:	
  7903 ;; *************** function _UARTInit *****************
  7904 ;; Defined at:
  7905 ;;		line 9 in file "UART.c"
  7906 ;; Parameters:    Size  Location     Type
  7907 ;;  baud_rate       4    6[BANK0 ] const unsigned long 
  7908 ;;  BRGH            1   10[BANK0 ] const unsigned char 
  7909 ;; Auto vars:     Size  Location     Type
  7910 ;;		None
  7911 ;; Return value:  Size  Location     Type
  7912 ;;                  1    wreg      void 
  7913 ;; Registers used:
  7914 ;;		wreg, status,2, status,0, pclath, cstack
  7915 ;; Tracked objects:
  7916 ;;		On entry : 0/0
  7917 ;;		On exit  : 0/0
  7918 ;;		Unchanged: 0/0
  7919 ;; Data sizes:     COMMON   BANK0   BANK1   BANK3   BANK2
  7920 ;;      Params:         0       5       0       0       0
  7921 ;;      Locals:         0       0       0       0       0
  7922 ;;      Temps:          0       4       0       0       0
  7923 ;;      Totals:         0       9       0       0       0
  7924 ;;Total ram usage:        9 bytes
  7925 ;; Hardware stack levels used:    1
  7926 ;; Hardware stack levels required when called:    2
  7927 ;; This function calls:
  7928 ;;		___lldiv
  7929 ;; This function is called by:
  7930 ;;		_main
  7931 ;; This function uses a non-reentrant model
  7932 ;;
  7933                           
  7934                           
  7935                           ;psect for function _UARTInit
  7936  1642                     _UARTInit:
  7937  1642                     l3950:	
  7938                           ;incstack = 0
  7939                           ; Regs used in _UARTInit: [wreg+status,2+status,0+pclath+cstack]
  7940                           
  7941                           
  7942                           ;UART.c: 11:     if (BRGH == 0) {
  7943  1642  1283               	bcf	3,5	;RP0=0, select bank0
  7944  1643  1303               	bcf	3,6	;RP1=0, select bank0
  7945  1644  082A               	movf	UARTInit@BRGH,w
  7946  1645  1D03               	btfss	3,2
  7947  1646  2E48               	goto	u6221
  7948  1647  2E49               	goto	u6220
  7949  1648                     u6221:
  7950  1648  2E76               	goto	l3956
  7951  1649                     u6220:
  7952  1649                     l3952:
  7953                           
  7954                           ;UART.c: 12:         SPBRG = 4000000/(64*baud_rate) - 1;
  7955  1649  0826               	movf	UARTInit@baud_rate,w
  7956  164A  00AB               	movwf	??_UARTInit
  7957  164B  0827               	movf	UARTInit@baud_rate+1,w
  7958  164C  00AC               	movwf	??_UARTInit+1
  7959  164D  0828               	movf	UARTInit@baud_rate+2,w
  7960  164E  00AD               	movwf	??_UARTInit+2
  7961  164F  0829               	movf	UARTInit@baud_rate+3,w
  7962  1650  00AE               	movwf	??_UARTInit+3
  7963  1651  3006               	movlw	6
  7964  1652                     u6235:
  7965  1652  1003               	clrc
  7966  1653  0DAB               	rlf	??_UARTInit,f
  7967  1654  0DAC               	rlf	??_UARTInit+1,f
  7968  1655  0DAD               	rlf	??_UARTInit+2,f
  7969  1656  0DAE               	rlf	??_UARTInit+3,f
  7970  1657                     u6230:
  7971  1657  3EFF               	addlw	-1
  7972  1658  1D03               	skipz
  7973  1659  2E52               	goto	u6235
  7974  165A  082E               	movf	??_UARTInit+3,w
  7975  165B  00F5               	movwf	___lldiv@divisor+3
  7976  165C  082D               	movf	??_UARTInit+2,w
  7977  165D  00F4               	movwf	___lldiv@divisor+2
  7978  165E  082C               	movf	??_UARTInit+1,w
  7979  165F  00F3               	movwf	___lldiv@divisor+1
  7980  1660  082B               	movf	??_UARTInit,w
  7981  1661  00F2               	movwf	___lldiv@divisor
  7982  1662  3000               	movlw	0
  7983  1663  00F9               	movwf	___lldiv@dividend+3
  7984  1664  303D               	movlw	61
  7985  1665  00F8               	movwf	___lldiv@dividend+2
  7986  1666  3009               	movlw	9
  7987  1667  00F7               	movwf	___lldiv@dividend+1
  7988  1668  3000               	movlw	0
  7989  1669  00F6               	movwf	___lldiv@dividend
  7990  166A  160A  118A  2571  160A  118A  	fcall	___lldiv
  7991  166F  0872               	movf	?___lldiv,w
  7992  1670  3EFF               	addlw	255
  7993  1671  1683               	bsf	3,5	;RP0=1, select bank1
  7994  1672  1303               	bcf	3,6	;RP1=0, select bank1
  7995  1673  0099               	movwf	25	;volatile
  7996  1674                     l3954:
  7997                           
  7998                           ;UART.c: 13:         TXSTAbits.BRGH = 0;
  7999  1674  1118               	bcf	24,2	;volatile
  8000                           
  8001                           ;UART.c: 14:     } else {
  8002  1675  2EA2               	goto	l3960
  8003  1676                     l3956:
  8004                           
  8005                           ;UART.c: 15:         SPBRG = 4000000/(16*baud_rate) - 1;
  8006  1676  0826               	movf	UARTInit@baud_rate,w
  8007  1677  00AB               	movwf	??_UARTInit
  8008  1678  0827               	movf	UARTInit@baud_rate+1,w
  8009  1679  00AC               	movwf	??_UARTInit+1
  8010  167A  0828               	movf	UARTInit@baud_rate+2,w
  8011  167B  00AD               	movwf	??_UARTInit+2
  8012  167C  0829               	movf	UARTInit@baud_rate+3,w
  8013  167D  00AE               	movwf	??_UARTInit+3
  8014  167E  3004               	movlw	4
  8015  167F                     u6245:
  8016  167F  1003               	clrc
  8017  1680  0DAB               	rlf	??_UARTInit,f
  8018  1681  0DAC               	rlf	??_UARTInit+1,f
  8019  1682  0DAD               	rlf	??_UARTInit+2,f
  8020  1683  0DAE               	rlf	??_UARTInit+3,f
  8021  1684                     u6240:
  8022  1684  3EFF               	addlw	-1
  8023  1685  1D03               	skipz
  8024  1686  2E7F               	goto	u6245
  8025  1687  082E               	movf	??_UARTInit+3,w
  8026  1688  00F5               	movwf	___lldiv@divisor+3
  8027  1689  082D               	movf	??_UARTInit+2,w
  8028  168A  00F4               	movwf	___lldiv@divisor+2
  8029  168B  082C               	movf	??_UARTInit+1,w
  8030  168C  00F3               	movwf	___lldiv@divisor+1
  8031  168D  082B               	movf	??_UARTInit,w
  8032  168E  00F2               	movwf	___lldiv@divisor
  8033  168F  3000               	movlw	0
  8034  1690  00F9               	movwf	___lldiv@dividend+3
  8035  1691  303D               	movlw	61
  8036  1692  00F8               	movwf	___lldiv@dividend+2
  8037  1693  3009               	movlw	9
  8038  1694  00F7               	movwf	___lldiv@dividend+1
  8039  1695  3000               	movlw	0
  8040  1696  00F6               	movwf	___lldiv@dividend
  8041  1697  160A  118A  2571  160A  118A  	fcall	___lldiv
  8042  169C  0872               	movf	?___lldiv,w
  8043  169D  3EFF               	addlw	255
  8044  169E  1683               	bsf	3,5	;RP0=1, select bank1
  8045  169F  1303               	bcf	3,6	;RP1=0, select bank1
  8046  16A0  0099               	movwf	25	;volatile
  8047  16A1                     l3958:
  8048                           
  8049                           ;UART.c: 16:         TXSTAbits.BRGH = 1;
  8050  16A1  1518               	bsf	24,2	;volatile
  8051  16A2                     l3960:
  8052                           
  8053                           ;UART.c: 20:     TXSTAbits.TX9 = 0;
  8054  16A2  1318               	bcf	24,6	;volatile
  8055  16A3                     l3962:
  8056                           
  8057                           ;UART.c: 21:     TXSTAbits.TXEN = 1;
  8058  16A3  1698               	bsf	24,5	;volatile
  8059  16A4                     l3964:
  8060                           
  8061                           ;UART.c: 22:     TXSTAbits.SYNC = 0;
  8062  16A4  1218               	bcf	24,4	;volatile
  8063  16A5                     l3966:
  8064                           
  8065                           ;UART.c: 25:     RCSTAbits.SPEN = 1;
  8066  16A5  1283               	bcf	3,5	;RP0=0, select bank0
  8067  16A6  1303               	bcf	3,6	;RP1=0, select bank0
  8068  16A7  1798               	bsf	24,7	;volatile
  8069  16A8                     l3968:
  8070                           
  8071                           ;UART.c: 26:     RCSTAbits.RX9 = 0;
  8072  16A8  1318               	bcf	24,6	;volatile
  8073  16A9                     l3970:
  8074                           
  8075                           ;UART.c: 27:     RCSTAbits.CREN = 1;
  8076  16A9  1618               	bsf	24,4	;volatile
  8077  16AA                     l3972:
  8078                           
  8079                           ;UART.c: 28:     RCSTAbits.FERR = 0;
  8080  16AA  1118               	bcf	24,2	;volatile
  8081  16AB                     l3974:
  8082                           
  8083                           ;UART.c: 29:     RCSTAbits.OERR = 0;
  8084  16AB  1098               	bcf	24,1	;volatile
  8085  16AC                     l3976:
  8086                           
  8087                           ;UART.c: 32:     TRISCbits.TRISC7 = 1;
  8088  16AC  1683               	bsf	3,5	;RP0=1, select bank1
  8089  16AD  1303               	bcf	3,6	;RP1=0, select bank1
  8090  16AE  1787               	bsf	7,7	;volatile
  8091  16AF                     l3978:
  8092                           
  8093                           ;UART.c: 33:     TRISCbits.TRISC6 = 0;
  8094  16AF  1307               	bcf	7,6	;volatile
  8095  16B0                     l194:
  8096  16B0  0008               	return
  8097  16B1                     __end_of_UARTInit:
  8098                           
  8099                           	psect	text22
  8100  1571                     __ptext22:	
  8101 ;; *************** function ___lldiv *****************
  8102 ;; Defined at:
  8103 ;;		line 5 in file "C:\Program Files\Microchip\xc8\v2.31\pic\sources\c90\common\__lldiv.c"
  8104 ;; Parameters:    Size  Location     Type
  8105 ;;  divisor         4    2[COMMON] unsigned long 
  8106 ;;  dividend        4    6[COMMON] unsigned long 
  8107 ;; Auto vars:     Size  Location     Type
  8108 ;;  quotient        4    1[BANK0 ] unsigned long 
  8109 ;;  counter         1    5[BANK0 ] unsigned char 
  8110 ;; Return value:  Size  Location     Type
  8111 ;;                  4    2[COMMON] unsigned long 
  8112 ;; Registers used:
  8113 ;;		wreg, status,2, status,0
  8114 ;; Tracked objects:
  8115 ;;		On entry : 0/0
  8116 ;;		On exit  : 0/0
  8117 ;;		Unchanged: 0/0
  8118 ;; Data sizes:     COMMON   BANK0   BANK1   BANK3   BANK2
  8119 ;;      Params:         8       0       0       0       0
  8120 ;;      Locals:         0       5       0       0       0
  8121 ;;      Temps:          0       1       0       0       0
  8122 ;;      Totals:         8       6       0       0       0
  8123 ;;Total ram usage:       14 bytes
  8124 ;; Hardware stack levels used:    1
  8125 ;; Hardware stack levels required when called:    1
  8126 ;; This function calls:
  8127 ;;		Nothing
  8128 ;; This function is called by:
  8129 ;;		_UARTInit
  8130 ;; This function uses a non-reentrant model
  8131 ;;
  8132                           
  8133                           
  8134                           ;psect for function ___lldiv
  8135  1571                     ___lldiv:
  8136  1571                     l3428:	
  8137                           ;incstack = 0
  8138                           ; Regs used in ___lldiv: [wreg+status,2+status,0]
  8139                           
  8140  1571  3000               	movlw	0
  8141  1572  1283               	bcf	3,5	;RP0=0, select bank0
  8142  1573  1303               	bcf	3,6	;RP1=0, select bank0
  8143  1574  00A4               	movwf	___lldiv@quotient+3
  8144  1575  3000               	movlw	0
  8145  1576  00A3               	movwf	___lldiv@quotient+2
  8146  1577  3000               	movlw	0
  8147  1578  00A2               	movwf	___lldiv@quotient+1
  8148  1579  3000               	movlw	0
  8149  157A  00A1               	movwf	___lldiv@quotient
  8150  157B  0875               	movf	___lldiv@divisor+3,w
  8151  157C  0474               	iorwf	___lldiv@divisor+2,w
  8152  157D  0473               	iorwf	___lldiv@divisor+1,w
  8153  157E  0472               	iorwf	___lldiv@divisor,w
  8154  157F  1903               	skipnz
  8155  1580  2D82               	goto	u4991
  8156  1581  2D83               	goto	u4990
  8157  1582                     u4991:
  8158  1582  2DD0               	goto	l3448
  8159  1583                     u4990:
  8160  1583                     l3430:
  8161  1583  01A5               	clrf	___lldiv@counter
  8162  1584  0AA5               	incf	___lldiv@counter,f
  8163  1585  2D93               	goto	l3434
  8164  1586                     l3432:
  8165  1586  3001               	movlw	1
  8166  1587  00A0               	movwf	??___lldiv
  8167  1588                     u5005:
  8168  1588  1003               	clrc
  8169  1589  0DF2               	rlf	___lldiv@divisor,f
  8170  158A  0DF3               	rlf	___lldiv@divisor+1,f
  8171  158B  0DF4               	rlf	___lldiv@divisor+2,f
  8172  158C  0DF5               	rlf	___lldiv@divisor+3,f
  8173  158D  0BA0               	decfsz	??___lldiv,f
  8174  158E  2D88               	goto	u5005
  8175  158F  3001               	movlw	1
  8176  1590  00A0               	movwf	??___lldiv
  8177  1591  0820               	movf	??___lldiv,w
  8178  1592  07A5               	addwf	___lldiv@counter,f
  8179  1593                     l3434:
  8180  1593  1FF5               	btfss	___lldiv@divisor+3,7
  8181  1594  2D96               	goto	u5011
  8182  1595  2D97               	goto	u5010
  8183  1596                     u5011:
  8184  1596  2D86               	goto	l3432
  8185  1597                     u5010:
  8186  1597                     l3436:
  8187  1597  3001               	movlw	1
  8188  1598  00A0               	movwf	??___lldiv
  8189  1599                     u5025:
  8190  1599  1003               	clrc
  8191  159A  0DA1               	rlf	___lldiv@quotient,f
  8192  159B  0DA2               	rlf	___lldiv@quotient+1,f
  8193  159C  0DA3               	rlf	___lldiv@quotient+2,f
  8194  159D  0DA4               	rlf	___lldiv@quotient+3,f
  8195  159E  0BA0               	decfsz	??___lldiv,f
  8196  159F  2D99               	goto	u5025
  8197  15A0                     l3438:
  8198  15A0  0875               	movf	___lldiv@divisor+3,w
  8199  15A1  0279               	subwf	___lldiv@dividend+3,w
  8200  15A2  1D03               	skipz
  8201  15A3  2DAE               	goto	u5035
  8202  15A4  0874               	movf	___lldiv@divisor+2,w
  8203  15A5  0278               	subwf	___lldiv@dividend+2,w
  8204  15A6  1D03               	skipz
  8205  15A7  2DAE               	goto	u5035
  8206  15A8  0873               	movf	___lldiv@divisor+1,w
  8207  15A9  0277               	subwf	___lldiv@dividend+1,w
  8208  15AA  1D03               	skipz
  8209  15AB  2DAE               	goto	u5035
  8210  15AC  0872               	movf	___lldiv@divisor,w
  8211  15AD  0276               	subwf	___lldiv@dividend,w
  8212  15AE                     u5035:
  8213  15AE  1C03               	skipc
  8214  15AF  2DB1               	goto	u5031
  8215  15B0  2DB2               	goto	u5030
  8216  15B1                     u5031:
  8217  15B1  2DC1               	goto	l3444
  8218  15B2                     u5030:
  8219  15B2                     l3440:
  8220  15B2  0872               	movf	___lldiv@divisor,w
  8221  15B3  02F6               	subwf	___lldiv@dividend,f
  8222  15B4  0873               	movf	___lldiv@divisor+1,w
  8223  15B5  1C03               	skipc
  8224  15B6  0F73               	incfsz	___lldiv@divisor+1,w
  8225  15B7  02F7               	subwf	___lldiv@dividend+1,f
  8226  15B8  0874               	movf	___lldiv@divisor+2,w
  8227  15B9  1C03               	skipc
  8228  15BA  0F74               	incfsz	___lldiv@divisor+2,w
  8229  15BB  02F8               	subwf	___lldiv@dividend+2,f
  8230  15BC  0875               	movf	___lldiv@divisor+3,w
  8231  15BD  1C03               	skipc
  8232  15BE  0F75               	incfsz	___lldiv@divisor+3,w
  8233  15BF  02F9               	subwf	___lldiv@dividend+3,f
  8234  15C0                     l3442:
  8235  15C0  1421               	bsf	___lldiv@quotient,0
  8236  15C1                     l3444:
  8237  15C1  3001               	movlw	1
  8238  15C2                     u5045:
  8239  15C2  1003               	clrc
  8240  15C3  0CF5               	rrf	___lldiv@divisor+3,f
  8241  15C4  0CF4               	rrf	___lldiv@divisor+2,f
  8242  15C5  0CF3               	rrf	___lldiv@divisor+1,f
  8243  15C6  0CF2               	rrf	___lldiv@divisor,f
  8244  15C7  3EFF               	addlw	-1
  8245  15C8  1D03               	skipz
  8246  15C9  2DC2               	goto	u5045
  8247  15CA                     l3446:
  8248  15CA  3001               	movlw	1
  8249  15CB  02A5               	subwf	___lldiv@counter,f
  8250  15CC  1D03               	btfss	3,2
  8251  15CD  2DCF               	goto	u5051
  8252  15CE  2DD0               	goto	u5050
  8253  15CF                     u5051:
  8254  15CF  2D97               	goto	l3436
  8255  15D0                     u5050:
  8256  15D0                     l3448:
  8257  15D0  0824               	movf	___lldiv@quotient+3,w
  8258  15D1  00F5               	movwf	?___lldiv+3
  8259  15D2  0823               	movf	___lldiv@quotient+2,w
  8260  15D3  00F4               	movwf	?___lldiv+2
  8261  15D4  0822               	movf	___lldiv@quotient+1,w
  8262  15D5  00F3               	movwf	?___lldiv+1
  8263  15D6  0821               	movf	___lldiv@quotient,w
  8264  15D7  00F2               	movwf	?___lldiv
  8265  15D8                     l376:
  8266  15D8  0008               	return
  8267  15D9                     __end_of___lldiv:
  8268                           
  8269                           	psect	text23
  8270  134E                     __ptext23:	
  8271 ;; *************** function _Setup *****************
  8272 ;; Defined at:
  8273 ;;		line 156 in file "main.c"
  8274 ;; Parameters:    Size  Location     Type
  8275 ;;		None
  8276 ;; Auto vars:     Size  Location     Type
  8277 ;;		None
  8278 ;; Return value:  Size  Location     Type
  8279 ;;                  1    wreg      void 
  8280 ;; Registers used:
  8281 ;;		wreg, status,2
  8282 ;; Tracked objects:
  8283 ;;		On entry : 0/0
  8284 ;;		On exit  : 0/0
  8285 ;;		Unchanged: 0/0
  8286 ;; Data sizes:     COMMON   BANK0   BANK1   BANK3   BANK2
  8287 ;;      Params:         0       0       0       0       0
  8288 ;;      Locals:         0       0       0       0       0
  8289 ;;      Temps:          0       0       0       0       0
  8290 ;;      Totals:         0       0       0       0       0
  8291 ;;Total ram usage:        0 bytes
  8292 ;; Hardware stack levels used:    1
  8293 ;; Hardware stack levels required when called:    1
  8294 ;; This function calls:
  8295 ;;		Nothing
  8296 ;; This function is called by:
  8297 ;;		_main
  8298 ;; This function uses a non-reentrant model
  8299 ;;
  8300                           
  8301                           
  8302                           ;psect for function _Setup
  8303  134E                     _Setup:
  8304  134E                     l3922:	
  8305                           ;incstack = 0
  8306                           ; Regs used in _Setup: [wreg+status,2]
  8307                           
  8308                           
  8309                           ;main.c: 158: 
  8310  134E  30FF               	movlw	255
  8311  134F  1683               	bsf	3,5	;RP0=1, select bank1
  8312  1350  1303               	bcf	3,6	;RP1=0, select bank1
  8313  1351  0085               	movwf	5	;volatile
  8314  1352                     l3924:
  8315                           
  8316                           ;main.c: 159:     return valor;
  8317  1352  0188               	clrf	8	;volatile
  8318  1353                     l3926:
  8319                           
  8320                           ;main.c: 160: 
  8321  1353  0187               	clrf	7	;volatile
  8322  1354                     l3928:
  8323                           
  8324                           ;main.c: 161: 
  8325  1354  0186               	clrf	6	;volatile
  8326  1355                     l3930:
  8327                           
  8328                           ;main.c: 162: }
  8329  1355  1787               	bsf	7,7	;volatile
  8330  1356                     l3932:
  8331  1356  1307               	bcf	7,6	;volatile
  8332  1357                     l3934:
  8333  1357  1283               	bcf	3,5	;RP0=0, select bank0
  8334  1358  1303               	bcf	3,6	;RP1=0, select bank0
  8335  1359  0185               	clrf	5	;volatile
  8336  135A                     l3936:
  8337  135A  0187               	clrf	7	;volatile
  8338  135B                     l3938:
  8339  135B  0188               	clrf	8	;volatile
  8340  135C                     l3940:
  8341  135C  0186               	clrf	6	;volatile
  8342  135D                     l3942:
  8343  135D  1683               	bsf	3,5	;RP0=1, select bank3
  8344  135E  1703               	bsf	3,6	;RP1=1, select bank3
  8345  135F  0188               	clrf	8	;volatile
  8346  1360                     l3944:
  8347  1360  0189               	clrf	9	;volatile
  8348  1361                     l3946:
  8349  1361  1408               	bsf	8,0	;volatile
  8350  1362                     l3948:
  8351  1362  1488               	bsf	8,1	;volatile
  8352  1363                     l107:
  8353  1363  0008               	return
  8354  1364                     __end_of_Setup:
  8355                           
  8356                           	psect	text24
  8357  1414                     __ptext24:	
  8358 ;; *************** function _Lcd_Write_String *****************
  8359 ;; Defined at:
  8360 ;;		line 58 in file "LCD8bits.c"
  8361 ;; Parameters:    Size  Location     Type
  8362 ;;  a               2    5[COMMON] PTR unsigned char 
  8363 ;;		 -> RAM(512), buf2(10), buf(10), STR_3(3), 
  8364 ;;		 -> STR_2(3), STR_1(3), 
  8365 ;; Auto vars:     Size  Location     Type
  8366 ;;  i               2    7[COMMON] int 
  8367 ;; Return value:  Size  Location     Type
  8368 ;;                  1    wreg      void 
  8369 ;; Registers used:
  8370 ;;		wreg, fsr0l, fsr0h, status,2, status,0, btemp+1, pclath, cstack
  8371 ;; Tracked objects:
  8372 ;;		On entry : 0/0
  8373 ;;		On exit  : 0/0
  8374 ;;		Unchanged: 0/0
  8375 ;; Data sizes:     COMMON   BANK0   BANK1   BANK3   BANK2
  8376 ;;      Params:         2       0       0       0       0
  8377 ;;      Locals:         2       0       0       0       0
  8378 ;;      Temps:          0       0       0       0       0
  8379 ;;      Totals:         4       0       0       0       0
  8380 ;;Total ram usage:        4 bytes
  8381 ;; Hardware stack levels used:    1
  8382 ;; Hardware stack levels required when called:    3
  8383 ;; This function calls:
  8384 ;;		_Lcd_Write_Char
  8385 ;; This function is called by:
  8386 ;;		_main
  8387 ;; This function uses a non-reentrant model
  8388 ;;
  8389                           
  8390                           
  8391                           ;psect for function _Lcd_Write_String
  8392  1414                     _Lcd_Write_String:
  8393  1414                     l4004:	
  8394                           ;incstack = 0
  8395                           ; Regs used in _Lcd_Write_String: [wreg-fsr0h+status,2+status,0+btemp+1+pclath+cstack]
  8396                           
  8397                           
  8398                           ;LCD8bits.c: 59:     int i;;LCD8bits.c: 60:     for (i = 0; a[i] != '\0'; i++)
  8399  1414  01F7               	clrf	Lcd_Write_String@i
  8400  1415  01F8               	clrf	Lcd_Write_String@i+1
  8401  1416  2C2F               	goto	l4010
  8402  1417                     l4006:
  8403                           
  8404                           ;LCD8bits.c: 61:         Lcd_Write_Char(a[i]);
  8405  1417  0877               	movf	Lcd_Write_String@i,w
  8406  1418  0775               	addwf	Lcd_Write_String@a,w
  8407  1419  0084               	movwf	4
  8408  141A  0878               	movf	Lcd_Write_String@i+1,w
  8409  141B  1803               	skipnc
  8410  141C  0A78               	incf	Lcd_Write_String@i+1,w
  8411  141D  0776               	addwf	Lcd_Write_String@a+1,w
  8412  141E  00FF               	movwf	btemp+1
  8413  141F  120A  118A  27E1  160A  118A  	fcall	stringtab
  8414  1424  160A  118A  2324  160A  118A  	fcall	_Lcd_Write_Char
  8415  1429                     l4008:
  8416  1429  3001               	movlw	1
  8417  142A  07F7               	addwf	Lcd_Write_String@i,f
  8418  142B  1803               	skipnc
  8419  142C  0AF8               	incf	Lcd_Write_String@i+1,f
  8420  142D  3000               	movlw	0
  8421  142E  07F8               	addwf	Lcd_Write_String@i+1,f
  8422  142F                     l4010:
  8423  142F  0877               	movf	Lcd_Write_String@i,w
  8424  1430  0775               	addwf	Lcd_Write_String@a,w
  8425  1431  0084               	movwf	4
  8426  1432  0878               	movf	Lcd_Write_String@i+1,w
  8427  1433  1803               	skipnc
  8428  1434  0A78               	incf	Lcd_Write_String@i+1,w
  8429  1435  0776               	addwf	Lcd_Write_String@a+1,w
  8430  1436  1283               	bcf	3,5	;RP0=0, select bank0
  8431  1437  1303               	bcf	3,6	;RP1=0, select bank0
  8432  1438  00FF               	movwf	btemp+1
  8433  1439  120A  118A  27E1  160A  118A  	fcall	stringtab
  8434  143E  3A00               	xorlw	0
  8435  143F  1D03               	skipz
  8436  1440  2C42               	goto	u6271
  8437  1441  2C43               	goto	u6270
  8438  1442                     u6271:
  8439  1442  2C17               	goto	l4006
  8440  1443                     u6270:
  8441  1443                     l143:
  8442  1443  0008               	return
  8443  1444                     __end_of_Lcd_Write_String:
  8444                           
  8445                           	psect	text25
  8446  1324                     __ptext25:	
  8447 ;; *************** function _Lcd_Write_Char *****************
  8448 ;; Defined at:
  8449 ;;		line 50 in file "LCD8bits.c"
  8450 ;; Parameters:    Size  Location     Type
  8451 ;;  a               1    wreg     unsigned char 
  8452 ;; Auto vars:     Size  Location     Type
  8453 ;;  a               1    4[COMMON] unsigned char 
  8454 ;; Return value:  Size  Location     Type
  8455 ;;                  1    wreg      void 
  8456 ;; Registers used:
  8457 ;;		wreg, status,2, status,0, pclath, cstack
  8458 ;; Tracked objects:
  8459 ;;		On entry : 0/0
  8460 ;;		On exit  : 0/0
  8461 ;;		Unchanged: 0/0
  8462 ;; Data sizes:     COMMON   BANK0   BANK1   BANK3   BANK2
  8463 ;;      Params:         0       0       0       0       0
  8464 ;;      Locals:         1       0       0       0       0
  8465 ;;      Temps:          1       0       0       0       0
  8466 ;;      Totals:         2       0       0       0       0
  8467 ;;Total ram usage:        2 bytes
  8468 ;; Hardware stack levels used:    1
  8469 ;; Hardware stack levels required when called:    2
  8470 ;; This function calls:
  8471 ;;		_Lcd_Port
  8472 ;; This function is called by:
  8473 ;;		_Lcd_Write_String
  8474 ;; This function uses a non-reentrant model
  8475 ;;
  8476                           
  8477                           
  8478                           ;psect for function _Lcd_Write_Char
  8479  1324                     _Lcd_Write_Char:
  8480                           
  8481                           ;incstack = 0
  8482                           ; Regs used in _Lcd_Write_Char: [wreg+status,2+status,0+pclath+cstack]
  8483                           ;Lcd_Write_Char@a stored from wreg
  8484  1324  00F4               	movwf	Lcd_Write_Char@a
  8485  1325                     l3386:
  8486                           
  8487                           ;LCD8bits.c: 51:     PORTCbits.RC0 = 1;
  8488  1325  1283               	bcf	3,5	;RP0=0, select bank0
  8489  1326  1303               	bcf	3,6	;RP1=0, select bank0
  8490  1327  1407               	bsf	7,0	;volatile
  8491  1328                     l3388:
  8492                           
  8493                           ;LCD8bits.c: 52:     Lcd_Port(a);
  8494  1328  0874               	movf	Lcd_Write_Char@a,w
  8495  1329  120A  118A  27FA  160A  118A  	fcall	_Lcd_Port
  8496  132E                     l3390:
  8497                           
  8498                           ;LCD8bits.c: 53:     PORTCbits.RC1 = 1;
  8499  132E  1283               	bcf	3,5	;RP0=0, select bank0
  8500  132F  1303               	bcf	3,6	;RP1=0, select bank0
  8501  1330  1487               	bsf	7,1	;volatile
  8502  1331                     l3392:
  8503                           
  8504                           ;LCD8bits.c: 54:     _delay((unsigned long)((10)*(4000000/4000000.0)));
  8505  1331  3003               	movlw	3
  8506  1332  00F3               	movwf	??_Lcd_Write_Char
  8507  1333                     u6657:
  8508  1333  0BF3               	decfsz	??_Lcd_Write_Char,f
  8509  1334  2B33               	goto	u6657
  8510  1335                     l3394:
  8511                           
  8512                           ;LCD8bits.c: 55:     PORTCbits.RC1 = 0;
  8513  1335  1283               	bcf	3,5	;RP0=0, select bank0
  8514  1336  1303               	bcf	3,6	;RP1=0, select bank0
  8515  1337  1087               	bcf	7,1	;volatile
  8516  1338                     l137:
  8517  1338  0008               	return
  8518  1339                     __end_of_Lcd_Write_Char:
  8519                           
  8520                           	psect	text26
  8521  137C                     __ptext26:	
  8522 ;; *************** function _Lcd_Set_Cursor *****************
  8523 ;; Defined at:
  8524 ;;		line 24 in file "LCD8bits.c"
  8525 ;; Parameters:    Size  Location     Type
  8526 ;;  a               1    wreg     unsigned char 
  8527 ;;  b               1    5[COMMON] unsigned char 
  8528 ;; Auto vars:     Size  Location     Type
  8529 ;;  a               1    7[COMMON] unsigned char 
  8530 ;;  temp            1    8[COMMON] unsigned char 
  8531 ;;  y               1    0        unsigned char 
  8532 ;;  z               1    0        unsigned char 
  8533 ;; Return value:  Size  Location     Type
  8534 ;;                  1    wreg      void 
  8535 ;; Registers used:
  8536 ;;		wreg, status,2, status,0, pclath, cstack
  8537 ;; Tracked objects:
  8538 ;;		On entry : 0/0
  8539 ;;		On exit  : 0/0
  8540 ;;		Unchanged: 0/0
  8541 ;; Data sizes:     COMMON   BANK0   BANK1   BANK3   BANK2
  8542 ;;      Params:         1       0       0       0       0
  8543 ;;      Locals:         2       0       0       0       0
  8544 ;;      Temps:          1       0       0       0       0
  8545 ;;      Totals:         4       0       0       0       0
  8546 ;;Total ram usage:        4 bytes
  8547 ;; Hardware stack levels used:    1
  8548 ;; Hardware stack levels required when called:    3
  8549 ;; This function calls:
  8550 ;;		_Lcd_Cmd
  8551 ;; This function is called by:
  8552 ;;		_main
  8553 ;; This function uses a non-reentrant model
  8554 ;;
  8555                           
  8556                           
  8557                           ;psect for function _Lcd_Set_Cursor
  8558  137C                     _Lcd_Set_Cursor:
  8559                           
  8560                           ;incstack = 0
  8561                           ; Regs used in _Lcd_Set_Cursor: [wreg+status,2+status,0+pclath+cstack]
  8562                           ;Lcd_Set_Cursor@a stored from wreg
  8563  137C  00F7               	movwf	Lcd_Set_Cursor@a
  8564  137D                     l3992:
  8565                           
  8566                           ;LCD8bits.c: 25:     char temp, z, y;;LCD8bits.c: 26:     if (a == 1) {
  8567  137D  0377               	decf	Lcd_Set_Cursor@a,w
  8568  137E  1D03               	btfss	3,2
  8569  137F  2B81               	goto	u6251
  8570  1380  2B82               	goto	u6250
  8571  1381                     u6251:
  8572  1381  2B8E               	goto	l3998
  8573  1382                     u6250:
  8574  1382                     l3994:
  8575                           
  8576                           ;LCD8bits.c: 27:         temp = 0x80 + b - 1;
  8577  1382  0875               	movf	Lcd_Set_Cursor@b,w
  8578  1383  3E7F               	addlw	127
  8579  1384  00F6               	movwf	??_Lcd_Set_Cursor
  8580  1385  0876               	movf	??_Lcd_Set_Cursor,w
  8581  1386  00F8               	movwf	Lcd_Set_Cursor@temp
  8582  1387                     l3996:
  8583                           
  8584                           ;LCD8bits.c: 28:         Lcd_Cmd(temp);
  8585  1387  0878               	movf	Lcd_Set_Cursor@temp,w
  8586  1388  160A  118A  2364  160A  118A  	fcall	_Lcd_Cmd
  8587                           
  8588                           ;LCD8bits.c: 29:     } else if (a == 2) {
  8589  138D  2B9F               	goto	l131
  8590  138E                     l3998:
  8591  138E  3002               	movlw	2
  8592  138F  0677               	xorwf	Lcd_Set_Cursor@a,w
  8593  1390  1D03               	btfss	3,2
  8594  1391  2B93               	goto	u6261
  8595  1392  2B94               	goto	u6260
  8596  1393                     u6261:
  8597  1393  2B9F               	goto	l131
  8598  1394                     u6260:
  8599  1394                     l4000:
  8600                           
  8601                           ;LCD8bits.c: 30:         temp = 0xC0 + b - 1;
  8602  1394  0875               	movf	Lcd_Set_Cursor@b,w
  8603  1395  3EBF               	addlw	191
  8604  1396  00F6               	movwf	??_Lcd_Set_Cursor
  8605  1397  0876               	movf	??_Lcd_Set_Cursor,w
  8606  1398  00F8               	movwf	Lcd_Set_Cursor@temp
  8607  1399                     l4002:
  8608                           
  8609                           ;LCD8bits.c: 31:         Lcd_Cmd(temp);
  8610  1399  0878               	movf	Lcd_Set_Cursor@temp,w
  8611  139A  160A  118A  2364  160A  118A  	fcall	_Lcd_Cmd
  8612  139F                     l131:
  8613  139F  0008               	return
  8614  13A0                     __end_of_Lcd_Set_Cursor:
  8615                           
  8616                           	psect	text27
  8617  1474                     __ptext27:	
  8618 ;; *************** function _Lcd_Init *****************
  8619 ;; Defined at:
  8620 ;;		line 35 in file "LCD8bits.c"
  8621 ;; Parameters:    Size  Location     Type
  8622 ;;		None
  8623 ;; Auto vars:     Size  Location     Type
  8624 ;;		None
  8625 ;; Return value:  Size  Location     Type
  8626 ;;                  1    wreg      void 
  8627 ;; Registers used:
  8628 ;;		wreg, status,2, status,0, pclath, cstack
  8629 ;; Tracked objects:
  8630 ;;		On entry : 0/0
  8631 ;;		On exit  : 0/0
  8632 ;;		Unchanged: 0/0
  8633 ;; Data sizes:     COMMON   BANK0   BANK1   BANK3   BANK2
  8634 ;;      Params:         0       0       0       0       0
  8635 ;;      Locals:         0       0       0       0       0
  8636 ;;      Temps:          2       0       0       0       0
  8637 ;;      Totals:         2       0       0       0       0
  8638 ;;Total ram usage:        2 bytes
  8639 ;; Hardware stack levels used:    1
  8640 ;; Hardware stack levels required when called:    3
  8641 ;; This function calls:
  8642 ;;		_Lcd_Cmd
  8643 ;;		_Lcd_Port
  8644 ;; This function is called by:
  8645 ;;		_main
  8646 ;; This function uses a non-reentrant model
  8647 ;;
  8648                           
  8649                           
  8650                           ;psect for function _Lcd_Init
  8651  1474                     _Lcd_Init:
  8652  1474                     l3980:	
  8653                           ;incstack = 0
  8654                           ; Regs used in _Lcd_Init: [wreg+status,2+status,0+pclath+cstack]
  8655                           
  8656                           
  8657                           ;LCD8bits.c: 36:     Lcd_Port(0x00);
  8658  1474  3000               	movlw	0
  8659  1475  120A  118A  27FA  160A  118A  	fcall	_Lcd_Port
  8660  147A                     l3982:
  8661                           
  8662                           ;LCD8bits.c: 37:     _delay((unsigned long)((20)*(4000000/4000.0)));
  8663  147A  301A               	movlw	26
  8664  147B  00F6               	movwf	??_Lcd_Init+1
  8665  147C  30F8               	movlw	248
  8666  147D  00F5               	movwf	??_Lcd_Init
  8667  147E                     u6667:
  8668  147E  0BF5               	decfsz	??_Lcd_Init,f
  8669  147F  2C7E               	goto	u6667
  8670  1480  0BF6               	decfsz	??_Lcd_Init+1,f
  8671  1481  2C7E               	goto	u6667
  8672  1482  0000               	nop
  8673  1483                     l3984:
  8674                           
  8675                           ;LCD8bits.c: 38:     Lcd_Cmd(0x30);
  8676  1483  3030               	movlw	48
  8677  1484  160A  118A  2364  160A  118A  	fcall	_Lcd_Cmd
  8678                           
  8679                           ;LCD8bits.c: 39:     _delay((unsigned long)((5)*(4000000/4000.0)));
  8680  1489  3007               	movlw	7
  8681  148A  00F6               	movwf	??_Lcd_Init+1
  8682  148B  307D               	movlw	125
  8683  148C  00F5               	movwf	??_Lcd_Init
  8684  148D                     u6677:
  8685  148D  0BF5               	decfsz	??_Lcd_Init,f
  8686  148E  2C8D               	goto	u6677
  8687  148F  0BF6               	decfsz	??_Lcd_Init+1,f
  8688  1490  2C8D               	goto	u6677
  8689  1491                     l3986:
  8690                           
  8691                           ;LCD8bits.c: 40:     Lcd_Cmd(0x30);
  8692  1491  3030               	movlw	48
  8693  1492  160A  118A  2364  160A  118A  	fcall	_Lcd_Cmd
  8694  1497                     l3988:
  8695                           
  8696                           ;LCD8bits.c: 41:     _delay((unsigned long)((11)*(4000000/4000.0)));
  8697  1497  300F               	movlw	15
  8698  1498  00F6               	movwf	??_Lcd_Init+1
  8699  1499  3047               	movlw	71
  8700  149A  00F5               	movwf	??_Lcd_Init
  8701  149B                     u6687:
  8702  149B  0BF5               	decfsz	??_Lcd_Init,f
  8703  149C  2C9B               	goto	u6687
  8704  149D  0BF6               	decfsz	??_Lcd_Init+1,f
  8705  149E  2C9B               	goto	u6687
  8706  149F  2CA0               	nop2
  8707                           
  8708                           ;LCD8bits.c: 42:     Lcd_Cmd(0x30);
  8709  14A0  3030               	movlw	48
  8710  14A1  160A  118A  2364  160A  118A  	fcall	_Lcd_Cmd
  8711                           
  8712                           ;LCD8bits.c: 44:     Lcd_Cmd(0b00111000);
  8713  14A6  3038               	movlw	56
  8714  14A7  160A  118A  2364  160A  118A  	fcall	_Lcd_Cmd
  8715                           
  8716                           ;LCD8bits.c: 45:     Lcd_Cmd(0x0C);
  8717  14AC  300C               	movlw	12
  8718  14AD  160A  118A  2364  160A  118A  	fcall	_Lcd_Cmd
  8719                           
  8720                           ;LCD8bits.c: 46:     Lcd_Cmd(0x6);
  8721  14B2  3006               	movlw	6
  8722  14B3  160A  118A  2364  160A  118A  	fcall	_Lcd_Cmd
  8723  14B8                     l134:
  8724  14B8  0008               	return
  8725  14B9                     __end_of_Lcd_Init:
  8726                           
  8727                           	psect	text28
  8728  12F6                     __ptext28:	
  8729 ;; *************** function _Lcd_Clear *****************
  8730 ;; Defined at:
  8731 ;;		line 19 in file "LCD8bits.c"
  8732 ;; Parameters:    Size  Location     Type
  8733 ;;		None
  8734 ;; Auto vars:     Size  Location     Type
  8735 ;;		None
  8736 ;; Return value:  Size  Location     Type
  8737 ;;                  1    wreg      void 
  8738 ;; Registers used:
  8739 ;;		wreg, status,2, status,0, pclath, cstack
  8740 ;; Tracked objects:
  8741 ;;		On entry : 0/0
  8742 ;;		On exit  : 0/0
  8743 ;;		Unchanged: 0/0
  8744 ;; Data sizes:     COMMON   BANK0   BANK1   BANK3   BANK2
  8745 ;;      Params:         0       0       0       0       0
  8746 ;;      Locals:         0       0       0       0       0
  8747 ;;      Temps:          0       0       0       0       0
  8748 ;;      Totals:         0       0       0       0       0
  8749 ;;Total ram usage:        0 bytes
  8750 ;; Hardware stack levels used:    1
  8751 ;; Hardware stack levels required when called:    3
  8752 ;; This function calls:
  8753 ;;		_Lcd_Cmd
  8754 ;; This function is called by:
  8755 ;;		_main
  8756 ;; This function uses a non-reentrant model
  8757 ;;
  8758                           
  8759                           
  8760                           ;psect for function _Lcd_Clear
  8761  12F6                     _Lcd_Clear:
  8762  12F6                     l3990:	
  8763                           ;incstack = 0
  8764                           ; Regs used in _Lcd_Clear: [wreg+status,2+status,0+pclath+cstack]
  8765                           
  8766                           
  8767                           ;LCD8bits.c: 20:     Lcd_Cmd(0);
  8768  12F6  3000               	movlw	0
  8769  12F7  160A  118A  2364  160A  118A  	fcall	_Lcd_Cmd
  8770                           
  8771                           ;LCD8bits.c: 21:     Lcd_Cmd(1);
  8772  12FC  3001               	movlw	1
  8773  12FD  160A  118A  2364  160A  118A  	fcall	_Lcd_Cmd
  8774  1302                     l125:
  8775  1302  0008               	return
  8776  1303                     __end_of_Lcd_Clear:
  8777                           
  8778                           	psect	text29
  8779  1364                     __ptext29:	
  8780 ;; *************** function _Lcd_Cmd *****************
  8781 ;; Defined at:
  8782 ;;		line 11 in file "LCD8bits.c"
  8783 ;; Parameters:    Size  Location     Type
  8784 ;;  a               1    wreg     unsigned char 
  8785 ;; Auto vars:     Size  Location     Type
  8786 ;;  a               1    4[COMMON] unsigned char 
  8787 ;; Return value:  Size  Location     Type
  8788 ;;                  1    wreg      void 
  8789 ;; Registers used:
  8790 ;;		wreg, status,2, status,0, pclath, cstack
  8791 ;; Tracked objects:
  8792 ;;		On entry : 0/0
  8793 ;;		On exit  : 0/0
  8794 ;;		Unchanged: 0/0
  8795 ;; Data sizes:     COMMON   BANK0   BANK1   BANK3   BANK2
  8796 ;;      Params:         0       0       0       0       0
  8797 ;;      Locals:         1       0       0       0       0
  8798 ;;      Temps:          1       0       0       0       0
  8799 ;;      Totals:         2       0       0       0       0
  8800 ;;Total ram usage:        2 bytes
  8801 ;; Hardware stack levels used:    1
  8802 ;; Hardware stack levels required when called:    2
  8803 ;; This function calls:
  8804 ;;		_Lcd_Port
  8805 ;; This function is called by:
  8806 ;;		_Lcd_Clear
  8807 ;;		_Lcd_Set_Cursor
  8808 ;;		_Lcd_Init
  8809 ;;		_Lcd_Shift_Right
  8810 ;;		_Lcd_Shift_Left
  8811 ;; This function uses a non-reentrant model
  8812 ;;
  8813                           
  8814                           
  8815                           ;psect for function _Lcd_Cmd
  8816  1364                     _Lcd_Cmd:
  8817                           
  8818                           ;incstack = 0
  8819                           ; Regs used in _Lcd_Cmd: [wreg+status,2+status,0+pclath+cstack]
  8820                           ;Lcd_Cmd@a stored from wreg
  8821  1364  00F4               	movwf	Lcd_Cmd@a
  8822  1365                     l3376:
  8823                           
  8824                           ;LCD8bits.c: 12:     PORTCbits.RC0 = 0;
  8825  1365  1283               	bcf	3,5	;RP0=0, select bank0
  8826  1366  1303               	bcf	3,6	;RP1=0, select bank0
  8827  1367  1007               	bcf	7,0	;volatile
  8828  1368                     l3378:
  8829                           
  8830                           ;LCD8bits.c: 13:     Lcd_Port(a);
  8831  1368  0874               	movf	Lcd_Cmd@a,w
  8832  1369  120A  118A  27FA  160A  118A  	fcall	_Lcd_Port
  8833  136E                     l3380:
  8834                           
  8835                           ;LCD8bits.c: 14:     PORTCbits.RC1 = 1;
  8836  136E  1283               	bcf	3,5	;RP0=0, select bank0
  8837  136F  1303               	bcf	3,6	;RP1=0, select bank0
  8838  1370  1487               	bsf	7,1	;volatile
  8839  1371                     l3382:
  8840                           
  8841                           ;LCD8bits.c: 15:     _delay((unsigned long)((1)*(4000000/4000.0)));
  8842  1371  30C7               	movlw	199
  8843  1372  00F3               	movwf	??_Lcd_Cmd
  8844  1373                     u6697:
  8845  1373  2B74               	nop2
  8846  1374  0BF3               	decfsz	??_Lcd_Cmd,f
  8847  1375  2B73               	goto	u6697
  8848  1376  2B77               	nop2
  8849  1377  2B78               	nop2
  8850  1378                     l3384:
  8851                           
  8852                           ;LCD8bits.c: 16:     PORTCbits.RC1 = 0;
  8853  1378  1283               	bcf	3,5	;RP0=0, select bank0
  8854  1379  1303               	bcf	3,6	;RP1=0, select bank0
  8855  137A  1087               	bcf	7,1	;volatile
  8856  137B                     l122:
  8857  137B  0008               	return
  8858  137C                     __end_of_Lcd_Cmd:
  8859                           
  8860                           	psect	text30
  8861  07FA                     __ptext30:	
  8862 ;; *************** function _Lcd_Port *****************
  8863 ;; Defined at:
  8864 ;;		line 7 in file "LCD8bits.c"
  8865 ;; Parameters:    Size  Location     Type
  8866 ;;  a               1    wreg     unsigned char 
  8867 ;; Auto vars:     Size  Location     Type
  8868 ;;  a               1    2[COMMON] unsigned char 
  8869 ;; Return value:  Size  Location     Type
  8870 ;;                  1    wreg      void 
  8871 ;; Registers used:
  8872 ;;		wreg
  8873 ;; Tracked objects:
  8874 ;;		On entry : 0/0
  8875 ;;		On exit  : 0/0
  8876 ;;		Unchanged: 0/0
  8877 ;; Data sizes:     COMMON   BANK0   BANK1   BANK3   BANK2
  8878 ;;      Params:         0       0       0       0       0
  8879 ;;      Locals:         1       0       0       0       0
  8880 ;;      Temps:          0       0       0       0       0
  8881 ;;      Totals:         1       0       0       0       0
  8882 ;;Total ram usage:        1 bytes
  8883 ;; Hardware stack levels used:    1
  8884 ;; Hardware stack levels required when called:    1
  8885 ;; This function calls:
  8886 ;;		Nothing
  8887 ;; This function is called by:
  8888 ;;		_Lcd_Cmd
  8889 ;;		_Lcd_Init
  8890 ;;		_Lcd_Write_Char
  8891 ;; This function uses a non-reentrant model
  8892 ;;
  8893                           
  8894                           
  8895                           ;psect for function _Lcd_Port
  8896  07FA                     _Lcd_Port:
  8897                           
  8898                           ;incstack = 0
  8899                           ; Regs used in _Lcd_Port: [wreg]
  8900                           ;Lcd_Port@a stored from wreg
  8901  07FA  00F2               	movwf	Lcd_Port@a
  8902  07FB                     l3162:
  8903                           
  8904                           ;LCD8bits.c: 8:     PORTD = a;
  8905  07FB  0872               	movf	Lcd_Port@a,w
  8906  07FC  1283               	bcf	3,5	;RP0=0, select bank0
  8907  07FD  1303               	bcf	3,6	;RP1=0, select bank0
  8908  07FE  0088               	movwf	8	;volatile
  8909  07FF                     l119:
  8910  07FF  0008               	return
  8911  0800                     __end_of_Lcd_Port:
  8912                           
  8913                           	psect	text31
  8914  12DC                     __ptext31:	
  8915 ;; *************** function _ISR *****************
  8916 ;; Defined at:
  8917 ;;		line 61 in file "main.c"
  8918 ;; Parameters:    Size  Location     Type
  8919 ;;		None
  8920 ;; Auto vars:     Size  Location     Type
  8921 ;;		None
  8922 ;; Return value:  Size  Location     Type
  8923 ;;                  1    wreg      void 
  8924 ;; Registers used:
  8925 ;;		None
  8926 ;; Tracked objects:
  8927 ;;		On entry : 0/0
  8928 ;;		On exit  : 0/0
  8929 ;;		Unchanged: 0/0
  8930 ;; Data sizes:     COMMON   BANK0   BANK1   BANK3   BANK2
  8931 ;;      Params:         0       0       0       0       0
  8932 ;;      Locals:         0       0       0       0       0
  8933 ;;      Temps:          2       0       0       0       0
  8934 ;;      Totals:         2       0       0       0       0
  8935 ;;Total ram usage:        2 bytes
  8936 ;; Hardware stack levels used:    1
  8937 ;; This function calls:
  8938 ;;		Nothing
  8939 ;; This function is called by:
  8940 ;;		Interrupt level 1
  8941 ;; This function uses a non-reentrant model
  8942 ;;
  8943                           
  8944                           
  8945                           ;psect for function _ISR
  8946  12DC                     _ISR:
  8947  12DC                     i1l87:
  8948  12DC  0871               	movf	??_ISR+1,w
  8949  12DD  008A               	movwf	10
  8950  12DE  0E70               	swapf	??_ISR,w
  8951  12DF  0083               	movwf	3
  8952  12E0  0EFE               	swapf	btemp,f
  8953  12E1  0E7E               	swapf	btemp,w
  8954  12E2  0009               	retfie
  8955  12E3                     __end_of_ISR:
  8956  007E                     btemp	set	126	;btemp
  8957  007E                     wtemp0	set	126
  8958                           
  8959                           	psect	intentry
  8960  0004                     __pintentry:	
  8961                           ;incstack = 0
  8962                           ; Regs used in _ISR: []
  8963                           
  8964  0004                     interrupt_function:
  8965  007E                     saved_w	set	btemp
  8966  0004  00FE               	movwf	btemp
  8967  0005  0E03               	swapf	3,w
  8968  0006  00F0               	movwf	??_ISR
  8969  0007  080A               	movf	10,w
  8970  0008  00F1               	movwf	??_ISR+1
  8971  0009  160A  118A  2ADC   	ljmp	_ISR
  8972                           
  8973                           	psect	config
  8974                           
  8975                           ;Config register CONFIG1 @ 0x2007
  8976                           ;	Oscillator Selection bits
  8977                           ;	FOSC = INTRC_NOCLKOUT, INTOSCIO oscillator: I/O function on RA6/OSC2/CLKOUT pin, I/O f
      +                          unction on RA7/OSC1/CLKIN
  8978                           ;	Watchdog Timer Enable bit
  8979                           ;	WDTE = OFF, WDT disabled and can be enabled by SWDTEN bit of the WDTCON register
  8980                           ;	Power-up Timer Enable bit
  8981                           ;	PWRTE = OFF, PWRT disabled
  8982                           ;	RE3/MCLR pin function select bit
  8983                           ;	MCLRE = OFF, RE3/MCLR pin function is digital input, MCLR internally tied to VDD
  8984                           ;	Code Protection bit
  8985                           ;	CP = OFF, Program memory code protection is disabled
  8986                           ;	Data Code Protection bit
  8987                           ;	CPD = OFF, Data memory code protection is disabled
  8988                           ;	Brown Out Reset Selection bits
  8989                           ;	BOREN = OFF, BOR disabled
  8990                           ;	Internal External Switchover bit
  8991                           ;	IESO = OFF, Internal/External Switchover mode is disabled
  8992                           ;	Fail-Safe Clock Monitor Enabled bit
  8993                           ;	FCMEN = OFF, Fail-Safe Clock Monitor is disabled
  8994                           ;	Low Voltage Programming Enable bit
  8995                           ;	LVP = OFF, RB3 pin has digital I/O, HV on MCLR must be used for programming
  8996                           ;	In-Circuit Debugger Mode bit
  8997                           ;	DEBUG = 0x1, unprogrammed default
  8998  2007                     	org	8199
  8999  2007  20D4               	dw	8404
  9000                           
  9001                           ;Config register CONFIG2 @ 0x2008
  9002                           ;	Brown-out Reset Selection bit
  9003                           ;	BOR4V = BOR40V, Brown-out Reset set to 4.0V
  9004                           ;	Flash Program Memory Self Write Enable bits
  9005                           ;	WRT = OFF, Write protection off
  9006  2008                     	org	8200
  9007  2008  3FFF               	dw	16383

Data Sizes:
    Strings     9
    Constant    0
    Data        0
    BSS         45
    Persistent  0
    Stack       0

Auto Spaces:
    Space          Size  Autos    Used
    COMMON           14     10      12
    BANK0            80     78      78
    BANK1            80     25      68
    BANK3            96      0       0
    BANK2            96      0       0

Pointer List with Targets:

    UARTSendString@str	PTR const unsigned char  size(1) Largest target is 10
		 -> buf2(BANK1[10]), buf(BANK1[10]), 

    convert@data	PTR unsigned char  size(1) Largest target is 10
		 -> buf2(BANK1[10]), buf(BANK1[10]), 

    Lcd_Write_String@a	PTR unsigned char  size(2) Largest target is 512
		 -> RAM(DATA[512]), buf2(BANK1[10]), buf(BANK1[10]), STR_3(CODE[3]), 
		 -> STR_2(CODE[3]), STR_1(CODE[3]), 


Critical Paths under _main in COMMON

    _intToString->___awmod
    _convert->___flge
    _convert->___wmul
    ___xxtofl->___wmul
    ___wmul->___fltol
    ___flsub->___fladd
    ___flsub->___wmul
    _UARTSendString->_UARTSendChar
    _UARTReadChar->_UARTDataReady
    _UARTInit->___lldiv
    _Lcd_Write_String->_Lcd_Write_Char
    _Lcd_Write_Char->_Lcd_Port
    _Lcd_Set_Cursor->_Lcd_Cmd
    _Lcd_Init->_Lcd_Cmd
    _Lcd_Clear->_Lcd_Cmd
    _Lcd_Cmd->_Lcd_Port

Critical Paths under _ISR in COMMON

    None.

Critical Paths under _main in BANK0

    _main->_convert
    _intToString->___awdiv
    _convert->___flmul
    ___xxtofl->___wmul
    ___wmul->___fltol
    ___flsub->___xxtofl
    ___flmul->___fldiv
    ___fldiv->___xxtofl
    _UARTInit->___lldiv

Critical Paths under _ISR in BANK0

    None.

Critical Paths under _main in BANK1

    _main->_convert

Critical Paths under _ISR in BANK1

    None.

Critical Paths under _main in BANK3

    None.

Critical Paths under _ISR in BANK3

    None.

Critical Paths under _main in BANK2

    None.

Critical Paths under _ISR in BANK2

    None.

Call Graph Tables:

 ---------------------------------------------------------------------------------
 (Depth) Function   	        Calls       Base Space   Used Autos Params    Refs
 ---------------------------------------------------------------------------------
 (0) _main                                                 5     5      0   29903
                                             77 BANK0      1     1      0
                                             21 BANK1      4     4      0
                          _Lcd_Clear
                           _Lcd_Init
                     _Lcd_Set_Cursor
                   _Lcd_Write_String
                              _Setup
                      _UARTDataReady
                           _UARTInit
                       _UARTReadChar
                     _UARTSendString
                            ___fldiv
                            ___flmul
                           ___xxtofl
                           _canalADC
                          _configADC
                            _convert
                        _intToString
 ---------------------------------------------------------------------------------
 (1) _intToString                                          9     9      0    2161
                                              4 BANK0      9     9      0
                            ___awdiv
                            ___awmod
                             ___bmul
 ---------------------------------------------------------------------------------
 (2) ___bmul                                               4     3      1     226
                                              2 COMMON     4     3      1
 ---------------------------------------------------------------------------------
 (2) ___awmod                                              7     3      4     613
                                              2 COMMON     7     3      4
 ---------------------------------------------------------------------------------
 (1) _convert                                             23    17      6   16628
                                             75 BANK0      2     2      0
                                              0 BANK1     21    15      6
                            ___awdiv
                            ___fldiv
                             ___flge
                            ___flmul
                            ___flsub
                            ___fltol
                             ___wmul
                           ___xxtofl
 ---------------------------------------------------------------------------------
 (2) ___xxtofl                                            14    10      4    1196
                                              9 BANK0     14    10      4
                            ___fltol (ARG)
                             ___wmul (ARG)
 ---------------------------------------------------------------------------------
 (2) ___wmul                                               6     2      4    1036
                                              8 COMMON     2     2      0
                                              5 BANK0      4     0      4
                            ___fltol (ARG)
 ---------------------------------------------------------------------------------
 (2) ___fltol                                             11     7      4     967
                                              2 COMMON     6     2      4
                                              0 BANK0      5     5      0
 ---------------------------------------------------------------------------------
 (2) ___flsub                                              8     0      8    3727
                                             23 BANK0      8     0      8
                            ___fladd
                            ___fltol (ARG)
                             ___wmul (ARG)
                           ___xxtofl (ARG)
 ---------------------------------------------------------------------------------
 (3) ___fladd                                             20    12      8    3122
                                              2 COMMON     8     0      8
                                              0 BANK0     12    12      0
 ---------------------------------------------------------------------------------
 (2) ___flmul                                             26    18      8    3893
                                             49 BANK0     26    18      8
                          __Umul8_16
                            ___fldiv (ARG)
                            ___flsub (ARG)
                            ___fltol (ARG)
                           ___xxtofl (ARG)
 ---------------------------------------------------------------------------------
 (3) __Umul8_16                                            9     7      2     980
                                              2 COMMON     4     2      2
                                              0 BANK0      5     5      0
 ---------------------------------------------------------------------------------
 (2) ___flge                                              12     4      8     446
                                              2 COMMON     8     0      8
                                              0 BANK0      4     4      0
 ---------------------------------------------------------------------------------
 (2) ___fldiv                                             26    18      8    2403
                                             23 BANK0     26    18      8
                           ___xxtofl (ARG)
 ---------------------------------------------------------------------------------
 (2) ___awdiv                                              9     5      4     985
                                              2 COMMON     5     1      4
                                              0 BANK0      4     4      0
 ---------------------------------------------------------------------------------
 (1) _configADC                                            0     0      0       0
 ---------------------------------------------------------------------------------
 (1) _canalADC                                             1     1      0     434
                                              2 COMMON     1     1      0
 ---------------------------------------------------------------------------------
 (1) _UARTSendString                                       5     4      1     478
                                              3 COMMON     5     4      1
                       _UARTSendChar
 ---------------------------------------------------------------------------------
 (2) _UARTSendChar                                         1     1      0      31
                                              2 COMMON     1     1      0
 ---------------------------------------------------------------------------------
 (1) _UARTReadChar                                         0     0      0       0
                      _UARTDataReady
 ---------------------------------------------------------------------------------
 (2) _UARTDataReady                                        1     1      0       0
                                              2 COMMON     1     1      0
 ---------------------------------------------------------------------------------
 (1) _UARTInit                                             9     4      5     874
                                              6 BANK0      9     4      5
                            ___lldiv
 ---------------------------------------------------------------------------------
 (2) ___lldiv                                             14     6      8     601
                                              2 COMMON     8     0      8
                                              0 BANK0      6     6      0
 ---------------------------------------------------------------------------------
 (1) _Setup                                                0     0      0       0
 ---------------------------------------------------------------------------------
 (1) _Lcd_Write_String                                     4     2      2     732
                                              5 COMMON     4     2      2
                     _Lcd_Write_Char
 ---------------------------------------------------------------------------------
 (2) _Lcd_Write_Char                                       2     2      0      62
                                              3 COMMON     2     2      0
                           _Lcd_Port
 ---------------------------------------------------------------------------------
 (1) _Lcd_Set_Cursor                                       6     5      1     884
                                              5 COMMON     4     3      1
                            _Lcd_Cmd
 ---------------------------------------------------------------------------------
 (1) _Lcd_Init                                             2     2      0      93
                                              5 COMMON     2     2      0
                            _Lcd_Cmd
                           _Lcd_Port
 ---------------------------------------------------------------------------------
 (1) _Lcd_Clear                                            0     0      0      62
                            _Lcd_Cmd
 ---------------------------------------------------------------------------------
 (2) _Lcd_Cmd                                              2     2      0      62
                                              3 COMMON     2     2      0
                           _Lcd_Port
 ---------------------------------------------------------------------------------
 (3) _Lcd_Port                                             1     1      0      31
                                              2 COMMON     1     1      0
 ---------------------------------------------------------------------------------
 Estimated maximum stack depth 3
 ---------------------------------------------------------------------------------
 (Depth) Function   	        Calls       Base Space   Used Autos Params    Refs
 ---------------------------------------------------------------------------------
 (4) _ISR                                                  2     2      0       0
                                              0 COMMON     2     2      0
 ---------------------------------------------------------------------------------
 Estimated maximum stack depth 4
 ---------------------------------------------------------------------------------

 Call Graph Graphs:

 _main (ROOT)
   _Lcd_Clear
     _Lcd_Cmd
       _Lcd_Port
   _Lcd_Init
     _Lcd_Cmd
       _Lcd_Port
     _Lcd_Port
   _Lcd_Set_Cursor
     _Lcd_Cmd
       _Lcd_Port
   _Lcd_Write_String
     _Lcd_Write_Char
       _Lcd_Port
   _Setup
   _UARTDataReady
   _UARTInit
     ___lldiv
   _UARTReadChar
     _UARTDataReady
   _UARTSendString
     _UARTSendChar
   ___fldiv
     ___xxtofl (ARG)
       ___fltol (ARG)
       ___wmul (ARG)
         ___fltol (ARG)
   ___flmul
     __Umul8_16
     ___fldiv (ARG)
       ___xxtofl (ARG)
         ___fltol (ARG)
         ___wmul (ARG)
           ___fltol (ARG)
     ___flsub (ARG)
       ___fladd
       ___fltol (ARG)
       ___wmul (ARG)
         ___fltol (ARG)
       ___xxtofl (ARG)
         ___fltol (ARG)
         ___wmul (ARG)
           ___fltol (ARG)
     ___fltol (ARG)
     ___xxtofl (ARG)
       ___fltol (ARG)
       ___wmul (ARG)
         ___fltol (ARG)
   ___xxtofl
     ___fltol (ARG)
     ___wmul (ARG)
       ___fltol (ARG)
   _canalADC
   _configADC
   _convert
     ___awdiv
     ___fldiv
       ___xxtofl (ARG)
         ___fltol (ARG)
         ___wmul (ARG)
           ___fltol (ARG)
     ___flge
     ___flmul
       __Umul8_16
       ___fldiv (ARG)
         ___xxtofl (ARG)
           ___fltol (ARG)
           ___wmul (ARG)
             ___fltol (ARG)
       ___flsub (ARG)
         ___fladd
         ___fltol (ARG)
         ___wmul (ARG)
           ___fltol (ARG)
         ___xxtofl (ARG)
           ___fltol (ARG)
           ___wmul (ARG)
             ___fltol (ARG)
       ___fltol (ARG)
       ___xxtofl (ARG)
         ___fltol (ARG)
         ___wmul (ARG)
           ___fltol (ARG)
     ___flsub
       ___fladd
       ___fltol (ARG)
       ___wmul (ARG)
         ___fltol (ARG)
       ___xxtofl (ARG)
         ___fltol (ARG)
         ___wmul (ARG)
           ___fltol (ARG)
     ___fltol
     ___wmul
       ___fltol (ARG)
     ___xxtofl
       ___fltol (ARG)
       ___wmul (ARG)
         ___fltol (ARG)
   _intToString
     ___awdiv
     ___awmod
     ___bmul

 _ISR (ROOT)

 Address spaces:
Name               Size   Autos  Total    Cost      Usage
BITCOMMON            E      0       0       0        0.0%
EEDATA             100      0       0       0        0.0%
NULL                 0      0       0       0        0.0%
CODE                 0      0       0       0        0.0%
COMMON               E      A       C       1       85.7%
BITSFR0              0      0       0       1        0.0%
SFR0                 0      0       0       1        0.0%
BITSFR1              0      0       0       2        0.0%
SFR1                 0      0       0       2        0.0%
STACK                0      0       0       2        0.0%
ABS                  0      0      9E       3        0.0%
BITBANK0            50      0       0       4        0.0%
BITSFR3              0      0       0       4        0.0%
SFR3                 0      0       0       4        0.0%
BANK0               50     4E      4E       5       97.5%
BITSFR2              0      0       0       5        0.0%
SFR2                 0      0       0       5        0.0%
BITBANK1            50      0       0       6        0.0%
BANK1               50     19      44       7       85.0%
BITBANK3            60      0       0       8        0.0%
BANK3               60      0       0       9        0.0%
BITBANK2            60      0       0      10        0.0%
BANK2               60      0       0      11        0.0%
DATA                 0      0      9E      12        0.0%


Microchip Technology PIC Macro Assembler V2.31 build 20201012212115 
Symbol Table                                                                                   Mon Feb 08 16:00:25 2021

        UARTInit@baud_rate 0026               ___fldiv@aexp 0050               ___fldiv@bexp 004F  
                        pc 0002               ___fldiv@sign 0048             ___bmul@product 0074  
             ___awdiv@sign 0021                         fsr 0004        ___wmul@multiplicand 0027  
      __Umul8_16@word_mpld 0022                        l110 1570                        l200 12F5  
                      l122 137B                        l131 139F                        l107 1363  
                      l211 12E9                        l125 1302                        l134 14B8  
                      l119 07FF                        l143 1443                        l208 1473  
                      l137 1338                        l217 1310                        l250 17FC  
                      l251 17FF                        l340 13D2                        l254 1323  
                      l342 13EA                        l175 047F                        l194 16B0  
                      l514 16CF                        l506 1511                        l197 12EB  
                      l517 173B                        l533 0870                        l518 1754  
                      l526 0885                        l366 134D                        l711 0B02  
                      l376 15D8                        l536 0885                        l713 0B12  
                      l705 0A90                        l633 0DDB                        l493 1641  
                      l741 07D4                        l637 0E82                        l750 1413  
                      l654 0F4D                        l646 0FFF                        l735 074C  
                      l639 0E59                        l664 0F93                        l729 07E0  
                      l658 0F71                        l691 0B1E                        l675 0FF3  
                      l667 0FD1                        l748 1401                        l676 0FFF  
                      l773 08AA                        l679 13C3                        l775 0941  
                      l689 099E                        l786 090B                        l787 0917  
                      l779 08EF                        _ISR 12DC                        _buf 00C1  
                      fsr0 0004                        indf 0000               ___awmod@sign 0078  
             ___flmul@aexp 005F               ___flmul@bexp 0064               ___flmul@sign 005E  
             ___flmul@temp 0069               ___flmul@prod 0065                       ?_ISR 0070  
             ___fltol@exp1 0077                       l4000 1394                       l3200 0DC8  
                     l4002 1399                       l4010 142F                       l3210 0DE5  
                     l3202 0DD0                       l4004 1414                       l4020 1766  
                     l4012 1311                       l3300 0F5A                       l3220 0DF9  
                     l3212 0DE9                       l3204 0DD1                       l4100 00D7  
                     l4006 1417                       l4030 1784                       l4022 176C  
                     l4014 1756                       l3310 0F75                       l3230 0E0D  
                     l3222 0DFD                       l3214 0DED                       l3206 0DD3  
                     l4110 01E3                       l4102 00DC                       l4008 1429  
                     l4040 17A2                       l4032 178A                       l4024 1772  
                     l4016 175B                       l3312 0F78                       l3304 0F63  
                     l3320 0F85                       l3240 0E21                       l3232 0E11  
                     l3224 0E01                       l3216 0DF1                       l3208 0DE1  
                     l3400 13C4                       l4120 0219                       l4112 0201  
                     l4104 00FD                       l4200 156E                       l3162 07FB  
                     l4050 17C0                       l4042 17A8                       l4034 1790  
                     l4026 1778                       l4018 1761                       l3330 0F98  
                     l3322 0F86                       l3314 0F7A                       l3306 0F6C  
                     l3250 0E66                       l3234 0E15                       l3226 0E05  
                     l3218 0DF5                       l3242 0E25                       l3170 0D89  
                     l3410 13E6                       l3402 13C6                       l4130 0257  
                     l4122 0229                       l4114 0209                       l4106 0103  
                     l4202 156F                       l4210 0B50                       l4060 17DE  
                     l4052 17C6                       l4044 17AE                       l4036 1796  
                     l4028 177E                       l3340 0FD6                       l3332 0F9D  
                     l3324 0F8A                       l3316 0F7F                       l3308 0F70  
                     l3252 0E68                       l3260 0E7A                       l3244 0E26  
                     l3236 0E19                       l3228 0E09                       l3180 0D9D  
                     l3172 0D8A                       l3164 0D78                       l3404 13CC  
                     l4140 0317                       l4132 025D                       l4124 0231  
                     l4116 020F                       l4108 0119                       l3500 14BE  
                     l3420 1343                       l4220 0B85                       l4212 0B65  
                     l3430 1583                       l4062 17E4                       l4054 17CC  
                     l4046 17B4                       l4038 179C                       l3350 0FED  
                     l3342 0FDB                       l3334 0FAB                       l3326 0F90  
                     l3318 0F81                       l3270 0EAB                       l3262 0E86  
                     l3254 0E6C                       l3246 0E3D                       l3238 0E1D  
                     l3190 0DB3                       l3174 0D8F                       l3182 0D9F  
                     l3166 0D7F                       l3406 13D9                       l4150 032D  
                     l4142 0317                       l4134 0273                       l4126 0231  
                     l4118 0213                       l4070 0021                       l3510 14D4  
                     l3502 14C3                       l3422 1345                       l3414 133A  
                     l4230 0BA7                       l4222 0B8B                       l4214 0B71  
                     l4206 0B1F                       l3440 15B2                       l3432 1586  
                     l4064 17EA                       l4056 17D2                       l4048 17BA  
                     l3600 094F                       l3360 13F0                       l3352 0FEF  
                     l3344 0FE3                       l3336 0FAF                       l3280 0EC2  
                     l3272 0EAF                       l3264 0E8B                       l3256 0E6D  
                     l3248 0E5D                       l3192 0DB9                       l3184 0DA7  
                     l3176 0D94                       l3168 0D85                       l3408 13E0  
                     l4160 0439                       l4152 0332                       l4144 031D  
                     l4136 0302                       l4128 0236                       l4080 003C  
                     l4072 0034                       l3520 14F0                       l3512 14D7  
                     l3504 14C5                       l3424 134C                       l3416 133B  
                     l4232 0BAF                       l4224 0B92                       l4240 0BBC  
                     l4216 0B7A                       l4208 0B47                       l3442 15C0  
                     l3434 1593                       l4066 17F0                       l4058 17D8  
                     l3610 0966                       l3602 0953                       l3362 13F7  
                     l3354 0FFA                       l3346 0FE8                       l3338 0FCD  
                     l3290 0F25                       l3282 0EC3                       l3274 0EB3  
                     l3258 0E76                       l3194 0DBD                       l3186 0DAC  
                     l3178 0D9C                       l4170 046F                       l4162 0457  
                     l4154 0353                       l4146 0322                       l4138 030A  
                     l4090 00AA                       l4082 003C                       l4074 0034  
                     l3530 150D                       l3522 14F6                       l3514 14DE  
                     l3506 14C9                       l3418 133F                       l4250 0C53  
                     l4242 0BC6                       l4234 0BB5                       l4226 0B9A  
                     l4218 0B7F                       l3380 136E                       l3444 15C1  
                     l3436 1597                       l3428 1571                       l3372 12E3  
                     l4180 1468                       l4172 1445                       l4068 17F6  
                     l3460 15E7                       l3452 15D9                       l3700 0A79  
                     l3620 097C                       l3612 0967                       l3604 0954  
                     l3540 16EB                       l3364 13FB                       l3356 0FFE  
                     l3348 0FE9                       l3292 0F2B                       l3284 0ECC  
                     l3276 0EBC                       l3268 0E94                       l3196 0DBE  
                     l3188 0DB2                       l4164 045F                       l4156 0359  
                     l4148 0328                       l4092 00BD                       l4084 0055  
                     l4076 0036                       l3524 14FD                       l3516 14E2  
                     l3508 14CE                       l4260 0CF1                       l4252 0C5C  
                     l4244 0BCE                       l4236 0BB8                       l4228 0BA0  
                     l3382 1371                       l3390 132E                       l3446 15CA  
                     l3438 15A0                       l4182 1303                       l4174 144A  
                     l3470 15FC                       l3462 15EB                       l3454 15DC  
                     l3710 0AA8                       l3702 0A8D                       l3630 0993  
                     l3622 0980                       l3606 0959                       l3614 0969  
                     l3550 1753                       l3542 16EF                       l3534 16B1  
                     l3366 140A                       l3358 13EE                       l3294 0F30  
                     l3278 0EBE                       l3286 0ED1                       l3198 0DC3  
                     l4166 0465                       l4158 036F                       l4086 0094  
                     l4094 00C3                       l4078 0038                       l3518 14E6  
                     l3526 1503                       l4190 1515                       l4270 0D2B  
                     l4262 0CFA                       l4254 0C68                       l4246 0C39  
                     l4238 0BBB                       l3384 1378                       l3376 1365  
                     l3392 1331                       l3448 15D0                       l4184 1303  
                     l4176 1455                       l3480 161F                       l3472 15FF  
                     l3464 15F0                       l3456 15E0                       l3720 0AE6  
                     l3712 0AAC                       l3640 09B6                       l3632 0994  
                     l3624 0981                       l3616 0971                       l3608 095E  
                     l3544 1713                       l3536 16C7                       l3368 140F  
                     l3800 05C0                       l3288 0EE7                       l3296 0F3F  
                     l3560 0820                       l4168 0469                       l4096 00CC  
                     l4088 00A1                       l3528 1508                       l4192 152B  
                     l4280 0D54                       l4272 0D35                       l4264 0D06  
                     l4256 0CD3                       l4248 0C4B                       l3378 1368  
                     l3394 1335                       l3386 1325                       l4186 130D  
                     l4178 145B                       l3490 1638                       l3482 1625  
                     l3474 1606                       l3466 15F4                       l3458 15E5  
                     l3730 0B0C                       l3722 0AF5                       l3714 0AC5  
                     l3706 0A95                       l3650 09CD                       l3626 0986  
                     l3634 0996                       l3618 0976                       l3546 1717  
                     l3538 16E3                       l3810 0640                       l3802 05DD  
                     l3298 0F55                       l3570 0844                       l3562 0835  
                     l3554 080A                       l4098 00D2                       l4194 1530  
                     l4282 0D59                       l4274 0D41                       l4266 0D12  
                     l4258 0CE5                       l3388 1328                       l3396 12EB  
                     l3492 163D                       l3484 1626                       l3476 160A  
                     l3468 15F6                       l3732 0B0E                       l3724 0AF9  
                     l3708 0A9A                       l3716 0ACB                       l3660 09F9  
                     l3652 09DF                       l3636 09A6                       l3644 09BF  
                     l3628 098B                       l3548 1751                       l3820 06F8  
                     l3812 066D                       l3804 05ED                       l3740 0487  
                     l3564 0836                       l3556 0817                       l3900 08E6  
                     l4196 1540                       l4284 0D5B                       l4276 0D47  
                     l4268 0D20                       l3398 12F1                       l3486 162D  
                     l3478 160E                       l3726 0B01                       l3718 0AD8  
                     l3662 09FE                       l3670 0A1E                       l3654 09E7  
                     l3646 09C4                       l3638 09B2                       l3830 071D  
                     l3822 0701                       l3814 067D                       l3806 060A  
                     l3750 049C                       l3742 048D                       l3590 13A0  
                     l3566 083E                       l3910 0919                       l3902 08F6  
                     l4198 1557                       l4286 0D5D                       l4278 0D4E  
                     l3488 1633                       l3728 0B08                       l3680 0A49  
                     l3672 0A30                       l3664 0A10                       l3656 09EF  
                     l3840 0735                       l3832 0726                       l3824 070F  
                     l3816 06AA                       l3808 0623                       l3760 04B9  
                     l3752 04A4                       l3744 0491                       l3592 13A4  
                     l3584 0865                       l3576 084C                       l3568 0840  
                     l3912 092F                       l3904 0901                       l3496 14B9  
                     l4288 0D69                       l3930 1355                       l3922 134E  
                     l3690 0A61                       l3682 0A51                       l3674 0A31  
                     l3666 0A14                       l3658 09F7                       l3850 0764  
                     l3842 0749                       l3826 0718                       l3834 072C  
                     l3818 06D0                       l3770 04D0                       l3762 04BD  
                     l3754 04A6                       l3746 0492                       l3738 0480  
                     l3586 0875                       l3578 085E                       l3914 0934  
                     l3906 0905                       l3498 14BA                       l3940 135C  
                     l3932 1356                       l3924 1352                       l3692 0A6A  
                     l3684 0A53                       l3676 0A3F                       l3668 0A15  
                     l3596 0942                       l3860 079F                       l3852 0768  
                     l3836 0730                       l3828 071C                       l3772 04D2  
                     l3764 04BE                       l3756 04AE                       l3748 0497  
                     l3588 087A                       l3916 0938                       l3908 090F  
                     l3942 135D                       l3934 1357                       l3926 1353  
                     l3950 1642                       l3686 0A5C                       l3694 0A70  
                     l3678 0A43                       l3598 0949                       l3870 07CC  
                     l3862 07AE                       l3854 0781                       l3846 0751  
                     l3838 0731                       l3790 0543                       l3782 04ED  
                     l3774 04DA                       l3766 04C3                       l3758 04B3  
                     l3918 0939                       l3944 1360                       l3936 135A  
                     l3928 1354                       l3960 16A2                       l3952 1649  
                     l3696 0A74                       l3688 0A60                       l3872 07CD  
                     l3864 07B8                       l3848 0756                       l3856 0787  
                     l3792 056F                       l3784 04FD                       l3776 04DF  
                     l3768 04C8                       l3880 088E                       l3946 1361  
                     l3938 135B                       l3970 16A9                       l3962 16A3  
                     l3954 1674                       l3698 0A75                       l3874 07D8  
                     l3866 07BA                       l3858 0794                       l3794 058B  
                     l3786 050A                       l3778 04E4                       l3890 08BB  
                     l3882 0892                       l3980 1474                       l3948 1362  
                     l3972 16AA                       l3964 16A4                       l3956 1676  
                     l3868 07C8                       l3796 05A7                       l3788 0527  
                     l3892 08C0                       l3884 08A2                       l3990 12F6  
                     l3982 147A                       l3974 16AB                       l3966 16A5  
                     l3958 16A1                       l3798 05B0                       l3894 08CD  
                     l3886 08B2                       l3878 0889                       l3984 1483  
                     l3992 137D                       l3976 16AC                       l3968 16A8  
                     l3896 08D4                       _ADIF 0066                       l3986 1491  
                     l3994 1382                       l3978 16AF                       l3898 08D8  
                     l3988 1497                       l3996 1387                       l3998 138E  
                     STR_1 07F1                       STR_2 07F4                       STR_3 07F7  
                     u5010 1597                       u5011 1596                       u5100 160E  
                     u5005 1588                       u5101 160D                       u5030 15B2  
                     u5031 15B1                       u5120 161F                       u6000 0749  
                     u5200 14E6                       u5025 1599                       u5121 161E  
                     u6001 0748                       u5201 14E5                       u5050 15D0  
                     u6010 0750                       u5210 14F0                       u5051 15CF  
                     u5035 15AE                       u5115 160F                       u6011 074F  
                     u5211 14EF                       u5140 1633                       u5060 15E0  
                     u6020 0756                       u4500 0DE1                       u6100 08B2  
                     u5045 15C2                       u5141 1632                       u5125 161B  
                     u5061 15DF                       u5301 1726                       u6021 0755  
                     u4501 0DE0                       u6101 08B1                       u5150 1638  
                     u5070 15EB                       u5310 1751                       u5302 1727  
                     u6030 0768                       u4510 0DE5                       u4430 0D89  
                     u5230 1503                       u5151 1637                       u5135 1627  
                     u5071 15EA                       u5311 1750                       u5303 172C  
                     u6031 0767                       u4511 0DE4                       u4431 0D88  
                     u5231 1502                       u5215 14EC                       u5080 15FC  
                     u5304 172D                       u6040 0777                       u4600 0E8B  
                     u4520 0E3D                       u4440 0D8F                       u5400 0875  
                     u5320 0817                       u6200 0934                       u6120 08D3  
                     u5240 1508                       u5160 14BE                       u5081 15FB  
                     u5305 1732                       u4601 0E8A                       u4521 0E3C  
                     u4441 0D8E                       u5401 0874                       u5321 0816  
                     u6201 0933                       u6121 08D2                       u5241 1507  
                     u5225 14F7                       u5161 14BD                       u5306 1733  
                     u5250 16C7                       u6050 0794                       u4530 0E46  
                     u4450 0D94                       u5410 087A                       u5330 082E  
                     u6210 0938                       u5170 14C9                       u5315 174D  
                     u5251 16C6                       u6051 0793                       u4611 0E9D  
                     u4531 0E44                       u4451 0D93                       u5411 0879  
                     u6211 0937                       u6115 08C5                       u5171 14C8  
                     u6220 1649                       u6300 1772                       u5500 09FE  
                     u5420 0953                       u5260 16E3                       u6060 07AE  
                     u4700 0F55                       u4620 0EAF                       u4612 0EA4  
                     u4540 0E47                       u4460 0DB2                       u5340 0844  
                     u6140 08F5                       u5180 14D4                       u6221 1648  
                     u6301 1771                       u5501 09FD                       u5421 0952  
                     u5261 16E2                       u6061 07AD                       u6045 0772  
                     u4701 0F54                       u4621 0EAE                       u4613 0EAB  
                     u4525 0E39                       u4461 0DB1                       u5341 0843  
                     u6141 08F4                       u5181 14D3                       u6230 1657  
                     u6310 177E                       u5430 0959                       u5270 16EF  
                     u6070 07CC                       u4710 0F5A                       u4630 0EB3  
                     u4550 0E5D                       u4470 0DBD                       u5350 084B  
                     u6311 177D                       u5095 1600                       u5431 0958  
                     u5271 16EE                       u6071 07CB                       u6055 0790  
                     u4711 0F59                       u4631 0EB2                       u4551 0E5C  
                     u4471 0DBC                       u5351 084A                       u5335 0829  
                     u6135 08E7                       u6240 1684                       u6400 17EA  
                     u6320 178A                       u5440 095E                       u4800 0F9D  
                     u4640 0EC2                       u4560 0E6C                       u4480 0DC3  
                     u6160 0905                       u6080 088E                       u6401 17E9  
                     u6321 1789                       u5441 095D                       u5281 16FE  
                     u6065 07AA                       u4801 0F9C                       u4641 0EC1  
                     u4561 0E6B                       u4481 0DC2                       u6161 0904  
                     u6081 088D                       u6250 1382                       u6410 17F6  
                     u6330 1796                       u5610 0A74                       u5530 0A14  
                     u5450 0980                       u5290 1717                       u5282 16FF  
                     u4810 0FAF                       u4730 0F70                       u4490 0DC8  
                     u5370 085D                       u6170 090B                       u6090 0892  
              main@entrada 006D                       u6251 1381                       u6235 1652  
                     u6411 17F5                       u6331 1795                       u5611 0A73  
                     u5531 0A13                       u5515 0A00                       u5451 097F  
                     u5291 1716                       u5283 1704                       u4811 0FAE  
                     u4731 0F6F                       u4491 0DC7                       u5371 085C  
                     u6171 090A                       u6155 08FA                       u6091 0891  
                     u5195 14D8                       u6260 1394                       u6340 17A2  
                     u5700 0B0C                       u5620 0A79                       u5460 0986  
                     u5284 1705                       u4820 0FBE                       u4740 0F75  
                     u4660 0EE7                       u4580 0E82                       u5380 0864  
                     u6180 090F                       u6500 046F                       u6420 0055  
                     u6261 1393                       u6245 167F                       u6341 17A1  
                     u5701 0B0B                       u5621 0A78                       u5605 0A63  
                     u5525 0A09                       u5461 0985                       u5285 170A  
                     u4741 0F74                       u4725 0F65                       u4661 0EE6  
                     u4581 0E81                       u5381 0863                       u5365 084D  
                     u6181 090E                       u6501 046E                       u6421 0054  
                     u6270 1443                       u6510 1468                       u6350 17AE  
                     u5630 0A8D                       u5550 0A30                       u5470 098B  
                     u5286 170B                       u4910 140F                       u5710 0491  
                     u4830 0FCD                       u4750 0F7F                       u4590 0E86  
                     u6190 0924                       u6430 00CB                       u6271 1442  
                     u6511 1467                       u6351 17AD                       u5631 0A8C  
                     u5551 0A2F                       u5471 098A                       u4911 140E  
                     u5711 0490                       u4831 0FCC                       u4751 0F7E  
                     u4671 0EFE                       u4663 0EE3                       u4655 0EC5  
                     u4591 0E85                       u4575 0E6F                       u6431 00CA  
                     u4920 12F1                       u6520 1473                       u6360 17BA  
                     u6280 175B                       u5640 0A94                       u5560 0A49  
                     u5480 09A6                       u5720 0497                       u4840 0FD6  
                     u4760 0F85                       u4680 0F12                       u4672 0EFF  
                     u6440 00D2                       u4921 12F0                       u6521 1472  
                     u6361 17B9                       u6281 175A                       u5641 0A93  
                     u5561 0A48                       u5545 0A17                       u5481 09A5  
                     u4905 1402                       u5801 0551                       u5721 0496  
                     u4841 0FD5                       u4825 0FB9                       u4761 0F84  
                     u4681 0F13                       u4673 0F04                       u6441 00D1  
                     u6530 130D                       u6370 17C6                       u6290 1766  
                     u5650 0A9A                       u5570 0A51                       u5490 09C4  
                     u5802 0558                       u5730 049C                       u4850 0FDB  
                     u4770 0F8A                       u4690 0F30                       u4682 0F18  
                     u4674 0F05                       u4930 13CC                       u6450 0119  
                     u6531 130C                       u6515 1464                       u6371 17C5  
                     u6291 1765                       u5651 0A99                       u5571 0A50  
                     u5555 0A2C                       u5491 09C3                       u5811 057D  
                     u5803 055F                       u5731 049B                       u4851 0FDA  
                     u4771 0F89                       u4691 0F2F                       u4683 0F19  
                     u4675 0F0A                       u5395 0867                       u4931 13CB  
                     u6195 091F                       u6451 0118                       u6380 17D2  
                     u5660 0AAC                       u5900 06B6                       u5812 0584  
                     u5740 04BD                       u4860 0FE8                       u4780 0F90  
                     u4676 0F0B                       u6460 0219                       u6540 0B8B  
                     u6381 17D1                       u5661 0AAB                       u5821 0599  
                     u5813 058B                       u5741 04BC                       u4861 0FE7  
                     u4781 0F8F                       u6461 0218                       u6541 0B8A  
                     u6390 17DE                       u5670 0ABB                       u5590 0A60  
                     u5822 05A0                       u5750 04C3                       u4870 0FED  
                     u4790 0F97                       u6470 0273                       u6550 0B92  
                     i1l87 12DC                       u6391 17DD                       u5591 0A5F  
                     u5911 06C2                       u5823 05A7                       u5751 04C2  
                     u4871 0FEC                       u4791 0F96                       u6471 0272  
                     u6455 0115                       u6551 0B91                       u5680 0AD8  
                     u5920 06DE                       u5912 06C9                       u5760 04C8  
                     u4880 0FFE                       u4960 13E6                       u6480 0328  
                     u6560 0D35                       u5681 0AD7                       u5585 0A55  
                     u5913 06D0                       u5905 06B1                       u5841 05CF  
                     u5761 04C7                       u4881 0FFD                       u4961 13E5  
                     u4945 13D3                       u6481 0327                       u6561 0D34  
                     u5690 0AF5                       u4890 13FB                       u5842 05D6  
                     u5770 04DF                       u6490 036F                       u4970 133F  
                     u6570 0D47                       u5691 0AF4                       u5675 0AB6  
                     u4891 13FA                       u5931 06EA                       u5851 05FC  
                     u5843 05DD                       u5835 05A9                       u5771 04DE  
                     u4955 13DA                       u6491 036E                       u6475 026F  
                     u4971 133E                       u6571 0D46                       u5932 06F1  
                     u5852 0603                       u5780 04E4                       u4980 134C  
                     u6580 0D54                       u5685 0AD4                       u5933 06F8  
                     u5925 06D9                       u5853 060A                       u5781 04E3  
                     u4981 134B                       u6581 0D53                       u4990 1583  
                     u6590 0D59                       u4991 1582                       u5695 0AF1  
                     u5871 0632                       u5791 0535                       u6495 036B  
                     u6591 0D58                       u6647 0D26                       u5960 071C  
                     u5872 0639                       u5792 053C                       u6657 1333  
                     u5961 071B                       u5945 06FA                       u5881 065F  
                     u5873 0640                       u5865 060C                       u5793 0543  
                     u5882 0666                       u6667 147E                       u5955 0711  
                     u5891 068C                       u5883 066D                       u5980 0730  
                     u5892 0693                       u6677 148D                       u5981 072F  
                     u5893 069A                       u5990 0735                       u6687 149B  
                     u5991 0734                       u5975 071F                       u6697 1373  
                     _buf2 00B7                       _buf3 00A0          ?_Lcd_Write_String 0075  
                     _main 0B1F                       btemp 007E                       start 000C  
       ??_Lcd_Write_String 0077            ___fldiv@new_exp 0049            __end_of_Lcd_Cmd 137C  
        ___bmul@multiplier 0075                      ??_ISR 0070               ?_intToString 0070  
            ___fltol@sign1 0076            __end_of___fladd 1000                      ?_main 0070  
          __end_of___fldiv 0B1F            __end_of___awdiv 1642            __end_of___awmod 1512  
          __end_of___flmul 07E1            __end_of___flsub 13C4            __end_of___fltol 0886  
                    _ANSEL 0188            __end_of___lldiv 15D9            ___awdiv@divisor 0072  
          ___awdiv@counter 0020                      _RCREG 001A                      _SPBRG 0099  
                    _PORTA 0005                      _PORTB 0006                      _PORTC 0007  
                    _PORTD 0008    __size_of_Lcd_Set_Cursor 0024                      _TRISA 0085  
                    _TRISB 0086                      _TRISC 0087                      _TRISD 0088  
                    _TXREG 0019                convert@data 00D5           __end_of_UARTInit 16B1  
                    _Setup 134E                convert@temp 00D1            __end_of_convert 0480  
                    pclath 000A                      status 0003                      wtemp0 007E  
         __end_of_Lcd_Init 14B9           __end_of_Lcd_Port 0800            __initialization 000F  
             __end_of_main 0D78                     ??_main 00E0         __size_of_Lcd_Clear 000D  
    __end_of_UARTDataReady 12EA                     ?_Setup 0070                     _ADRESH 001E  
         ___awdiv@dividend 0074                     _ANSELH 0189           __end_of_canalADC 1800  
                ??_Lcd_Cmd 0073    __size_of_Lcd_Write_Char 0015           __end_of___xxtofl 0942  
                   ___flge 16B1                     ___bmul 1339               convert@place 00CF  
                ??___fladd 0020                     ___wmul 13C4                  ??___fldiv 003F  
                ??___awdiv 0076                  ??___awmod 0076                  ??___flmul 0059  
                ??___flsub 007A                  ??___fltol 0020                  ??___lldiv 0020  
  __size_of_UARTSendString 0030           ___awdiv@quotient 0022            ___awmod@divisor 0072  
          ___awmod@counter 0077                  ??_convert 006B         __size_of__Umul8_16 0029  
                   saved_w 007E            Lcd_Set_Cursor@a 0077            Lcd_Set_Cursor@b 0075  
               ___flge@ff1 0072                 ___flge@ff2 0076               ___xxtofl@arg 0033  
             ___xxtofl@exp 0032               ___xxtofl@val 0029    __end_of__initialization 001A  
        __end_of_Lcd_Clear 1303                 ___fltol@f1 0072        ___bmul@multiplicand 0072  
         intToString@value 002C           intToString@valor 0027             __pcstackCOMMON 0070  
            __end_of_Setup 1364                  ?_UARTInit 0026       __size_of_intToString 005F  
           _Lcd_Set_Cursor 137C   UARTSendString@max_length 0073         __size_of_configADC 0013  
                  ??_Setup 0072                  ?_Lcd_Init 0070                  ?_Lcd_Port 0070  
               __pbssBANK1 00A0          __end_of__Umul8_16 1414                 __pmaintext 0B1F  
                  ?___flge 0072                    ?___bmul 0072                    ?___wmul 0025  
               ??_UARTInit 002B                 __pintentry 0004  __size_of_Lcd_Write_String 0030  
   __end_of_Lcd_Set_Cursor 13A0                  ?_canalADC 0070                  ?___xxtofl 0029  
               ??_Lcd_Init 0075                 ??_Lcd_Port 0072              ?_UARTReadChar 0070  
               __stringtab 07E1              ?_UARTSendChar 0070             _Lcd_Write_Char 1324  
                  _Lcd_Cmd 1364                 _convertir2 00AA          __end_of_configADC 1324  
            convert@digits 00DC            __size_of___flge 00A4            __size_of___bmul 0015  
                  ___fladd 0D78                    ___fldiv 0942                    ___awdiv 15D9  
                  ___awmod 14B9                    ___flmul 0480                    ___flsub 13A0  
                  ___fltol 080A                    ___lldiv 1571            __size_of___wmul 0027  
           _UARTSendString 1444                    _bandera 00B5                  _ANSELbits 0188  
          ?_Lcd_Set_Cursor 0075                    __ptext1 1512                    __ptext2 1339  
                  __ptext3 14B9                    __ptext4 001E                    __ptext5 0886  
                  __ptext6 13C4                    __ptext7 080A                    __ptext8 13A0  
                  __ptext9 0D78                 ??_canalADC 0072                    _convert 001E  
             __size_of_ISR 0007                    _control 00B3                    _lectura 00B4  
                  _varADC1 007B                    _varADC2 00B6                 ??___xxtofl 002D  
                  _varUART 007A           ___awmod@dividend 0074             ??_UARTReadChar 0073  
                  clrloop0 0803     __end_of_Lcd_Write_Char 1339       end_of_initialization 001A  
           ??_UARTSendChar 0072            ___lldiv@divisor 0072            ___lldiv@counter 0025  
                _RCSTAbits 0018     __end_of_UARTSendString 1474                  Lcd_Port@a 0072  
                _PORTCbits 0007                ___fladd@grs 002B              ___xxtofl@sign 0031  
                _TRISCbits 0087                ___fldiv@grs 004B                ___fldiv@rem 0044  
          ?_Lcd_Write_Char 0070          Lcd_Write_String@a 0075          Lcd_Write_String@i 0077  
              ___flmul@grs 0060                  _TXSTAbits 0098          intToString@entero 002B  
                _Lcd_Clear 12F6     __size_of_UARTDataReady 0007            ?_UARTSendString 0073  
           __end_of___flge 1755             __end_of___bmul 134E             __end_of___wmul 13EB  
         _Lcd_Write_String 1414          __size_of_UARTInit 006F        start_initialization 000F  
              __end_of_ISR 12E3          __size_of_Lcd_Init 0045          __size_of_Lcd_Port 0006  
               ?_Lcd_Clear 0070                   ??___flge 0020                   ??___bmul 0073  
     __end_of_UARTReadChar 1311                   ??___wmul 0078                  __Umul8_16 13EB  
            ??_intToString 0024            Lcd_Write_Char@a 0074       __end_of_UARTSendChar 12F6  
                ___fladd@a 0076                  ___fladd@b 0072                  ___fldiv@a 0037  
                ___fldiv@b 003B                  ___flmul@a 0055                  ___flmul@b 0051  
              __pbssCOMMON 007A                  ___flsub@a 0037                  ___flsub@b 003B  
                ___latbits 0002          __size_of_canalADC 00AB              __pcstackBANK0 0020  
            __pcstackBANK1 00CB              _UARTDataReady 12E3          __size_of___xxtofl 00BC  
                 ?_Lcd_Cmd 0070              UARTSendChar@c 0072           ??_Lcd_Set_Cursor 0076  
                 ?___fladd 0072                   ?___fldiv 0037                   ?___awdiv 0072  
                 ?___awmod 0072                   ?___flmul 0051                   ?___flsub 0037  
                 ?___fltol 0072                   ?___lldiv 0072                 ?__Umul8_16 0072  
                _configADC 1311                  __pstrings 07E1                   ?_convert 00CB  
                _convertir 00AE        __end_of_intToString 1571             ?_UARTDataReady 0070  
           __size_of_Setup 0016          interrupt_function 0004             ___wmul@product 0078  
                clear_ram0 0802                   _PIE1bits 008C            UARTSendString@i 0076  
                 Lcd_Cmd@a 0074                   _PIR1bits 000C                ??_Lcd_Clear 0075  
                 _UARTInit 1642                 ?_configADC 0070                 _ADCON0bits 001F  
              __stringbase 07F0                 _ADCON1bits 009F          ___wmul@multiplier 0025  
         ??_Lcd_Write_Char 0073                   _Lcd_Init 1474                   _Lcd_Port 07FA  
                convert@mu 00DE   __end_of_Lcd_Write_String 1444           __size_of_Lcd_Cmd 0018  
         ??_UARTSendString 0074      __size_of_UARTReadChar 000E      __size_of_UARTSendChar 000C  
             UARTInit@BRGH 002A                ??__Umul8_16 0074           __size_of___fladd 0288  
         __size_of___fldiv 01DD           __size_of___awdiv 0069           __size_of___awmod 0059  
         __size_of___flmul 0361           __size_of___flsub 0024           __size_of___fltol 007C  
         __size_of___lldiv 0068                _intToString 1512         __end_of__stringtab 07F1  
                 _canalADC 1755            ??_UARTDataReady 0072           __size_of_convert 0462  
                 ___xxtofl 0886              canalADC@canal 0072                   __ptext10 0480  
                 __ptext11 13EB                   __ptext20 12E3                   __ptext12 16B1  
                 __ptext21 1642                   __ptext13 0942                   __ptext30 07FA  
                 __ptext22 1571                   __ptext14 15D9                   __ptext31 12DC  
                 __ptext23 134E                   __ptext15 1311                   __ptext24 1414  
                 __ptext16 1755                   __ptext25 1324                   __ptext17 1444  
                 __ptext26 137C                   __ptext18 12EA                   __ptext27 1474  
                 __ptext19 1303                   __ptext28 12F6                   __ptext29 1364  
             _UARTReadChar 1303               _UARTSendChar 12EA              __size_of_main 0259  
              ??_configADC 0072                   convert@a 00CB                   convert@i 00DA  
                 convert@j 00D3                   convert@x 00D6          UARTSendString@str 0075  
                 intlevel1 0000           ___lldiv@dividend 0076                  stringcode 07EB  
       Lcd_Set_Cursor@temp 0078     __Umul8_16@multiplicand 0072           ___lldiv@quotient 0021  
                 stringdir 07EB                   stringtab 07E1              ___fladd@signs 0028  
             ___fladd@aexp 0029               ___fladd@bexp 002A                 _UARTstring 00B2  
     __Umul8_16@multiplier 0024          __Umul8_16@product 0020  
