

Microchip MPLAB XC8 Assembler V2.31 build 20201012212115 
                                                                                               Fri Feb 19 09:15:11 2021

Microchip MPLAB XC8 C Compiler v2.31 (Free license) build 20201012212115 Og1 
     1                           	processor	16F887
     2                           	pagewidth 120
     3                           	opt	flic
     4                           	psect	strings,global,class=STRING,delta=2,noexec
     5                           	psect	cinit,global,class=CODE,merge=1,delta=2
     6                           	psect	bssCOMMON,global,class=COMMON,space=1,delta=1,noexec
     7                           	psect	bssBANK0,global,class=BANK0,space=1,delta=1,noexec
     8                           	psect	cstackCOMMON,global,class=COMMON,space=1,delta=1,noexec
     9                           	psect	cstackBANK0,global,class=BANK0,space=1,delta=1,noexec
    10                           	psect	maintext,global,class=CODE,split=1,delta=2
    11                           	psect	text1,local,class=CODE,merge=1,delta=2
    12                           	psect	text2,local,class=CODE,merge=1,delta=2
    13                           	psect	text3,local,class=CODE,merge=1,delta=2
    14                           	psect	text4,local,class=CODE,merge=1,delta=2
    15                           	psect	text5,local,class=CODE,merge=1,delta=2
    16                           	psect	text6,local,class=CODE,merge=1,delta=2,group=1
    17                           	psect	text7,local,class=CODE,merge=1,delta=2,group=1
    18                           	psect	text8,local,class=CODE,merge=1,delta=2,group=1
    19                           	psect	text9,local,class=CODE,merge=1,delta=2
    20                           	psect	text10,local,class=CODE,merge=1,delta=2,group=1
    21                           	psect	text11,local,class=CODE,merge=1,delta=2,group=1
    22                           	psect	text12,local,class=CODE,merge=1,delta=2,group=1
    23                           	psect	text13,local,class=CODE,merge=1,delta=2,group=1
    24                           	psect	text14,local,class=CODE,merge=1,delta=2,group=1
    25                           	psect	text15,local,class=CODE,merge=1,delta=2,group=1
    26                           	psect	text16,local,class=CODE,merge=1,delta=2,group=1
    27                           	psect	text17,local,class=CODE,merge=1,delta=2
    28                           	psect	text18,local,class=CODE,merge=1,delta=2
    29                           	psect	text19,local,class=CODE,merge=1,delta=2
    30                           	psect	text20,local,class=CODE,merge=1,delta=2,group=1
    31                           	psect	text21,local,class=CODE,merge=1,delta=2
    32                           	psect	text22,local,class=CODE,merge=1,delta=2
    33                           	psect	text23,local,class=CODE,merge=1,delta=2
    34                           	psect	text24,local,class=CODE,merge=1,delta=2
    35                           	psect	text25,local,class=CODE,merge=1,delta=2
    36                           	psect	text26,local,class=CODE,merge=1,delta=2
    37                           	psect	text27,local,class=CODE,merge=1,delta=2
    38                           	psect	text28,local,class=CODE,merge=1,delta=2
    39                           	psect	text29,local,class=CODE,merge=1,delta=2
    40                           	psect	intentry,global,class=CODE,delta=2
    41                           	psect	config,global,abs,ovrld,class=CONFIG,space=4,delta=2,noexec
    42                           	dabs	1,0x7E,2
    43  0000                     
    44                           ; Version 2.20
    45                           ; Generated 12/02/2020 GMT
    46                           ; 
    47                           ; Copyright © 2020, Microchip Technology Inc. and its subsidiaries ("Microchip")
    48                           ; All rights reserved.
    49                           ; 
    50                           ; This software is developed by Microchip Technology Inc. and its subsidiaries ("Microch
      +                          ip").
    51                           ; 
    52                           ; Redistribution and use in source and binary forms, with or without modification, are
    53                           ; permitted provided that the following conditions are met:
    54                           ; 
    55                           ;     1. Redistributions of source code must retain the above copyright notice, this lis
      +                          t of
    56                           ;        conditions and the following disclaimer.
    57                           ; 
    58                           ;     2. Redistributions in binary form must reproduce the above copyright notice, this 
      +                          list
    59                           ;        of conditions and the following disclaimer in the documentation and/or other
    60                           ;        materials provided with the distribution.
    61                           ; 
    62                           ;     3. Microchip's name may not be used to endorse or promote products derived from th
      +                          is
    63                           ;        software without specific prior written permission.
    64                           ; 
    65                           ; THIS SOFTWARE IS PROVIDED BY MICROCHIP "AS IS" AND ANY EXPRESS OR IMPLIED WARRANTIES,
    66                           ; INCLUDING, BUT NOT LIMITED TO, THE IMPLIED WARRANTIES OF MERCHANTABILITY AND FITNESS F
      +                          OR
    67                           ; PURPOSE ARE DISCLAIMED.  IN NO EVENT SHALL MICROCHIP BE LIABLE FOR ANY DIRECT, INDIREC
      +                          T,
    68                           ; INCIDENTAL, SPECIAL, EXEMPLARY, OR CONSEQUENTIAL DAMAGES (INCLUDING BUT NOT LIMITED TO
    69                           ; PROCUREMENT OF SUBSTITUTE GOODS OR SERVICES; LOSS OF USE, DATA OR PROFITS; OR BUSINESS
    70                           ; INTERRUPTION) HOWSOEVER CAUSED AND ON ANY THEORY OF LIABILITY, WHETHER IN CONTRACT, ST
      +                          RICT
    71                           ; LIABILITY, OR TORT (INCLUDING NEGLIGENCE OR OTHERWISE) ARISING IN ANY WAY OUT OF THE U
      +                          SE OF
    72                           ; THIS SOFTWARE, EVEN IF ADVISED OF THE POSSIBILITY OF SUCH DAMAGE.
    73                           ; 
    74                           ; 
    75                           ; Code-generator required, PIC16F887 Definitions
    76                           ; 
    77                           ; SFR Addresses
    78  0000                     	;# 
    79  0001                     	;# 
    80  0002                     	;# 
    81  0003                     	;# 
    82  0004                     	;# 
    83  0005                     	;# 
    84  0006                     	;# 
    85  0007                     	;# 
    86  0008                     	;# 
    87  0009                     	;# 
    88  000A                     	;# 
    89  000B                     	;# 
    90  000C                     	;# 
    91  000D                     	;# 
    92  000E                     	;# 
    93  000E                     	;# 
    94  000F                     	;# 
    95  0010                     	;# 
    96  0011                     	;# 
    97  0012                     	;# 
    98  0013                     	;# 
    99  0014                     	;# 
   100  0015                     	;# 
   101  0015                     	;# 
   102  0016                     	;# 
   103  0017                     	;# 
   104  0018                     	;# 
   105  0019                     	;# 
   106  001A                     	;# 
   107  001B                     	;# 
   108  001B                     	;# 
   109  001C                     	;# 
   110  001D                     	;# 
   111  001E                     	;# 
   112  001F                     	;# 
   113  0081                     	;# 
   114  0085                     	;# 
   115  0086                     	;# 
   116  0087                     	;# 
   117  0088                     	;# 
   118  0089                     	;# 
   119  008C                     	;# 
   120  008D                     	;# 
   121  008E                     	;# 
   122  008F                     	;# 
   123  0090                     	;# 
   124  0091                     	;# 
   125  0092                     	;# 
   126  0093                     	;# 
   127  0093                     	;# 
   128  0093                     	;# 
   129  0094                     	;# 
   130  0095                     	;# 
   131  0096                     	;# 
   132  0097                     	;# 
   133  0098                     	;# 
   134  0099                     	;# 
   135  009A                     	;# 
   136  009B                     	;# 
   137  009C                     	;# 
   138  009D                     	;# 
   139  009E                     	;# 
   140  009F                     	;# 
   141  0105                     	;# 
   142  0107                     	;# 
   143  0108                     	;# 
   144  0109                     	;# 
   145  010C                     	;# 
   146  010C                     	;# 
   147  010D                     	;# 
   148  010E                     	;# 
   149  010F                     	;# 
   150  0185                     	;# 
   151  0187                     	;# 
   152  0188                     	;# 
   153  0189                     	;# 
   154  018C                     	;# 
   155  018D                     	;# 
   156  0000                     	;# 
   157  0001                     	;# 
   158  0002                     	;# 
   159  0003                     	;# 
   160  0004                     	;# 
   161  0005                     	;# 
   162  0006                     	;# 
   163  0007                     	;# 
   164  0008                     	;# 
   165  0009                     	;# 
   166  000A                     	;# 
   167  000B                     	;# 
   168  000C                     	;# 
   169  000D                     	;# 
   170  000E                     	;# 
   171  000E                     	;# 
   172  000F                     	;# 
   173  0010                     	;# 
   174  0011                     	;# 
   175  0012                     	;# 
   176  0013                     	;# 
   177  0014                     	;# 
   178  0015                     	;# 
   179  0015                     	;# 
   180  0016                     	;# 
   181  0017                     	;# 
   182  0018                     	;# 
   183  0019                     	;# 
   184  001A                     	;# 
   185  001B                     	;# 
   186  001B                     	;# 
   187  001C                     	;# 
   188  001D                     	;# 
   189  001E                     	;# 
   190  001F                     	;# 
   191  0081                     	;# 
   192  0085                     	;# 
   193  0086                     	;# 
   194  0087                     	;# 
   195  0088                     	;# 
   196  0089                     	;# 
   197  008C                     	;# 
   198  008D                     	;# 
   199  008E                     	;# 
   200  008F                     	;# 
   201  0090                     	;# 
   202  0091                     	;# 
   203  0092                     	;# 
   204  0093                     	;# 
   205  0093                     	;# 
   206  0093                     	;# 
   207  0094                     	;# 
   208  0095                     	;# 
   209  0096                     	;# 
   210  0097                     	;# 
   211  0098                     	;# 
   212  0099                     	;# 
   213  009A                     	;# 
   214  009B                     	;# 
   215  009C                     	;# 
   216  009D                     	;# 
   217  009E                     	;# 
   218  009F                     	;# 
   219  0105                     	;# 
   220  0107                     	;# 
   221  0108                     	;# 
   222  0109                     	;# 
   223  010C                     	;# 
   224  010C                     	;# 
   225  010D                     	;# 
   226  010E                     	;# 
   227  010F                     	;# 
   228  0185                     	;# 
   229  0187                     	;# 
   230  0188                     	;# 
   231  0189                     	;# 
   232  018C                     	;# 
   233  018D                     	;# 
   234  0000                     	;# 
   235  0001                     	;# 
   236  0002                     	;# 
   237  0003                     	;# 
   238  0004                     	;# 
   239  0005                     	;# 
   240  0006                     	;# 
   241  0007                     	;# 
   242  0008                     	;# 
   243  0009                     	;# 
   244  000A                     	;# 
   245  000B                     	;# 
   246  000C                     	;# 
   247  000D                     	;# 
   248  000E                     	;# 
   249  000E                     	;# 
   250  000F                     	;# 
   251  0010                     	;# 
   252  0011                     	;# 
   253  0012                     	;# 
   254  0013                     	;# 
   255  0014                     	;# 
   256  0015                     	;# 
   257  0015                     	;# 
   258  0016                     	;# 
   259  0017                     	;# 
   260  0018                     	;# 
   261  0019                     	;# 
   262  001A                     	;# 
   263  001B                     	;# 
   264  001B                     	;# 
   265  001C                     	;# 
   266  001D                     	;# 
   267  001E                     	;# 
   268  001F                     	;# 
   269  0081                     	;# 
   270  0085                     	;# 
   271  0086                     	;# 
   272  0087                     	;# 
   273  0088                     	;# 
   274  0089                     	;# 
   275  008C                     	;# 
   276  008D                     	;# 
   277  008E                     	;# 
   278  008F                     	;# 
   279  0090                     	;# 
   280  0091                     	;# 
   281  0092                     	;# 
   282  0093                     	;# 
   283  0093                     	;# 
   284  0093                     	;# 
   285  0094                     	;# 
   286  0095                     	;# 
   287  0096                     	;# 
   288  0097                     	;# 
   289  0098                     	;# 
   290  0099                     	;# 
   291  009A                     	;# 
   292  009B                     	;# 
   293  009C                     	;# 
   294  009D                     	;# 
   295  009E                     	;# 
   296  009F                     	;# 
   297  0105                     	;# 
   298  0107                     	;# 
   299  0108                     	;# 
   300  0109                     	;# 
   301  010C                     	;# 
   302  010C                     	;# 
   303  010D                     	;# 
   304  010E                     	;# 
   305  010F                     	;# 
   306  0185                     	;# 
   307  0187                     	;# 
   308  0188                     	;# 
   309  0189                     	;# 
   310  018C                     	;# 
   311  018D                     	;# 
   312  0000                     	;# 
   313  0001                     	;# 
   314  0002                     	;# 
   315  0003                     	;# 
   316  0004                     	;# 
   317  0005                     	;# 
   318  0006                     	;# 
   319  0007                     	;# 
   320  0008                     	;# 
   321  0009                     	;# 
   322  000A                     	;# 
   323  000B                     	;# 
   324  000C                     	;# 
   325  000D                     	;# 
   326  000E                     	;# 
   327  000E                     	;# 
   328  000F                     	;# 
   329  0010                     	;# 
   330  0011                     	;# 
   331  0012                     	;# 
   332  0013                     	;# 
   333  0014                     	;# 
   334  0015                     	;# 
   335  0015                     	;# 
   336  0016                     	;# 
   337  0017                     	;# 
   338  0018                     	;# 
   339  0019                     	;# 
   340  001A                     	;# 
   341  001B                     	;# 
   342  001B                     	;# 
   343  001C                     	;# 
   344  001D                     	;# 
   345  001E                     	;# 
   346  001F                     	;# 
   347  0081                     	;# 
   348  0085                     	;# 
   349  0086                     	;# 
   350  0087                     	;# 
   351  0088                     	;# 
   352  0089                     	;# 
   353  008C                     	;# 
   354  008D                     	;# 
   355  008E                     	;# 
   356  008F                     	;# 
   357  0090                     	;# 
   358  0091                     	;# 
   359  0092                     	;# 
   360  0093                     	;# 
   361  0093                     	;# 
   362  0093                     	;# 
   363  0094                     	;# 
   364  0095                     	;# 
   365  0096                     	;# 
   366  0097                     	;# 
   367  0098                     	;# 
   368  0099                     	;# 
   369  009A                     	;# 
   370  009B                     	;# 
   371  009C                     	;# 
   372  009D                     	;# 
   373  009E                     	;# 
   374  009F                     	;# 
   375  0105                     	;# 
   376  0107                     	;# 
   377  0108                     	;# 
   378  0109                     	;# 
   379  010C                     	;# 
   380  010C                     	;# 
   381  010D                     	;# 
   382  010E                     	;# 
   383  010F                     	;# 
   384  0185                     	;# 
   385  0187                     	;# 
   386  0188                     	;# 
   387  0189                     	;# 
   388  018C                     	;# 
   389  018D                     	;# 
   390  0000                     	;# 
   391  0001                     	;# 
   392  0002                     	;# 
   393  0003                     	;# 
   394  0004                     	;# 
   395  0005                     	;# 
   396  0006                     	;# 
   397  0007                     	;# 
   398  0008                     	;# 
   399  0009                     	;# 
   400  000A                     	;# 
   401  000B                     	;# 
   402  000C                     	;# 
   403  000D                     	;# 
   404  000E                     	;# 
   405  000E                     	;# 
   406  000F                     	;# 
   407  0010                     	;# 
   408  0011                     	;# 
   409  0012                     	;# 
   410  0013                     	;# 
   411  0014                     	;# 
   412  0015                     	;# 
   413  0015                     	;# 
   414  0016                     	;# 
   415  0017                     	;# 
   416  0018                     	;# 
   417  0019                     	;# 
   418  001A                     	;# 
   419  001B                     	;# 
   420  001B                     	;# 
   421  001C                     	;# 
   422  001D                     	;# 
   423  001E                     	;# 
   424  001F                     	;# 
   425  0081                     	;# 
   426  0085                     	;# 
   427  0086                     	;# 
   428  0087                     	;# 
   429  0088                     	;# 
   430  0089                     	;# 
   431  008C                     	;# 
   432  008D                     	;# 
   433  008E                     	;# 
   434  008F                     	;# 
   435  0090                     	;# 
   436  0091                     	;# 
   437  0092                     	;# 
   438  0093                     	;# 
   439  0093                     	;# 
   440  0093                     	;# 
   441  0094                     	;# 
   442  0095                     	;# 
   443  0096                     	;# 
   444  0097                     	;# 
   445  0098                     	;# 
   446  0099                     	;# 
   447  009A                     	;# 
   448  009B                     	;# 
   449  009C                     	;# 
   450  009D                     	;# 
   451  009E                     	;# 
   452  009F                     	;# 
   453  0105                     	;# 
   454  0107                     	;# 
   455  0108                     	;# 
   456  0109                     	;# 
   457  010C                     	;# 
   458  010C                     	;# 
   459  010D                     	;# 
   460  010E                     	;# 
   461  010F                     	;# 
   462  0185                     	;# 
   463  0187                     	;# 
   464  0188                     	;# 
   465  0189                     	;# 
   466  018C                     	;# 
   467  018D                     	;# 
   468  0007                     _PORTCbits	set	7
   469  001A                     _RCREG	set	26
   470  000C                     _PIR1bits	set	12
   471  0019                     _TXREG	set	25
   472  0018                     _RCSTAbits	set	24
   473  0013                     _SSPBUF	set	19
   474  0014                     _SSPCON	set	20
   475  0005                     _PORTA	set	5
   476  0008                     _PORTD	set	8
   477  0007                     _PORTC	set	7
   478  0006                     _PORTB	set	6
   479  0005                     _PORTAbits	set	5
   480  0098                     _TXSTAbits	set	152
   481  0099                     _SPBRG	set	153
   482  0094                     _SSPSTATbits	set	148
   483  0094                     _SSPSTAT	set	148
   484  0087                     _TRISCbits	set	135
   485  0088                     _TRISD	set	136
   486  0086                     _TRISB	set	134
   487  0087                     _TRISC	set	135
   488  0085                     _TRISA	set	133
   489  043B                     _TRISC3	set	1083
   490  043D                     _TRISC5	set	1085
   491  0189                     _ANSELH	set	393
   492  0188                     _ANSEL	set	392
   493                           
   494                           	psect	strings
   495  0800                     __pstrings:
   496  0800                     stringtab:
   497  0800                     __stringtab:
   498                           
   499                           ;	String table - string pointers are 1 byte each
   500  0800  1BFF               	btfsc	btemp+1,7
   501  0801  280A               	ljmp	stringcode
   502  0802  1383               	bcf	3,7
   503  0803  187F               	btfsc	btemp+1,0
   504  0804  1783               	bsf	3,7
   505  0805  0800               	movf	0,w
   506  0806  0A84               	incf	4,f
   507  0807  1903               	skipnz
   508  0808  0AFF               	incf	btemp+1,f
   509  0809  0008               	return
   510  080A                     stringcode:
   511  080A                     stringdir:
   512  080A  3008               	movlw	high stringdir
   513  080B  008A               	movwf	10
   514  080C  0804               	movf	4,w
   515  080D  0A84               	incf	4,f
   516  080E  0782               	addwf	2,f
   517  080F                     __stringbase:
   518  080F  3400               	retlw	0
   519  0810                     __end_of__stringtab:
   520  0810                     STR_8:
   521  0810  3454               	retlw	84	;'T'
   522  0811  3465               	retlw	101	;'e'
   523  0812  346D               	retlw	109	;'m'
   524  0813  3470               	retlw	112	;'p'
   525  0814  3465               	retlw	101	;'e'
   526  0815  3472               	retlw	114	;'r'
   527  0816  3461               	retlw	97	;'a'
   528  0817  3474               	retlw	116	;'t'
   529  0818  3475               	retlw	117	;'u'
   530  0819  3472               	retlw	114	;'r'
   531  081A  3461               	retlw	97	;'a'
   532  081B  3420               	retlw	32	;' '
   533  081C  3400               	retlw	0
   534  081D                     STR_6:
   535  081D  3443               	retlw	67	;'C'
   536  081E  346F               	retlw	111	;'o'
   537  081F  346E               	retlw	110	;'n'
   538  0820  3474               	retlw	116	;'t'
   539  0821  3461               	retlw	97	;'a'
   540  0822  3464               	retlw	100	;'d'
   541  0823  346F               	retlw	111	;'o'
   542  0824  3472               	retlw	114	;'r'
   543  0825  3420               	retlw	32	;' '
   544  0826  3400               	retlw	0
   545  0827                     STR_4:
   546  0827  3441               	retlw	65	;'A'
   547  0828  3444               	retlw	68	;'D'
   548  0829  3443               	retlw	67	;'C'
   549  082A  3420               	retlw	32	;' '
   550  082B  3400               	retlw	0
   551  082C                     STR_5:
   552  082C  3456               	retlw	86	;'V'
   553  082D  3420               	retlw	32	;' '
   554  082E  3400               	retlw	0
   555  082F                     STR_1:
   556  082F  3453               	retlw	83	;'S'
   557  0830  3431               	retlw	49	;'1'
   558  0831  3400               	retlw	0
   559  0832                     STR_2:
   560  0832  3453               	retlw	83	;'S'
   561  0833  3432               	retlw	50	;'2'
   562  0834  3400               	retlw	0
   563  0835                     STR_3:
   564  0835  3453               	retlw	83	;'S'
   565  0836  3433               	retlw	51	;'3'
   566  0837  3400               	retlw	0
   567  082A                     
   568                           	psect	cinit
   569  000F                     start_initialization:	
   570                           ; #config settings
   571                           
   572  000F                     __initialization:
   573                           
   574                           ; Clear objects allocated to COMMON
   575  000F  01FA               	clrf	__pbssCOMMON& (0+127)
   576  0010  01FB               	clrf	(__pbssCOMMON+1)& (0+127)
   577                           
   578                           ; Clear objects allocated to BANK0
   579  0011  1283               	bcf	3,5	;RP0=0, select bank0
   580  0012  1303               	bcf	3,6	;RP1=0, select bank0
   581  0013  01D1               	clrf	__pbssBANK0& (0+127)
   582  0014  01D2               	clrf	(__pbssBANK0+1)& (0+127)
   583  0015  01D3               	clrf	(__pbssBANK0+2)& (0+127)
   584  0016  01D4               	clrf	(__pbssBANK0+3)& (0+127)
   585  0017                     end_of_initialization:	
   586                           ;End of C runtime variable initialization code
   587                           
   588  0017                     __end_of__initialization:
   589  0017  0183               	clrf	3
   590  0018  120A  158A  2E24   	ljmp	_main	;jump to C main() function
   591                           
   592                           	psect	bssCOMMON
   593  007A                     __pbssCOMMON:
   594  007A                     _contadorenvio:
   595  007A                     	ds	1
   596  007B                     _ADCenvio:
   597  007B                     	ds	1
   598                           
   599                           	psect	bssBANK0
   600  0051                     __pbssBANK0:
   601  0051                     _temperaturaenvio:
   602  0051                     	ds	1
   603  0052                     _temperatura:
   604  0052                     	ds	1
   605  0053                     _contador:
   606  0053                     	ds	1
   607  0054                     _valorADC:
   608  0054                     	ds	1
   609                           
   610                           	psect	cstackCOMMON
   611  0070                     __pcstackCOMMON:
   612  0070                     ?_Setup:
   613  0070                     ?_Lcd_Init:	
   614                           ; 1 bytes @ 0x0
   615                           
   616  0070                     ?_Lcd_Clear:	
   617                           ; 1 bytes @ 0x0
   618                           
   619  0070                     ?_spiWrite:	
   620                           ; 1 bytes @ 0x0
   621                           
   622  0070                     ?_spiRead:	
   623                           ; 1 bytes @ 0x0
   624                           
   625  0070                     ?_decimalASCII:	
   626                           ; 1 bytes @ 0x0
   627                           
   628  0070                     ?_intToString:	
   629                           ; 1 bytes @ 0x0
   630                           
   631  0070                     ?_ISR:	
   632                           ; 1 bytes @ 0x0
   633                           
   634  0070                     ??_ISR:	
   635                           ; 1 bytes @ 0x0
   636                           
   637  0070                     ?_main:	
   638                           ; 1 bytes @ 0x0
   639                           
   640  0070                     ?_spiReceiveWait:	
   641                           ; 1 bytes @ 0x0
   642                           
   643  0070                     ?_UARTSendChar:	
   644                           ; 1 bytes @ 0x0
   645                           
   646  0070                     ?_Lcd_Port:	
   647                           ; 1 bytes @ 0x0
   648                           
   649  0070                     ?_Lcd_Cmd:	
   650                           ; 1 bytes @ 0x0
   651                           
   652  0070                     ?_Lcd_Write_Char:	
   653                           ; 1 bytes @ 0x0
   654                           
   655                           
   656                           ; 1 bytes @ 0x0
   657  0070                     	ds	2
   658  0072                     ??_Setup:
   659  0072                     ?_spiInit:	
   660                           ; 1 bytes @ 0x2
   661                           
   662  0072                     ??_spiWrite:	
   663                           ; 1 bytes @ 0x2
   664                           
   665  0072                     ??_spiRead:	
   666                           ; 1 bytes @ 0x2
   667                           
   668  0072                     ??_spiReceiveWait:	
   669                           ; 1 bytes @ 0x2
   670                           
   671  0072                     ??_UARTSendChar:	
   672                           ; 1 bytes @ 0x2
   673                           
   674  0072                     ??_Lcd_Port:	
   675                           ; 1 bytes @ 0x2
   676                           
   677  0072                     ?___bmul:	
   678                           ; 1 bytes @ 0x2
   679                           
   680  0072                     ?__Umul8_16:	
   681                           ; 1 bytes @ 0x2
   682                           
   683  0072                     ?___awdiv:	
   684                           ; 2 bytes @ 0x2
   685                           
   686  0072                     ?___awmod:	
   687                           ; 2 bytes @ 0x2
   688                           
   689  0072                     ?___lldiv:	
   690                           ; 2 bytes @ 0x2
   691                           
   692  0072                     ?___fltol:	
   693                           ; 4 bytes @ 0x2
   694                           
   695  0072                     ?___fladd:	
   696                           ; 4 bytes @ 0x2
   697                           
   698  0072                     ?___xxtofl:	
   699                           ; 4 bytes @ 0x2
   700                           
   701  0072                     spiInit@sDataSample:	
   702                           ; 4 bytes @ 0x2
   703                           
   704  0072                     spiWrite@dat:	
   705                           ; 1 bytes @ 0x2
   706                           
   707  0072                     UARTSendChar@c:	
   708                           ; 1 bytes @ 0x2
   709                           
   710  0072                     Lcd_Port@a:	
   711                           ; 1 bytes @ 0x2
   712                           
   713  0072                     ___bmul@multiplicand:	
   714                           ; 1 bytes @ 0x2
   715                           
   716  0072                     __Umul8_16@multiplicand:	
   717                           ; 1 bytes @ 0x2
   718                           
   719  0072                     ___awdiv@divisor:	
   720                           ; 1 bytes @ 0x2
   721                           
   722  0072                     ___awmod@divisor:	
   723                           ; 2 bytes @ 0x2
   724                           
   725  0072                     ___lldiv@divisor:	
   726                           ; 2 bytes @ 0x2
   727                           
   728  0072                     ___fltol@f1:	
   729                           ; 4 bytes @ 0x2
   730                           
   731  0072                     ___fladd@b:	
   732                           ; 4 bytes @ 0x2
   733                           
   734  0072                     ___xxtofl@val:	
   735                           ; 4 bytes @ 0x2
   736                           
   737                           
   738                           ; 4 bytes @ 0x2
   739  0072                     	ds	1
   740  0073                     ?_UARTSendString:
   741  0073                     ??_Lcd_Cmd:	
   742                           ; 1 bytes @ 0x3
   743                           
   744  0073                     ??_Lcd_Write_Char:	
   745                           ; 1 bytes @ 0x3
   746                           
   747  0073                     ??___bmul:	
   748                           ; 1 bytes @ 0x3
   749                           
   750  0073                     spiInit@sClockIdle:	
   751                           ; 1 bytes @ 0x3
   752                           
   753  0073                     UARTSendString@str:	
   754                           ; 1 bytes @ 0x3
   755                           
   756                           
   757                           ; 2 bytes @ 0x3
   758  0073                     	ds	1
   759  0074                     ??__Umul8_16:
   760  0074                     spiInit@sTransmitEdge:	
   761                           ; 1 bytes @ 0x4
   762                           
   763  0074                     Lcd_Cmd@a:	
   764                           ; 1 bytes @ 0x4
   765                           
   766  0074                     Lcd_Write_Char@a:	
   767                           ; 1 bytes @ 0x4
   768                           
   769  0074                     ___bmul@product:	
   770                           ; 1 bytes @ 0x4
   771                           
   772  0074                     ___awdiv@dividend:	
   773                           ; 1 bytes @ 0x4
   774                           
   775  0074                     ___awmod@dividend:	
   776                           ; 2 bytes @ 0x4
   777                           
   778                           
   779                           ; 2 bytes @ 0x4
   780  0074                     	ds	1
   781  0075                     ??_spiInit:
   782  0075                     ??_Lcd_Init:	
   783                           ; 1 bytes @ 0x5
   784                           
   785  0075                     ??_Lcd_Clear:	
   786                           ; 1 bytes @ 0x5
   787                           
   788  0075                     ?_Lcd_Set_Cursor:	
   789                           ; 1 bytes @ 0x5
   790                           
   791  0075                     ?_Lcd_Write_String:	
   792                           ; 1 bytes @ 0x5
   793                           
   794  0075                     spiInit@sType:	
   795                           ; 1 bytes @ 0x5
   796                           
   797  0075                     UARTSendString@max_length:	
   798                           ; 1 bytes @ 0x5
   799                           
   800  0075                     Lcd_Set_Cursor@b:	
   801                           ; 1 bytes @ 0x5
   802                           
   803  0075                     ___bmul@multiplier:	
   804                           ; 1 bytes @ 0x5
   805                           
   806  0075                     Lcd_Write_String@a:	
   807                           ; 1 bytes @ 0x5
   808                           
   809                           
   810                           ; 2 bytes @ 0x5
   811  0075                     	ds	1
   812  0076                     ??_Lcd_Set_Cursor:
   813  0076                     ??_UARTSendString:	
   814                           ; 1 bytes @ 0x6
   815                           
   816  0076                     ??___awdiv:	
   817                           ; 1 bytes @ 0x6
   818                           
   819  0076                     ??___awmod:	
   820                           ; 1 bytes @ 0x6
   821                           
   822  0076                     ??___xxtofl:	
   823                           ; 1 bytes @ 0x6
   824                           
   825  0076                     ___fltol@sign1:	
   826                           ; 1 bytes @ 0x6
   827                           
   828  0076                     ___lldiv@dividend:	
   829                           ; 1 bytes @ 0x6
   830                           
   831  0076                     ___fladd@a:	
   832                           ; 4 bytes @ 0x6
   833                           
   834                           
   835                           ; 4 bytes @ 0x6
   836  0076                     	ds	1
   837  0077                     ??_Lcd_Write_String:
   838  0077                     Lcd_Set_Cursor@a:	
   839                           ; 1 bytes @ 0x7
   840                           
   841  0077                     ___awmod@counter:	
   842                           ; 1 bytes @ 0x7
   843                           
   844  0077                     ___fltol@exp1:	
   845                           ; 1 bytes @ 0x7
   846                           
   847                           
   848                           ; 1 bytes @ 0x7
   849  0077                     	ds	1
   850  0078                     Lcd_Set_Cursor@temp:
   851  0078                     ___awmod@sign:	
   852                           ; 1 bytes @ 0x8
   853                           
   854                           
   855                           ; 1 bytes @ 0x8
   856  0078                     	ds	2
   857  007A                     ??___flsub:
   858                           
   859                           	psect	cstackBANK0
   860  0020                     __pcstackBANK0:	
   861                           ; 1 bytes @ 0xA
   862                           
   863  0020                     ??___lldiv:
   864  0020                     ??___fltol:	
   865                           ; 1 bytes @ 0x0
   866                           
   867  0020                     ??___fladd:	
   868                           ; 1 bytes @ 0x0
   869                           
   870  0020                     ___awdiv@counter:	
   871                           ; 1 bytes @ 0x0
   872                           
   873  0020                     ___xxtofl@sign:	
   874                           ; 1 bytes @ 0x0
   875                           
   876  0020                     UARTSendString@i:	
   877                           ; 1 bytes @ 0x0
   878                           
   879  0020                     Lcd_Write_String@i:	
   880                           ; 2 bytes @ 0x0
   881                           
   882  0020                     __Umul8_16@product:	
   883                           ; 2 bytes @ 0x0
   884                           
   885                           
   886                           ; 2 bytes @ 0x0
   887  0020                     	ds	1
   888  0021                     ___awdiv@sign:
   889  0021                     ___xxtofl@exp:	
   890                           ; 1 bytes @ 0x1
   891                           
   892  0021                     ___lldiv@quotient:	
   893                           ; 1 bytes @ 0x1
   894                           
   895                           
   896                           ; 4 bytes @ 0x1
   897  0021                     	ds	1
   898  0022                     ___awdiv@quotient:
   899  0022                     __Umul8_16@word_mpld:	
   900                           ; 2 bytes @ 0x2
   901                           
   902  0022                     ___xxtofl@arg:	
   903                           ; 2 bytes @ 0x2
   904                           
   905                           
   906                           ; 4 bytes @ 0x2
   907  0022                     	ds	2
   908  0024                     ??_intToString:
   909  0024                     __Umul8_16@multiplier:	
   910                           ; 1 bytes @ 0x4
   911                           
   912                           
   913                           ; 1 bytes @ 0x4
   914  0024                     	ds	1
   915  0025                     ?___flmul:
   916  0025                     ___lldiv@counter:	
   917                           ; 4 bytes @ 0x5
   918                           
   919  0025                     ___flmul@b:	
   920                           ; 1 bytes @ 0x5
   921                           
   922                           
   923                           ; 4 bytes @ 0x5
   924  0025                     	ds	1
   925  0026                     ?_UARTInit:
   926  0026                     ?___fldiv:	
   927                           ; 1 bytes @ 0x6
   928                           
   929  0026                     UARTInit@baud_rate:	
   930                           ; 4 bytes @ 0x6
   931                           
   932  0026                     ___fldiv@a:	
   933                           ; 4 bytes @ 0x6
   934                           
   935                           
   936                           ; 4 bytes @ 0x6
   937  0026                     	ds	1
   938  0027                     intToString@valor:
   939                           
   940                           ; 4 bytes @ 0x7
   941  0027                     	ds	1
   942  0028                     ___fladd@signs:
   943                           
   944                           ; 1 bytes @ 0x8
   945  0028                     	ds	1
   946  0029                     ___fladd@aexp:
   947  0029                     ___flmul@a:	
   948                           ; 1 bytes @ 0x9
   949                           
   950                           
   951                           ; 4 bytes @ 0x9
   952  0029                     	ds	1
   953  002A                     UARTInit@BRGH:
   954  002A                     ___fladd@bexp:	
   955                           ; 1 bytes @ 0xA
   956                           
   957  002A                     ___fldiv@b:	
   958                           ; 1 bytes @ 0xA
   959                           
   960                           
   961                           ; 4 bytes @ 0xA
   962  002A                     	ds	1
   963  002B                     ??_UARTInit:
   964  002B                     intToString@entero:	
   965                           ; 1 bytes @ 0xB
   966                           
   967  002B                     ___fladd@grs:	
   968                           ; 1 bytes @ 0xB
   969                           
   970                           
   971                           ; 1 bytes @ 0xB
   972  002B                     	ds	1
   973  002C                     ?___flsub:
   974  002C                     intToString@value:	
   975                           ; 4 bytes @ 0xC
   976                           
   977  002C                     ___flsub@a:	
   978                           ; 1 bytes @ 0xC
   979                           
   980                           
   981                           ; 4 bytes @ 0xC
   982  002C                     	ds	1
   983  002D                     ??___flmul:
   984                           
   985                           ; 1 bytes @ 0xD
   986  002D                     	ds	1
   987  002E                     ??___fldiv:
   988                           
   989                           ; 1 bytes @ 0xE
   990  002E                     	ds	2
   991  0030                     ___flsub@b:
   992                           
   993                           ; 4 bytes @ 0x10
   994  0030                     	ds	2
   995  0032                     ___flmul@sign:
   996                           
   997                           ; 1 bytes @ 0x12
   998  0032                     	ds	1
   999  0033                     ___flmul@aexp:
  1000  0033                     ___fldiv@rem:	
  1001                           ; 1 bytes @ 0x13
  1002                           
  1003                           
  1004                           ; 4 bytes @ 0x13
  1005  0033                     	ds	1
  1006  0034                     ___flmul@grs:
  1007                           
  1008                           ; 4 bytes @ 0x14
  1009  0034                     	ds	3
  1010  0037                     ___fldiv@sign:
  1011                           
  1012                           ; 1 bytes @ 0x17
  1013  0037                     	ds	1
  1014  0038                     ___flmul@bexp:
  1015  0038                     ___fldiv@new_exp:	
  1016                           ; 1 bytes @ 0x18
  1017                           
  1018                           
  1019                           ; 2 bytes @ 0x18
  1020  0038                     	ds	1
  1021  0039                     ___flmul@prod:
  1022                           
  1023                           ; 4 bytes @ 0x19
  1024  0039                     	ds	1
  1025  003A                     ___fldiv@grs:
  1026                           
  1027                           ; 4 bytes @ 0x1A
  1028  003A                     	ds	3
  1029  003D                     ___flmul@temp:
  1030                           
  1031                           ; 2 bytes @ 0x1D
  1032  003D                     	ds	1
  1033  003E                     ___fldiv@bexp:
  1034                           
  1035                           ; 1 bytes @ 0x1E
  1036  003E                     	ds	1
  1037  003F                     ___fldiv@aexp:
  1038                           
  1039                           ; 1 bytes @ 0x1F
  1040  003F                     	ds	1
  1041  0040                     ??_decimalASCII:
  1042                           
  1043                           ; 1 bytes @ 0x20
  1044  0040                     	ds	4
  1045  0044                     decimalASCII@lectura:
  1046                           
  1047                           ; 1 bytes @ 0x24
  1048  0044                     	ds	1
  1049  0045                     decimalASCII@cadena:
  1050                           
  1051                           ; 5 bytes @ 0x25
  1052  0045                     	ds	5
  1053  004A                     decimalASCII@entero:
  1054                           
  1055                           ; 1 bytes @ 0x2A
  1056  004A                     	ds	1
  1057  004B                     decimalASCII@convertir3:
  1058                           
  1059                           ; 4 bytes @ 0x2B
  1060  004B                     	ds	4
  1061  004F                     ??_main:
  1062                           
  1063                           ; 1 bytes @ 0x2F
  1064  004F                     	ds	2
  1065                           
  1066                           	psect	maintext
  1067  0E24                     __pmaintext:	
  1068 ;;
  1069 ;;Main: autosize = 0, tempsize = 2, incstack = 0, save=0
  1070 ;;
  1071 ;; *************** function _main *****************
  1072 ;; Defined at:
  1073 ;;		line 58 in file "mainMaestro.c"
  1074 ;; Parameters:    Size  Location     Type
  1075 ;;		None
  1076 ;; Auto vars:     Size  Location     Type
  1077 ;;		None
  1078 ;; Return value:  Size  Location     Type
  1079 ;;                  1    wreg      void 
  1080 ;; Registers used:
  1081 ;;		wreg, fsr0l, fsr0h, status,2, status,0, btemp+1, pclath, cstack
  1082 ;; Tracked objects:
  1083 ;;		On entry : B00/0
  1084 ;;		On exit  : 0/0
  1085 ;;		Unchanged: 0/0
  1086 ;; Data sizes:     COMMON   BANK0   BANK1   BANK3   BANK2
  1087 ;;      Params:         0       0       0       0       0
  1088 ;;      Locals:         0       0       0       0       0
  1089 ;;      Temps:          0       2       0       0       0
  1090 ;;      Totals:         0       2       0       0       0
  1091 ;;Total ram usage:        2 bytes
  1092 ;; Hardware stack levels required when called:    4
  1093 ;; This function calls:
  1094 ;;		_Lcd_Clear
  1095 ;;		_Lcd_Init
  1096 ;;		_Lcd_Set_Cursor
  1097 ;;		_Lcd_Write_String
  1098 ;;		_Setup
  1099 ;;		_UARTInit
  1100 ;;		_UARTSendString
  1101 ;;		_decimalASCII
  1102 ;;		_intToString
  1103 ;;		_spiInit
  1104 ;;		_spiRead
  1105 ;;		_spiWrite
  1106 ;; This function is called by:
  1107 ;;		Startup code after reset
  1108 ;; This function uses a non-reentrant model
  1109 ;;
  1110                           
  1111                           
  1112                           ;psect for function _main
  1113  0E24                     _main:
  1114  0E24                     l3160:	
  1115                           ;incstack = 0
  1116                           ; Regs used in _main: [wreg-fsr0h+status,2+status,0+btemp+1+pclath+cstack]
  1117                           
  1118                           
  1119                           ;mainMaestro.c: 59: 
  1120  0E24  120A  158A  205E  120A  158A  	fcall	_Setup
  1121                           
  1122                           ;mainMaestro.c: 61:         _delay((unsigned long)((10)*(40000000/4000.0)));
  1123  0E29  01F2               	clrf	spiInit@sDataSample
  1124  0E2A  01F3               	clrf	spiInit@sClockIdle
  1125  0E2B  01F4               	clrf	spiInit@sTransmitEdge
  1126  0E2C  3020               	movlw	32
  1127  0E2D  120A  158A  2048  120A  158A  	fcall	_spiInit
  1128  0E32                     l3162:
  1129                           
  1130                           ;mainMaestro.c: 62: 
  1131  0E32  3041               	movlw	65
  1132  0E33  1283               	bcf	3,5	;RP0=0, select bank0
  1133  0E34  1303               	bcf	3,6	;RP1=0, select bank0
  1134  0E35  00D0               	movwf	??_main+1
  1135  0E36  30ED               	movlw	237
  1136  0E37  00CF               	movwf	??_main
  1137  0E38                     u4507:
  1138  0E38  0BCF               	decfsz	??_main,f
  1139  0E39  2E38               	goto	u4507
  1140  0E3A  0BD0               	decfsz	??_main+1,f
  1141  0E3B  2E38               	goto	u4507
  1142  0E3C  2E3D               	nop2
  1143  0E3D                     l3164:
  1144                           
  1145                           ;mainMaestro.c: 63: 
  1146  0E3D  3000               	movlw	0
  1147  0E3E  1283               	bcf	3,5	;RP0=0, select bank0
  1148  0E3F  1303               	bcf	3,6	;RP1=0, select bank0
  1149  0E40  00A9               	movwf	UARTInit@baud_rate+3
  1150  0E41  3000               	movlw	0
  1151  0E42  00A8               	movwf	UARTInit@baud_rate+2
  1152  0E43  3025               	movlw	37
  1153  0E44  00A7               	movwf	UARTInit@baud_rate+1
  1154  0E45  3080               	movlw	128
  1155  0E46  00A6               	movwf	UARTInit@baud_rate
  1156  0E47  01AA               	clrf	UARTInit@BRGH
  1157  0E48  0AAA               	incf	UARTInit@BRGH,f
  1158  0E49  120A  158A  2351  120A  158A  	fcall	_UARTInit
  1159  0E4E                     l3166:
  1160                           
  1161                           ;mainMaestro.c: 64: 
  1162  0E4E  120A  158A  20E6  120A  158A  	fcall	_Lcd_Init
  1163  0E53                     l3168:
  1164                           
  1165                           ;mainMaestro.c: 65:         PORTAbits.RA1 = 0;
  1166  0E53  120A  158A  203B  120A  158A  	fcall	_Lcd_Clear
  1167                           
  1168                           ;mainMaestro.c: 66:         spiWrite(PORTB);
  1169  0E58  3041               	movlw	65
  1170  0E59  1283               	bcf	3,5	;RP0=0, select bank0
  1171  0E5A  1303               	bcf	3,6	;RP1=0, select bank0
  1172  0E5B  00D0               	movwf	??_main+1
  1173  0E5C  30ED               	movlw	237
  1174  0E5D  00CF               	movwf	??_main
  1175  0E5E                     u4517:
  1176  0E5E  0BCF               	decfsz	??_main,f
  1177  0E5F  2E5E               	goto	u4517
  1178  0E60  0BD0               	decfsz	??_main+1,f
  1179  0E61  2E5E               	goto	u4517
  1180  0E62  2E63               	nop2
  1181  0E63                     l3170:
  1182                           
  1183                           ;mainMaestro.c: 67:         contador = spiRead();
  1184  0E63  01F5               	clrf	Lcd_Set_Cursor@b
  1185  0E64  0AF5               	incf	Lcd_Set_Cursor@b,f
  1186  0E65  3001               	movlw	1
  1187  0E66  120A  158A  2075  120A  158A  	fcall	_Lcd_Set_Cursor
  1188  0E6B                     l3172:
  1189                           
  1190                           ;mainMaestro.c: 68:         _delay((unsigned long)((5)*(40000000/4000.0)));
  1191  0E6B  3020               	movlw	(low ((STR_1-__stringbase)| (0+32768)))& (0+255)
  1192  0E6C  00F5               	movwf	Lcd_Write_String@a
  1193  0E6D  3080               	movlw	128
  1194  0E6E  00F6               	movwf	Lcd_Write_String@a+1
  1195  0E6F  120A  158A  212B  120A  158A  	fcall	_Lcd_Write_String
  1196  0E74                     l3174:
  1197                           
  1198                           ;mainMaestro.c: 69:         contadorenvio = intToString(contador);
  1199  0E74  3008               	movlw	8
  1200  0E75  1283               	bcf	3,5	;RP0=0, select bank0
  1201  0E76  1303               	bcf	3,6	;RP1=0, select bank0
  1202  0E77  00CF               	movwf	??_main
  1203  0E78  084F               	movf	??_main,w
  1204  0E79  00F5               	movwf	Lcd_Set_Cursor@b
  1205  0E7A  3001               	movlw	1
  1206  0E7B  120A  158A  2075  120A  158A  	fcall	_Lcd_Set_Cursor
  1207  0E80                     l3176:
  1208                           
  1209                           ;mainMaestro.c: 70:         Lcd_Set_Cursor(2, 8);
  1210  0E80  3023               	movlw	(low ((STR_2-__stringbase)| (0+32768)))& (0+255)
  1211  0E81  00F5               	movwf	Lcd_Write_String@a
  1212  0E82  3080               	movlw	128
  1213  0E83  00F6               	movwf	Lcd_Write_String@a+1
  1214  0E84  120A  158A  212B  120A  158A  	fcall	_Lcd_Write_String
  1215  0E89                     l3178:
  1216                           
  1217                           ;mainMaestro.c: 71:         Lcd_Write_String(contadorenvio);
  1218  0E89  300F               	movlw	15
  1219  0E8A  1283               	bcf	3,5	;RP0=0, select bank0
  1220  0E8B  1303               	bcf	3,6	;RP1=0, select bank0
  1221  0E8C  00CF               	movwf	??_main
  1222  0E8D  084F               	movf	??_main,w
  1223  0E8E  00F5               	movwf	Lcd_Set_Cursor@b
  1224  0E8F  3001               	movlw	1
  1225  0E90  120A  158A  2075  120A  158A  	fcall	_Lcd_Set_Cursor
  1226  0E95                     l3180:
  1227                           
  1228                           ;mainMaestro.c: 72: 
  1229  0E95  3026               	movlw	(low ((STR_3-__stringbase)| (0+32768)))& (0+255)
  1230  0E96  00F5               	movwf	Lcd_Write_String@a
  1231  0E97  3080               	movlw	128
  1232  0E98  00F6               	movwf	Lcd_Write_String@a+1
  1233  0E99  120A  158A  212B  120A  158A  	fcall	_Lcd_Write_String
  1234  0E9E                     l3182:
  1235                           
  1236                           ;mainMaestro.c: 77: 
  1237  0E9E  1283               	bcf	3,5	;RP0=0, select bank0
  1238  0E9F  1303               	bcf	3,6	;RP1=0, select bank0
  1239  0EA0  1005               	bcf	5,0	;volatile
  1240  0EA1                     l3184:
  1241                           
  1242                           ;mainMaestro.c: 79: 
  1243  0EA1  0806               	movf	6,w	;volatile
  1244  0EA2  160A  118A  27B4  120A  158A  	fcall	_spiWrite
  1245  0EA7                     l3186:
  1246                           
  1247                           ;mainMaestro.c: 81: 
  1248  0EA7  160A  118A  27C1  120A  158A  	fcall	_spiRead
  1249  0EAC  1283               	bcf	3,5	;RP0=0, select bank0
  1250  0EAD  1303               	bcf	3,6	;RP1=0, select bank0
  1251  0EAE  00CF               	movwf	??_main
  1252  0EAF  084F               	movf	??_main,w
  1253  0EB0  00D4               	movwf	_valorADC
  1254  0EB1                     l3188:
  1255                           
  1256                           ;mainMaestro.c: 82:         PORTAbits.RA2 = 0;
  1257  0EB1  3041               	movlw	65
  1258  0EB2  1283               	bcf	3,5	;RP0=0, select bank0
  1259  0EB3  1303               	bcf	3,6	;RP1=0, select bank0
  1260  0EB4  00D0               	movwf	??_main+1
  1261  0EB5  30ED               	movlw	237
  1262  0EB6  00CF               	movwf	??_main
  1263  0EB7                     u4527:
  1264  0EB7  0BCF               	decfsz	??_main,f
  1265  0EB8  2EB7               	goto	u4527
  1266  0EB9  0BD0               	decfsz	??_main+1,f
  1267  0EBA  2EB7               	goto	u4527
  1268  0EBB  2EBC               	nop2
  1269  0EBC                     l3190:
  1270                           
  1271                           ;mainMaestro.c: 83: 
  1272  0EBC  1283               	bcf	3,5	;RP0=0, select bank0
  1273  0EBD  1303               	bcf	3,6	;RP1=0, select bank0
  1274  0EBE  0854               	movf	_valorADC,w
  1275  0EBF  120A  158A  24F8  120A  158A  	fcall	_decimalASCII
  1276  0EC4  1283               	bcf	3,5	;RP0=0, select bank0
  1277  0EC5  1303               	bcf	3,6	;RP1=0, select bank0
  1278  0EC6  00CF               	movwf	??_main
  1279  0EC7  084F               	movf	??_main,w
  1280  0EC8  00FB               	movwf	_ADCenvio
  1281  0EC9                     l3192:
  1282                           
  1283                           ;mainMaestro.c: 84:         spiWrite(PORTB);
  1284  0EC9  01F5               	clrf	Lcd_Set_Cursor@b
  1285  0ECA  0AF5               	incf	Lcd_Set_Cursor@b,f
  1286  0ECB  3002               	movlw	2
  1287  0ECC  120A  158A  2075  120A  158A  	fcall	_Lcd_Set_Cursor
  1288  0ED1                     l3194:
  1289                           
  1290                           ;mainMaestro.c: 85:         temperatura = spiRead();
  1291  0ED1  087B               	movf	_ADCenvio,w
  1292  0ED2  00F5               	movwf	Lcd_Write_String@a
  1293  0ED3  3000               	movlw	0
  1294  0ED4  00F6               	movwf	Lcd_Write_String@a+1
  1295  0ED5  120A  158A  212B  120A  158A  	fcall	_Lcd_Write_String
  1296  0EDA                     l3196:
  1297                           
  1298                           ;mainMaestro.c: 87:         temperaturaenvio = intToString(temperatura);
  1299  0EDA  3018               	movlw	(low ((STR_4-__stringbase)| (0+32768)))& (0+255)
  1300  0EDB  00F3               	movwf	UARTSendString@str
  1301  0EDC  3080               	movlw	128
  1302  0EDD  00F4               	movwf	UARTSendString@str+1
  1303  0EDE  3006               	movlw	6
  1304  0EDF  1283               	bcf	3,5	;RP0=0, select bank0
  1305  0EE0  1303               	bcf	3,6	;RP1=0, select bank0
  1306  0EE1  00CF               	movwf	??_main
  1307  0EE2  084F               	movf	??_main,w
  1308  0EE3  00F5               	movwf	UARTSendString@max_length
  1309  0EE4  120A  158A  2171  120A  158A  	fcall	_UARTSendString
  1310  0EE9                     l3198:
  1311                           
  1312                           ;mainMaestro.c: 88:         Lcd_Set_Cursor(2, 14);
  1313  0EE9  087B               	movf	_ADCenvio,w
  1314  0EEA  00F3               	movwf	UARTSendString@str
  1315  0EEB  3000               	movlw	0
  1316  0EEC  00F4               	movwf	UARTSendString@str+1
  1317  0EED  3006               	movlw	6
  1318  0EEE  1283               	bcf	3,5	;RP0=0, select bank0
  1319  0EEF  1303               	bcf	3,6	;RP1=0, select bank0
  1320  0EF0  00CF               	movwf	??_main
  1321  0EF1  084F               	movf	??_main,w
  1322  0EF2  00F5               	movwf	UARTSendString@max_length
  1323  0EF3  120A  158A  2171  120A  158A  	fcall	_UARTSendString
  1324  0EF8                     l3200:
  1325                           
  1326                           ;mainMaestro.c: 89:         Lcd_Write_String(temperaturaenvio);
  1327  0EF8  301D               	movlw	(low ((STR_5-__stringbase)| (0+32768)))& (0+255)
  1328  0EF9  00F3               	movwf	UARTSendString@str
  1329  0EFA  3080               	movlw	128
  1330  0EFB  00F4               	movwf	UARTSendString@str+1
  1331  0EFC  3006               	movlw	6
  1332  0EFD  1283               	bcf	3,5	;RP0=0, select bank0
  1333  0EFE  1303               	bcf	3,6	;RP1=0, select bank0
  1334  0EFF  00CF               	movwf	??_main
  1335  0F00  084F               	movf	??_main,w
  1336  0F01  00F5               	movwf	UARTSendString@max_length
  1337  0F02  120A  158A  2171  120A  158A  	fcall	_UARTSendString
  1338  0F07                     l3202:
  1339                           
  1340                           ;mainMaestro.c: 91:         UARTSendString("Temperatura ", 13);
  1341  0F07  1283               	bcf	3,5	;RP0=0, select bank0
  1342  0F08  1303               	bcf	3,6	;RP1=0, select bank0
  1343  0F09  1405               	bsf	5,0	;volatile
  1344  0F0A                     l3204:
  1345                           
  1346                           ;mainMaestro.c: 92:         UARTSendString(temperaturaenvio, 6);
  1347  0F0A  3082               	movlw	130
  1348  0F0B  1283               	bcf	3,5	;RP0=0, select bank0
  1349  0F0C  1303               	bcf	3,6	;RP1=0, select bank0
  1350  0F0D  00D0               	movwf	??_main+1
  1351  0F0E  30DD               	movlw	221
  1352  0F0F  00CF               	movwf	??_main
  1353  0F10                     u4537:
  1354  0F10  0BCF               	decfsz	??_main,f
  1355  0F11  2F10               	goto	u4537
  1356  0F12  0BD0               	decfsz	??_main+1,f
  1357  0F13  2F10               	goto	u4537
  1358  0F14                     l3206:
  1359                           
  1360                           ;mainMaestro.c: 96: 
  1361  0F14  1283               	bcf	3,5	;RP0=0, select bank0
  1362  0F15  1303               	bcf	3,6	;RP1=0, select bank0
  1363  0F16  1085               	bcf	5,1	;volatile
  1364  0F17                     l3208:
  1365                           
  1366                           ;mainMaestro.c: 97: 
  1367  0F17  0806               	movf	6,w	;volatile
  1368  0F18  160A  118A  27B4  120A  158A  	fcall	_spiWrite
  1369  0F1D                     l3210:
  1370                           
  1371                           ;mainMaestro.c: 98: 
  1372  0F1D  160A  118A  27C1  120A  158A  	fcall	_spiRead
  1373  0F22  1283               	bcf	3,5	;RP0=0, select bank0
  1374  0F23  1303               	bcf	3,6	;RP1=0, select bank0
  1375  0F24  00CF               	movwf	??_main
  1376  0F25  084F               	movf	??_main,w
  1377  0F26  00D3               	movwf	_contador
  1378  0F27                     l3212:
  1379                           
  1380                           ;mainMaestro.c: 99: 
  1381  0F27  3041               	movlw	65
  1382  0F28  1283               	bcf	3,5	;RP0=0, select bank0
  1383  0F29  1303               	bcf	3,6	;RP1=0, select bank0
  1384  0F2A  00D0               	movwf	??_main+1
  1385  0F2B  30ED               	movlw	237
  1386  0F2C  00CF               	movwf	??_main
  1387  0F2D                     u4547:
  1388  0F2D  0BCF               	decfsz	??_main,f
  1389  0F2E  2F2D               	goto	u4547
  1390  0F2F  0BD0               	decfsz	??_main+1,f
  1391  0F30  2F2D               	goto	u4547
  1392  0F31  2F32               	nop2
  1393  0F32                     l3214:
  1394                           
  1395                           ;mainMaestro.c: 100: 
  1396  0F32  1283               	bcf	3,5	;RP0=0, select bank0
  1397  0F33  1303               	bcf	3,6	;RP1=0, select bank0
  1398  0F34  0853               	movf	_contador,w
  1399  0F35  120A  158A  2221  120A  158A  	fcall	_intToString
  1400  0F3A  1283               	bcf	3,5	;RP0=0, select bank0
  1401  0F3B  1303               	bcf	3,6	;RP1=0, select bank0
  1402  0F3C  00CF               	movwf	??_main
  1403  0F3D  084F               	movf	??_main,w
  1404  0F3E  00FA               	movwf	_contadorenvio
  1405  0F3F                     l3216:
  1406                           
  1407                           ;mainMaestro.c: 101:     }
  1408  0F3F  3008               	movlw	8
  1409  0F40  00CF               	movwf	??_main
  1410  0F41  084F               	movf	??_main,w
  1411  0F42  00F5               	movwf	Lcd_Set_Cursor@b
  1412  0F43  3002               	movlw	2
  1413  0F44  120A  158A  2075  120A  158A  	fcall	_Lcd_Set_Cursor
  1414  0F49                     l3218:
  1415                           
  1416                           ;mainMaestro.c: 102: 
  1417  0F49  087A               	movf	_contadorenvio,w
  1418  0F4A  00F5               	movwf	Lcd_Write_String@a
  1419  0F4B  3000               	movlw	0
  1420  0F4C  00F6               	movwf	Lcd_Write_String@a+1
  1421  0F4D  120A  158A  212B  120A  158A  	fcall	_Lcd_Write_String
  1422  0F52                     l3220:
  1423                           
  1424                           ;mainMaestro.c: 104:     return;
  1425  0F52  300E               	movlw	(low ((STR_6-__stringbase)| (0+32768)))& (0+255)
  1426  0F53  00F3               	movwf	UARTSendString@str
  1427  0F54  3080               	movlw	128
  1428  0F55  00F4               	movwf	UARTSendString@str+1
  1429  0F56  3009               	movlw	9
  1430  0F57  1283               	bcf	3,5	;RP0=0, select bank0
  1431  0F58  1303               	bcf	3,6	;RP1=0, select bank0
  1432  0F59  00CF               	movwf	??_main
  1433  0F5A  084F               	movf	??_main,w
  1434  0F5B  00F5               	movwf	UARTSendString@max_length
  1435  0F5C  120A  158A  2171  120A  158A  	fcall	_UARTSendString
  1436  0F61                     l3222:
  1437                           
  1438                           ;mainMaestro.c: 105: }
  1439  0F61  087A               	movf	_contadorenvio,w
  1440  0F62  00F3               	movwf	UARTSendString@str
  1441  0F63  3000               	movlw	0
  1442  0F64  00F4               	movwf	UARTSendString@str+1
  1443  0F65  3006               	movlw	6
  1444  0F66  1283               	bcf	3,5	;RP0=0, select bank0
  1445  0F67  1303               	bcf	3,6	;RP1=0, select bank0
  1446  0F68  00CF               	movwf	??_main
  1447  0F69  084F               	movf	??_main,w
  1448  0F6A  00F5               	movwf	UARTSendString@max_length
  1449  0F6B  120A  158A  2171  120A  158A  	fcall	_UARTSendString
  1450  0F70                     l3224:
  1451                           
  1452                           ;mainMaestro.c: 106: 
  1453  0F70  301B               	movlw	(low (((STR_4+3)-__stringbase)| (0+32768)))& (0+255)
  1454  0F71  00F3               	movwf	UARTSendString@str
  1455  0F72  3080               	movlw	128
  1456  0F73  00F4               	movwf	UARTSendString@str+1
  1457  0F74  3006               	movlw	6
  1458  0F75  1283               	bcf	3,5	;RP0=0, select bank0
  1459  0F76  1303               	bcf	3,6	;RP1=0, select bank0
  1460  0F77  00CF               	movwf	??_main
  1461  0F78  084F               	movf	??_main,w
  1462  0F79  00F5               	movwf	UARTSendString@max_length
  1463  0F7A  120A  158A  2171  120A  158A  	fcall	_UARTSendString
  1464  0F7F                     l3226:
  1465                           
  1466                           ;mainMaestro.c: 109:     ANSEL = 0;
  1467  0F7F  1283               	bcf	3,5	;RP0=0, select bank0
  1468  0F80  1303               	bcf	3,6	;RP1=0, select bank0
  1469  0F81  1485               	bsf	5,1	;volatile
  1470  0F82                     l3228:
  1471                           
  1472                           ;mainMaestro.c: 111:     TRISC = 0;
  1473  0F82  3082               	movlw	130
  1474  0F83  1283               	bcf	3,5	;RP0=0, select bank0
  1475  0F84  1303               	bcf	3,6	;RP1=0, select bank0
  1476  0F85  00D0               	movwf	??_main+1
  1477  0F86  30DD               	movlw	221
  1478  0F87  00CF               	movwf	??_main
  1479  0F88                     u4557:
  1480  0F88  0BCF               	decfsz	??_main,f
  1481  0F89  2F88               	goto	u4557
  1482  0F8A  0BD0               	decfsz	??_main+1,f
  1483  0F8B  2F88               	goto	u4557
  1484  0F8C                     l3230:
  1485                           
  1486                           ;mainMaestro.c: 113:     TRISD = 0;
  1487  0F8C  1283               	bcf	3,5	;RP0=0, select bank0
  1488  0F8D  1303               	bcf	3,6	;RP1=0, select bank0
  1489  0F8E  1105               	bcf	5,2	;volatile
  1490  0F8F                     l3232:
  1491                           
  1492                           ;mainMaestro.c: 115:     PORTB = 0;
  1493  0F8F  0806               	movf	6,w	;volatile
  1494  0F90  160A  118A  27B4  120A  158A  	fcall	_spiWrite
  1495  0F95                     l3234:
  1496                           
  1497                           ;mainMaestro.c: 116:     PORTD = 0;
  1498  0F95  160A  118A  27C1  120A  158A  	fcall	_spiRead
  1499  0F9A  1283               	bcf	3,5	;RP0=0, select bank0
  1500  0F9B  1303               	bcf	3,6	;RP1=0, select bank0
  1501  0F9C  00CF               	movwf	??_main
  1502  0F9D  084F               	movf	??_main,w
  1503  0F9E  00D2               	movwf	_temperatura
  1504  0F9F                     l3236:
  1505                           
  1506                           ;mainMaestro.c: 117: 
  1507  0F9F  3041               	movlw	65
  1508  0FA0  1283               	bcf	3,5	;RP0=0, select bank0
  1509  0FA1  1303               	bcf	3,6	;RP1=0, select bank0
  1510  0FA2  00D0               	movwf	??_main+1
  1511  0FA3  30ED               	movlw	237
  1512  0FA4  00CF               	movwf	??_main
  1513  0FA5                     u4567:
  1514  0FA5  0BCF               	decfsz	??_main,f
  1515  0FA6  2FA5               	goto	u4567
  1516  0FA7  0BD0               	decfsz	??_main+1,f
  1517  0FA8  2FA5               	goto	u4567
  1518  0FA9  2FAA               	nop2
  1519  0FAA                     l3238:
  1520                           
  1521                           ;mainMaestro.c: 118:     PORTA = 255;
  1522  0FAA  1283               	bcf	3,5	;RP0=0, select bank0
  1523  0FAB  1303               	bcf	3,6	;RP1=0, select bank0
  1524  0FAC  0852               	movf	_temperatura,w
  1525  0FAD  120A  158A  2221  120A  158A  	fcall	_intToString
  1526  0FB2  1283               	bcf	3,5	;RP0=0, select bank0
  1527  0FB3  1303               	bcf	3,6	;RP1=0, select bank0
  1528  0FB4  00CF               	movwf	??_main
  1529  0FB5  084F               	movf	??_main,w
  1530  0FB6  00D1               	movwf	_temperaturaenvio
  1531  0FB7                     l3240:
  1532                           
  1533                           ;mainMaestro.c: 119: 
  1534  0FB7  300E               	movlw	14
  1535  0FB8  00CF               	movwf	??_main
  1536  0FB9  084F               	movf	??_main,w
  1537  0FBA  00F5               	movwf	Lcd_Set_Cursor@b
  1538  0FBB  3002               	movlw	2
  1539  0FBC  120A  158A  2075  120A  158A  	fcall	_Lcd_Set_Cursor
  1540  0FC1                     l3242:
  1541                           
  1542                           ;mainMaestro.c: 120:     TRISCbits.TRISC4 = 1;
  1543  0FC1  1283               	bcf	3,5	;RP0=0, select bank0
  1544  0FC2  1303               	bcf	3,6	;RP1=0, select bank0
  1545  0FC3  0851               	movf	_temperaturaenvio,w
  1546  0FC4  00F5               	movwf	Lcd_Write_String@a
  1547  0FC5  3000               	movlw	0
  1548  0FC6  00F6               	movwf	Lcd_Write_String@a+1
  1549  0FC7  120A  158A  212B  120A  158A  	fcall	_Lcd_Write_String
  1550  0FCC                     l3244:
  1551                           
  1552                           ;mainMaestro.c: 122: }
  1553  0FCC  3001               	movlw	(low ((STR_8-__stringbase)| (0+32768)))& (0+255)
  1554  0FCD  00F3               	movwf	UARTSendString@str
  1555  0FCE  3080               	movlw	128
  1556  0FCF  00F4               	movwf	UARTSendString@str+1
  1557  0FD0  300D               	movlw	13
  1558  0FD1  1283               	bcf	3,5	;RP0=0, select bank0
  1559  0FD2  1303               	bcf	3,6	;RP1=0, select bank0
  1560  0FD3  00CF               	movwf	??_main
  1561  0FD4  084F               	movf	??_main,w
  1562  0FD5  00F5               	movwf	UARTSendString@max_length
  1563  0FD6  120A  158A  2171  120A  158A  	fcall	_UARTSendString
  1564  0FDB                     l3246:
  1565                           
  1566                           ;mainMaestro.c: 123: 
  1567  0FDB  1283               	bcf	3,5	;RP0=0, select bank0
  1568  0FDC  1303               	bcf	3,6	;RP1=0, select bank0
  1569  0FDD  0851               	movf	_temperaturaenvio,w
  1570  0FDE  00F3               	movwf	UARTSendString@str
  1571  0FDF  3000               	movlw	0
  1572  0FE0  00F4               	movwf	UARTSendString@str+1
  1573  0FE1  3006               	movlw	6
  1574  0FE2  00CF               	movwf	??_main
  1575  0FE3  084F               	movf	??_main,w
  1576  0FE4  00F5               	movwf	UARTSendString@max_length
  1577  0FE5  120A  158A  2171  120A  158A  	fcall	_UARTSendString
  1578  0FEA                     l3248:
  1579                           
  1580                           ;mainMaestro.c: 124: char* decimalASCII(uint8_t lectura) {
  1581  0FEA  301B               	movlw	(low (((STR_4+3)-__stringbase)| (0+32768)))& (0+255)
  1582  0FEB  00F3               	movwf	UARTSendString@str
  1583  0FEC  3080               	movlw	128
  1584  0FED  00F4               	movwf	UARTSendString@str+1
  1585  0FEE  3006               	movlw	6
  1586  0FEF  1283               	bcf	3,5	;RP0=0, select bank0
  1587  0FF0  1303               	bcf	3,6	;RP1=0, select bank0
  1588  0FF1  00CF               	movwf	??_main
  1589  0FF2  084F               	movf	??_main,w
  1590  0FF3  00F5               	movwf	UARTSendString@max_length
  1591  0FF4  120A  158A  2171  120A  158A  	fcall	_UARTSendString
  1592  0FF9                     l3250:
  1593                           
  1594                           ;mainMaestro.c: 126:     char cadena[5];
  1595  0FF9  1283               	bcf	3,5	;RP0=0, select bank0
  1596  0FFA  1303               	bcf	3,6	;RP1=0, select bank0
  1597  0FFB  1505               	bsf	5,2	;volatile
  1598  0FFC  2E9E               	goto	l3182
  1599  0FFD  120A  118A  280C   	ljmp	start
  1600  1000                     __end_of_main:
  1601                           
  1602                           	psect	text1
  1603  17B4                     __ptext1:	
  1604 ;; *************** function _spiWrite *****************
  1605 ;; Defined at:
  1606 ;;		line 34 in file "SPI.c"
  1607 ;; Parameters:    Size  Location     Type
  1608 ;;  dat             1    wreg     unsigned char 
  1609 ;; Auto vars:     Size  Location     Type
  1610 ;;  dat             1    2[COMMON] unsigned char 
  1611 ;; Return value:  Size  Location     Type
  1612 ;;                  1    wreg      void 
  1613 ;; Registers used:
  1614 ;;		wreg
  1615 ;; Tracked objects:
  1616 ;;		On entry : 0/0
  1617 ;;		On exit  : 0/0
  1618 ;;		Unchanged: 0/0
  1619 ;; Data sizes:     COMMON   BANK0   BANK1   BANK3   BANK2
  1620 ;;      Params:         0       0       0       0       0
  1621 ;;      Locals:         1       0       0       0       0
  1622 ;;      Temps:          0       0       0       0       0
  1623 ;;      Totals:         1       0       0       0       0
  1624 ;;Total ram usage:        1 bytes
  1625 ;; Hardware stack levels used:    1
  1626 ;; Hardware stack levels required when called:    1
  1627 ;; This function calls:
  1628 ;;		Nothing
  1629 ;; This function is called by:
  1630 ;;		_main
  1631 ;; This function uses a non-reentrant model
  1632 ;;
  1633                           
  1634                           
  1635                           ;psect for function _spiWrite
  1636  17B4                     _spiWrite:
  1637                           
  1638                           ;incstack = 0
  1639                           ; Regs used in _spiWrite: [wreg]
  1640                           ;spiWrite@dat stored from wreg
  1641  17B4  00F2               	movwf	spiWrite@dat
  1642  17B5                     l2598:
  1643                           
  1644                           ;SPI.c: 34: void spiWrite(char dat);SPI.c: 35: {;SPI.c: 36:     SSPBUF = dat;
  1645  17B5  0872               	movf	spiWrite@dat,w
  1646  17B6  1283               	bcf	3,5	;RP0=0, select bank0
  1647  17B7  1303               	bcf	3,6	;RP1=0, select bank0
  1648  17B8  0093               	movwf	19	;volatile
  1649  17B9                     l110:
  1650  17B9  0008               	return
  1651  17BA                     __end_of_spiWrite:
  1652                           
  1653                           	psect	text2
  1654  17C1                     __ptext2:	
  1655 ;; *************** function _spiRead *****************
  1656 ;; Defined at:
  1657 ;;		line 47 in file "SPI.c"
  1658 ;; Parameters:    Size  Location     Type
  1659 ;;		None
  1660 ;; Auto vars:     Size  Location     Type
  1661 ;;		None
  1662 ;; Return value:  Size  Location     Type
  1663 ;;                  1    wreg      unsigned char 
  1664 ;; Registers used:
  1665 ;;		wreg, status,2, status,0, pclath, cstack
  1666 ;; Tracked objects:
  1667 ;;		On entry : 0/0
  1668 ;;		On exit  : 0/0
  1669 ;;		Unchanged: 0/0
  1670 ;; Data sizes:     COMMON   BANK0   BANK1   BANK3   BANK2
  1671 ;;      Params:         0       0       0       0       0
  1672 ;;      Locals:         0       0       0       0       0
  1673 ;;      Temps:          0       0       0       0       0
  1674 ;;      Totals:         0       0       0       0       0
  1675 ;;Total ram usage:        0 bytes
  1676 ;; Hardware stack levels used:    1
  1677 ;; Hardware stack levels required when called:    2
  1678 ;; This function calls:
  1679 ;;		_spiReceiveWait
  1680 ;; This function is called by:
  1681 ;;		_main
  1682 ;; This function uses a non-reentrant model
  1683 ;;
  1684                           
  1685                           
  1686                           ;psect for function _spiRead
  1687  17C1                     _spiRead:
  1688  17C1                     l2600:	
  1689                           ;incstack = 0
  1690                           ; Regs used in _spiRead: [wreg+status,2+status,0+pclath+cstack]
  1691                           
  1692                           
  1693                           ;SPI.c: 49:     spiReceiveWait();
  1694  17C1  120A  118A  27F9  160A  118A  	fcall	_spiReceiveWait
  1695  17C6                     l2602:
  1696                           
  1697                           ;SPI.c: 50:     return(SSPBUF);
  1698  17C6  1283               	bcf	3,5	;RP0=0, select bank0
  1699  17C7  1303               	bcf	3,6	;RP1=0, select bank0
  1700  17C8  0813               	movf	19,w	;volatile
  1701  17C9                     l118:
  1702  17C9  0008               	return
  1703  17CA                     __end_of_spiRead:
  1704                           
  1705                           	psect	text3
  1706  07F9                     __ptext3:	
  1707 ;; *************** function _spiReceiveWait *****************
  1708 ;; Defined at:
  1709 ;;		line 29 in file "SPI.c"
  1710 ;; Parameters:    Size  Location     Type
  1711 ;;		None
  1712 ;; Auto vars:     Size  Location     Type
  1713 ;;		None
  1714 ;; Return value:  Size  Location     Type
  1715 ;;                  1    wreg      void 
  1716 ;; Registers used:
  1717 ;;		None
  1718 ;; Tracked objects:
  1719 ;;		On entry : 0/0
  1720 ;;		On exit  : 0/0
  1721 ;;		Unchanged: 0/0
  1722 ;; Data sizes:     COMMON   BANK0   BANK1   BANK3   BANK2
  1723 ;;      Params:         0       0       0       0       0
  1724 ;;      Locals:         0       0       0       0       0
  1725 ;;      Temps:          0       0       0       0       0
  1726 ;;      Totals:         0       0       0       0       0
  1727 ;;Total ram usage:        0 bytes
  1728 ;; Hardware stack levels used:    1
  1729 ;; Hardware stack levels required when called:    1
  1730 ;; This function calls:
  1731 ;;		Nothing
  1732 ;; This function is called by:
  1733 ;;		_spiRead
  1734 ;; This function uses a non-reentrant model
  1735 ;;
  1736                           
  1737                           
  1738                           ;psect for function _spiReceiveWait
  1739  07F9                     _spiReceiveWait:
  1740  07F9                     l2006:	
  1741                           ;incstack = 0
  1742                           ; Regs used in _spiReceiveWait: []
  1743                           
  1744  07F9                     l104:	
  1745                           ;SPI.c: 31:     while ( !SSPSTATbits.BF );
  1746                           
  1747  07F9  1683               	bsf	3,5	;RP0=1, select bank1
  1748  07FA  1303               	bcf	3,6	;RP1=0, select bank1
  1749  07FB  1C14               	btfss	20,0	;volatile
  1750  07FC  2FFE               	goto	u2371
  1751  07FD  2FFF               	goto	u2370
  1752  07FE                     u2371:
  1753  07FE  2FF9               	goto	l104
  1754  07FF                     u2370:
  1755  07FF                     l107:
  1756  07FF  0008               	return
  1757  0800                     __end_of_spiReceiveWait:
  1758                           
  1759                           	psect	text4
  1760  0848                     __ptext4:	
  1761 ;; *************** function _spiInit *****************
  1762 ;; Defined at:
  1763 ;;		line 12 in file "SPI.c"
  1764 ;; Parameters:    Size  Location     Type
  1765 ;;  sType           1    wreg     enum E1264
  1766 ;;  sDataSample     1    2[COMMON] enum E1272
  1767 ;;  sClockIdle      1    3[COMMON] enum E1276
  1768 ;;  sTransmitEdg    1    4[COMMON] enum E1280
  1769 ;; Auto vars:     Size  Location     Type
  1770 ;;  sType           1    5[COMMON] enum E1264
  1771 ;; Return value:  Size  Location     Type
  1772 ;;                  1    wreg      void 
  1773 ;; Registers used:
  1774 ;;		wreg, status,2, status,0
  1775 ;; Tracked objects:
  1776 ;;		On entry : 0/0
  1777 ;;		On exit  : 0/0
  1778 ;;		Unchanged: 0/0
  1779 ;; Data sizes:     COMMON   BANK0   BANK1   BANK3   BANK2
  1780 ;;      Params:         3       0       0       0       0
  1781 ;;      Locals:         1       0       0       0       0
  1782 ;;      Temps:          0       0       0       0       0
  1783 ;;      Totals:         4       0       0       0       0
  1784 ;;Total ram usage:        4 bytes
  1785 ;; Hardware stack levels used:    1
  1786 ;; Hardware stack levels required when called:    1
  1787 ;; This function calls:
  1788 ;;		Nothing
  1789 ;; This function is called by:
  1790 ;;		_main
  1791 ;; This function uses a non-reentrant model
  1792 ;;
  1793                           
  1794                           
  1795                           ;psect for function _spiInit
  1796  0848                     _spiInit:
  1797                           
  1798                           ;incstack = 0
  1799                           ; Regs used in _spiInit: [wreg+status,2+status,0]
  1800                           ;spiInit@sType stored from wreg
  1801  0848  00F5               	movwf	spiInit@sType
  1802  0849                     l2526:
  1803                           
  1804                           ;SPI.c: 12: void spiInit(Spi_Type sType, Spi_Data_Sample sDataSample, Spi_Clock_Idle sCl
      +                          ockIdle, Spi_Transmit_Edge sTransmitEdge);SPI.c: 13: {;SPI.c: 14:     TRISC5 = 0;
  1805  0849  1683               	bsf	3,5	;RP0=1, select bank1
  1806  084A  1303               	bcf	3,6	;RP1=0, select bank1
  1807  084B  1287               	bcf	7,5	;volatile
  1808                           
  1809                           ;SPI.c: 15:     if(sType & 0b00000100)
  1810  084C  1D75               	btfss	spiInit@sType,2
  1811  084D  284F               	goto	u3571
  1812  084E  2850               	goto	u3570
  1813  084F                     u3571:
  1814  084F  2854               	goto	l2532
  1815  0850                     u3570:
  1816  0850                     l2528:
  1817                           
  1818                           ;SPI.c: 16:     {;SPI.c: 17:         SSPSTAT = sTransmitEdge;
  1819  0850  0874               	movf	spiInit@sTransmitEdge,w
  1820  0851  0094               	movwf	20	;volatile
  1821  0852                     l2530:
  1822                           
  1823                           ;SPI.c: 18:         TRISC3 = 1;
  1824  0852  1587               	bsf	7,3	;volatile
  1825                           
  1826                           ;SPI.c: 19:     }
  1827  0853  2858               	goto	l100
  1828  0854                     l2532:
  1829                           
  1830                           ;SPI.c: 21:     {;SPI.c: 22:         SSPSTAT = sDataSample | sTransmitEdge;
  1831  0854  0872               	movf	spiInit@sDataSample,w
  1832  0855  0474               	iorwf	spiInit@sTransmitEdge,w
  1833  0856  0094               	movwf	20	;volatile
  1834  0857                     l2534:
  1835                           
  1836                           ;SPI.c: 23:         TRISC3 = 0;
  1837  0857  1187               	bcf	7,3	;volatile
  1838  0858                     l100:	
  1839                           ;SPI.c: 24:     }
  1840                           
  1841                           
  1842                           ;SPI.c: 26:     SSPCON = sType | sClockIdle;
  1843  0858  0875               	movf	spiInit@sType,w
  1844  0859  0473               	iorwf	spiInit@sClockIdle,w
  1845  085A  1283               	bcf	3,5	;RP0=0, select bank0
  1846  085B  1303               	bcf	3,6	;RP1=0, select bank0
  1847  085C  0094               	movwf	20	;volatile
  1848  085D                     l101:
  1849  085D  0008               	return
  1850  085E                     __end_of_spiInit:
  1851                           
  1852                           	psect	text5
  1853  0A21                     __ptext5:	
  1854 ;; *************** function _intToString *****************
  1855 ;; Defined at:
  1856 ;;		line 177 in file "mainMaestro.c"
  1857 ;; Parameters:    Size  Location     Type
  1858 ;;  value           1    wreg     unsigned char 
  1859 ;; Auto vars:     Size  Location     Type
  1860 ;;  value           1   12[BANK0 ] unsigned char 
  1861 ;;  valor           4    7[BANK0 ] unsigned char [4]
  1862 ;;  entero          1   11[BANK0 ] unsigned char 
  1863 ;; Return value:  Size  Location     Type
  1864 ;;                  1    wreg      PTR unsigned char 
  1865 ;; Registers used:
  1866 ;;		wreg, status,2, status,0, pclath, cstack
  1867 ;; Tracked objects:
  1868 ;;		On entry : 0/0
  1869 ;;		On exit  : 0/0
  1870 ;;		Unchanged: 0/0
  1871 ;; Data sizes:     COMMON   BANK0   BANK1   BANK3   BANK2
  1872 ;;      Params:         0       0       0       0       0
  1873 ;;      Locals:         0       6       0       0       0
  1874 ;;      Temps:          0       3       0       0       0
  1875 ;;      Totals:         0       9       0       0       0
  1876 ;;Total ram usage:        9 bytes
  1877 ;; Hardware stack levels used:    1
  1878 ;; Hardware stack levels required when called:    2
  1879 ;; This function calls:
  1880 ;;		___awdiv
  1881 ;;		___awmod
  1882 ;;		___bmul
  1883 ;; This function is called by:
  1884 ;;		_main
  1885 ;; This function uses a non-reentrant model
  1886 ;;
  1887                           
  1888                           
  1889                           ;psect for function _intToString
  1890  0A21                     _intToString:
  1891                           
  1892                           ;incstack = 0
  1893                           ; Regs used in _intToString: [wreg+status,2+status,0+pclath+cstack]
  1894                           ;intToString@value stored from wreg
  1895  0A21  1283               	bcf	3,5	;RP0=0, select bank0
  1896  0A22  1303               	bcf	3,6	;RP1=0, select bank0
  1897  0A23  00AC               	movwf	intToString@value
  1898  0A24                     l3144:
  1899  0A24  3064               	movlw	100
  1900  0A25  00F2               	movwf	___awdiv@divisor
  1901  0A26  3000               	movlw	0
  1902  0A27  00F3               	movwf	___awdiv@divisor+1
  1903  0A28  082C               	movf	intToString@value,w
  1904  0A29  00A4               	movwf	??_intToString
  1905  0A2A  01A5               	clrf	??_intToString+1
  1906  0A2B  0824               	movf	??_intToString,w
  1907  0A2C  00F4               	movwf	___awdiv@dividend
  1908  0A2D  0825               	movf	??_intToString+1,w
  1909  0A2E  00F5               	movwf	___awdiv@dividend+1
  1910  0A2F  120A  158A  22E8  120A  158A  	fcall	___awdiv
  1911  0A34  0872               	movf	?___awdiv,w
  1912  0A35  1283               	bcf	3,5	;RP0=0, select bank0
  1913  0A36  1303               	bcf	3,6	;RP1=0, select bank0
  1914  0A37  00A6               	movwf	??_intToString+2
  1915  0A38  0826               	movf	??_intToString+2,w
  1916  0A39  00AB               	movwf	intToString@entero
  1917  0A3A                     l3146:
  1918  0A3A  082B               	movf	intToString@entero,w
  1919  0A3B  3E30               	addlw	48
  1920  0A3C  00A4               	movwf	??_intToString
  1921  0A3D  0824               	movf	??_intToString,w
  1922  0A3E  00A7               	movwf	intToString@valor
  1923  0A3F                     l3148:
  1924  0A3F  309C               	movlw	156
  1925  0A40  00A4               	movwf	??_intToString
  1926  0A41  0824               	movf	??_intToString,w
  1927  0A42  00F2               	movwf	___bmul@multiplicand
  1928  0A43  082B               	movf	intToString@entero,w
  1929  0A44  160A  118A  27EB  120A  158A  	fcall	___bmul
  1930  0A49  1283               	bcf	3,5	;RP0=0, select bank0
  1931  0A4A  1303               	bcf	3,6	;RP1=0, select bank0
  1932  0A4B  072C               	addwf	intToString@value,w
  1933  0A4C  00A5               	movwf	??_intToString+1
  1934  0A4D  0825               	movf	??_intToString+1,w
  1935  0A4E  00AC               	movwf	intToString@value
  1936  0A4F                     l3150:
  1937  0A4F  300A               	movlw	10
  1938  0A50  00F2               	movwf	___awdiv@divisor
  1939  0A51  3000               	movlw	0
  1940  0A52  00F3               	movwf	___awdiv@divisor+1
  1941  0A53  082C               	movf	intToString@value,w
  1942  0A54  00A4               	movwf	??_intToString
  1943  0A55  01A5               	clrf	??_intToString+1
  1944  0A56  0824               	movf	??_intToString,w
  1945  0A57  00F4               	movwf	___awdiv@dividend
  1946  0A58  0825               	movf	??_intToString+1,w
  1947  0A59  00F5               	movwf	___awdiv@dividend+1
  1948  0A5A  120A  158A  22E8  120A  158A  	fcall	___awdiv
  1949  0A5F  0872               	movf	?___awdiv,w
  1950  0A60  3E30               	addlw	48
  1951  0A61  1283               	bcf	3,5	;RP0=0, select bank0
  1952  0A62  1303               	bcf	3,6	;RP1=0, select bank0
  1953  0A63  00A6               	movwf	??_intToString+2
  1954  0A64  0826               	movf	??_intToString+2,w
  1955  0A65  00A8               	movwf	intToString@valor+1
  1956  0A66                     l3152:
  1957  0A66  300A               	movlw	10
  1958  0A67  00F2               	movwf	___awmod@divisor
  1959  0A68  3000               	movlw	0
  1960  0A69  00F3               	movwf	___awmod@divisor+1
  1961  0A6A  082C               	movf	intToString@value,w
  1962  0A6B  00A4               	movwf	??_intToString
  1963  0A6C  01A5               	clrf	??_intToString+1
  1964  0A6D  0824               	movf	??_intToString,w
  1965  0A6E  00F4               	movwf	___awmod@dividend
  1966  0A6F  0825               	movf	??_intToString+1,w
  1967  0A70  00F5               	movwf	___awmod@dividend+1
  1968  0A71  120A  158A  21C8  120A  158A  	fcall	___awmod
  1969  0A76  0872               	movf	?___awmod,w
  1970  0A77  3E30               	addlw	48
  1971  0A78  1283               	bcf	3,5	;RP0=0, select bank0
  1972  0A79  1303               	bcf	3,6	;RP1=0, select bank0
  1973  0A7A  00A6               	movwf	??_intToString+2
  1974  0A7B  0826               	movf	??_intToString+2,w
  1975  0A7C  00A9               	movwf	intToString@valor+2
  1976  0A7D                     l3154:
  1977  0A7D  01AA               	clrf	intToString@valor+3
  1978  0A7E                     l3156:
  1979  0A7E  3027               	movlw	(low (intToString@valor| 0))& (0+255)
  1980  0A7F                     l84:
  1981  0A7F  0008               	return
  1982  0A80                     __end_of_intToString:
  1983                           
  1984                           	psect	text6
  1985  17EB                     __ptext6:	
  1986 ;; *************** function ___bmul *****************
  1987 ;; Defined at:
  1988 ;;		line 4 in file "C:\Program Files\Microchip\xc8\v2.31\pic\sources\c90\common\Umul8.c"
  1989 ;; Parameters:    Size  Location     Type
  1990 ;;  multiplier      1    wreg     unsigned char 
  1991 ;;  multiplicand    1    2[COMMON] unsigned char 
  1992 ;; Auto vars:     Size  Location     Type
  1993 ;;  multiplier      1    5[COMMON] unsigned char 
  1994 ;;  product         1    4[COMMON] unsigned char 
  1995 ;; Return value:  Size  Location     Type
  1996 ;;                  1    wreg      unsigned char 
  1997 ;; Registers used:
  1998 ;;		wreg, status,2, status,0
  1999 ;; Tracked objects:
  2000 ;;		On entry : 0/0
  2001 ;;		On exit  : 0/0
  2002 ;;		Unchanged: 0/0
  2003 ;; Data sizes:     COMMON   BANK0   BANK1   BANK3   BANK2
  2004 ;;      Params:         1       0       0       0       0
  2005 ;;      Locals:         2       0       0       0       0
  2006 ;;      Temps:          1       0       0       0       0
  2007 ;;      Totals:         4       0       0       0       0
  2008 ;;Total ram usage:        4 bytes
  2009 ;; Hardware stack levels used:    1
  2010 ;; Hardware stack levels required when called:    1
  2011 ;; This function calls:
  2012 ;;		Nothing
  2013 ;; This function is called by:
  2014 ;;		_intToString
  2015 ;; This function uses a non-reentrant model
  2016 ;;
  2017                           
  2018                           
  2019                           ;psect for function ___bmul
  2020  17EB                     ___bmul:
  2021                           
  2022                           ;incstack = 0
  2023                           ; Regs used in ___bmul: [wreg+status,2+status,0]
  2024                           ;___bmul@multiplier stored from wreg
  2025  17EB  00F5               	movwf	___bmul@multiplier
  2026  17EC                     l2032:
  2027  17EC  01F4               	clrf	___bmul@product
  2028  17ED                     l2034:
  2029  17ED  1C75               	btfss	___bmul@multiplier,0
  2030  17EE  2FF0               	goto	u2391
  2031  17EF  2FF1               	goto	u2390
  2032  17F0                     u2391:
  2033  17F0  2FF5               	goto	l2038
  2034  17F1                     u2390:
  2035  17F1                     l2036:
  2036  17F1  0872               	movf	___bmul@multiplicand,w
  2037  17F2  00F3               	movwf	??___bmul
  2038  17F3  0873               	movf	??___bmul,w
  2039  17F4  07F4               	addwf	___bmul@product,f
  2040  17F5                     l2038:
  2041  17F5  1003               	clrc
  2042  17F6  0DF2               	rlf	___bmul@multiplicand,f
  2043  17F7                     l2040:
  2044  17F7  1003               	clrc
  2045  17F8  0CF5               	rrf	___bmul@multiplier,f
  2046  17F9  0875               	movf	___bmul@multiplier,w
  2047  17FA  1D03               	btfss	3,2
  2048  17FB  2FFD               	goto	u2401
  2049  17FC  2FFE               	goto	u2400
  2050  17FD                     u2401:
  2051  17FD  2FED               	goto	l2034
  2052  17FE                     u2400:
  2053  17FE                     l2042:
  2054  17FE  0874               	movf	___bmul@product,w
  2055  17FF                     l320:
  2056  17FF  0008               	return
  2057  1800                     __end_of___bmul:
  2058                           
  2059                           	psect	text7
  2060  09C8                     __ptext7:	
  2061 ;; *************** function ___awmod *****************
  2062 ;; Defined at:
  2063 ;;		line 5 in file "C:\Program Files\Microchip\xc8\v2.31\pic\sources\c90\common\awmod.c"
  2064 ;; Parameters:    Size  Location     Type
  2065 ;;  divisor         2    2[COMMON] int 
  2066 ;;  dividend        2    4[COMMON] int 
  2067 ;; Auto vars:     Size  Location     Type
  2068 ;;  sign            1    8[COMMON] unsigned char 
  2069 ;;  counter         1    7[COMMON] unsigned char 
  2070 ;; Return value:  Size  Location     Type
  2071 ;;                  2    2[COMMON] int 
  2072 ;; Registers used:
  2073 ;;		wreg, status,2, status,0
  2074 ;; Tracked objects:
  2075 ;;		On entry : 0/0
  2076 ;;		On exit  : 0/0
  2077 ;;		Unchanged: 0/0
  2078 ;; Data sizes:     COMMON   BANK0   BANK1   BANK3   BANK2
  2079 ;;      Params:         4       0       0       0       0
  2080 ;;      Locals:         2       0       0       0       0
  2081 ;;      Temps:          1       0       0       0       0
  2082 ;;      Totals:         7       0       0       0       0
  2083 ;;Total ram usage:        7 bytes
  2084 ;; Hardware stack levels used:    1
  2085 ;; Hardware stack levels required when called:    1
  2086 ;; This function calls:
  2087 ;;		Nothing
  2088 ;; This function is called by:
  2089 ;;		_intToString
  2090 ;; This function uses a non-reentrant model
  2091 ;;
  2092                           
  2093                           
  2094                           ;psect for function ___awmod
  2095  09C8                     ___awmod:
  2096  09C8                     l2114:	
  2097                           ;incstack = 0
  2098                           ; Regs used in ___awmod: [wreg+status,2+status,0]
  2099                           
  2100  09C8  01F8               	clrf	___awmod@sign
  2101  09C9                     l2116:
  2102  09C9  1FF5               	btfss	___awmod@dividend+1,7
  2103  09CA  29CC               	goto	u2581
  2104  09CB  29CD               	goto	u2580
  2105  09CC                     u2581:
  2106  09CC  29D4               	goto	l2122
  2107  09CD                     u2580:
  2108  09CD                     l2118:
  2109  09CD  09F4               	comf	___awmod@dividend,f
  2110  09CE  09F5               	comf	___awmod@dividend+1,f
  2111  09CF  0AF4               	incf	___awmod@dividend,f
  2112  09D0  1903               	skipnz
  2113  09D1  0AF5               	incf	___awmod@dividend+1,f
  2114  09D2                     l2120:
  2115  09D2  01F8               	clrf	___awmod@sign
  2116  09D3  0AF8               	incf	___awmod@sign,f
  2117  09D4                     l2122:
  2118  09D4  1FF3               	btfss	___awmod@divisor+1,7
  2119  09D5  29D7               	goto	u2591
  2120  09D6  29D8               	goto	u2590
  2121  09D7                     u2591:
  2122  09D7  29DD               	goto	l2126
  2123  09D8                     u2590:
  2124  09D8                     l2124:
  2125  09D8  09F2               	comf	___awmod@divisor,f
  2126  09D9  09F3               	comf	___awmod@divisor+1,f
  2127  09DA  0AF2               	incf	___awmod@divisor,f
  2128  09DB  1903               	skipnz
  2129  09DC  0AF3               	incf	___awmod@divisor+1,f
  2130  09DD                     l2126:
  2131  09DD  0872               	movf	___awmod@divisor,w
  2132  09DE  0473               	iorwf	___awmod@divisor+1,w
  2133  09DF  1903               	btfsc	3,2
  2134  09E0  29E2               	goto	u2601
  2135  09E1  29E3               	goto	u2600
  2136  09E2                     u2601:
  2137  09E2  2A12               	goto	l2144
  2138  09E3                     u2600:
  2139  09E3                     l2128:
  2140  09E3  01F7               	clrf	___awmod@counter
  2141  09E4  0AF7               	incf	___awmod@counter,f
  2142  09E5  29F1               	goto	l2134
  2143  09E6                     l2130:
  2144  09E6  3001               	movlw	1
  2145  09E7                     u2615:
  2146  09E7  1003               	clrc
  2147  09E8  0DF2               	rlf	___awmod@divisor,f
  2148  09E9  0DF3               	rlf	___awmod@divisor+1,f
  2149  09EA  3EFF               	addlw	-1
  2150  09EB  1D03               	skipz
  2151  09EC  29E7               	goto	u2615
  2152  09ED                     l2132:
  2153  09ED  3001               	movlw	1
  2154  09EE  00F6               	movwf	??___awmod
  2155  09EF  0876               	movf	??___awmod,w
  2156  09F0  07F7               	addwf	___awmod@counter,f
  2157  09F1                     l2134:
  2158  09F1  1FF3               	btfss	___awmod@divisor+1,7
  2159  09F2  29F4               	goto	u2621
  2160  09F3  29F5               	goto	u2620
  2161  09F4                     u2621:
  2162  09F4  29E6               	goto	l2130
  2163  09F5                     u2620:
  2164  09F5                     l2136:
  2165  09F5  0873               	movf	___awmod@divisor+1,w
  2166  09F6  0275               	subwf	___awmod@dividend+1,w
  2167  09F7  1D03               	skipz
  2168  09F8  29FB               	goto	u2635
  2169  09F9  0872               	movf	___awmod@divisor,w
  2170  09FA  0274               	subwf	___awmod@dividend,w
  2171  09FB                     u2635:
  2172  09FB  1C03               	skipc
  2173  09FC  29FE               	goto	u2631
  2174  09FD  29FF               	goto	u2630
  2175  09FE                     u2631:
  2176  09FE  2A05               	goto	l2140
  2177  09FF                     u2630:
  2178  09FF                     l2138:
  2179  09FF  0872               	movf	___awmod@divisor,w
  2180  0A00  02F4               	subwf	___awmod@dividend,f
  2181  0A01  0873               	movf	___awmod@divisor+1,w
  2182  0A02  1C03               	skipc
  2183  0A03  03F5               	decf	___awmod@dividend+1,f
  2184  0A04  02F5               	subwf	___awmod@dividend+1,f
  2185  0A05                     l2140:
  2186  0A05  3001               	movlw	1
  2187  0A06                     u2645:
  2188  0A06  1003               	clrc
  2189  0A07  0CF3               	rrf	___awmod@divisor+1,f
  2190  0A08  0CF2               	rrf	___awmod@divisor,f
  2191  0A09  3EFF               	addlw	-1
  2192  0A0A  1D03               	skipz
  2193  0A0B  2A06               	goto	u2645
  2194  0A0C                     l2142:
  2195  0A0C  3001               	movlw	1
  2196  0A0D  02F7               	subwf	___awmod@counter,f
  2197  0A0E  1D03               	btfss	3,2
  2198  0A0F  2A11               	goto	u2651
  2199  0A10  2A12               	goto	u2650
  2200  0A11                     u2651:
  2201  0A11  29F5               	goto	l2136
  2202  0A12                     u2650:
  2203  0A12                     l2144:
  2204  0A12  0878               	movf	___awmod@sign,w
  2205  0A13  1903               	btfsc	3,2
  2206  0A14  2A16               	goto	u2661
  2207  0A15  2A17               	goto	u2660
  2208  0A16                     u2661:
  2209  0A16  2A1C               	goto	l2148
  2210  0A17                     u2660:
  2211  0A17                     l2146:
  2212  0A17  09F4               	comf	___awmod@dividend,f
  2213  0A18  09F5               	comf	___awmod@dividend+1,f
  2214  0A19  0AF4               	incf	___awmod@dividend,f
  2215  0A1A  1903               	skipnz
  2216  0A1B  0AF5               	incf	___awmod@dividend+1,f
  2217  0A1C                     l2148:
  2218  0A1C  0875               	movf	___awmod@dividend+1,w
  2219  0A1D  00F3               	movwf	?___awmod+1
  2220  0A1E  0874               	movf	___awmod@dividend,w
  2221  0A1F  00F2               	movwf	?___awmod
  2222  0A20                     l460:
  2223  0A20  0008               	return
  2224  0A21                     __end_of___awmod:
  2225                           
  2226                           	psect	text8
  2227  0AE8                     __ptext8:	
  2228 ;; *************** function ___awdiv *****************
  2229 ;; Defined at:
  2230 ;;		line 5 in file "C:\Program Files\Microchip\xc8\v2.31\pic\sources\c90\common\awdiv.c"
  2231 ;; Parameters:    Size  Location     Type
  2232 ;;  divisor         2    2[COMMON] int 
  2233 ;;  dividend        2    4[COMMON] int 
  2234 ;; Auto vars:     Size  Location     Type
  2235 ;;  quotient        2    2[BANK0 ] int 
  2236 ;;  sign            1    1[BANK0 ] unsigned char 
  2237 ;;  counter         1    0[BANK0 ] unsigned char 
  2238 ;; Return value:  Size  Location     Type
  2239 ;;                  2    2[COMMON] int 
  2240 ;; Registers used:
  2241 ;;		wreg, status,2, status,0
  2242 ;; Tracked objects:
  2243 ;;		On entry : 0/0
  2244 ;;		On exit  : 0/0
  2245 ;;		Unchanged: 0/0
  2246 ;; Data sizes:     COMMON   BANK0   BANK1   BANK3   BANK2
  2247 ;;      Params:         4       0       0       0       0
  2248 ;;      Locals:         0       4       0       0       0
  2249 ;;      Temps:          1       0       0       0       0
  2250 ;;      Totals:         5       4       0       0       0
  2251 ;;Total ram usage:        9 bytes
  2252 ;; Hardware stack levels used:    1
  2253 ;; Hardware stack levels required when called:    1
  2254 ;; This function calls:
  2255 ;;		Nothing
  2256 ;; This function is called by:
  2257 ;;		_intToString
  2258 ;; This function uses a non-reentrant model
  2259 ;;
  2260                           
  2261                           
  2262                           ;psect for function ___awdiv
  2263  0AE8                     ___awdiv:
  2264  0AE8                     l2822:	
  2265                           ;incstack = 0
  2266                           ; Regs used in ___awdiv: [wreg+status,2+status,0]
  2267                           
  2268  0AE8  1283               	bcf	3,5	;RP0=0, select bank0
  2269  0AE9  1303               	bcf	3,6	;RP1=0, select bank0
  2270  0AEA  01A1               	clrf	___awdiv@sign
  2271  0AEB                     l2824:
  2272  0AEB  1FF3               	btfss	___awdiv@divisor+1,7
  2273  0AEC  2AEE               	goto	u3811
  2274  0AED  2AEF               	goto	u3810
  2275  0AEE                     u3811:
  2276  0AEE  2AF6               	goto	l2830
  2277  0AEF                     u3810:
  2278  0AEF                     l2826:
  2279  0AEF  09F2               	comf	___awdiv@divisor,f
  2280  0AF0  09F3               	comf	___awdiv@divisor+1,f
  2281  0AF1  0AF2               	incf	___awdiv@divisor,f
  2282  0AF2  1903               	skipnz
  2283  0AF3  0AF3               	incf	___awdiv@divisor+1,f
  2284  0AF4                     l2828:
  2285  0AF4  01A1               	clrf	___awdiv@sign
  2286  0AF5  0AA1               	incf	___awdiv@sign,f
  2287  0AF6                     l2830:
  2288  0AF6  1FF5               	btfss	___awdiv@dividend+1,7
  2289  0AF7  2AF9               	goto	u3821
  2290  0AF8  2AFA               	goto	u3820
  2291  0AF9                     u3821:
  2292  0AF9  2B03               	goto	l2836
  2293  0AFA                     u3820:
  2294  0AFA                     l2832:
  2295  0AFA  09F4               	comf	___awdiv@dividend,f
  2296  0AFB  09F5               	comf	___awdiv@dividend+1,f
  2297  0AFC  0AF4               	incf	___awdiv@dividend,f
  2298  0AFD  1903               	skipnz
  2299  0AFE  0AF5               	incf	___awdiv@dividend+1,f
  2300  0AFF                     l2834:
  2301  0AFF  3001               	movlw	1
  2302  0B00  00F6               	movwf	??___awdiv
  2303  0B01  0876               	movf	??___awdiv,w
  2304  0B02  06A1               	xorwf	___awdiv@sign,f
  2305  0B03                     l2836:
  2306  0B03  01A2               	clrf	___awdiv@quotient
  2307  0B04  01A3               	clrf	___awdiv@quotient+1
  2308  0B05                     l2838:
  2309  0B05  0872               	movf	___awdiv@divisor,w
  2310  0B06  0473               	iorwf	___awdiv@divisor+1,w
  2311  0B07  1903               	btfsc	3,2
  2312  0B08  2B0A               	goto	u3831
  2313  0B09  2B0B               	goto	u3830
  2314  0B0A                     u3831:
  2315  0B0A  2B42               	goto	l2858
  2316  0B0B                     u3830:
  2317  0B0B                     l2840:
  2318  0B0B  01A0               	clrf	___awdiv@counter
  2319  0B0C  0AA0               	incf	___awdiv@counter,f
  2320  0B0D  2B19               	goto	l2846
  2321  0B0E                     l2842:
  2322  0B0E  3001               	movlw	1
  2323  0B0F                     u3845:
  2324  0B0F  1003               	clrc
  2325  0B10  0DF2               	rlf	___awdiv@divisor,f
  2326  0B11  0DF3               	rlf	___awdiv@divisor+1,f
  2327  0B12  3EFF               	addlw	-1
  2328  0B13  1D03               	skipz
  2329  0B14  2B0F               	goto	u3845
  2330  0B15                     l2844:
  2331  0B15  3001               	movlw	1
  2332  0B16  00F6               	movwf	??___awdiv
  2333  0B17  0876               	movf	??___awdiv,w
  2334  0B18  07A0               	addwf	___awdiv@counter,f
  2335  0B19                     l2846:
  2336  0B19  1FF3               	btfss	___awdiv@divisor+1,7
  2337  0B1A  2B1C               	goto	u3851
  2338  0B1B  2B1D               	goto	u3850
  2339  0B1C                     u3851:
  2340  0B1C  2B0E               	goto	l2842
  2341  0B1D                     u3850:
  2342  0B1D                     l2848:
  2343  0B1D  3001               	movlw	1
  2344  0B1E                     u3865:
  2345  0B1E  1003               	clrc
  2346  0B1F  0DA2               	rlf	___awdiv@quotient,f
  2347  0B20  0DA3               	rlf	___awdiv@quotient+1,f
  2348  0B21  3EFF               	addlw	-1
  2349  0B22  1D03               	skipz
  2350  0B23  2B1E               	goto	u3865
  2351  0B24  0873               	movf	___awdiv@divisor+1,w
  2352  0B25  0275               	subwf	___awdiv@dividend+1,w
  2353  0B26  1D03               	skipz
  2354  0B27  2B2A               	goto	u3875
  2355  0B28  0872               	movf	___awdiv@divisor,w
  2356  0B29  0274               	subwf	___awdiv@dividend,w
  2357  0B2A                     u3875:
  2358  0B2A  1C03               	skipc
  2359  0B2B  2B2D               	goto	u3871
  2360  0B2C  2B2E               	goto	u3870
  2361  0B2D                     u3871:
  2362  0B2D  2B35               	goto	l2854
  2363  0B2E                     u3870:
  2364  0B2E                     l2850:
  2365  0B2E  0872               	movf	___awdiv@divisor,w
  2366  0B2F  02F4               	subwf	___awdiv@dividend,f
  2367  0B30  0873               	movf	___awdiv@divisor+1,w
  2368  0B31  1C03               	skipc
  2369  0B32  03F5               	decf	___awdiv@dividend+1,f
  2370  0B33  02F5               	subwf	___awdiv@dividend+1,f
  2371  0B34                     l2852:
  2372  0B34  1422               	bsf	___awdiv@quotient,0
  2373  0B35                     l2854:
  2374  0B35  3001               	movlw	1
  2375  0B36                     u3885:
  2376  0B36  1003               	clrc
  2377  0B37  0CF3               	rrf	___awdiv@divisor+1,f
  2378  0B38  0CF2               	rrf	___awdiv@divisor,f
  2379  0B39  3EFF               	addlw	-1
  2380  0B3A  1D03               	skipz
  2381  0B3B  2B36               	goto	u3885
  2382  0B3C                     l2856:
  2383  0B3C  3001               	movlw	1
  2384  0B3D  02A0               	subwf	___awdiv@counter,f
  2385  0B3E  1D03               	btfss	3,2
  2386  0B3F  2B41               	goto	u3891
  2387  0B40  2B42               	goto	u3890
  2388  0B41                     u3891:
  2389  0B41  2B1D               	goto	l2848
  2390  0B42                     u3890:
  2391  0B42                     l2858:
  2392  0B42  0821               	movf	___awdiv@sign,w
  2393  0B43  1903               	btfsc	3,2
  2394  0B44  2B46               	goto	u3901
  2395  0B45  2B47               	goto	u3900
  2396  0B46                     u3901:
  2397  0B46  2B4C               	goto	l2862
  2398  0B47                     u3900:
  2399  0B47                     l2860:
  2400  0B47  09A2               	comf	___awdiv@quotient,f
  2401  0B48  09A3               	comf	___awdiv@quotient+1,f
  2402  0B49  0AA2               	incf	___awdiv@quotient,f
  2403  0B4A  1903               	skipnz
  2404  0B4B  0AA3               	incf	___awdiv@quotient+1,f
  2405  0B4C                     l2862:
  2406  0B4C  0823               	movf	___awdiv@quotient+1,w
  2407  0B4D  00F3               	movwf	?___awdiv+1
  2408  0B4E  0822               	movf	___awdiv@quotient,w
  2409  0B4F  00F2               	movwf	?___awdiv
  2410  0B50                     l447:
  2411  0B50  0008               	return
  2412  0B51                     __end_of___awdiv:
  2413                           
  2414                           	psect	text9
  2415  0CF8                     __ptext9:	
  2416 ;; *************** function _decimalASCII *****************
  2417 ;; Defined at:
  2418 ;;		line 155 in file "mainMaestro.c"
  2419 ;; Parameters:    Size  Location     Type
  2420 ;;  lectura         1    wreg     unsigned char 
  2421 ;; Auto vars:     Size  Location     Type
  2422 ;;  lectura         1   36[BANK0 ] unsigned char 
  2423 ;;  cadena          5   37[BANK0 ] unsigned char [5]
  2424 ;;  convertir3      4   43[BANK0 ] float 
  2425 ;;  entero          1   42[BANK0 ] unsigned char 
  2426 ;; Return value:  Size  Location     Type
  2427 ;;                  1    wreg      PTR unsigned char 
  2428 ;; Registers used:
  2429 ;;		wreg, status,2, status,0, btemp+1, pclath, cstack
  2430 ;; Tracked objects:
  2431 ;;		On entry : 0/0
  2432 ;;		On exit  : 0/0
  2433 ;;		Unchanged: 0/0
  2434 ;; Data sizes:     COMMON   BANK0   BANK1   BANK3   BANK2
  2435 ;;      Params:         0       0       0       0       0
  2436 ;;      Locals:         0      11       0       0       0
  2437 ;;      Temps:          0       4       0       0       0
  2438 ;;      Totals:         0      15       0       0       0
  2439 ;;Total ram usage:       15 bytes
  2440 ;; Hardware stack levels used:    1
  2441 ;; Hardware stack levels required when called:    3
  2442 ;; This function calls:
  2443 ;;		___fldiv
  2444 ;;		___flmul
  2445 ;;		___flsub
  2446 ;;		___fltol
  2447 ;;		___xxtofl
  2448 ;; This function is called by:
  2449 ;;		_main
  2450 ;; This function uses a non-reentrant model
  2451 ;;
  2452                           
  2453                           
  2454                           ;psect for function _decimalASCII
  2455  0CF8                     _decimalASCII:
  2456                           
  2457                           ;incstack = 0
  2458                           ; Regs used in _decimalASCII: [wreg+status,2+status,0+btemp+1+pclath+cstack]
  2459                           ;decimalASCII@lectura stored from wreg
  2460  0CF8  1283               	bcf	3,5	;RP0=0, select bank0
  2461  0CF9  1303               	bcf	3,6	;RP1=0, select bank0
  2462  0CFA  00C4               	movwf	decimalASCII@lectura
  2463  0CFB                     l3104:
  2464                           
  2465                           ;mainMaestro.c: 156:     valor[3] = '\0';
  2466  0CFB  3042               	movlw	66
  2467  0CFC  00A9               	movwf	___fldiv@a+3
  2468  0CFD  304C               	movlw	76
  2469  0CFE  00A8               	movwf	___fldiv@a+2
  2470  0CFF  3000               	movlw	0
  2471  0D00  00A7               	movwf	___fldiv@a+1
  2472  0D01  3000               	movlw	0
  2473  0D02  00A6               	movwf	___fldiv@a
  2474  0D03  0844               	movf	decimalASCII@lectura,w
  2475  0D04  00C0               	movwf	??_decimalASCII
  2476  0D05  01C1               	clrf	??_decimalASCII+1
  2477  0D06  01C2               	clrf	??_decimalASCII+2
  2478  0D07  01C3               	clrf	??_decimalASCII+3
  2479  0D08  0843               	movf	??_decimalASCII+3,w
  2480  0D09  00F5               	movwf	___xxtofl@val+3
  2481  0D0A  0842               	movf	??_decimalASCII+2,w
  2482  0D0B  00F4               	movwf	___xxtofl@val+2
  2483  0D0C  0841               	movf	??_decimalASCII+1,w
  2484  0D0D  00F3               	movwf	___xxtofl@val+1
  2485  0D0E  0840               	movf	??_decimalASCII,w
  2486  0D0F  00F2               	movwf	___xxtofl@val
  2487  0D10  3001               	movlw	1
  2488  0D11  120A  158A  243C  120A  158A  	fcall	___xxtofl
  2489  0D16  0875               	movf	?___xxtofl+3,w
  2490  0D17  1283               	bcf	3,5	;RP0=0, select bank0
  2491  0D18  1303               	bcf	3,6	;RP1=0, select bank0
  2492  0D19  00AD               	movwf	___fldiv@b+3
  2493  0D1A  0874               	movf	?___xxtofl+2,w
  2494  0D1B  00AC               	movwf	___fldiv@b+2
  2495  0D1C  0873               	movf	?___xxtofl+1,w
  2496  0D1D  00AB               	movwf	___fldiv@b+1
  2497  0D1E  0872               	movf	?___xxtofl,w
  2498  0D1F  00AA               	movwf	___fldiv@b
  2499  0D20  120A  118A  2604  120A  158A  	fcall	___fldiv
  2500  0D25  1283               	bcf	3,5	;RP0=0, select bank0
  2501  0D26  1303               	bcf	3,6	;RP1=0, select bank0
  2502  0D27  0829               	movf	?___fldiv+3,w
  2503  0D28  00CE               	movwf	decimalASCII@convertir3+3
  2504  0D29  0828               	movf	?___fldiv+2,w
  2505  0D2A  00CD               	movwf	decimalASCII@convertir3+2
  2506  0D2B  0827               	movf	?___fldiv+1,w
  2507  0D2C  00CC               	movwf	decimalASCII@convertir3+1
  2508  0D2D  0826               	movf	?___fldiv,w
  2509  0D2E  00CB               	movwf	decimalASCII@convertir3
  2510  0D2F                     l3106:
  2511                           
  2512                           ;mainMaestro.c: 157: ;mainMaestro.c: 158:     return valor;
  2513  0D2F  084E               	movf	decimalASCII@convertir3+3,w
  2514  0D30  00F5               	movwf	___fltol@f1+3
  2515  0D31  084D               	movf	decimalASCII@convertir3+2,w
  2516  0D32  00F4               	movwf	___fltol@f1+2
  2517  0D33  084C               	movf	decimalASCII@convertir3+1,w
  2518  0D34  00F3               	movwf	___fltol@f1+1
  2519  0D35  084B               	movf	decimalASCII@convertir3,w
  2520  0D36  00F2               	movwf	___fltol@f1
  2521  0D37  120A  158A  23C0  120A  158A  	fcall	___fltol
  2522  0D3C  0872               	movf	?___fltol,w
  2523  0D3D  1283               	bcf	3,5	;RP0=0, select bank0
  2524  0D3E  1303               	bcf	3,6	;RP1=0, select bank0
  2525  0D3F  00C0               	movwf	??_decimalASCII
  2526  0D40  0840               	movf	??_decimalASCII,w
  2527  0D41  00CA               	movwf	decimalASCII@entero
  2528  0D42                     l3108:
  2529                           
  2530                           ;mainMaestro.c: 160: 
  2531  0D42  084A               	movf	decimalASCII@entero,w
  2532  0D43  3E30               	addlw	48
  2533  0D44  00C0               	movwf	??_decimalASCII
  2534  0D45  0840               	movf	??_decimalASCII,w
  2535  0D46  00C5               	movwf	decimalASCII@cadena
  2536  0D47                     l3110:
  2537                           
  2538                           ;mainMaestro.c: 161: }
  2539  0D47  302E               	movlw	46
  2540  0D48  00C0               	movwf	??_decimalASCII
  2541  0D49  0840               	movf	??_decimalASCII,w
  2542  0D4A  00C6               	movwf	decimalASCII@cadena+1
  2543  0D4B                     l3112:
  2544  0D4B  084A               	movf	decimalASCII@entero,w
  2545  0D4C  00C0               	movwf	??_decimalASCII
  2546  0D4D  01C1               	clrf	??_decimalASCII+1
  2547  0D4E  01C2               	clrf	??_decimalASCII+2
  2548  0D4F  01C3               	clrf	??_decimalASCII+3
  2549  0D50  0843               	movf	??_decimalASCII+3,w
  2550  0D51  00F5               	movwf	___xxtofl@val+3
  2551  0D52  0842               	movf	??_decimalASCII+2,w
  2552  0D53  00F4               	movwf	___xxtofl@val+2
  2553  0D54  0841               	movf	??_decimalASCII+1,w
  2554  0D55  00F3               	movwf	___xxtofl@val+1
  2555  0D56  0840               	movf	??_decimalASCII,w
  2556  0D57  00F2               	movwf	___xxtofl@val
  2557  0D58  3001               	movlw	1
  2558  0D59  120A  158A  243C  120A  158A  	fcall	___xxtofl
  2559  0D5E  0875               	movf	?___xxtofl+3,w
  2560  0D5F  1283               	bcf	3,5	;RP0=0, select bank0
  2561  0D60  1303               	bcf	3,6	;RP1=0, select bank0
  2562  0D61  00AF               	movwf	___flsub@a+3
  2563  0D62  0874               	movf	?___xxtofl+2,w
  2564  0D63  00AE               	movwf	___flsub@a+2
  2565  0D64  0873               	movf	?___xxtofl+1,w
  2566  0D65  00AD               	movwf	___flsub@a+1
  2567  0D66  0872               	movf	?___xxtofl,w
  2568  0D67  00AC               	movwf	___flsub@a
  2569  0D68  084E               	movf	decimalASCII@convertir3+3,w
  2570  0D69  00B3               	movwf	___flsub@b+3
  2571  0D6A  084D               	movf	decimalASCII@convertir3+2,w
  2572  0D6B  00B2               	movwf	___flsub@b+2
  2573  0D6C  084C               	movf	decimalASCII@convertir3+1,w
  2574  0D6D  00B1               	movwf	___flsub@b+1
  2575  0D6E  084B               	movf	decimalASCII@convertir3,w
  2576  0D6F  00B0               	movwf	___flsub@b
  2577  0D70  120A  158A  2099  120A  158A  	fcall	___flsub
  2578  0D75  1283               	bcf	3,5	;RP0=0, select bank0
  2579  0D76  1303               	bcf	3,6	;RP1=0, select bank0
  2580  0D77  082F               	movf	?___flsub+3,w
  2581  0D78  00CE               	movwf	decimalASCII@convertir3+3
  2582  0D79  082E               	movf	?___flsub+2,w
  2583  0D7A  00CD               	movwf	decimalASCII@convertir3+2
  2584  0D7B  082D               	movf	?___flsub+1,w
  2585  0D7C  00CC               	movwf	decimalASCII@convertir3+1
  2586  0D7D  082C               	movf	?___flsub,w
  2587  0D7E  00CB               	movwf	decimalASCII@convertir3
  2588  0D7F                     l3114:
  2589  0D7F  3041               	movlw	65
  2590  0D80  00A8               	movwf	___flmul@b+3
  2591  0D81  3020               	movlw	32
  2592  0D82  00A7               	movwf	___flmul@b+2
  2593  0D83  3000               	movlw	0
  2594  0D84  00A6               	movwf	___flmul@b+1
  2595  0D85  3000               	movlw	0
  2596  0D86  00A5               	movwf	___flmul@b
  2597  0D87  084E               	movf	decimalASCII@convertir3+3,w
  2598  0D88  00AC               	movwf	___flmul@a+3
  2599  0D89  084D               	movf	decimalASCII@convertir3+2,w
  2600  0D8A  00AB               	movwf	___flmul@a+2
  2601  0D8B  084C               	movf	decimalASCII@convertir3+1,w
  2602  0D8C  00AA               	movwf	___flmul@a+1
  2603  0D8D  084B               	movf	decimalASCII@convertir3,w
  2604  0D8E  00A9               	movwf	___flmul@a
  2605  0D8F  120A  118A  201B  120A  158A  	fcall	___flmul
  2606  0D94  1283               	bcf	3,5	;RP0=0, select bank0
  2607  0D95  1303               	bcf	3,6	;RP1=0, select bank0
  2608  0D96  0828               	movf	?___flmul+3,w
  2609  0D97  00CE               	movwf	decimalASCII@convertir3+3
  2610  0D98  0827               	movf	?___flmul+2,w
  2611  0D99  00CD               	movwf	decimalASCII@convertir3+2
  2612  0D9A  0826               	movf	?___flmul+1,w
  2613  0D9B  00CC               	movwf	decimalASCII@convertir3+1
  2614  0D9C  0825               	movf	?___flmul,w
  2615  0D9D  00CB               	movwf	decimalASCII@convertir3
  2616  0D9E                     l3116:
  2617  0D9E  084E               	movf	decimalASCII@convertir3+3,w
  2618  0D9F  00F5               	movwf	___fltol@f1+3
  2619  0DA0  084D               	movf	decimalASCII@convertir3+2,w
  2620  0DA1  00F4               	movwf	___fltol@f1+2
  2621  0DA2  084C               	movf	decimalASCII@convertir3+1,w
  2622  0DA3  00F3               	movwf	___fltol@f1+1
  2623  0DA4  084B               	movf	decimalASCII@convertir3,w
  2624  0DA5  00F2               	movwf	___fltol@f1
  2625  0DA6  120A  158A  23C0  120A  158A  	fcall	___fltol
  2626  0DAB  0872               	movf	?___fltol,w
  2627  0DAC  1283               	bcf	3,5	;RP0=0, select bank0
  2628  0DAD  1303               	bcf	3,6	;RP1=0, select bank0
  2629  0DAE  00C0               	movwf	??_decimalASCII
  2630  0DAF  0840               	movf	??_decimalASCII,w
  2631  0DB0  00CA               	movwf	decimalASCII@entero
  2632  0DB1                     l3118:
  2633  0DB1  084A               	movf	decimalASCII@entero,w
  2634  0DB2  3E30               	addlw	48
  2635  0DB3  00C0               	movwf	??_decimalASCII
  2636  0DB4  0840               	movf	??_decimalASCII,w
  2637  0DB5  00C7               	movwf	decimalASCII@cadena+2
  2638  0DB6                     l3120:
  2639  0DB6  084A               	movf	decimalASCII@entero,w
  2640  0DB7  00C0               	movwf	??_decimalASCII
  2641  0DB8  01C1               	clrf	??_decimalASCII+1
  2642  0DB9  01C2               	clrf	??_decimalASCII+2
  2643  0DBA  01C3               	clrf	??_decimalASCII+3
  2644  0DBB  0843               	movf	??_decimalASCII+3,w
  2645  0DBC  00F5               	movwf	___xxtofl@val+3
  2646  0DBD  0842               	movf	??_decimalASCII+2,w
  2647  0DBE  00F4               	movwf	___xxtofl@val+2
  2648  0DBF  0841               	movf	??_decimalASCII+1,w
  2649  0DC0  00F3               	movwf	___xxtofl@val+1
  2650  0DC1  0840               	movf	??_decimalASCII,w
  2651  0DC2  00F2               	movwf	___xxtofl@val
  2652  0DC3  3001               	movlw	1
  2653  0DC4  120A  158A  243C  120A  158A  	fcall	___xxtofl
  2654  0DC9  0875               	movf	?___xxtofl+3,w
  2655  0DCA  1283               	bcf	3,5	;RP0=0, select bank0
  2656  0DCB  1303               	bcf	3,6	;RP1=0, select bank0
  2657  0DCC  00AF               	movwf	___flsub@a+3
  2658  0DCD  0874               	movf	?___xxtofl+2,w
  2659  0DCE  00AE               	movwf	___flsub@a+2
  2660  0DCF  0873               	movf	?___xxtofl+1,w
  2661  0DD0  00AD               	movwf	___flsub@a+1
  2662  0DD1  0872               	movf	?___xxtofl,w
  2663  0DD2  00AC               	movwf	___flsub@a
  2664  0DD3  084E               	movf	decimalASCII@convertir3+3,w
  2665  0DD4  00B3               	movwf	___flsub@b+3
  2666  0DD5  084D               	movf	decimalASCII@convertir3+2,w
  2667  0DD6  00B2               	movwf	___flsub@b+2
  2668  0DD7  084C               	movf	decimalASCII@convertir3+1,w
  2669  0DD8  00B1               	movwf	___flsub@b+1
  2670  0DD9  084B               	movf	decimalASCII@convertir3,w
  2671  0DDA  00B0               	movwf	___flsub@b
  2672  0DDB  120A  158A  2099  120A  158A  	fcall	___flsub
  2673  0DE0  1283               	bcf	3,5	;RP0=0, select bank0
  2674  0DE1  1303               	bcf	3,6	;RP1=0, select bank0
  2675  0DE2  082F               	movf	?___flsub+3,w
  2676  0DE3  00CE               	movwf	decimalASCII@convertir3+3
  2677  0DE4  082E               	movf	?___flsub+2,w
  2678  0DE5  00CD               	movwf	decimalASCII@convertir3+2
  2679  0DE6  082D               	movf	?___flsub+1,w
  2680  0DE7  00CC               	movwf	decimalASCII@convertir3+1
  2681  0DE8  082C               	movf	?___flsub,w
  2682  0DE9  00CB               	movwf	decimalASCII@convertir3
  2683  0DEA                     l3122:
  2684  0DEA  3041               	movlw	65
  2685  0DEB  00A8               	movwf	___flmul@b+3
  2686  0DEC  3020               	movlw	32
  2687  0DED  00A7               	movwf	___flmul@b+2
  2688  0DEE  3000               	movlw	0
  2689  0DEF  00A6               	movwf	___flmul@b+1
  2690  0DF0  3000               	movlw	0
  2691  0DF1  00A5               	movwf	___flmul@b
  2692  0DF2  084E               	movf	decimalASCII@convertir3+3,w
  2693  0DF3  00AC               	movwf	___flmul@a+3
  2694  0DF4  084D               	movf	decimalASCII@convertir3+2,w
  2695  0DF5  00AB               	movwf	___flmul@a+2
  2696  0DF6  084C               	movf	decimalASCII@convertir3+1,w
  2697  0DF7  00AA               	movwf	___flmul@a+1
  2698  0DF8  084B               	movf	decimalASCII@convertir3,w
  2699  0DF9  00A9               	movwf	___flmul@a
  2700  0DFA  120A  118A  201B  120A  158A  	fcall	___flmul
  2701  0DFF  1283               	bcf	3,5	;RP0=0, select bank0
  2702  0E00  1303               	bcf	3,6	;RP1=0, select bank0
  2703  0E01  0828               	movf	?___flmul+3,w
  2704  0E02  00CE               	movwf	decimalASCII@convertir3+3
  2705  0E03  0827               	movf	?___flmul+2,w
  2706  0E04  00CD               	movwf	decimalASCII@convertir3+2
  2707  0E05  0826               	movf	?___flmul+1,w
  2708  0E06  00CC               	movwf	decimalASCII@convertir3+1
  2709  0E07  0825               	movf	?___flmul,w
  2710  0E08  00CB               	movwf	decimalASCII@convertir3
  2711  0E09                     l3124:
  2712  0E09  084E               	movf	decimalASCII@convertir3+3,w
  2713  0E0A  00F5               	movwf	___fltol@f1+3
  2714  0E0B  084D               	movf	decimalASCII@convertir3+2,w
  2715  0E0C  00F4               	movwf	___fltol@f1+2
  2716  0E0D  084C               	movf	decimalASCII@convertir3+1,w
  2717  0E0E  00F3               	movwf	___fltol@f1+1
  2718  0E0F  084B               	movf	decimalASCII@convertir3,w
  2719  0E10  00F2               	movwf	___fltol@f1
  2720  0E11  120A  158A  23C0  120A  158A  	fcall	___fltol
  2721  0E16  0872               	movf	?___fltol,w
  2722  0E17  1283               	bcf	3,5	;RP0=0, select bank0
  2723  0E18  1303               	bcf	3,6	;RP1=0, select bank0
  2724  0E19  00C0               	movwf	??_decimalASCII
  2725  0E1A  0840               	movf	??_decimalASCII,w
  2726  0E1B  00CA               	movwf	decimalASCII@entero
  2727  0E1C                     l3126:
  2728  0E1C  084A               	movf	decimalASCII@entero,w
  2729  0E1D  3E30               	addlw	48
  2730  0E1E  00C0               	movwf	??_decimalASCII
  2731  0E1F  0840               	movf	??_decimalASCII,w
  2732  0E20  00C8               	movwf	decimalASCII@cadena+3
  2733  0E21                     l3128:
  2734  0E21  01C9               	clrf	decimalASCII@cadena+4
  2735  0E22                     l3130:
  2736  0E22  3045               	movlw	(low (decimalASCII@cadena| 0))& (0+255)
  2737  0E23                     l81:
  2738  0E23  0008               	return
  2739  0E24                     __end_of_decimalASCII:
  2740                           
  2741                           	psect	text10
  2742  0C3C                     __ptext10:	
  2743 ;; *************** function ___xxtofl *****************
  2744 ;; Defined at:
  2745 ;;		line 10 in file "C:\Program Files\Microchip\xc8\v2.31\pic\sources\c90\common\xxtofl.c"
  2746 ;; Parameters:    Size  Location     Type
  2747 ;;  sign            1    wreg     unsigned char 
  2748 ;;  val             4    2[COMMON] long 
  2749 ;; Auto vars:     Size  Location     Type
  2750 ;;  sign            1    0[BANK0 ] unsigned char 
  2751 ;;  arg             4    2[BANK0 ] unsigned long 
  2752 ;;  exp             1    1[BANK0 ] unsigned char 
  2753 ;; Return value:  Size  Location     Type
  2754 ;;                  4    2[COMMON] unsigned char 
  2755 ;; Registers used:
  2756 ;;		wreg, status,2, status,0
  2757 ;; Tracked objects:
  2758 ;;		On entry : 0/0
  2759 ;;		On exit  : 0/0
  2760 ;;		Unchanged: 0/0
  2761 ;; Data sizes:     COMMON   BANK0   BANK1   BANK3   BANK2
  2762 ;;      Params:         4       0       0       0       0
  2763 ;;      Locals:         0       6       0       0       0
  2764 ;;      Temps:          4       0       0       0       0
  2765 ;;      Totals:         8       6       0       0       0
  2766 ;;Total ram usage:       14 bytes
  2767 ;; Hardware stack levels used:    1
  2768 ;; Hardware stack levels required when called:    1
  2769 ;; This function calls:
  2770 ;;		Nothing
  2771 ;; This function is called by:
  2772 ;;		_decimalASCII
  2773 ;; This function uses a non-reentrant model
  2774 ;;
  2775                           
  2776                           
  2777                           ;psect for function ___xxtofl
  2778  0C3C                     ___xxtofl:
  2779                           
  2780                           ;incstack = 0
  2781                           ; Regs used in ___xxtofl: [wreg+status,2+status,0]
  2782                           ;___xxtofl@sign stored from wreg
  2783  0C3C  1283               	bcf	3,5	;RP0=0, select bank0
  2784  0C3D  1303               	bcf	3,6	;RP1=0, select bank0
  2785  0C3E  00A0               	movwf	___xxtofl@sign
  2786  0C3F                     l2476:
  2787  0C3F  0820               	movf	___xxtofl@sign,w
  2788  0C40  1903               	btfsc	3,2
  2789  0C41  2C43               	goto	u3431
  2790  0C42  2C44               	goto	u3430
  2791  0C43                     u3431:
  2792  0C43  2C58               	goto	l2482
  2793  0C44                     u3430:
  2794  0C44                     l2478:
  2795  0C44  1FF5               	btfss	___xxtofl@val+3,7
  2796  0C45  2C47               	goto	u3441
  2797  0C46  2C48               	goto	u3440
  2798  0C47                     u3441:
  2799  0C47  2C58               	goto	l2482
  2800  0C48                     u3440:
  2801  0C48                     l2480:
  2802  0C48  0972               	comf	___xxtofl@val,w
  2803  0C49  00A2               	movwf	___xxtofl@arg
  2804  0C4A  0973               	comf	___xxtofl@val+1,w
  2805  0C4B  00A3               	movwf	___xxtofl@arg+1
  2806  0C4C  0974               	comf	___xxtofl@val+2,w
  2807  0C4D  00A4               	movwf	___xxtofl@arg+2
  2808  0C4E  0975               	comf	___xxtofl@val+3,w
  2809  0C4F  00A5               	movwf	___xxtofl@arg+3
  2810  0C50  0AA2               	incf	___xxtofl@arg,f
  2811  0C51  1903               	skipnz
  2812  0C52  0AA3               	incf	___xxtofl@arg+1,f
  2813  0C53  1903               	skipnz
  2814  0C54  0AA4               	incf	___xxtofl@arg+2,f
  2815  0C55  1903               	skipnz
  2816  0C56  0AA5               	incf	___xxtofl@arg+3,f
  2817  0C57  2C60               	goto	l727
  2818  0C58                     l2482:
  2819  0C58  0875               	movf	___xxtofl@val+3,w
  2820  0C59  00A5               	movwf	___xxtofl@arg+3
  2821  0C5A  0874               	movf	___xxtofl@val+2,w
  2822  0C5B  00A4               	movwf	___xxtofl@arg+2
  2823  0C5C  0873               	movf	___xxtofl@val+1,w
  2824  0C5D  00A3               	movwf	___xxtofl@arg+1
  2825  0C5E  0872               	movf	___xxtofl@val,w
  2826  0C5F  00A2               	movwf	___xxtofl@arg
  2827  0C60                     l727:
  2828  0C60  0875               	movf	___xxtofl@val+3,w
  2829  0C61  0474               	iorwf	___xxtofl@val+2,w
  2830  0C62  0473               	iorwf	___xxtofl@val+1,w
  2831  0C63  0472               	iorwf	___xxtofl@val,w
  2832  0C64  1D03               	skipz
  2833  0C65  2C67               	goto	u3451
  2834  0C66  2C68               	goto	u3450
  2835  0C67                     u3451:
  2836  0C67  2C71               	goto	l2488
  2837  0C68                     u3450:
  2838  0C68                     l2484:
  2839  0C68  3000               	movlw	0
  2840  0C69  00F5               	movwf	?___xxtofl+3
  2841  0C6A  3000               	movlw	0
  2842  0C6B  00F4               	movwf	?___xxtofl+2
  2843  0C6C  3000               	movlw	0
  2844  0C6D  00F3               	movwf	?___xxtofl+1
  2845  0C6E  3000               	movlw	0
  2846  0C6F  00F2               	movwf	?___xxtofl
  2847  0C70  2CF7               	goto	l729
  2848  0C71                     l2488:
  2849  0C71  3096               	movlw	150
  2850  0C72  00F6               	movwf	??___xxtofl
  2851  0C73  0876               	movf	??___xxtofl,w
  2852  0C74  00A1               	movwf	___xxtofl@exp
  2853  0C75  2C83               	goto	l2492
  2854  0C76                     l2490:
  2855  0C76  3001               	movlw	1
  2856  0C77  00F6               	movwf	??___xxtofl
  2857  0C78  0876               	movf	??___xxtofl,w
  2858  0C79  07A1               	addwf	___xxtofl@exp,f
  2859  0C7A  3001               	movlw	1
  2860  0C7B                     u3465:
  2861  0C7B  1003               	clrc
  2862  0C7C  0CA5               	rrf	___xxtofl@arg+3,f
  2863  0C7D  0CA4               	rrf	___xxtofl@arg+2,f
  2864  0C7E  0CA3               	rrf	___xxtofl@arg+1,f
  2865  0C7F  0CA2               	rrf	___xxtofl@arg,f
  2866  0C80  3EFF               	addlw	-1
  2867  0C81  1D03               	skipz
  2868  0C82  2C7B               	goto	u3465
  2869  0C83                     l2492:
  2870  0C83  30FE               	movlw	254
  2871  0C84  0525               	andwf	___xxtofl@arg+3,w
  2872  0C85  1D03               	btfss	3,2
  2873  0C86  2C88               	goto	u3471
  2874  0C87  2C89               	goto	u3470
  2875  0C88                     u3471:
  2876  0C88  2C76               	goto	l2490
  2877  0C89                     u3470:
  2878  0C89  2CA5               	goto	l733
  2879  0C8A                     l2494:
  2880  0C8A  3001               	movlw	1
  2881  0C8B  00F6               	movwf	??___xxtofl
  2882  0C8C  0876               	movf	??___xxtofl,w
  2883  0C8D  07A1               	addwf	___xxtofl@exp,f
  2884  0C8E                     l2496:
  2885  0C8E  3001               	movlw	1
  2886  0C8F  07A2               	addwf	___xxtofl@arg,f
  2887  0C90  3000               	movlw	0
  2888  0C91  1803               	skipnc
  2889  0C92  3001               	movlw	1
  2890  0C93  07A3               	addwf	___xxtofl@arg+1,f
  2891  0C94  3000               	movlw	0
  2892  0C95  1803               	skipnc
  2893  0C96  3001               	movlw	1
  2894  0C97  07A4               	addwf	___xxtofl@arg+2,f
  2895  0C98  3000               	movlw	0
  2896  0C99  1803               	skipnc
  2897  0C9A  3001               	movlw	1
  2898  0C9B  07A5               	addwf	___xxtofl@arg+3,f
  2899  0C9C                     l2498:
  2900  0C9C  3001               	movlw	1
  2901  0C9D                     u3485:
  2902  0C9D  1003               	clrc
  2903  0C9E  0CA5               	rrf	___xxtofl@arg+3,f
  2904  0C9F  0CA4               	rrf	___xxtofl@arg+2,f
  2905  0CA0  0CA3               	rrf	___xxtofl@arg+1,f
  2906  0CA1  0CA2               	rrf	___xxtofl@arg,f
  2907  0CA2  3EFF               	addlw	-1
  2908  0CA3  1D03               	skipz
  2909  0CA4  2C9D               	goto	u3485
  2910  0CA5                     l733:
  2911  0CA5  30FF               	movlw	255
  2912  0CA6  0525               	andwf	___xxtofl@arg+3,w
  2913  0CA7  1D03               	btfss	3,2
  2914  0CA8  2CAA               	goto	u3491
  2915  0CA9  2CAB               	goto	u3490
  2916  0CAA                     u3491:
  2917  0CAA  2C8A               	goto	l2494
  2918  0CAB                     u3490:
  2919  0CAB  2CB7               	goto	l2502
  2920  0CAC                     l2500:
  2921  0CAC  3001               	movlw	1
  2922  0CAD  02A1               	subwf	___xxtofl@exp,f
  2923  0CAE  3001               	movlw	1
  2924  0CAF  00F6               	movwf	??___xxtofl
  2925  0CB0                     u3505:
  2926  0CB0  1003               	clrc
  2927  0CB1  0DA2               	rlf	___xxtofl@arg,f
  2928  0CB2  0DA3               	rlf	___xxtofl@arg+1,f
  2929  0CB3  0DA4               	rlf	___xxtofl@arg+2,f
  2930  0CB4  0DA5               	rlf	___xxtofl@arg+3,f
  2931  0CB5  0BF6               	decfsz	??___xxtofl,f
  2932  0CB6  2CB0               	goto	u3505
  2933  0CB7                     l2502:
  2934  0CB7  1BA4               	btfsc	___xxtofl@arg+2,7
  2935  0CB8  2CBA               	goto	u3511
  2936  0CB9  2CBB               	goto	u3510
  2937  0CBA                     u3511:
  2938  0CBA  2CC1               	goto	l740
  2939  0CBB                     u3510:
  2940  0CBB                     l2504:
  2941  0CBB  3002               	movlw	2
  2942  0CBC  0221               	subwf	___xxtofl@exp,w
  2943  0CBD  1803               	skipnc
  2944  0CBE  2CC0               	goto	u3521
  2945  0CBF  2CC1               	goto	u3520
  2946  0CC0                     u3521:
  2947  0CC0  2CAC               	goto	l2500
  2948  0CC1                     u3520:
  2949  0CC1                     l740:
  2950  0CC1  1821               	btfsc	___xxtofl@exp,0
  2951  0CC2  2CC4               	goto	u3531
  2952  0CC3  2CC5               	goto	u3530
  2953  0CC4                     u3531:
  2954  0CC4  2CCD               	goto	l741
  2955  0CC5                     u3530:
  2956  0CC5                     l2506:
  2957  0CC5  30FF               	movlw	255
  2958  0CC6  05A2               	andwf	___xxtofl@arg,f
  2959  0CC7  30FF               	movlw	255
  2960  0CC8  05A3               	andwf	___xxtofl@arg+1,f
  2961  0CC9  307F               	movlw	127
  2962  0CCA  05A4               	andwf	___xxtofl@arg+2,f
  2963  0CCB  30FF               	movlw	255
  2964  0CCC  05A5               	andwf	___xxtofl@arg+3,f
  2965  0CCD                     l741:
  2966  0CCD  1003               	clrc
  2967  0CCE  0CA1               	rrf	___xxtofl@exp,f
  2968  0CCF                     l2508:
  2969  0CCF  0821               	movf	___xxtofl@exp,w
  2970  0CD0  00F6               	movwf	??___xxtofl
  2971  0CD1  01F7               	clrf	??___xxtofl+1
  2972  0CD2  01F8               	clrf	??___xxtofl+2
  2973  0CD3  01F9               	clrf	??___xxtofl+3
  2974  0CD4  3018               	movlw	24
  2975  0CD5                     u3545:
  2976  0CD5  1003               	clrc
  2977  0CD6  0DF6               	rlf	??___xxtofl,f
  2978  0CD7  0DF7               	rlf	??___xxtofl+1,f
  2979  0CD8  0DF8               	rlf	??___xxtofl+2,f
  2980  0CD9  0DF9               	rlf	??___xxtofl+3,f
  2981  0CDA                     u3540:
  2982  0CDA  3EFF               	addlw	-1
  2983  0CDB  1D03               	skipz
  2984  0CDC  2CD5               	goto	u3545
  2985  0CDD  0876               	movf	??___xxtofl,w
  2986  0CDE  04A2               	iorwf	___xxtofl@arg,f
  2987  0CDF  0877               	movf	??___xxtofl+1,w
  2988  0CE0  04A3               	iorwf	___xxtofl@arg+1,f
  2989  0CE1  0878               	movf	??___xxtofl+2,w
  2990  0CE2  04A4               	iorwf	___xxtofl@arg+2,f
  2991  0CE3  0879               	movf	??___xxtofl+3,w
  2992  0CE4  04A5               	iorwf	___xxtofl@arg+3,f
  2993  0CE5                     l2510:
  2994  0CE5  0820               	movf	___xxtofl@sign,w
  2995  0CE6  1903               	btfsc	3,2
  2996  0CE7  2CE9               	goto	u3551
  2997  0CE8  2CEA               	goto	u3550
  2998  0CE9                     u3551:
  2999  0CE9  2CEF               	goto	l2516
  3000  0CEA                     u3550:
  3001  0CEA                     l2512:
  3002  0CEA  1FF5               	btfss	___xxtofl@val+3,7
  3003  0CEB  2CED               	goto	u3561
  3004  0CEC  2CEE               	goto	u3560
  3005  0CED                     u3561:
  3006  0CED  2CEF               	goto	l2516
  3007  0CEE                     u3560:
  3008  0CEE                     l2514:
  3009  0CEE  17A5               	bsf	___xxtofl@arg+3,7
  3010  0CEF                     l2516:
  3011  0CEF  0825               	movf	___xxtofl@arg+3,w
  3012  0CF0  00F5               	movwf	?___xxtofl+3
  3013  0CF1  0824               	movf	___xxtofl@arg+2,w
  3014  0CF2  00F4               	movwf	?___xxtofl+2
  3015  0CF3  0823               	movf	___xxtofl@arg+1,w
  3016  0CF4  00F3               	movwf	?___xxtofl+1
  3017  0CF5  0822               	movf	___xxtofl@arg,w
  3018  0CF6  00F2               	movwf	?___xxtofl
  3019  0CF7                     l729:
  3020  0CF7  0008               	return
  3021  0CF8                     __end_of___xxtofl:
  3022                           
  3023                           	psect	text11
  3024  0BC0                     __ptext11:	
  3025 ;; *************** function ___fltol *****************
  3026 ;; Defined at:
  3027 ;;		line 43 in file "C:\Program Files\Microchip\xc8\v2.31\pic\sources\c90\common\fltol.c"
  3028 ;; Parameters:    Size  Location     Type
  3029 ;;  f1              4    2[COMMON] unsigned char 
  3030 ;; Auto vars:     Size  Location     Type
  3031 ;;  exp1            1    7[COMMON] unsigned char 
  3032 ;;  sign1           1    6[COMMON] unsigned char 
  3033 ;; Return value:  Size  Location     Type
  3034 ;;                  4    2[COMMON] long 
  3035 ;; Registers used:
  3036 ;;		wreg, status,2, status,0
  3037 ;; Tracked objects:
  3038 ;;		On entry : 0/0
  3039 ;;		On exit  : 0/0
  3040 ;;		Unchanged: 0/0
  3041 ;; Data sizes:     COMMON   BANK0   BANK1   BANK3   BANK2
  3042 ;;      Params:         4       0       0       0       0
  3043 ;;      Locals:         2       0       0       0       0
  3044 ;;      Temps:          0       5       0       0       0
  3045 ;;      Totals:         6       5       0       0       0
  3046 ;;Total ram usage:       11 bytes
  3047 ;; Hardware stack levels used:    1
  3048 ;; Hardware stack levels required when called:    1
  3049 ;; This function calls:
  3050 ;;		Nothing
  3051 ;; This function is called by:
  3052 ;;		_decimalASCII
  3053 ;; This function uses a non-reentrant model
  3054 ;;
  3055                           
  3056                           
  3057                           ;psect for function ___fltol
  3058  0BC0                     ___fltol:
  3059  0BC0                     l2866:	
  3060                           ;incstack = 0
  3061                           ; Regs used in ___fltol: [wreg+status,2+status,0]
  3062                           
  3063  0BC0  1003               	clrc
  3064  0BC1  0D74               	rlf	___fltol@f1+2,w
  3065  0BC2  0D75               	rlf	___fltol@f1+3,w
  3066  0BC3  1283               	bcf	3,5	;RP0=0, select bank0
  3067  0BC4  1303               	bcf	3,6	;RP1=0, select bank0
  3068  0BC5  00A0               	movwf	??___fltol
  3069  0BC6  0820               	movf	??___fltol,w
  3070  0BC7  00F7               	movwf	___fltol@exp1
  3071  0BC8  0877               	movf	___fltol@exp1,w
  3072  0BC9  1D03               	btfss	3,2
  3073  0BCA  2BCC               	goto	u3911
  3074  0BCB  2BCD               	goto	u3910
  3075  0BCC                     u3911:
  3076  0BCC  2BD6               	goto	l2872
  3077  0BCD                     u3910:
  3078  0BCD                     l2868:
  3079  0BCD  3000               	movlw	0
  3080  0BCE  00F5               	movwf	?___fltol+3
  3081  0BCF  3000               	movlw	0
  3082  0BD0  00F4               	movwf	?___fltol+2
  3083  0BD1  3000               	movlw	0
  3084  0BD2  00F3               	movwf	?___fltol+1
  3085  0BD3  3000               	movlw	0
  3086  0BD4  00F2               	movwf	?___fltol
  3087  0BD5  2C3B               	goto	l480
  3088  0BD6                     l2872:
  3089  0BD6  0872               	movf	___fltol@f1,w
  3090  0BD7  00A0               	movwf	??___fltol
  3091  0BD8  0873               	movf	___fltol@f1+1,w
  3092  0BD9  00A1               	movwf	??___fltol+1
  3093  0BDA  0874               	movf	___fltol@f1+2,w
  3094  0BDB  00A2               	movwf	??___fltol+2
  3095  0BDC  0875               	movf	___fltol@f1+3,w
  3096  0BDD  00A3               	movwf	??___fltol+3
  3097  0BDE  301F               	movlw	31
  3098  0BDF                     u3925:
  3099  0BDF  1003               	clrc
  3100  0BE0  0CA3               	rrf	??___fltol+3,f
  3101  0BE1  0CA2               	rrf	??___fltol+2,f
  3102  0BE2  0CA1               	rrf	??___fltol+1,f
  3103  0BE3  0CA0               	rrf	??___fltol,f
  3104  0BE4                     u3920:
  3105  0BE4  3EFF               	addlw	-1
  3106  0BE5  1D03               	skipz
  3107  0BE6  2BDF               	goto	u3925
  3108  0BE7  0820               	movf	??___fltol,w
  3109  0BE8  00A4               	movwf	??___fltol+4
  3110  0BE9  0824               	movf	??___fltol+4,w
  3111  0BEA  00F6               	movwf	___fltol@sign1
  3112  0BEB                     l2874:
  3113  0BEB  17F4               	bsf	___fltol@f1+2,7
  3114  0BEC                     l2876:
  3115  0BEC  30FF               	movlw	255
  3116  0BED  05F2               	andwf	___fltol@f1,f
  3117  0BEE  30FF               	movlw	255
  3118  0BEF  05F3               	andwf	___fltol@f1+1,f
  3119  0BF0  30FF               	movlw	255
  3120  0BF1  05F4               	andwf	___fltol@f1+2,f
  3121  0BF2  3000               	movlw	0
  3122  0BF3  05F5               	andwf	___fltol@f1+3,f
  3123  0BF4                     l2878:
  3124  0BF4  3096               	movlw	150
  3125  0BF5  02F7               	subwf	___fltol@exp1,f
  3126  0BF6                     l2880:
  3127  0BF6  1FF7               	btfss	___fltol@exp1,7
  3128  0BF7  2BF9               	goto	u3931
  3129  0BF8  2BFA               	goto	u3930
  3130  0BF9                     u3931:
  3131  0BF9  2C14               	goto	l2890
  3132  0BFA                     u3930:
  3133  0BFA                     l2882:
  3134  0BFA  0877               	movf	___fltol@exp1,w
  3135  0BFB  3A80               	xorlw	128
  3136  0BFC  3E97               	addlw	151
  3137  0BFD  1803               	skipnc
  3138  0BFE  2C00               	goto	u3941
  3139  0BFF  2C01               	goto	u3940
  3140  0C00                     u3941:
  3141  0C00  2C02               	goto	l2888
  3142  0C01                     u3940:
  3143  0C01  2BCD               	goto	l2868
  3144  0C02                     l2888:
  3145  0C02  3001               	movlw	1
  3146  0C03                     u3955:
  3147  0C03  1003               	clrc
  3148  0C04  0CF5               	rrf	___fltol@f1+3,f
  3149  0C05  0CF4               	rrf	___fltol@f1+2,f
  3150  0C06  0CF3               	rrf	___fltol@f1+1,f
  3151  0C07  0CF2               	rrf	___fltol@f1,f
  3152  0C08  3EFF               	addlw	-1
  3153  0C09  1D03               	skipz
  3154  0C0A  2C03               	goto	u3955
  3155  0C0B  3001               	movlw	1
  3156  0C0C  00A0               	movwf	??___fltol
  3157  0C0D  0820               	movf	??___fltol,w
  3158  0C0E  07F7               	addwf	___fltol@exp1,f
  3159  0C0F  1D03               	btfss	3,2
  3160  0C10  2C12               	goto	u3961
  3161  0C11  2C13               	goto	u3960
  3162  0C12                     u3961:
  3163  0C12  2C02               	goto	l2888
  3164  0C13                     u3960:
  3165  0C13  2C2B               	goto	l2898
  3166  0C14                     l2890:
  3167  0C14  3020               	movlw	32
  3168  0C15  0277               	subwf	___fltol@exp1,w
  3169  0C16  1C03               	skipc
  3170  0C17  2C19               	goto	u3971
  3171  0C18  2C1A               	goto	u3970
  3172  0C19                     u3971:
  3173  0C19  2C26               	goto	l487
  3174  0C1A                     u3970:
  3175  0C1A  2BCD               	goto	l2868
  3176  0C1B                     l2896:
  3177  0C1B  3001               	movlw	1
  3178  0C1C  00A0               	movwf	??___fltol
  3179  0C1D                     u3985:
  3180  0C1D  1003               	clrc
  3181  0C1E  0DF2               	rlf	___fltol@f1,f
  3182  0C1F  0DF3               	rlf	___fltol@f1+1,f
  3183  0C20  0DF4               	rlf	___fltol@f1+2,f
  3184  0C21  0DF5               	rlf	___fltol@f1+3,f
  3185  0C22  0BA0               	decfsz	??___fltol,f
  3186  0C23  2C1D               	goto	u3985
  3187  0C24  3001               	movlw	1
  3188  0C25  02F7               	subwf	___fltol@exp1,f
  3189  0C26                     l487:
  3190  0C26  0877               	movf	___fltol@exp1,w
  3191  0C27  1D03               	btfss	3,2
  3192  0C28  2C2A               	goto	u3991
  3193  0C29  2C2B               	goto	u3990
  3194  0C2A                     u3991:
  3195  0C2A  2C1B               	goto	l2896
  3196  0C2B                     u3990:
  3197  0C2B                     l2898:
  3198  0C2B  0876               	movf	___fltol@sign1,w
  3199  0C2C  1903               	btfsc	3,2
  3200  0C2D  2C2F               	goto	u4001
  3201  0C2E  2C30               	goto	u4000
  3202  0C2F                     u4001:
  3203  0C2F  2C3B               	goto	l490
  3204  0C30                     u4000:
  3205  0C30                     l2900:
  3206  0C30  09F2               	comf	___fltol@f1,f
  3207  0C31  09F3               	comf	___fltol@f1+1,f
  3208  0C32  09F4               	comf	___fltol@f1+2,f
  3209  0C33  09F5               	comf	___fltol@f1+3,f
  3210  0C34  0AF2               	incf	___fltol@f1,f
  3211  0C35  1903               	skipnz
  3212  0C36  0AF3               	incf	___fltol@f1+1,f
  3213  0C37  1903               	skipnz
  3214  0C38  0AF4               	incf	___fltol@f1+2,f
  3215  0C39  1903               	skipnz
  3216  0C3A  0AF5               	incf	___fltol@f1+3,f
  3217  0C3B                     l490:
  3218  0C3B                     l480:
  3219  0C3B  0008               	return
  3220  0C3C                     __end_of___fltol:
  3221                           
  3222                           	psect	text12
  3223  0899                     __ptext12:	
  3224 ;; *************** function ___flsub *****************
  3225 ;; Defined at:
  3226 ;;		line 242 in file "C:\Program Files\Microchip\xc8\v2.31\pic\sources\c90\common\sprcadd.c"
  3227 ;; Parameters:    Size  Location     Type
  3228 ;;  a               4   12[BANK0 ] long 
  3229 ;;  b               4   16[BANK0 ] long 
  3230 ;; Auto vars:     Size  Location     Type
  3231 ;;		None
  3232 ;; Return value:  Size  Location     Type
  3233 ;;                  4   12[BANK0 ] long 
  3234 ;; Registers used:
  3235 ;;		wreg, status,2, status,0, btemp+1, pclath, cstack
  3236 ;; Tracked objects:
  3237 ;;		On entry : 0/0
  3238 ;;		On exit  : 0/0
  3239 ;;		Unchanged: 0/0
  3240 ;; Data sizes:     COMMON   BANK0   BANK1   BANK3   BANK2
  3241 ;;      Params:         0       8       0       0       0
  3242 ;;      Locals:         0       0       0       0       0
  3243 ;;      Temps:          0       0       0       0       0
  3244 ;;      Totals:         0       8       0       0       0
  3245 ;;Total ram usage:        8 bytes
  3246 ;; Hardware stack levels used:    1
  3247 ;; Hardware stack levels required when called:    2
  3248 ;; This function calls:
  3249 ;;		___fladd
  3250 ;; This function is called by:
  3251 ;;		_decimalASCII
  3252 ;; This function uses a non-reentrant model
  3253 ;;
  3254                           
  3255                           
  3256                           ;psect for function ___flsub
  3257  0899                     ___flsub:
  3258  0899                     l2188:	
  3259                           ;incstack = 0
  3260                           ; Regs used in ___flsub: [wreg+status,2+status,0+btemp+1+pclath+cstack]
  3261                           
  3262  0899  3080               	movlw	128
  3263  089A  1283               	bcf	3,5	;RP0=0, select bank0
  3264  089B  1303               	bcf	3,6	;RP1=0, select bank0
  3265  089C  06AF               	xorwf	___flsub@a+3,f
  3266  089D                     l2190:
  3267  089D  0833               	movf	___flsub@b+3,w
  3268  089E  00F5               	movwf	___fladd@b+3
  3269  089F  0832               	movf	___flsub@b+2,w
  3270  08A0  00F4               	movwf	___fladd@b+2
  3271  08A1  0831               	movf	___flsub@b+1,w
  3272  08A2  00F3               	movwf	___fladd@b+1
  3273  08A3  0830               	movf	___flsub@b,w
  3274  08A4  00F2               	movwf	___fladd@b
  3275  08A5  082F               	movf	___flsub@a+3,w
  3276  08A6  00F9               	movwf	___fladd@a+3
  3277  08A7  082E               	movf	___flsub@a+2,w
  3278  08A8  00F8               	movwf	___fladd@a+2
  3279  08A9  082D               	movf	___flsub@a+1,w
  3280  08AA  00F7               	movwf	___fladd@a+1
  3281  08AB  082C               	movf	___flsub@a,w
  3282  08AC  00F6               	movwf	___fladd@a
  3283  08AD  120A  118A  237C  120A  158A  	fcall	___fladd
  3284  08B2  0875               	movf	?___fladd+3,w
  3285  08B3  1283               	bcf	3,5	;RP0=0, select bank0
  3286  08B4  1303               	bcf	3,6	;RP1=0, select bank0
  3287  08B5  00AF               	movwf	?___flsub+3
  3288  08B6  0874               	movf	?___fladd+2,w
  3289  08B7  00AE               	movwf	?___flsub+2
  3290  08B8  0873               	movf	?___fladd+1,w
  3291  08B9  00AD               	movwf	?___flsub+1
  3292  08BA  0872               	movf	?___fladd,w
  3293  08BB  00AC               	movwf	?___flsub
  3294  08BC                     l633:
  3295  08BC  0008               	return
  3296  08BD                     __end_of___flsub:
  3297                           
  3298                           	psect	text13
  3299  037C                     __ptext13:	
  3300 ;; *************** function ___fladd *****************
  3301 ;; Defined at:
  3302 ;;		line 10 in file "C:\Program Files\Microchip\xc8\v2.31\pic\sources\c90\common\sprcadd.c"
  3303 ;; Parameters:    Size  Location     Type
  3304 ;;  b               4    2[COMMON] long 
  3305 ;;  a               4    6[COMMON] long 
  3306 ;; Auto vars:     Size  Location     Type
  3307 ;;  grs             1   11[BANK0 ] unsigned char 
  3308 ;;  bexp            1   10[BANK0 ] unsigned char 
  3309 ;;  aexp            1    9[BANK0 ] unsigned char 
  3310 ;;  signs           1    8[BANK0 ] unsigned char 
  3311 ;; Return value:  Size  Location     Type
  3312 ;;                  4    2[COMMON] unsigned char 
  3313 ;; Registers used:
  3314 ;;		wreg, status,2, status,0, btemp+1
  3315 ;; Tracked objects:
  3316 ;;		On entry : 0/0
  3317 ;;		On exit  : 0/0
  3318 ;;		Unchanged: 0/0
  3319 ;; Data sizes:     COMMON   BANK0   BANK1   BANK3   BANK2
  3320 ;;      Params:         8       0       0       0       0
  3321 ;;      Locals:         0       4       0       0       0
  3322 ;;      Temps:          0       8       0       0       0
  3323 ;;      Totals:         8      12       0       0       0
  3324 ;;Total ram usage:       20 bytes
  3325 ;; Hardware stack levels used:    1
  3326 ;; Hardware stack levels required when called:    1
  3327 ;; This function calls:
  3328 ;;		Nothing
  3329 ;; This function is called by:
  3330 ;;		___flsub
  3331 ;; This function uses a non-reentrant model
  3332 ;;
  3333                           
  3334                           
  3335                           ;psect for function ___fladd
  3336  037C                     ___fladd:
  3337  037C                     l1798:	
  3338                           ;incstack = 0
  3339                           ; Regs used in ___fladd: [wreg+status,2+status,0+btemp+1]
  3340                           
  3341  037C  0875               	movf	___fladd@b+3,w
  3342  037D  3980               	andlw	128
  3343  037E  1283               	bcf	3,5	;RP0=0, select bank0
  3344  037F  1303               	bcf	3,6	;RP1=0, select bank0
  3345  0380  00A0               	movwf	??___fladd
  3346  0381  0820               	movf	??___fladd,w
  3347  0382  00A8               	movwf	___fladd@signs
  3348  0383                     l1800:
  3349  0383  0875               	movf	___fladd@b+3,w
  3350  0384  00A0               	movwf	??___fladd
  3351  0385  0720               	addwf	??___fladd,w
  3352  0386  00A1               	movwf	??___fladd+1
  3353  0387  0821               	movf	??___fladd+1,w
  3354  0388  00AA               	movwf	___fladd@bexp
  3355  0389                     l1802:
  3356  0389  1FF4               	btfss	___fladd@b+2,7
  3357  038A  2B8C               	goto	u1881
  3358  038B  2B8D               	goto	u1880
  3359  038C                     u1881:
  3360  038C  2B8E               	goto	l1806
  3361  038D                     u1880:
  3362  038D                     l1804:
  3363  038D  142A               	bsf	___fladd@bexp,0
  3364  038E                     l1806:
  3365  038E  082A               	movf	___fladd@bexp,w
  3366  038F  1903               	btfsc	3,2
  3367  0390  2B92               	goto	u1891
  3368  0391  2B93               	goto	u1890
  3369  0392                     u1891:
  3370  0392  2BA3               	goto	l1816
  3371  0393                     u1890:
  3372  0393                     l1808:
  3373  0393  0A2A               	incf	___fladd@bexp,w
  3374  0394  1D03               	btfss	3,2
  3375  0395  2B97               	goto	u1901
  3376  0396  2B98               	goto	u1900
  3377  0397                     u1901:
  3378  0397  2BA0               	goto	l1812
  3379  0398                     u1900:
  3380  0398                     l1810:
  3381  0398  3000               	movlw	0
  3382  0399  00F5               	movwf	___fladd@b+3
  3383  039A  3000               	movlw	0
  3384  039B  00F4               	movwf	___fladd@b+2
  3385  039C  3000               	movlw	0
  3386  039D  00F3               	movwf	___fladd@b+1
  3387  039E  3000               	movlw	0
  3388  039F  00F2               	movwf	___fladd@b
  3389  03A0                     l1812:
  3390  03A0  17F4               	bsf	___fladd@b+2,7
  3391  03A1                     l1814:
  3392  03A1  01F5               	clrf	___fladd@b+3
  3393  03A2  2BAB               	goto	l1818
  3394  03A3                     l1816:
  3395  03A3  3000               	movlw	0
  3396  03A4  00F5               	movwf	___fladd@b+3
  3397  03A5  3000               	movlw	0
  3398  03A6  00F4               	movwf	___fladd@b+2
  3399  03A7  3000               	movlw	0
  3400  03A8  00F3               	movwf	___fladd@b+1
  3401  03A9  3000               	movlw	0
  3402  03AA  00F2               	movwf	___fladd@b
  3403  03AB                     l1818:
  3404  03AB  0879               	movf	___fladd@a+3,w
  3405  03AC  3980               	andlw	128
  3406  03AD  00A0               	movwf	??___fladd
  3407  03AE  0820               	movf	??___fladd,w
  3408  03AF  00A9               	movwf	___fladd@aexp
  3409  03B0                     l1820:
  3410  03B0  0829               	movf	___fladd@aexp,w
  3411  03B1  0628               	xorwf	___fladd@signs,w
  3412  03B2  1903               	skipnz
  3413  03B3  2BB5               	goto	u1911
  3414  03B4  2BB6               	goto	u1910
  3415  03B5                     u1911:
  3416  03B5  2BB7               	goto	l1824
  3417  03B6                     u1910:
  3418  03B6                     l1822:
  3419  03B6  1728               	bsf	___fladd@signs,6
  3420  03B7                     l1824:
  3421  03B7  0879               	movf	___fladd@a+3,w
  3422  03B8  00A0               	movwf	??___fladd
  3423  03B9  0720               	addwf	??___fladd,w
  3424  03BA  00A1               	movwf	??___fladd+1
  3425  03BB  0821               	movf	??___fladd+1,w
  3426  03BC  00A9               	movwf	___fladd@aexp
  3427  03BD                     l1826:
  3428  03BD  1FF8               	btfss	___fladd@a+2,7
  3429  03BE  2BC0               	goto	u1921
  3430  03BF  2BC1               	goto	u1920
  3431  03C0                     u1921:
  3432  03C0  2BC2               	goto	l1830
  3433  03C1                     u1920:
  3434  03C1                     l1828:
  3435  03C1  1429               	bsf	___fladd@aexp,0
  3436  03C2                     l1830:
  3437  03C2  0829               	movf	___fladd@aexp,w
  3438  03C3  1903               	btfsc	3,2
  3439  03C4  2BC6               	goto	u1931
  3440  03C5  2BC7               	goto	u1930
  3441  03C6                     u1931:
  3442  03C6  2BD7               	goto	l1840
  3443  03C7                     u1930:
  3444  03C7                     l1832:
  3445  03C7  0A29               	incf	___fladd@aexp,w
  3446  03C8  1D03               	btfss	3,2
  3447  03C9  2BCB               	goto	u1941
  3448  03CA  2BCC               	goto	u1940
  3449  03CB                     u1941:
  3450  03CB  2BD4               	goto	l1836
  3451  03CC                     u1940:
  3452  03CC                     l1834:
  3453  03CC  3000               	movlw	0
  3454  03CD  00F9               	movwf	___fladd@a+3
  3455  03CE  3000               	movlw	0
  3456  03CF  00F8               	movwf	___fladd@a+2
  3457  03D0  3000               	movlw	0
  3458  03D1  00F7               	movwf	___fladd@a+1
  3459  03D2  3000               	movlw	0
  3460  03D3  00F6               	movwf	___fladd@a
  3461  03D4                     l1836:
  3462  03D4  17F8               	bsf	___fladd@a+2,7
  3463  03D5                     l1838:
  3464  03D5  01F9               	clrf	___fladd@a+3
  3465  03D6  2BDF               	goto	l587
  3466  03D7                     l1840:
  3467  03D7  3000               	movlw	0
  3468  03D8  00F9               	movwf	___fladd@a+3
  3469  03D9  3000               	movlw	0
  3470  03DA  00F8               	movwf	___fladd@a+2
  3471  03DB  3000               	movlw	0
  3472  03DC  00F7               	movwf	___fladd@a+1
  3473  03DD  3000               	movlw	0
  3474  03DE  00F6               	movwf	___fladd@a
  3475  03DF                     l587:
  3476  03DF  082A               	movf	___fladd@bexp,w
  3477  03E0  0229               	subwf	___fladd@aexp,w
  3478  03E1  1803               	skipnc
  3479  03E2  2BE4               	goto	u1951
  3480  03E3  2BE5               	goto	u1950
  3481  03E4                     u1951:
  3482  03E4  2C29               	goto	l1876
  3483  03E5                     u1950:
  3484  03E5                     l1842:
  3485  03E5  1F28               	btfss	___fladd@signs,6
  3486  03E6  2BE8               	goto	u1961
  3487  03E7  2BE9               	goto	u1960
  3488  03E8                     u1961:
  3489  03E8  2BED               	goto	l1846
  3490  03E9                     u1960:
  3491  03E9                     l1844:
  3492  03E9  3080               	movlw	128
  3493  03EA  00A0               	movwf	??___fladd
  3494  03EB  0820               	movf	??___fladd,w
  3495  03EC  06A8               	xorwf	___fladd@signs,f
  3496  03ED                     l1846:
  3497  03ED  082A               	movf	___fladd@bexp,w
  3498  03EE  00A0               	movwf	??___fladd
  3499  03EF  0820               	movf	??___fladd,w
  3500  03F0  00AB               	movwf	___fladd@grs
  3501  03F1                     l1848:
  3502  03F1  0829               	movf	___fladd@aexp,w
  3503  03F2  00A0               	movwf	??___fladd
  3504  03F3  0820               	movf	??___fladd,w
  3505  03F4  00AA               	movwf	___fladd@bexp
  3506  03F5                     l1850:
  3507  03F5  082B               	movf	___fladd@grs,w
  3508  03F6  00A0               	movwf	??___fladd
  3509  03F7  0820               	movf	??___fladd,w
  3510  03F8  00A9               	movwf	___fladd@aexp
  3511  03F9                     l1852:
  3512  03F9  0872               	movf	___fladd@b,w
  3513  03FA  00A0               	movwf	??___fladd
  3514  03FB  0820               	movf	??___fladd,w
  3515  03FC  00AB               	movwf	___fladd@grs
  3516  03FD                     l1854:
  3517  03FD  0876               	movf	___fladd@a,w
  3518  03FE  00A0               	movwf	??___fladd
  3519  03FF  0820               	movf	??___fladd,w
  3520  0400  00F2               	movwf	___fladd@b
  3521  0401                     l1856:
  3522  0401  082B               	movf	___fladd@grs,w
  3523  0402  00A0               	movwf	??___fladd
  3524  0403  0820               	movf	??___fladd,w
  3525  0404  00F6               	movwf	___fladd@a
  3526  0405                     l1858:
  3527  0405  0873               	movf	___fladd@b+1,w
  3528  0406  00A0               	movwf	??___fladd
  3529  0407  0820               	movf	??___fladd,w
  3530  0408  00AB               	movwf	___fladd@grs
  3531  0409                     l1860:
  3532  0409  0877               	movf	___fladd@a+1,w
  3533  040A  00A0               	movwf	??___fladd
  3534  040B  0820               	movf	??___fladd,w
  3535  040C  00F3               	movwf	___fladd@b+1
  3536  040D                     l1862:
  3537  040D  082B               	movf	___fladd@grs,w
  3538  040E  00A0               	movwf	??___fladd
  3539  040F  0820               	movf	??___fladd,w
  3540  0410  00F7               	movwf	___fladd@a+1
  3541  0411                     l1864:
  3542  0411  0874               	movf	___fladd@b+2,w
  3543  0412  00A0               	movwf	??___fladd
  3544  0413  0820               	movf	??___fladd,w
  3545  0414  00AB               	movwf	___fladd@grs
  3546  0415                     l1866:
  3547  0415  0878               	movf	___fladd@a+2,w
  3548  0416  00A0               	movwf	??___fladd
  3549  0417  0820               	movf	??___fladd,w
  3550  0418  00F4               	movwf	___fladd@b+2
  3551  0419                     l1868:
  3552  0419  082B               	movf	___fladd@grs,w
  3553  041A  00A0               	movwf	??___fladd
  3554  041B  0820               	movf	??___fladd,w
  3555  041C  00F8               	movwf	___fladd@a+2
  3556  041D                     l1870:
  3557  041D  0875               	movf	___fladd@b+3,w
  3558  041E  00A0               	movwf	??___fladd
  3559  041F  0820               	movf	??___fladd,w
  3560  0420  00AB               	movwf	___fladd@grs
  3561  0421                     l1872:
  3562  0421  0879               	movf	___fladd@a+3,w
  3563  0422  00A0               	movwf	??___fladd
  3564  0423  0820               	movf	??___fladd,w
  3565  0424  00F5               	movwf	___fladd@b+3
  3566  0425                     l1874:
  3567  0425  082B               	movf	___fladd@grs,w
  3568  0426  00A0               	movwf	??___fladd
  3569  0427  0820               	movf	??___fladd,w
  3570  0428  00F9               	movwf	___fladd@a+3
  3571  0429                     l1876:
  3572  0429  01AB               	clrf	___fladd@grs
  3573  042A                     l1878:
  3574  042A  0829               	movf	___fladd@aexp,w
  3575  042B  00A0               	movwf	??___fladd
  3576  042C  01A1               	clrf	??___fladd+1
  3577  042D  0821               	movf	??___fladd+1,w
  3578  042E  00A3               	movwf	??___fladd+3
  3579  042F  082A               	movf	___fladd@bexp,w
  3580  0430  0220               	subwf	??___fladd,w
  3581  0431  00A2               	movwf	??___fladd+2
  3582  0432  1C03               	skipc
  3583  0433  03A3               	decf	??___fladd+3,f
  3584  0434  0823               	movf	??___fladd+3,w
  3585  0435  3A80               	xorlw	128
  3586  0436  00FF               	movwf	btemp+1
  3587  0437  3080               	movlw	128
  3588  0438  027F               	subwf	btemp+1,w
  3589  0439  1D03               	skipz
  3590  043A  2C3D               	goto	u1975
  3591  043B  301A               	movlw	26
  3592  043C  0222               	subwf	??___fladd+2,w
  3593  043D                     u1975:
  3594  043D  1C03               	skipc
  3595  043E  2C40               	goto	u1971
  3596  043F  2C41               	goto	u1970
  3597  0440                     u1971:
  3598  0440  2C7E               	goto	l1894
  3599  0441                     u1970:
  3600  0441                     l1880:
  3601  0441  0875               	movf	___fladd@b+3,w
  3602  0442  0474               	iorwf	___fladd@b+2,w
  3603  0443  0473               	iorwf	___fladd@b+1,w
  3604  0444  0472               	iorwf	___fladd@b,w
  3605  0445  1D03               	skipz
  3606  0446  2C48               	goto	u1981
  3607  0447  2C4A               	goto	u1980
  3608  0448                     u1981:
  3609  0448  3001               	movlw	1
  3610  0449  2C4B               	goto	u1990
  3611  044A                     u1980:
  3612  044A  3000               	movlw	0
  3613  044B                     u1990:
  3614  044B  1283               	bcf	3,5	;RP0=0, select bank0
  3615  044C  1303               	bcf	3,6	;RP1=0, select bank0
  3616  044D  00A0               	movwf	??___fladd
  3617  044E  0820               	movf	??___fladd,w
  3618  044F  00AB               	movwf	___fladd@grs
  3619  0450  3000               	movlw	0
  3620  0451  00F5               	movwf	___fladd@b+3
  3621  0452  3000               	movlw	0
  3622  0453  00F4               	movwf	___fladd@b+2
  3623  0454  3000               	movlw	0
  3624  0455  00F3               	movwf	___fladd@b+1
  3625  0456  3000               	movlw	0
  3626  0457  00F2               	movwf	___fladd@b
  3627  0458  0829               	movf	___fladd@aexp,w
  3628  0459  00A0               	movwf	??___fladd
  3629  045A  0820               	movf	??___fladd,w
  3630  045B  00AA               	movwf	___fladd@bexp
  3631  045C  2C86               	goto	l591
  3632  045D                     l593:
  3633  045D  1C2B               	btfss	___fladd@grs,0
  3634  045E  2C60               	goto	u2001
  3635  045F  2C61               	goto	u2000
  3636  0460                     u2001:
  3637  0460  2C6A               	goto	l1884
  3638  0461                     u2000:
  3639  0461                     l1882:
  3640  0461  082B               	movf	___fladd@grs,w
  3641  0462  00A0               	movwf	??___fladd
  3642  0463  1003               	clrc
  3643  0464  0C20               	rrf	??___fladd,w
  3644  0465  3801               	iorlw	1
  3645  0466  00A1               	movwf	??___fladd+1
  3646  0467  0821               	movf	??___fladd+1,w
  3647  0468  00AB               	movwf	___fladd@grs
  3648  0469  2C6C               	goto	l1886
  3649  046A                     l1884:
  3650  046A  1003               	clrc
  3651  046B  0CAB               	rrf	___fladd@grs,f
  3652  046C                     l1886:
  3653  046C  1C72               	btfss	___fladd@b,0
  3654  046D  2C6F               	goto	u2011
  3655  046E  2C70               	goto	u2010
  3656  046F                     u2011:
  3657  046F  2C71               	goto	l1890
  3658  0470                     u2010:
  3659  0470                     l1888:
  3660  0470  17AB               	bsf	___fladd@grs,7
  3661  0471                     l1890:
  3662  0471  3001               	movlw	1
  3663  0472  00A0               	movwf	??___fladd
  3664  0473                     u2025:
  3665  0473  0D75               	rlf	___fladd@b+3,w
  3666  0474  0CF5               	rrf	___fladd@b+3,f
  3667  0475  0CF4               	rrf	___fladd@b+2,f
  3668  0476  0CF3               	rrf	___fladd@b+1,f
  3669  0477  0CF2               	rrf	___fladd@b,f
  3670  0478  0BA0               	decfsz	??___fladd& (0+127),f
  3671  0479  2C73               	goto	u2025
  3672  047A                     l1892:
  3673  047A  3001               	movlw	1
  3674  047B  00A0               	movwf	??___fladd
  3675  047C  0820               	movf	??___fladd,w
  3676  047D  07AA               	addwf	___fladd@bexp,f
  3677  047E                     l1894:
  3678  047E  1283               	bcf	3,5	;RP0=0, select bank0
  3679  047F  1303               	bcf	3,6	;RP1=0, select bank0
  3680  0480  0829               	movf	___fladd@aexp,w
  3681  0481  022A               	subwf	___fladd@bexp,w
  3682  0482  1C03               	skipc
  3683  0483  2C85               	goto	u2031
  3684  0484  2C86               	goto	u2030
  3685  0485                     u2031:
  3686  0485  2C5D               	goto	l593
  3687  0486                     u2030:
  3688  0486                     l591:
  3689  0486  1B28               	btfsc	___fladd@signs,6
  3690  0487  2C89               	goto	u2041
  3691  0488  2C8A               	goto	u2040
  3692  0489                     u2041:
  3693  0489  2CD5               	goto	l1920
  3694  048A                     u2040:
  3695  048A                     l1896:
  3696  048A  082A               	movf	___fladd@bexp,w
  3697  048B  1D03               	btfss	3,2
  3698  048C  2C8E               	goto	u2051
  3699  048D  2C8F               	goto	u2050
  3700  048E                     u2051:
  3701  048E  2C98               	goto	l1902
  3702  048F                     u2050:
  3703  048F                     l1898:
  3704  048F  3000               	movlw	0
  3705  0490  00F5               	movwf	?___fladd+3
  3706  0491  3000               	movlw	0
  3707  0492  00F4               	movwf	?___fladd+2
  3708  0493  3000               	movlw	0
  3709  0494  00F3               	movwf	?___fladd+1
  3710  0495  3000               	movlw	0
  3711  0496  00F2               	movwf	?___fladd
  3712  0497  2E03               	goto	l600
  3713  0498                     l1902:
  3714  0498  0876               	movf	___fladd@a,w
  3715  0499  07F2               	addwf	___fladd@b,f
  3716  049A  0877               	movf	___fladd@a+1,w
  3717  049B  1103               	clrz
  3718  049C  1803               	skipnc
  3719  049D  3E01               	addlw	1
  3720  049E  1903               	skipnz
  3721  049F  2CA1               	goto	u2061
  3722  04A0  07F3               	addwf	___fladd@b+1,f
  3723  04A1                     u2061:
  3724  04A1  0878               	movf	___fladd@a+2,w
  3725  04A2  1103               	clrz
  3726  04A3  1803               	skipnc
  3727  04A4  3E01               	addlw	1
  3728  04A5  1903               	skipnz
  3729  04A6  2CA8               	goto	u2062
  3730  04A7  07F4               	addwf	___fladd@b+2,f
  3731  04A8                     u2062:
  3732  04A8  0879               	movf	___fladd@a+3,w
  3733  04A9  1103               	clrz
  3734  04AA  1803               	skipnc
  3735  04AB  3E01               	addlw	1
  3736  04AC  1903               	skipnz
  3737  04AD  2CAF               	goto	u2063
  3738  04AE  07F5               	addwf	___fladd@b+3,f
  3739  04AF                     u2063:
  3740  04AF                     l1904:
  3741  04AF  1C75               	btfss	___fladd@b+3,0
  3742  04B0  2CB2               	goto	u2071
  3743  04B1  2CB3               	goto	u2070
  3744  04B2                     u2071:
  3745  04B2  2D89               	goto	l1954
  3746  04B3                     u2070:
  3747  04B3                     l1906:
  3748  04B3  1C2B               	btfss	___fladd@grs,0
  3749  04B4  2CB6               	goto	u2081
  3750  04B5  2CB7               	goto	u2080
  3751  04B6                     u2081:
  3752  04B6  2CC0               	goto	l1910
  3753  04B7                     u2080:
  3754  04B7                     l1908:
  3755  04B7  082B               	movf	___fladd@grs,w
  3756  04B8  00A0               	movwf	??___fladd
  3757  04B9  1003               	clrc
  3758  04BA  0C20               	rrf	??___fladd,w
  3759  04BB  3801               	iorlw	1
  3760  04BC  00A1               	movwf	??___fladd+1
  3761  04BD  0821               	movf	??___fladd+1,w
  3762  04BE  00AB               	movwf	___fladd@grs
  3763  04BF  2CC2               	goto	l1912
  3764  04C0                     l1910:
  3765  04C0  1003               	clrc
  3766  04C1  0CAB               	rrf	___fladd@grs,f
  3767  04C2                     l1912:
  3768  04C2  1C72               	btfss	___fladd@b,0
  3769  04C3  2CC5               	goto	u2091
  3770  04C4  2CC6               	goto	u2090
  3771  04C5                     u2091:
  3772  04C5  2CC7               	goto	l1916
  3773  04C6                     u2090:
  3774  04C6                     l1914:
  3775  04C6  17AB               	bsf	___fladd@grs,7
  3776  04C7                     l1916:
  3777  04C7  3001               	movlw	1
  3778  04C8  00A0               	movwf	??___fladd
  3779  04C9                     u2105:
  3780  04C9  0D75               	rlf	___fladd@b+3,w
  3781  04CA  0CF5               	rrf	___fladd@b+3,f
  3782  04CB  0CF4               	rrf	___fladd@b+2,f
  3783  04CC  0CF3               	rrf	___fladd@b+1,f
  3784  04CD  0CF2               	rrf	___fladd@b,f
  3785  04CE  0BA0               	decfsz	??___fladd& (0+127),f
  3786  04CF  2CC9               	goto	u2105
  3787  04D0                     l1918:
  3788  04D0  3001               	movlw	1
  3789  04D1  00A0               	movwf	??___fladd
  3790  04D2  0820               	movf	??___fladd,w
  3791  04D3  07AA               	addwf	___fladd@bexp,f
  3792  04D4  2D89               	goto	l1954
  3793  04D5                     l1920:
  3794  04D5  0875               	movf	___fladd@b+3,w
  3795  04D6  3A80               	xorlw	128
  3796  04D7  00FF               	movwf	btemp+1
  3797  04D8  0879               	movf	___fladd@a+3,w
  3798  04D9  3A80               	xorlw	128
  3799  04DA  027F               	subwf	btemp+1,w
  3800  04DB  1D03               	skipz
  3801  04DC  2CE7               	goto	u2113
  3802  04DD  0878               	movf	___fladd@a+2,w
  3803  04DE  0274               	subwf	___fladd@b+2,w
  3804  04DF  1D03               	skipz
  3805  04E0  2CE7               	goto	u2113
  3806  04E1  0877               	movf	___fladd@a+1,w
  3807  04E2  0273               	subwf	___fladd@b+1,w
  3808  04E3  1D03               	skipz
  3809  04E4  2CE7               	goto	u2113
  3810  04E5  0876               	movf	___fladd@a,w
  3811  04E6  0272               	subwf	___fladd@b,w
  3812  04E7                     u2113:
  3813  04E7  1803               	skipnc
  3814  04E8  2CEA               	goto	u2111
  3815  04E9  2CEB               	goto	u2110
  3816  04EA                     u2111:
  3817  04EA  2D43               	goto	l1930
  3818  04EB                     u2110:
  3819  04EB                     l1922:
  3820  04EB  30FF               	movlw	255
  3821  04EC  00A0               	movwf	??___fladd
  3822  04ED  30FF               	movlw	255
  3823  04EE  00A1               	movwf	??___fladd+1
  3824  04EF  30FF               	movlw	255
  3825  04F0  00A2               	movwf	??___fladd+2
  3826  04F1  30FF               	movlw	255
  3827  04F2  00A3               	movwf	??___fladd+3
  3828  04F3  0876               	movf	___fladd@a,w
  3829  04F4  00A4               	movwf	??___fladd+4
  3830  04F5  0877               	movf	___fladd@a+1,w
  3831  04F6  00A5               	movwf	??___fladd+5
  3832  04F7  0878               	movf	___fladd@a+2,w
  3833  04F8  00A6               	movwf	??___fladd+6
  3834  04F9  0879               	movf	___fladd@a+3,w
  3835  04FA  00A7               	movwf	??___fladd+7
  3836  04FB  0872               	movf	___fladd@b,w
  3837  04FC  02A4               	subwf	??___fladd+4,f
  3838  04FD  0873               	movf	___fladd@b+1,w
  3839  04FE  1C03               	skipc
  3840  04FF  0F73               	incfsz	___fladd@b+1,w
  3841  0500  2D02               	goto	u2121
  3842  0501  2D03               	goto	u2122
  3843  0502                     u2121:
  3844  0502  02A5               	subwf	??___fladd+5,f
  3845  0503                     u2122:
  3846  0503  0874               	movf	___fladd@b+2,w
  3847  0504  1C03               	skipc
  3848  0505  0F74               	incfsz	___fladd@b+2,w
  3849  0506  2D08               	goto	u2123
  3850  0507  2D09               	goto	u2124
  3851  0508                     u2123:
  3852  0508  02A6               	subwf	??___fladd+6,f
  3853  0509                     u2124:
  3854  0509  0875               	movf	___fladd@b+3,w
  3855  050A  1C03               	skipc
  3856  050B  0F75               	incfsz	___fladd@b+3,w
  3857  050C  2D0E               	goto	u2125
  3858  050D  2D0F               	goto	u2126
  3859  050E                     u2125:
  3860  050E  02A7               	subwf	??___fladd+7,f
  3861  050F                     u2126:
  3862  050F  0824               	movf	??___fladd+4,w
  3863  0510  07A0               	addwf	??___fladd,f
  3864  0511  0825               	movf	??___fladd+5,w
  3865  0512  1803               	skipnc
  3866  0513  0F25               	incfsz	??___fladd+5,w
  3867  0514  2D16               	goto	u2130
  3868  0515  2D17               	goto	u2131
  3869  0516                     u2130:
  3870  0516  07A1               	addwf	??___fladd+1,f
  3871  0517                     u2131:
  3872  0517  0826               	movf	??___fladd+6,w
  3873  0518  1803               	skipnc
  3874  0519  0F26               	incfsz	??___fladd+6,w
  3875  051A  2D1C               	goto	u2132
  3876  051B  2D1D               	goto	u2133
  3877  051C                     u2132:
  3878  051C  07A2               	addwf	??___fladd+2,f
  3879  051D                     u2133:
  3880  051D  0827               	movf	??___fladd+7,w
  3881  051E  1803               	skipnc
  3882  051F  0A27               	incf	??___fladd+7,w
  3883  0520  07A3               	addwf	??___fladd+3,f
  3884  0521  0823               	movf	??___fladd+3,w
  3885  0522  00F5               	movwf	___fladd@b+3
  3886  0523  0822               	movf	??___fladd+2,w
  3887  0524  00F4               	movwf	___fladd@b+2
  3888  0525  0821               	movf	??___fladd+1,w
  3889  0526  00F3               	movwf	___fladd@b+1
  3890  0527  0820               	movf	??___fladd,w
  3891  0528  00F2               	movwf	___fladd@b
  3892  0529                     l1924:
  3893  0529  3080               	movlw	128
  3894  052A  00A0               	movwf	??___fladd
  3895  052B  0820               	movf	??___fladd,w
  3896  052C  06A8               	xorwf	___fladd@signs,f
  3897  052D  09AB               	comf	___fladd@grs,f
  3898  052E  0AAB               	incf	___fladd@grs,f
  3899  052F                     l1926:
  3900  052F  082B               	movf	___fladd@grs,w
  3901  0530  1D03               	btfss	3,2
  3902  0531  2D33               	goto	u2141
  3903  0532  2D34               	goto	u2140
  3904  0533                     u2141:
  3905  0533  2D51               	goto	l608
  3906  0534                     u2140:
  3907  0534                     l1928:
  3908  0534  3001               	movlw	1
  3909  0535  07F2               	addwf	___fladd@b,f
  3910  0536  3000               	movlw	0
  3911  0537  1803               	skipnc
  3912  0538  3001               	movlw	1
  3913  0539  07F3               	addwf	___fladd@b+1,f
  3914  053A  3000               	movlw	0
  3915  053B  1803               	skipnc
  3916  053C  3001               	movlw	1
  3917  053D  07F4               	addwf	___fladd@b+2,f
  3918  053E  3000               	movlw	0
  3919  053F  1803               	skipnc
  3920  0540  3001               	movlw	1
  3921  0541  07F5               	addwf	___fladd@b+3,f
  3922  0542  2D51               	goto	l608
  3923  0543                     l1930:
  3924  0543  0876               	movf	___fladd@a,w
  3925  0544  02F2               	subwf	___fladd@b,f
  3926  0545  0877               	movf	___fladd@a+1,w
  3927  0546  1C03               	skipc
  3928  0547  0F77               	incfsz	___fladd@a+1,w
  3929  0548  02F3               	subwf	___fladd@b+1,f
  3930  0549  0878               	movf	___fladd@a+2,w
  3931  054A  1C03               	skipc
  3932  054B  0F78               	incfsz	___fladd@a+2,w
  3933  054C  02F4               	subwf	___fladd@b+2,f
  3934  054D  0879               	movf	___fladd@a+3,w
  3935  054E  1C03               	skipc
  3936  054F  0F79               	incfsz	___fladd@a+3,w
  3937  0550  02F5               	subwf	___fladd@b+3,f
  3938  0551                     l608:
  3939  0551  0875               	movf	___fladd@b+3,w
  3940  0552  0474               	iorwf	___fladd@b+2,w
  3941  0553  0473               	iorwf	___fladd@b+1,w
  3942  0554  0472               	iorwf	___fladd@b,w
  3943  0555  1D03               	skipz
  3944  0556  2D58               	goto	u2151
  3945  0557  2D59               	goto	u2150
  3946  0558                     u2151:
  3947  0558  2D85               	goto	l1952
  3948  0559                     u2150:
  3949  0559                     l1932:
  3950  0559  082B               	movf	___fladd@grs,w
  3951  055A  1D03               	btfss	3,2
  3952  055B  2D5D               	goto	u2161
  3953  055C  2D5E               	goto	u2160
  3954  055D                     u2161:
  3955  055D  2D85               	goto	l1952
  3956  055E                     u2160:
  3957  055E                     l1934:
  3958  055E  3000               	movlw	0
  3959  055F  00F5               	movwf	?___fladd+3
  3960  0560  3000               	movlw	0
  3961  0561  00F4               	movwf	?___fladd+2
  3962  0562  3000               	movlw	0
  3963  0563  00F3               	movwf	?___fladd+1
  3964  0564  3000               	movlw	0
  3965  0565  00F2               	movwf	?___fladd
  3966  0566  2E03               	goto	l600
  3967  0567                     l1938:
  3968  0567  3001               	movlw	1
  3969  0568  00A0               	movwf	??___fladd
  3970  0569                     u2175:
  3971  0569  1003               	clrc
  3972  056A  0DF2               	rlf	___fladd@b,f
  3973  056B  0DF3               	rlf	___fladd@b+1,f
  3974  056C  0DF4               	rlf	___fladd@b+2,f
  3975  056D  0DF5               	rlf	___fladd@b+3,f
  3976  056E  0BA0               	decfsz	??___fladd,f
  3977  056F  2D69               	goto	u2175
  3978  0570                     l1940:
  3979  0570  1FAB               	btfss	___fladd@grs,7
  3980  0571  2D73               	goto	u2181
  3981  0572  2D74               	goto	u2180
  3982  0573                     u2181:
  3983  0573  2D75               	goto	l612
  3984  0574                     u2180:
  3985  0574                     l1942:
  3986  0574  1472               	bsf	___fladd@b,0
  3987  0575                     l612:
  3988  0575  1C2B               	btfss	___fladd@grs,0
  3989  0576  2D78               	goto	u2191
  3990  0577  2D79               	goto	u2190
  3991  0578                     u2191:
  3992  0578  2D7C               	goto	l1946
  3993  0579                     u2190:
  3994  0579                     l1944:
  3995  0579  1403               	setc
  3996  057A  0DAB               	rlf	___fladd@grs,f
  3997  057B  2D7E               	goto	l1948
  3998  057C                     l1946:
  3999  057C  1003               	clrc
  4000  057D  0DAB               	rlf	___fladd@grs,f
  4001  057E                     l1948:
  4002  057E  082A               	movf	___fladd@bexp,w
  4003  057F  1903               	btfsc	3,2
  4004  0580  2D82               	goto	u2201
  4005  0581  2D83               	goto	u2200
  4006  0582                     u2201:
  4007  0582  2D85               	goto	l1952
  4008  0583                     u2200:
  4009  0583                     l1950:
  4010  0583  3001               	movlw	1
  4011  0584  02AA               	subwf	___fladd@bexp,f
  4012  0585                     l1952:
  4013  0585  1FF4               	btfss	___fladd@b+2,7
  4014  0586  2D88               	goto	u2211
  4015  0587  2D89               	goto	u2210
  4016  0588                     u2211:
  4017  0588  2D67               	goto	l1938
  4018  0589                     u2210:
  4019  0589                     l1954:
  4020  0589  01A9               	clrf	___fladd@aexp
  4021  058A                     l1956:
  4022  058A  1FAB               	btfss	___fladd@grs,7
  4023  058B  2D8D               	goto	u2221
  4024  058C  2D8E               	goto	u2220
  4025  058D                     u2221:
  4026  058D  2D9C               	goto	l1964
  4027  058E                     u2220:
  4028  058E                     l1958:
  4029  058E  082B               	movf	___fladd@grs,w
  4030  058F  397F               	andlw	127
  4031  0590  1903               	btfsc	3,2
  4032  0591  2D93               	goto	u2231
  4033  0592  2D94               	goto	u2230
  4034  0593                     u2231:
  4035  0593  2D97               	goto	l618
  4036  0594                     u2230:
  4037  0594                     l1960:
  4038  0594  01A9               	clrf	___fladd@aexp
  4039  0595  0AA9               	incf	___fladd@aexp,f
  4040  0596  2D9C               	goto	l1964
  4041  0597                     l618:
  4042  0597  1C72               	btfss	___fladd@b,0
  4043  0598  2D9A               	goto	u2241
  4044  0599  2D9B               	goto	u2240
  4045  059A                     u2241:
  4046  059A  2D9C               	goto	l1964
  4047  059B                     u2240:
  4048  059B  2D94               	goto	l1960
  4049  059C                     l1964:
  4050  059C  0829               	movf	___fladd@aexp,w
  4051  059D  1903               	btfsc	3,2
  4052  059E  2DA0               	goto	u2251
  4053  059F  2DA1               	goto	u2250
  4054  05A0                     u2251:
  4055  05A0  2DD5               	goto	l621
  4056  05A1                     u2250:
  4057  05A1                     l1966:
  4058  05A1  3001               	movlw	1
  4059  05A2  07F2               	addwf	___fladd@b,f
  4060  05A3  3000               	movlw	0
  4061  05A4  1803               	skipnc
  4062  05A5  3001               	movlw	1
  4063  05A6  07F3               	addwf	___fladd@b+1,f
  4064  05A7  3000               	movlw	0
  4065  05A8  1803               	skipnc
  4066  05A9  3001               	movlw	1
  4067  05AA  07F4               	addwf	___fladd@b+2,f
  4068  05AB  3000               	movlw	0
  4069  05AC  1803               	skipnc
  4070  05AD  3001               	movlw	1
  4071  05AE  07F5               	addwf	___fladd@b+3,f
  4072  05AF                     l1968:
  4073  05AF  1C75               	btfss	___fladd@b+3,0
  4074  05B0  2DB2               	goto	u2261
  4075  05B1  2DB3               	goto	u2260
  4076  05B2                     u2261:
  4077  05B2  2DD5               	goto	l621
  4078  05B3                     u2260:
  4079  05B3                     l1970:
  4080  05B3  0872               	movf	___fladd@b,w
  4081  05B4  00A0               	movwf	??___fladd
  4082  05B5  0873               	movf	___fladd@b+1,w
  4083  05B6  00A1               	movwf	??___fladd+1
  4084  05B7  0874               	movf	___fladd@b+2,w
  4085  05B8  00A2               	movwf	??___fladd+2
  4086  05B9  0875               	movf	___fladd@b+3,w
  4087  05BA  00A3               	movwf	??___fladd+3
  4088  05BB  3001               	movlw	1
  4089  05BC  00A4               	movwf	??___fladd+4
  4090  05BD                     u2275:
  4091  05BD  0D23               	rlf	??___fladd+3,w
  4092  05BE  0CA3               	rrf	??___fladd+3,f
  4093  05BF  0CA2               	rrf	??___fladd+2,f
  4094  05C0  0CA1               	rrf	??___fladd+1,f
  4095  05C1  0CA0               	rrf	??___fladd,f
  4096  05C2                     u2270:
  4097  05C2  0BA4               	decfsz	??___fladd+4,f
  4098  05C3  2DBD               	goto	u2275
  4099  05C4  0823               	movf	??___fladd+3,w
  4100  05C5  00F5               	movwf	___fladd@b+3
  4101  05C6  0822               	movf	??___fladd+2,w
  4102  05C7  00F4               	movwf	___fladd@b+2
  4103  05C8  0821               	movf	??___fladd+1,w
  4104  05C9  00F3               	movwf	___fladd@b+1
  4105  05CA  0820               	movf	??___fladd,w
  4106  05CB  00F2               	movwf	___fladd@b
  4107  05CC  0A2A               	incf	___fladd@bexp,w
  4108  05CD  1903               	btfsc	3,2
  4109  05CE  2DD0               	goto	u2281
  4110  05CF  2DD1               	goto	u2280
  4111  05D0                     u2281:
  4112  05D0  2DD5               	goto	l621
  4113  05D1                     u2280:
  4114  05D1                     l1972:
  4115  05D1  3001               	movlw	1
  4116  05D2  00A0               	movwf	??___fladd
  4117  05D3  0820               	movf	??___fladd,w
  4118  05D4  07AA               	addwf	___fladd@bexp,f
  4119  05D5                     l621:
  4120  05D5  0A2A               	incf	___fladd@bexp,w
  4121  05D6  1903               	btfsc	3,2
  4122  05D7  2DD9               	goto	u2291
  4123  05D8  2DDA               	goto	u2290
  4124  05D9                     u2291:
  4125  05D9  2DDF               	goto	l1976
  4126  05DA                     u2290:
  4127  05DA                     l1974:
  4128  05DA  082A               	movf	___fladd@bexp,w
  4129  05DB  1D03               	btfss	3,2
  4130  05DC  2DDE               	goto	u2301
  4131  05DD  2DDF               	goto	u2300
  4132  05DE                     u2301:
  4133  05DE  2DED               	goto	l1982
  4134  05DF                     u2300:
  4135  05DF                     l1976:
  4136  05DF  3000               	movlw	0
  4137  05E0  00F5               	movwf	___fladd@b+3
  4138  05E1  3000               	movlw	0
  4139  05E2  00F4               	movwf	___fladd@b+2
  4140  05E3  3000               	movlw	0
  4141  05E4  00F3               	movwf	___fladd@b+1
  4142  05E5  3000               	movlw	0
  4143  05E6  00F2               	movwf	___fladd@b
  4144  05E7                     l1978:
  4145  05E7  082A               	movf	___fladd@bexp,w
  4146  05E8  1D03               	btfss	3,2
  4147  05E9  2DEB               	goto	u2311
  4148  05EA  2DEC               	goto	u2310
  4149  05EB                     u2311:
  4150  05EB  2DED               	goto	l1982
  4151  05EC                     u2310:
  4152  05EC                     l1980:
  4153  05EC  01A8               	clrf	___fladd@signs
  4154  05ED                     l1982:
  4155  05ED  1C2A               	btfss	___fladd@bexp,0
  4156  05EE  2DF0               	goto	u2321
  4157  05EF  2DF1               	goto	u2320
  4158  05F0                     u2321:
  4159  05F0  2DF3               	goto	l1986
  4160  05F1                     u2320:
  4161  05F1                     l1984:
  4162  05F1  17F4               	bsf	___fladd@b+2,7
  4163  05F2  2DF7               	goto	l629
  4164  05F3                     l1986:
  4165  05F3  307F               	movlw	127
  4166  05F4  00A0               	movwf	??___fladd
  4167  05F5  0820               	movf	??___fladd,w
  4168  05F6  05F4               	andwf	___fladd@b+2,f
  4169  05F7                     l629:
  4170  05F7  082A               	movf	___fladd@bexp,w
  4171  05F8  00A0               	movwf	??___fladd
  4172  05F9  1003               	clrc
  4173  05FA  0C20               	rrf	??___fladd,w
  4174  05FB  00A1               	movwf	??___fladd+1
  4175  05FC  0821               	movf	??___fladd+1,w
  4176  05FD  00F5               	movwf	___fladd@b+3
  4177  05FE                     l1988:
  4178  05FE  1FA8               	btfss	___fladd@signs,7
  4179  05FF  2E01               	goto	u2331
  4180  0600  2E02               	goto	u2330
  4181  0601                     u2331:
  4182  0601  2E03               	goto	l630
  4183  0602                     u2330:
  4184  0602                     l1990:
  4185  0602  17F5               	bsf	___fladd@b+3,7
  4186  0603                     l630:
  4187  0603                     l600:
  4188  0603  0008               	return
  4189  0604                     __end_of___fladd:
  4190                           
  4191                           	psect	text14
  4192  001B                     __ptext14:	
  4193 ;; *************** function ___flmul *****************
  4194 ;; Defined at:
  4195 ;;		line 8 in file "C:\Program Files\Microchip\xc8\v2.31\pic\sources\c90\common\sprcmul.c"
  4196 ;; Parameters:    Size  Location     Type
  4197 ;;  b               4    5[BANK0 ] unsigned char 
  4198 ;;  a               4    9[BANK0 ] unsigned char 
  4199 ;; Auto vars:     Size  Location     Type
  4200 ;;  prod            4   25[BANK0 ] struct .
  4201 ;;  grs             4   20[BANK0 ] unsigned long 
  4202 ;;  temp            2   29[BANK0 ] struct .
  4203 ;;  bexp            1   24[BANK0 ] unsigned char 
  4204 ;;  aexp            1   19[BANK0 ] unsigned char 
  4205 ;;  sign            1   18[BANK0 ] unsigned char 
  4206 ;; Return value:  Size  Location     Type
  4207 ;;                  4    5[BANK0 ] unsigned char 
  4208 ;; Registers used:
  4209 ;;		wreg, status,2, status,0, btemp+1, pclath, cstack
  4210 ;; Tracked objects:
  4211 ;;		On entry : 0/0
  4212 ;;		On exit  : 0/0
  4213 ;;		Unchanged: 0/0
  4214 ;; Data sizes:     COMMON   BANK0   BANK1   BANK3   BANK2
  4215 ;;      Params:         0       8       0       0       0
  4216 ;;      Locals:         0      13       0       0       0
  4217 ;;      Temps:          0       5       0       0       0
  4218 ;;      Totals:         0      26       0       0       0
  4219 ;;Total ram usage:       26 bytes
  4220 ;; Hardware stack levels used:    1
  4221 ;; Hardware stack levels required when called:    2
  4222 ;; This function calls:
  4223 ;;		__Umul8_16
  4224 ;; This function is called by:
  4225 ;;		_decimalASCII
  4226 ;; This function uses a non-reentrant model
  4227 ;;
  4228                           
  4229                           
  4230                           ;psect for function ___flmul
  4231  001B                     ___flmul:
  4232  001B                     l2902:	
  4233                           ;incstack = 0
  4234                           ; Regs used in ___flmul: [wreg+status,2+status,0+btemp+1+pclath+cstack]
  4235                           
  4236  001B  1283               	bcf	3,5	;RP0=0, select bank0
  4237  001C  1303               	bcf	3,6	;RP1=0, select bank0
  4238  001D  0828               	movf	___flmul@b+3,w
  4239  001E  3980               	andlw	128
  4240  001F  00AD               	movwf	??___flmul
  4241  0020  082D               	movf	??___flmul,w
  4242  0021  00B2               	movwf	___flmul@sign
  4243  0022                     l2904:
  4244  0022  0828               	movf	___flmul@b+3,w
  4245  0023  00AD               	movwf	??___flmul
  4246  0024  072D               	addwf	??___flmul,w
  4247  0025  00AE               	movwf	??___flmul+1
  4248  0026  082E               	movf	??___flmul+1,w
  4249  0027  00B8               	movwf	___flmul@bexp
  4250  0028                     l2906:
  4251  0028  1FA7               	btfss	___flmul@b+2,7
  4252  0029  282B               	goto	u4011
  4253  002A  282C               	goto	u4010
  4254  002B                     u4011:
  4255  002B  282D               	goto	l2910
  4256  002C                     u4010:
  4257  002C                     l2908:
  4258  002C  1438               	bsf	___flmul@bexp,0
  4259  002D                     l2910:
  4260  002D  0838               	movf	___flmul@bexp,w
  4261  002E  1903               	btfsc	3,2
  4262  002F  2831               	goto	u4021
  4263  0030  2832               	goto	u4020
  4264  0031                     u4021:
  4265  0031  2841               	goto	l2918
  4266  0032                     u4020:
  4267  0032                     l2912:
  4268  0032  0A38               	incf	___flmul@bexp,w
  4269  0033  1D03               	btfss	3,2
  4270  0034  2836               	goto	u4031
  4271  0035  2837               	goto	u4030
  4272  0036                     u4031:
  4273  0036  283F               	goto	l2916
  4274  0037                     u4030:
  4275  0037                     l2914:
  4276  0037  3000               	movlw	0
  4277  0038  00A8               	movwf	___flmul@b+3
  4278  0039  3000               	movlw	0
  4279  003A  00A7               	movwf	___flmul@b+2
  4280  003B  3000               	movlw	0
  4281  003C  00A6               	movwf	___flmul@b+1
  4282  003D  3000               	movlw	0
  4283  003E  00A5               	movwf	___flmul@b
  4284  003F                     l2916:
  4285  003F  17A7               	bsf	___flmul@b+2,7
  4286  0040  2849               	goto	l2920
  4287  0041                     l2918:
  4288  0041  3000               	movlw	0
  4289  0042  00A8               	movwf	___flmul@b+3
  4290  0043  3000               	movlw	0
  4291  0044  00A7               	movwf	___flmul@b+2
  4292  0045  3000               	movlw	0
  4293  0046  00A6               	movwf	___flmul@b+1
  4294  0047  3000               	movlw	0
  4295  0048  00A5               	movwf	___flmul@b
  4296  0049                     l2920:
  4297  0049  082C               	movf	___flmul@a+3,w
  4298  004A  3980               	andlw	128
  4299  004B  00AD               	movwf	??___flmul
  4300  004C  082D               	movf	??___flmul,w
  4301  004D  06B2               	xorwf	___flmul@sign,f
  4302  004E                     l2922:
  4303  004E  082C               	movf	___flmul@a+3,w
  4304  004F  00AD               	movwf	??___flmul
  4305  0050  072D               	addwf	??___flmul,w
  4306  0051  00AE               	movwf	??___flmul+1
  4307  0052  082E               	movf	??___flmul+1,w
  4308  0053  00B3               	movwf	___flmul@aexp
  4309  0054                     l2924:
  4310  0054  1FAB               	btfss	___flmul@a+2,7
  4311  0055  2857               	goto	u4041
  4312  0056  2858               	goto	u4040
  4313  0057                     u4041:
  4314  0057  2859               	goto	l2928
  4315  0058                     u4040:
  4316  0058                     l2926:
  4317  0058  1433               	bsf	___flmul@aexp,0
  4318  0059                     l2928:
  4319  0059  0833               	movf	___flmul@aexp,w
  4320  005A  1903               	btfsc	3,2
  4321  005B  285D               	goto	u4051
  4322  005C  285E               	goto	u4050
  4323  005D                     u4051:
  4324  005D  286D               	goto	l2936
  4325  005E                     u4050:
  4326  005E                     l2930:
  4327  005E  0A33               	incf	___flmul@aexp,w
  4328  005F  1D03               	btfss	3,2
  4329  0060  2862               	goto	u4061
  4330  0061  2863               	goto	u4060
  4331  0062                     u4061:
  4332  0062  286B               	goto	l2934
  4333  0063                     u4060:
  4334  0063                     l2932:
  4335  0063  3000               	movlw	0
  4336  0064  00AC               	movwf	___flmul@a+3
  4337  0065  3000               	movlw	0
  4338  0066  00AB               	movwf	___flmul@a+2
  4339  0067  3000               	movlw	0
  4340  0068  00AA               	movwf	___flmul@a+1
  4341  0069  3000               	movlw	0
  4342  006A  00A9               	movwf	___flmul@a
  4343  006B                     l2934:
  4344  006B  17AB               	bsf	___flmul@a+2,7
  4345  006C  2875               	goto	l2938
  4346  006D                     l2936:
  4347  006D  3000               	movlw	0
  4348  006E  00AC               	movwf	___flmul@a+3
  4349  006F  3000               	movlw	0
  4350  0070  00AB               	movwf	___flmul@a+2
  4351  0071  3000               	movlw	0
  4352  0072  00AA               	movwf	___flmul@a+1
  4353  0073  3000               	movlw	0
  4354  0074  00A9               	movwf	___flmul@a
  4355  0075                     l2938:
  4356  0075  0833               	movf	___flmul@aexp,w
  4357  0076  1903               	btfsc	3,2
  4358  0077  2879               	goto	u4071
  4359  0078  287A               	goto	u4070
  4360  0079                     u4071:
  4361  0079  287F               	goto	l2942
  4362  007A                     u4070:
  4363  007A                     l2940:
  4364  007A  0838               	movf	___flmul@bexp,w
  4365  007B  1D03               	btfss	3,2
  4366  007C  287E               	goto	u4081
  4367  007D  287F               	goto	u4080
  4368  007E                     u4081:
  4369  007E  2888               	goto	l2946
  4370  007F                     u4080:
  4371  007F                     l2942:
  4372  007F  3000               	movlw	0
  4373  0080  00A8               	movwf	?___flmul+3
  4374  0081  3000               	movlw	0
  4375  0082  00A7               	movwf	?___flmul+2
  4376  0083  3000               	movlw	0
  4377  0084  00A6               	movwf	?___flmul+1
  4378  0085  3000               	movlw	0
  4379  0086  00A5               	movwf	?___flmul
  4380  0087  2B7B               	goto	l683
  4381  0088                     l2946:
  4382  0088  0825               	movf	___flmul@b,w
  4383  0089  00AD               	movwf	??___flmul
  4384  008A  082D               	movf	??___flmul,w
  4385  008B  00F2               	movwf	__Umul8_16@multiplicand
  4386  008C  082B               	movf	___flmul@a+2,w
  4387  008D  120A  158A  20BD  120A  118A  	fcall	__Umul8_16
  4388  0092  0873               	movf	?__Umul8_16+1,w
  4389  0093  1283               	bcf	3,5	;RP0=0, select bank0
  4390  0094  1303               	bcf	3,6	;RP1=0, select bank0
  4391  0095  00BE               	movwf	___flmul@temp+1
  4392  0096  0872               	movf	?__Umul8_16,w
  4393  0097  00BD               	movwf	___flmul@temp
  4394  0098                     l2948:
  4395  0098  083D               	movf	___flmul@temp,w
  4396  0099  00AD               	movwf	??___flmul
  4397  009A  01AE               	clrf	??___flmul+1
  4398  009B  01AF               	clrf	??___flmul+2
  4399  009C  01B0               	clrf	??___flmul+3
  4400  009D  0830               	movf	??___flmul+3,w
  4401  009E  00B7               	movwf	___flmul@grs+3
  4402  009F  082F               	movf	??___flmul+2,w
  4403  00A0  00B6               	movwf	___flmul@grs+2
  4404  00A1  082E               	movf	??___flmul+1,w
  4405  00A2  00B5               	movwf	___flmul@grs+1
  4406  00A3  082D               	movf	??___flmul,w
  4407  00A4  00B4               	movwf	___flmul@grs
  4408  00A5                     l2950:
  4409  00A5  083E               	movf	___flmul@temp+1,w
  4410  00A6  00AD               	movwf	??___flmul
  4411  00A7  01AE               	clrf	??___flmul+1
  4412  00A8  01AF               	clrf	??___flmul+2
  4413  00A9  01B0               	clrf	??___flmul+3
  4414  00AA  0830               	movf	??___flmul+3,w
  4415  00AB  00BC               	movwf	___flmul@prod+3
  4416  00AC  082F               	movf	??___flmul+2,w
  4417  00AD  00BB               	movwf	___flmul@prod+2
  4418  00AE  082E               	movf	??___flmul+1,w
  4419  00AF  00BA               	movwf	___flmul@prod+1
  4420  00B0  082D               	movf	??___flmul,w
  4421  00B1  00B9               	movwf	___flmul@prod
  4422  00B2  0826               	movf	___flmul@b+1,w
  4423  00B3  00AD               	movwf	??___flmul
  4424  00B4  082D               	movf	??___flmul,w
  4425  00B5  00F2               	movwf	__Umul8_16@multiplicand
  4426  00B6  082A               	movf	___flmul@a+1,w
  4427  00B7  120A  158A  20BD  120A  118A  	fcall	__Umul8_16
  4428  00BC  0873               	movf	?__Umul8_16+1,w
  4429  00BD  1283               	bcf	3,5	;RP0=0, select bank0
  4430  00BE  1303               	bcf	3,6	;RP1=0, select bank0
  4431  00BF  00BE               	movwf	___flmul@temp+1
  4432  00C0  0872               	movf	?__Umul8_16,w
  4433  00C1  00BD               	movwf	___flmul@temp
  4434  00C2                     l2952:
  4435  00C2  083D               	movf	___flmul@temp,w
  4436  00C3  00AD               	movwf	??___flmul
  4437  00C4  01AE               	clrf	??___flmul+1
  4438  00C5  01AF               	clrf	??___flmul+2
  4439  00C6  01B0               	clrf	??___flmul+3
  4440  00C7  082D               	movf	??___flmul,w
  4441  00C8  07B4               	addwf	___flmul@grs,f
  4442  00C9  082E               	movf	??___flmul+1,w
  4443  00CA  1103               	clrz
  4444  00CB  1803               	skipnc
  4445  00CC  3E01               	addlw	1
  4446  00CD  1903               	skipnz
  4447  00CE  28D0               	goto	u4091
  4448  00CF  07B5               	addwf	___flmul@grs+1,f
  4449  00D0                     u4091:
  4450  00D0  082F               	movf	??___flmul+2,w
  4451  00D1  1103               	clrz
  4452  00D2  1803               	skipnc
  4453  00D3  3E01               	addlw	1
  4454  00D4  1903               	skipnz
  4455  00D5  28D7               	goto	u4092
  4456  00D6  07B6               	addwf	___flmul@grs+2,f
  4457  00D7                     u4092:
  4458  00D7  0830               	movf	??___flmul+3,w
  4459  00D8  1103               	clrz
  4460  00D9  1803               	skipnc
  4461  00DA  3E01               	addlw	1
  4462  00DB  1903               	skipnz
  4463  00DC  28DE               	goto	u4093
  4464  00DD  07B7               	addwf	___flmul@grs+3,f
  4465  00DE                     u4093:
  4466  00DE                     l2954:
  4467  00DE  083E               	movf	___flmul@temp+1,w
  4468  00DF  00AD               	movwf	??___flmul
  4469  00E0  01AE               	clrf	??___flmul+1
  4470  00E1  01AF               	clrf	??___flmul+2
  4471  00E2  01B0               	clrf	??___flmul+3
  4472  00E3  082D               	movf	??___flmul,w
  4473  00E4  07B9               	addwf	___flmul@prod,f
  4474  00E5  082E               	movf	??___flmul+1,w
  4475  00E6  1103               	clrz
  4476  00E7  1803               	skipnc
  4477  00E8  3E01               	addlw	1
  4478  00E9  1903               	skipnz
  4479  00EA  28EC               	goto	u4101
  4480  00EB  07BA               	addwf	___flmul@prod+1,f
  4481  00EC                     u4101:
  4482  00EC  082F               	movf	??___flmul+2,w
  4483  00ED  1103               	clrz
  4484  00EE  1803               	skipnc
  4485  00EF  3E01               	addlw	1
  4486  00F0  1903               	skipnz
  4487  00F1  28F3               	goto	u4102
  4488  00F2  07BB               	addwf	___flmul@prod+2,f
  4489  00F3                     u4102:
  4490  00F3  0830               	movf	??___flmul+3,w
  4491  00F4  1103               	clrz
  4492  00F5  1803               	skipnc
  4493  00F6  3E01               	addlw	1
  4494  00F7  1903               	skipnz
  4495  00F8  28FA               	goto	u4103
  4496  00F9  07BC               	addwf	___flmul@prod+3,f
  4497  00FA                     u4103:
  4498  00FA  0827               	movf	___flmul@b+2,w
  4499  00FB  00AD               	movwf	??___flmul
  4500  00FC  082D               	movf	??___flmul,w
  4501  00FD  00F2               	movwf	__Umul8_16@multiplicand
  4502  00FE  0829               	movf	___flmul@a,w
  4503  00FF  120A  158A  20BD  120A  118A  	fcall	__Umul8_16
  4504  0104  0873               	movf	?__Umul8_16+1,w
  4505  0105  1283               	bcf	3,5	;RP0=0, select bank0
  4506  0106  1303               	bcf	3,6	;RP1=0, select bank0
  4507  0107  00BE               	movwf	___flmul@temp+1
  4508  0108  0872               	movf	?__Umul8_16,w
  4509  0109  00BD               	movwf	___flmul@temp
  4510  010A                     l2956:
  4511  010A  083D               	movf	___flmul@temp,w
  4512  010B  00AD               	movwf	??___flmul
  4513  010C  01AE               	clrf	??___flmul+1
  4514  010D  01AF               	clrf	??___flmul+2
  4515  010E  01B0               	clrf	??___flmul+3
  4516  010F  082D               	movf	??___flmul,w
  4517  0110  07B4               	addwf	___flmul@grs,f
  4518  0111  082E               	movf	??___flmul+1,w
  4519  0112  1103               	clrz
  4520  0113  1803               	skipnc
  4521  0114  3E01               	addlw	1
  4522  0115  1903               	skipnz
  4523  0116  2918               	goto	u4111
  4524  0117  07B5               	addwf	___flmul@grs+1,f
  4525  0118                     u4111:
  4526  0118  082F               	movf	??___flmul+2,w
  4527  0119  1103               	clrz
  4528  011A  1803               	skipnc
  4529  011B  3E01               	addlw	1
  4530  011C  1903               	skipnz
  4531  011D  291F               	goto	u4112
  4532  011E  07B6               	addwf	___flmul@grs+2,f
  4533  011F                     u4112:
  4534  011F  0830               	movf	??___flmul+3,w
  4535  0120  1103               	clrz
  4536  0121  1803               	skipnc
  4537  0122  3E01               	addlw	1
  4538  0123  1903               	skipnz
  4539  0124  2926               	goto	u4113
  4540  0125  07B7               	addwf	___flmul@grs+3,f
  4541  0126                     u4113:
  4542  0126                     l2958:
  4543  0126  083E               	movf	___flmul@temp+1,w
  4544  0127  00AD               	movwf	??___flmul
  4545  0128  01AE               	clrf	??___flmul+1
  4546  0129  01AF               	clrf	??___flmul+2
  4547  012A  01B0               	clrf	??___flmul+3
  4548  012B  082D               	movf	??___flmul,w
  4549  012C  07B9               	addwf	___flmul@prod,f
  4550  012D  082E               	movf	??___flmul+1,w
  4551  012E  1103               	clrz
  4552  012F  1803               	skipnc
  4553  0130  3E01               	addlw	1
  4554  0131  1903               	skipnz
  4555  0132  2934               	goto	u4121
  4556  0133  07BA               	addwf	___flmul@prod+1,f
  4557  0134                     u4121:
  4558  0134  082F               	movf	??___flmul+2,w
  4559  0135  1103               	clrz
  4560  0136  1803               	skipnc
  4561  0137  3E01               	addlw	1
  4562  0138  1903               	skipnz
  4563  0139  293B               	goto	u4122
  4564  013A  07BB               	addwf	___flmul@prod+2,f
  4565  013B                     u4122:
  4566  013B  0830               	movf	??___flmul+3,w
  4567  013C  1103               	clrz
  4568  013D  1803               	skipnc
  4569  013E  3E01               	addlw	1
  4570  013F  1903               	skipnz
  4571  0140  2942               	goto	u4123
  4572  0141  07BC               	addwf	___flmul@prod+3,f
  4573  0142                     u4123:
  4574  0142                     l2960:
  4575  0142  3008               	movlw	8
  4576  0143  00AD               	movwf	??___flmul
  4577  0144                     u4135:
  4578  0144  1003               	clrc
  4579  0145  0DB4               	rlf	___flmul@grs,f
  4580  0146  0DB5               	rlf	___flmul@grs+1,f
  4581  0147  0DB6               	rlf	___flmul@grs+2,f
  4582  0148  0DB7               	rlf	___flmul@grs+3,f
  4583  0149  0BAD               	decfsz	??___flmul,f
  4584  014A  2944               	goto	u4135
  4585  014B                     l2962:
  4586  014B  0826               	movf	___flmul@b+1,w
  4587  014C  00AD               	movwf	??___flmul
  4588  014D  082D               	movf	??___flmul,w
  4589  014E  00F2               	movwf	__Umul8_16@multiplicand
  4590  014F  0829               	movf	___flmul@a,w
  4591  0150  120A  158A  20BD  120A  118A  	fcall	__Umul8_16
  4592  0155  0873               	movf	?__Umul8_16+1,w
  4593  0156  1283               	bcf	3,5	;RP0=0, select bank0
  4594  0157  1303               	bcf	3,6	;RP1=0, select bank0
  4595  0158  00BE               	movwf	___flmul@temp+1
  4596  0159  0872               	movf	?__Umul8_16,w
  4597  015A  00BD               	movwf	___flmul@temp
  4598  015B                     l2964:
  4599  015B  083D               	movf	___flmul@temp,w
  4600  015C  00AD               	movwf	??___flmul
  4601  015D  083E               	movf	___flmul@temp+1,w
  4602  015E  00AE               	movwf	??___flmul+1
  4603  015F  01AF               	clrf	??___flmul+2
  4604  0160  01B0               	clrf	??___flmul+3
  4605  0161  082D               	movf	??___flmul,w
  4606  0162  07B4               	addwf	___flmul@grs,f
  4607  0163  082E               	movf	??___flmul+1,w
  4608  0164  1103               	clrz
  4609  0165  1803               	skipnc
  4610  0166  3E01               	addlw	1
  4611  0167  1903               	skipnz
  4612  0168  296A               	goto	u4141
  4613  0169  07B5               	addwf	___flmul@grs+1,f
  4614  016A                     u4141:
  4615  016A  082F               	movf	??___flmul+2,w
  4616  016B  1103               	clrz
  4617  016C  1803               	skipnc
  4618  016D  3E01               	addlw	1
  4619  016E  1903               	skipnz
  4620  016F  2971               	goto	u4142
  4621  0170  07B6               	addwf	___flmul@grs+2,f
  4622  0171                     u4142:
  4623  0171  0830               	movf	??___flmul+3,w
  4624  0172  1103               	clrz
  4625  0173  1803               	skipnc
  4626  0174  3E01               	addlw	1
  4627  0175  1903               	skipnz
  4628  0176  2978               	goto	u4143
  4629  0177  07B7               	addwf	___flmul@grs+3,f
  4630  0178                     u4143:
  4631  0178                     l2966:
  4632  0178  0825               	movf	___flmul@b,w
  4633  0179  00AD               	movwf	??___flmul
  4634  017A  082D               	movf	??___flmul,w
  4635  017B  00F2               	movwf	__Umul8_16@multiplicand
  4636  017C  082A               	movf	___flmul@a+1,w
  4637  017D  120A  158A  20BD  120A  118A  	fcall	__Umul8_16
  4638  0182  0873               	movf	?__Umul8_16+1,w
  4639  0183  1283               	bcf	3,5	;RP0=0, select bank0
  4640  0184  1303               	bcf	3,6	;RP1=0, select bank0
  4641  0185  00BE               	movwf	___flmul@temp+1
  4642  0186  0872               	movf	?__Umul8_16,w
  4643  0187  00BD               	movwf	___flmul@temp
  4644  0188                     l2968:
  4645  0188  083D               	movf	___flmul@temp,w
  4646  0189  00AD               	movwf	??___flmul
  4647  018A  083E               	movf	___flmul@temp+1,w
  4648  018B  00AE               	movwf	??___flmul+1
  4649  018C  01AF               	clrf	??___flmul+2
  4650  018D  01B0               	clrf	??___flmul+3
  4651  018E  082D               	movf	??___flmul,w
  4652  018F  07B4               	addwf	___flmul@grs,f
  4653  0190  082E               	movf	??___flmul+1,w
  4654  0191  1103               	clrz
  4655  0192  1803               	skipnc
  4656  0193  3E01               	addlw	1
  4657  0194  1903               	skipnz
  4658  0195  2997               	goto	u4151
  4659  0196  07B5               	addwf	___flmul@grs+1,f
  4660  0197                     u4151:
  4661  0197  082F               	movf	??___flmul+2,w
  4662  0198  1103               	clrz
  4663  0199  1803               	skipnc
  4664  019A  3E01               	addlw	1
  4665  019B  1903               	skipnz
  4666  019C  299E               	goto	u4152
  4667  019D  07B6               	addwf	___flmul@grs+2,f
  4668  019E                     u4152:
  4669  019E  0830               	movf	??___flmul+3,w
  4670  019F  1103               	clrz
  4671  01A0  1803               	skipnc
  4672  01A1  3E01               	addlw	1
  4673  01A2  1903               	skipnz
  4674  01A3  29A5               	goto	u4153
  4675  01A4  07B7               	addwf	___flmul@grs+3,f
  4676  01A5                     u4153:
  4677  01A5                     l2970:
  4678  01A5  3008               	movlw	8
  4679  01A6  00AD               	movwf	??___flmul
  4680  01A7                     u4165:
  4681  01A7  1003               	clrc
  4682  01A8  0DB4               	rlf	___flmul@grs,f
  4683  01A9  0DB5               	rlf	___flmul@grs+1,f
  4684  01AA  0DB6               	rlf	___flmul@grs+2,f
  4685  01AB  0DB7               	rlf	___flmul@grs+3,f
  4686  01AC  0BAD               	decfsz	??___flmul,f
  4687  01AD  29A7               	goto	u4165
  4688  01AE  0825               	movf	___flmul@b,w
  4689  01AF  00AD               	movwf	??___flmul
  4690  01B0  082D               	movf	??___flmul,w
  4691  01B1  00F2               	movwf	__Umul8_16@multiplicand
  4692  01B2  0829               	movf	___flmul@a,w
  4693  01B3  120A  158A  20BD  120A  118A  	fcall	__Umul8_16
  4694  01B8  0873               	movf	?__Umul8_16+1,w
  4695  01B9  1283               	bcf	3,5	;RP0=0, select bank0
  4696  01BA  1303               	bcf	3,6	;RP1=0, select bank0
  4697  01BB  00BE               	movwf	___flmul@temp+1
  4698  01BC  0872               	movf	?__Umul8_16,w
  4699  01BD  00BD               	movwf	___flmul@temp
  4700  01BE                     l2972:
  4701  01BE  083D               	movf	___flmul@temp,w
  4702  01BF  00AD               	movwf	??___flmul
  4703  01C0  083E               	movf	___flmul@temp+1,w
  4704  01C1  00AE               	movwf	??___flmul+1
  4705  01C2  01AF               	clrf	??___flmul+2
  4706  01C3  01B0               	clrf	??___flmul+3
  4707  01C4  082D               	movf	??___flmul,w
  4708  01C5  07B4               	addwf	___flmul@grs,f
  4709  01C6  082E               	movf	??___flmul+1,w
  4710  01C7  1103               	clrz
  4711  01C8  1803               	skipnc
  4712  01C9  3E01               	addlw	1
  4713  01CA  1903               	skipnz
  4714  01CB  29CD               	goto	u4171
  4715  01CC  07B5               	addwf	___flmul@grs+1,f
  4716  01CD                     u4171:
  4717  01CD  082F               	movf	??___flmul+2,w
  4718  01CE  1103               	clrz
  4719  01CF  1803               	skipnc
  4720  01D0  3E01               	addlw	1
  4721  01D1  1903               	skipnz
  4722  01D2  29D4               	goto	u4172
  4723  01D3  07B6               	addwf	___flmul@grs+2,f
  4724  01D4                     u4172:
  4725  01D4  0830               	movf	??___flmul+3,w
  4726  01D5  1103               	clrz
  4727  01D6  1803               	skipnc
  4728  01D7  3E01               	addlw	1
  4729  01D8  1903               	skipnz
  4730  01D9  29DB               	goto	u4173
  4731  01DA  07B7               	addwf	___flmul@grs+3,f
  4732  01DB                     u4173:
  4733  01DB                     l2974:
  4734  01DB  0826               	movf	___flmul@b+1,w
  4735  01DC  00AD               	movwf	??___flmul
  4736  01DD  082D               	movf	??___flmul,w
  4737  01DE  00F2               	movwf	__Umul8_16@multiplicand
  4738  01DF  082B               	movf	___flmul@a+2,w
  4739  01E0  120A  158A  20BD  120A  118A  	fcall	__Umul8_16
  4740  01E5  0873               	movf	?__Umul8_16+1,w
  4741  01E6  1283               	bcf	3,5	;RP0=0, select bank0
  4742  01E7  1303               	bcf	3,6	;RP1=0, select bank0
  4743  01E8  00BE               	movwf	___flmul@temp+1
  4744  01E9  0872               	movf	?__Umul8_16,w
  4745  01EA  00BD               	movwf	___flmul@temp
  4746  01EB  083D               	movf	___flmul@temp,w
  4747  01EC  00AD               	movwf	??___flmul
  4748  01ED  083E               	movf	___flmul@temp+1,w
  4749  01EE  00AE               	movwf	??___flmul+1
  4750  01EF  01AF               	clrf	??___flmul+2
  4751  01F0  01B0               	clrf	??___flmul+3
  4752  01F1  082D               	movf	??___flmul,w
  4753  01F2  07B9               	addwf	___flmul@prod,f
  4754  01F3  082E               	movf	??___flmul+1,w
  4755  01F4  1103               	clrz
  4756  01F5  1803               	skipnc
  4757  01F6  3E01               	addlw	1
  4758  01F7  1903               	skipnz
  4759  01F8  29FA               	goto	u4181
  4760  01F9  07BA               	addwf	___flmul@prod+1,f
  4761  01FA                     u4181:
  4762  01FA  082F               	movf	??___flmul+2,w
  4763  01FB  1103               	clrz
  4764  01FC  1803               	skipnc
  4765  01FD  3E01               	addlw	1
  4766  01FE  1903               	skipnz
  4767  01FF  2A01               	goto	u4182
  4768  0200  07BB               	addwf	___flmul@prod+2,f
  4769  0201                     u4182:
  4770  0201  0830               	movf	??___flmul+3,w
  4771  0202  1103               	clrz
  4772  0203  1803               	skipnc
  4773  0204  3E01               	addlw	1
  4774  0205  1903               	skipnz
  4775  0206  2A08               	goto	u4183
  4776  0207  07BC               	addwf	___flmul@prod+3,f
  4777  0208                     u4183:
  4778  0208                     l2976:
  4779  0208  0827               	movf	___flmul@b+2,w
  4780  0209  00AD               	movwf	??___flmul
  4781  020A  082D               	movf	??___flmul,w
  4782  020B  00F2               	movwf	__Umul8_16@multiplicand
  4783  020C  082A               	movf	___flmul@a+1,w
  4784  020D  120A  158A  20BD  120A  118A  	fcall	__Umul8_16
  4785  0212  0873               	movf	?__Umul8_16+1,w
  4786  0213  1283               	bcf	3,5	;RP0=0, select bank0
  4787  0214  1303               	bcf	3,6	;RP1=0, select bank0
  4788  0215  00BE               	movwf	___flmul@temp+1
  4789  0216  0872               	movf	?__Umul8_16,w
  4790  0217  00BD               	movwf	___flmul@temp
  4791  0218                     l2978:
  4792  0218  083D               	movf	___flmul@temp,w
  4793  0219  00AD               	movwf	??___flmul
  4794  021A  083E               	movf	___flmul@temp+1,w
  4795  021B  00AE               	movwf	??___flmul+1
  4796  021C  01AF               	clrf	??___flmul+2
  4797  021D  01B0               	clrf	??___flmul+3
  4798  021E  082D               	movf	??___flmul,w
  4799  021F  07B9               	addwf	___flmul@prod,f
  4800  0220  082E               	movf	??___flmul+1,w
  4801  0221  1103               	clrz
  4802  0222  1803               	skipnc
  4803  0223  3E01               	addlw	1
  4804  0224  1903               	skipnz
  4805  0225  2A27               	goto	u4191
  4806  0226  07BA               	addwf	___flmul@prod+1,f
  4807  0227                     u4191:
  4808  0227  082F               	movf	??___flmul+2,w
  4809  0228  1103               	clrz
  4810  0229  1803               	skipnc
  4811  022A  3E01               	addlw	1
  4812  022B  1903               	skipnz
  4813  022C  2A2E               	goto	u4192
  4814  022D  07BB               	addwf	___flmul@prod+2,f
  4815  022E                     u4192:
  4816  022E  0830               	movf	??___flmul+3,w
  4817  022F  1103               	clrz
  4818  0230  1803               	skipnc
  4819  0231  3E01               	addlw	1
  4820  0232  1903               	skipnz
  4821  0233  2A35               	goto	u4193
  4822  0234  07BC               	addwf	___flmul@prod+3,f
  4823  0235                     u4193:
  4824  0235  0827               	movf	___flmul@b+2,w
  4825  0236  00AD               	movwf	??___flmul
  4826  0237  082D               	movf	??___flmul,w
  4827  0238  00F2               	movwf	__Umul8_16@multiplicand
  4828  0239  082B               	movf	___flmul@a+2,w
  4829  023A  120A  158A  20BD  120A  118A  	fcall	__Umul8_16
  4830  023F  0873               	movf	?__Umul8_16+1,w
  4831  0240  1283               	bcf	3,5	;RP0=0, select bank0
  4832  0241  1303               	bcf	3,6	;RP1=0, select bank0
  4833  0242  00BE               	movwf	___flmul@temp+1
  4834  0243  0872               	movf	?__Umul8_16,w
  4835  0244  00BD               	movwf	___flmul@temp
  4836  0245                     l2980:
  4837  0245  083D               	movf	___flmul@temp,w
  4838  0246  00AD               	movwf	??___flmul
  4839  0247  083E               	movf	___flmul@temp+1,w
  4840  0248  00AE               	movwf	??___flmul+1
  4841  0249  01AF               	clrf	??___flmul+2
  4842  024A  01B0               	clrf	??___flmul+3
  4843  024B  3008               	movlw	8
  4844  024C                     u4205:
  4845  024C  1003               	clrc
  4846  024D  0DAD               	rlf	??___flmul,f
  4847  024E  0DAE               	rlf	??___flmul+1,f
  4848  024F  0DAF               	rlf	??___flmul+2,f
  4849  0250  0DB0               	rlf	??___flmul+3,f
  4850  0251                     u4200:
  4851  0251  3EFF               	addlw	-1
  4852  0252  1D03               	skipz
  4853  0253  2A4C               	goto	u4205
  4854  0254  082D               	movf	??___flmul,w
  4855  0255  07B9               	addwf	___flmul@prod,f
  4856  0256  082E               	movf	??___flmul+1,w
  4857  0257  1103               	clrz
  4858  0258  1803               	skipnc
  4859  0259  3E01               	addlw	1
  4860  025A  1903               	skipnz
  4861  025B  2A5D               	goto	u4211
  4862  025C  07BA               	addwf	___flmul@prod+1,f
  4863  025D                     u4211:
  4864  025D  082F               	movf	??___flmul+2,w
  4865  025E  1103               	clrz
  4866  025F  1803               	skipnc
  4867  0260  3E01               	addlw	1
  4868  0261  1903               	skipnz
  4869  0262  2A64               	goto	u4212
  4870  0263  07BB               	addwf	___flmul@prod+2,f
  4871  0264                     u4212:
  4872  0264  0830               	movf	??___flmul+3,w
  4873  0265  1103               	clrz
  4874  0266  1803               	skipnc
  4875  0267  3E01               	addlw	1
  4876  0268  1903               	skipnz
  4877  0269  2A6B               	goto	u4213
  4878  026A  07BC               	addwf	___flmul@prod+3,f
  4879  026B                     u4213:
  4880  026B                     l2982:
  4881  026B  0834               	movf	___flmul@grs,w
  4882  026C  00AD               	movwf	??___flmul
  4883  026D  0835               	movf	___flmul@grs+1,w
  4884  026E  00AE               	movwf	??___flmul+1
  4885  026F  0836               	movf	___flmul@grs+2,w
  4886  0270  00AF               	movwf	??___flmul+2
  4887  0271  0837               	movf	___flmul@grs+3,w
  4888  0272  00B0               	movwf	??___flmul+3
  4889  0273  3018               	movlw	24
  4890  0274                     u4225:
  4891  0274  1003               	clrc
  4892  0275  0CB0               	rrf	??___flmul+3,f
  4893  0276  0CAF               	rrf	??___flmul+2,f
  4894  0277  0CAE               	rrf	??___flmul+1,f
  4895  0278  0CAD               	rrf	??___flmul,f
  4896  0279                     u4220:
  4897  0279  3EFF               	addlw	-1
  4898  027A  1D03               	skipz
  4899  027B  2A74               	goto	u4225
  4900  027C  082D               	movf	??___flmul,w
  4901  027D  07B9               	addwf	___flmul@prod,f
  4902  027E  082E               	movf	??___flmul+1,w
  4903  027F  1103               	clrz
  4904  0280  1803               	skipnc
  4905  0281  3E01               	addlw	1
  4906  0282  1903               	skipnz
  4907  0283  2A85               	goto	u4231
  4908  0284  07BA               	addwf	___flmul@prod+1,f
  4909  0285                     u4231:
  4910  0285  082F               	movf	??___flmul+2,w
  4911  0286  1103               	clrz
  4912  0287  1803               	skipnc
  4913  0288  3E01               	addlw	1
  4914  0289  1903               	skipnz
  4915  028A  2A8C               	goto	u4232
  4916  028B  07BB               	addwf	___flmul@prod+2,f
  4917  028C                     u4232:
  4918  028C  0830               	movf	??___flmul+3,w
  4919  028D  1103               	clrz
  4920  028E  1803               	skipnc
  4921  028F  3E01               	addlw	1
  4922  0290  1903               	skipnz
  4923  0291  2A93               	goto	u4233
  4924  0292  07BC               	addwf	___flmul@prod+3,f
  4925  0293                     u4233:
  4926  0293                     l2984:
  4927  0293  3008               	movlw	8
  4928  0294  00AD               	movwf	??___flmul
  4929  0295                     u4245:
  4930  0295  1003               	clrc
  4931  0296  0DB4               	rlf	___flmul@grs,f
  4932  0297  0DB5               	rlf	___flmul@grs+1,f
  4933  0298  0DB6               	rlf	___flmul@grs+2,f
  4934  0299  0DB7               	rlf	___flmul@grs+3,f
  4935  029A  0BAD               	decfsz	??___flmul,f
  4936  029B  2A95               	goto	u4245
  4937  029C                     l2986:
  4938  029C  0838               	movf	___flmul@bexp,w
  4939  029D  0733               	addwf	___flmul@aexp,w
  4940  029E  00AD               	movwf	??___flmul
  4941  029F  01AE               	clrf	??___flmul+1
  4942  02A0  0DAE               	rlf	??___flmul+1,f
  4943  02A1  082D               	movf	??___flmul,w
  4944  02A2  3E82               	addlw	130
  4945  02A3  00BD               	movwf	___flmul@temp
  4946  02A4  082E               	movf	??___flmul+1,w
  4947  02A5  1803               	skipnc
  4948  02A6  3E01               	addlw	1
  4949  02A7  3EFF               	addlw	255
  4950  02A8  00BE               	movwf	___flmul@temp+1
  4951  02A9  2AC7               	goto	l2998
  4952  02AA                     l2988:
  4953  02AA  3001               	movlw	1
  4954  02AB  00AD               	movwf	??___flmul
  4955  02AC                     u4255:
  4956  02AC  1003               	clrc
  4957  02AD  0DB9               	rlf	___flmul@prod,f
  4958  02AE  0DBA               	rlf	___flmul@prod+1,f
  4959  02AF  0DBB               	rlf	___flmul@prod+2,f
  4960  02B0  0DBC               	rlf	___flmul@prod+3,f
  4961  02B1  0BAD               	decfsz	??___flmul,f
  4962  02B2  2AAC               	goto	u4255
  4963  02B3                     l2990:
  4964  02B3  1FB7               	btfss	___flmul@grs+3,7
  4965  02B4  2AB6               	goto	u4261
  4966  02B5  2AB7               	goto	u4260
  4967  02B6                     u4261:
  4968  02B6  2AB8               	goto	l2994
  4969  02B7                     u4260:
  4970  02B7                     l2992:
  4971  02B7  1439               	bsf	___flmul@prod,0
  4972  02B8                     l2994:
  4973  02B8  3001               	movlw	1
  4974  02B9  00AD               	movwf	??___flmul
  4975  02BA                     u4275:
  4976  02BA  1003               	clrc
  4977  02BB  0DB4               	rlf	___flmul@grs,f
  4978  02BC  0DB5               	rlf	___flmul@grs+1,f
  4979  02BD  0DB6               	rlf	___flmul@grs+2,f
  4980  02BE  0DB7               	rlf	___flmul@grs+3,f
  4981  02BF  0BAD               	decfsz	??___flmul,f
  4982  02C0  2ABA               	goto	u4275
  4983  02C1                     l2996:
  4984  02C1  30FF               	movlw	255
  4985  02C2  07BD               	addwf	___flmul@temp,f
  4986  02C3  1803               	skipnc
  4987  02C4  0ABE               	incf	___flmul@temp+1,f
  4988  02C5  30FF               	movlw	255
  4989  02C6  07BE               	addwf	___flmul@temp+1,f
  4990  02C7                     l2998:
  4991  02C7  1FBB               	btfss	___flmul@prod+2,7
  4992  02C8  2ACA               	goto	u4281
  4993  02C9  2ACB               	goto	u4280
  4994  02CA                     u4281:
  4995  02CA  2AAA               	goto	l2988
  4996  02CB                     u4280:
  4997  02CB                     l3000:
  4998  02CB  01B3               	clrf	___flmul@aexp
  4999  02CC                     l3002:
  5000  02CC  1FB7               	btfss	___flmul@grs+3,7
  5001  02CD  2ACF               	goto	u4291
  5002  02CE  2AD0               	goto	u4290
  5003  02CF                     u4291:
  5004  02CF  2AEC               	goto	l3010
  5005  02D0                     u4290:
  5006  02D0                     l3004:
  5007  02D0  30FF               	movlw	255
  5008  02D1  0534               	andwf	___flmul@grs,w
  5009  02D2  00AD               	movwf	??___flmul
  5010  02D3  30FF               	movlw	255
  5011  02D4  0535               	andwf	___flmul@grs+1,w
  5012  02D5  00AE               	movwf	??___flmul+1
  5013  02D6  30FF               	movlw	255
  5014  02D7  0536               	andwf	___flmul@grs+2,w
  5015  02D8  00AF               	movwf	??___flmul+2
  5016  02D9  307F               	movlw	127
  5017  02DA  0537               	andwf	___flmul@grs+3,w
  5018  02DB  00B0               	movwf	??___flmul+3
  5019  02DC  0830               	movf	??___flmul+3,w
  5020  02DD  042F               	iorwf	??___flmul+2,w
  5021  02DE  042E               	iorwf	??___flmul+1,w
  5022  02DF  042D               	iorwf	??___flmul,w
  5023  02E0  1903               	skipnz
  5024  02E1  2AE3               	goto	u4301
  5025  02E2  2AE4               	goto	u4300
  5026  02E3                     u4301:
  5027  02E3  2AE7               	goto	l689
  5028  02E4                     u4300:
  5029  02E4                     l3006:
  5030  02E4  01B3               	clrf	___flmul@aexp
  5031  02E5  0AB3               	incf	___flmul@aexp,f
  5032  02E6  2AEC               	goto	l3010
  5033  02E7                     l689:
  5034  02E7  1C39               	btfss	___flmul@prod,0
  5035  02E8  2AEA               	goto	u4311
  5036  02E9  2AEB               	goto	u4310
  5037  02EA                     u4311:
  5038  02EA  2AEC               	goto	l3010
  5039  02EB                     u4310:
  5040  02EB  2AE4               	goto	l3006
  5041  02EC                     l3010:
  5042  02EC  0833               	movf	___flmul@aexp,w
  5043  02ED  1903               	btfsc	3,2
  5044  02EE  2AF0               	goto	u4321
  5045  02EF  2AF1               	goto	u4320
  5046  02F0                     u4321:
  5047  02F0  2B22               	goto	l3020
  5048  02F1                     u4320:
  5049  02F1                     l3012:
  5050  02F1  3001               	movlw	1
  5051  02F2  07B9               	addwf	___flmul@prod,f
  5052  02F3  3000               	movlw	0
  5053  02F4  1803               	skipnc
  5054  02F5  3001               	movlw	1
  5055  02F6  07BA               	addwf	___flmul@prod+1,f
  5056  02F7  3000               	movlw	0
  5057  02F8  1803               	skipnc
  5058  02F9  3001               	movlw	1
  5059  02FA  07BB               	addwf	___flmul@prod+2,f
  5060  02FB  3000               	movlw	0
  5061  02FC  1803               	skipnc
  5062  02FD  3001               	movlw	1
  5063  02FE  07BC               	addwf	___flmul@prod+3,f
  5064  02FF                     l3014:
  5065  02FF  1C3C               	btfss	___flmul@prod+3,0
  5066  0300  2B02               	goto	u4331
  5067  0301  2B03               	goto	u4330
  5068  0302                     u4331:
  5069  0302  2B22               	goto	l3020
  5070  0303                     u4330:
  5071  0303                     l3016:
  5072  0303  0839               	movf	___flmul@prod,w
  5073  0304  00AD               	movwf	??___flmul
  5074  0305  083A               	movf	___flmul@prod+1,w
  5075  0306  00AE               	movwf	??___flmul+1
  5076  0307  083B               	movf	___flmul@prod+2,w
  5077  0308  00AF               	movwf	??___flmul+2
  5078  0309  083C               	movf	___flmul@prod+3,w
  5079  030A  00B0               	movwf	??___flmul+3
  5080  030B  3001               	movlw	1
  5081  030C  00B1               	movwf	??___flmul+4
  5082  030D                     u4345:
  5083  030D  0D30               	rlf	??___flmul+3,w
  5084  030E  0CB0               	rrf	??___flmul+3,f
  5085  030F  0CAF               	rrf	??___flmul+2,f
  5086  0310  0CAE               	rrf	??___flmul+1,f
  5087  0311  0CAD               	rrf	??___flmul,f
  5088  0312                     u4340:
  5089  0312  0BB1               	decfsz	??___flmul+4,f
  5090  0313  2B0D               	goto	u4345
  5091  0314  0830               	movf	??___flmul+3,w
  5092  0315  00BC               	movwf	___flmul@prod+3
  5093  0316  082F               	movf	??___flmul+2,w
  5094  0317  00BB               	movwf	___flmul@prod+2
  5095  0318  082E               	movf	??___flmul+1,w
  5096  0319  00BA               	movwf	___flmul@prod+1
  5097  031A  082D               	movf	??___flmul,w
  5098  031B  00B9               	movwf	___flmul@prod
  5099  031C                     l3018:
  5100  031C  3001               	movlw	1
  5101  031D  07BD               	addwf	___flmul@temp,f
  5102  031E  1803               	skipnc
  5103  031F  0ABE               	incf	___flmul@temp+1,f
  5104  0320  3000               	movlw	0
  5105  0321  07BE               	addwf	___flmul@temp+1,f
  5106  0322                     l3020:
  5107  0322  083E               	movf	___flmul@temp+1,w
  5108  0323  3A80               	xorlw	128
  5109  0324  00FF               	movwf	btemp+1
  5110  0325  3080               	movlw	128
  5111  0326  027F               	subwf	btemp+1,w
  5112  0327  1D03               	skipz
  5113  0328  2B2B               	goto	u4355
  5114  0329  30FF               	movlw	255
  5115  032A  023D               	subwf	___flmul@temp,w
  5116  032B                     u4355:
  5117  032B  1C03               	skipc
  5118  032C  2B2E               	goto	u4351
  5119  032D  2B2F               	goto	u4350
  5120  032E                     u4351:
  5121  032E  2B3A               	goto	l3024
  5122  032F                     u4350:
  5123  032F                     l3022:
  5124  032F  307F               	movlw	127
  5125  0330  1283               	bcf	3,5	;RP0=0, select bank0
  5126  0331  1303               	bcf	3,6	;RP1=0, select bank0
  5127  0332  00BC               	movwf	___flmul@prod+3
  5128  0333  3080               	movlw	128
  5129  0334  00BB               	movwf	___flmul@prod+2
  5130  0335  3000               	movlw	0
  5131  0336  00BA               	movwf	___flmul@prod+1
  5132  0337  3000               	movlw	0
  5133  0338  00B9               	movwf	___flmul@prod
  5134  0339  2B6F               	goto	l695
  5135  033A                     l3024:
  5136  033A  1283               	bcf	3,5	;RP0=0, select bank0
  5137  033B  1303               	bcf	3,6	;RP1=0, select bank0
  5138  033C  083E               	movf	___flmul@temp+1,w
  5139  033D  3A80               	xorlw	128
  5140  033E  00FF               	movwf	btemp+1
  5141  033F  3080               	movlw	128
  5142  0340  027F               	subwf	btemp+1,w
  5143  0341  1D03               	skipz
  5144  0342  2B45               	goto	u4365
  5145  0343  3001               	movlw	1
  5146  0344  023D               	subwf	___flmul@temp,w
  5147  0345                     u4365:
  5148  0345  1803               	skipnc
  5149  0346  2B48               	goto	u4361
  5150  0347  2B49               	goto	u4360
  5151  0348                     u4361:
  5152  0348  2B55               	goto	l3030
  5153  0349                     u4360:
  5154  0349                     l3026:
  5155  0349  3000               	movlw	0
  5156  034A  1283               	bcf	3,5	;RP0=0, select bank0
  5157  034B  1303               	bcf	3,6	;RP1=0, select bank0
  5158  034C  00BC               	movwf	___flmul@prod+3
  5159  034D  3000               	movlw	0
  5160  034E  00BB               	movwf	___flmul@prod+2
  5161  034F  3000               	movlw	0
  5162  0350  00BA               	movwf	___flmul@prod+1
  5163  0351  3000               	movlw	0
  5164  0352  00B9               	movwf	___flmul@prod
  5165  0353                     l3028:
  5166  0353  01B2               	clrf	___flmul@sign
  5167  0354  2B6F               	goto	l695
  5168  0355                     l3030:
  5169  0355  1283               	bcf	3,5	;RP0=0, select bank0
  5170  0356  1303               	bcf	3,6	;RP1=0, select bank0
  5171  0357  083D               	movf	___flmul@temp,w
  5172  0358  00AD               	movwf	??___flmul
  5173  0359  082D               	movf	??___flmul,w
  5174  035A  00B8               	movwf	___flmul@bexp
  5175  035B  30FF               	movlw	255
  5176  035C  05B9               	andwf	___flmul@prod,f
  5177  035D  30FF               	movlw	255
  5178  035E  05BA               	andwf	___flmul@prod+1,f
  5179  035F  307F               	movlw	127
  5180  0360  05BB               	andwf	___flmul@prod+2,f
  5181  0361  3000               	movlw	0
  5182  0362  05BC               	andwf	___flmul@prod+3,f
  5183  0363                     l3032:
  5184  0363  1C38               	btfss	___flmul@bexp,0
  5185  0364  2B66               	goto	u4371
  5186  0365  2B67               	goto	u4370
  5187  0366                     u4371:
  5188  0366  2B68               	goto	l3036
  5189  0367                     u4370:
  5190  0367                     l3034:
  5191  0367  17BB               	bsf	___flmul@prod+2,7
  5192  0368                     l3036:
  5193  0368  0838               	movf	___flmul@bexp,w
  5194  0369  00AD               	movwf	??___flmul
  5195  036A  1003               	clrc
  5196  036B  0C2D               	rrf	??___flmul,w
  5197  036C  00AE               	movwf	??___flmul+1
  5198  036D  082E               	movf	??___flmul+1,w
  5199  036E  00BC               	movwf	___flmul@prod+3
  5200  036F                     l695:
  5201  036F  0832               	movf	___flmul@sign,w
  5202  0370  00AD               	movwf	??___flmul
  5203  0371  082D               	movf	??___flmul,w
  5204  0372  04BC               	iorwf	___flmul@prod+3,f
  5205  0373                     l3038:
  5206  0373  083C               	movf	___flmul@prod+3,w
  5207  0374  00A8               	movwf	?___flmul+3
  5208  0375  083B               	movf	___flmul@prod+2,w
  5209  0376  00A7               	movwf	?___flmul+2
  5210  0377  083A               	movf	___flmul@prod+1,w
  5211  0378  00A6               	movwf	?___flmul+1
  5212  0379  0839               	movf	___flmul@prod,w
  5213  037A  00A5               	movwf	?___flmul
  5214  037B                     l683:
  5215  037B  0008               	return
  5216  037C                     __end_of___flmul:
  5217                           
  5218                           	psect	text15
  5219  08BD                     __ptext15:	
  5220 ;; *************** function __Umul8_16 *****************
  5221 ;; Defined at:
  5222 ;;		line 4 in file "C:\Program Files\Microchip\xc8\v2.31\pic\sources\c90\common\Umul8_16.c"
  5223 ;; Parameters:    Size  Location     Type
  5224 ;;  multiplier      1    wreg     unsigned char 
  5225 ;;  multiplicand    1    2[COMMON] unsigned char 
  5226 ;; Auto vars:     Size  Location     Type
  5227 ;;  multiplier      1    4[BANK0 ] unsigned char 
  5228 ;;  word_mpld       2    2[BANK0 ] unsigned int 
  5229 ;;  product         2    0[BANK0 ] unsigned int 
  5230 ;; Return value:  Size  Location     Type
  5231 ;;                  2    2[COMMON] unsigned int 
  5232 ;; Registers used:
  5233 ;;		wreg, status,2, status,0
  5234 ;; Tracked objects:
  5235 ;;		On entry : 0/0
  5236 ;;		On exit  : 0/0
  5237 ;;		Unchanged: 0/0
  5238 ;; Data sizes:     COMMON   BANK0   BANK1   BANK3   BANK2
  5239 ;;      Params:         2       0       0       0       0
  5240 ;;      Locals:         0       5       0       0       0
  5241 ;;      Temps:          2       0       0       0       0
  5242 ;;      Totals:         4       5       0       0       0
  5243 ;;Total ram usage:        9 bytes
  5244 ;; Hardware stack levels used:    1
  5245 ;; Hardware stack levels required when called:    1
  5246 ;; This function calls:
  5247 ;;		Nothing
  5248 ;; This function is called by:
  5249 ;;		___flmul
  5250 ;; This function uses a non-reentrant model
  5251 ;;
  5252                           
  5253                           
  5254                           ;psect for function __Umul8_16
  5255  08BD                     __Umul8_16:
  5256                           
  5257                           ;incstack = 0
  5258                           ; Regs used in __Umul8_16: [wreg+status,2+status,0]
  5259                           ;__Umul8_16@multiplier stored from wreg
  5260  08BD  1283               	bcf	3,5	;RP0=0, select bank0
  5261  08BE  1303               	bcf	3,6	;RP1=0, select bank0
  5262  08BF  00A4               	movwf	__Umul8_16@multiplier
  5263  08C0                     l2760:
  5264  08C0  01A0               	clrf	__Umul8_16@product
  5265  08C1  01A1               	clrf	__Umul8_16@product+1
  5266  08C2                     l2762:
  5267  08C2  0872               	movf	__Umul8_16@multiplicand,w
  5268  08C3  00F4               	movwf	??__Umul8_16
  5269  08C4  01F5               	clrf	??__Umul8_16+1
  5270  08C5  0874               	movf	??__Umul8_16,w
  5271  08C6  00A2               	movwf	__Umul8_16@word_mpld
  5272  08C7  0875               	movf	??__Umul8_16+1,w
  5273  08C8  00A3               	movwf	__Umul8_16@word_mpld+1
  5274  08C9                     l2764:
  5275  08C9  1C24               	btfss	__Umul8_16@multiplier,0
  5276  08CA  28CC               	goto	u3701
  5277  08CB  28CD               	goto	u3700
  5278  08CC                     u3701:
  5279  08CC  28D3               	goto	l702
  5280  08CD                     u3700:
  5281  08CD                     l2766:
  5282  08CD  0822               	movf	__Umul8_16@word_mpld,w
  5283  08CE  07A0               	addwf	__Umul8_16@product,f
  5284  08CF  1803               	skipnc
  5285  08D0  0AA1               	incf	__Umul8_16@product+1,f
  5286  08D1  0823               	movf	__Umul8_16@word_mpld+1,w
  5287  08D2  07A1               	addwf	__Umul8_16@product+1,f
  5288  08D3                     l702:
  5289  08D3  3001               	movlw	1
  5290  08D4                     u3715:
  5291  08D4  1003               	clrc
  5292  08D5  0DA2               	rlf	__Umul8_16@word_mpld,f
  5293  08D6  0DA3               	rlf	__Umul8_16@word_mpld+1,f
  5294  08D7  3EFF               	addlw	-1
  5295  08D8  1D03               	skipz
  5296  08D9  28D4               	goto	u3715
  5297  08DA  1003               	clrc
  5298  08DB  0CA4               	rrf	__Umul8_16@multiplier,f
  5299  08DC                     l2768:
  5300  08DC  0824               	movf	__Umul8_16@multiplier,w
  5301  08DD  1D03               	btfss	3,2
  5302  08DE  28E0               	goto	u3721
  5303  08DF  28E1               	goto	u3720
  5304  08E0                     u3721:
  5305  08E0  28C9               	goto	l2764
  5306  08E1                     u3720:
  5307  08E1                     l2770:
  5308  08E1  0821               	movf	__Umul8_16@product+1,w
  5309  08E2  00F3               	movwf	?__Umul8_16+1
  5310  08E3  0820               	movf	__Umul8_16@product,w
  5311  08E4  00F2               	movwf	?__Umul8_16
  5312  08E5                     l704:
  5313  08E5  0008               	return
  5314  08E6                     __end_of__Umul8_16:
  5315                           
  5316                           	psect	text16
  5317  0604                     __ptext16:	
  5318 ;; *************** function ___fldiv *****************
  5319 ;; Defined at:
  5320 ;;		line 8 in file "C:\Program Files\Microchip\xc8\v2.31\pic\sources\c90\common\sprcdiv.c"
  5321 ;; Parameters:    Size  Location     Type
  5322 ;;  a               4    6[BANK0 ] unsigned int 
  5323 ;;  b               4   10[BANK0 ] unsigned int 
  5324 ;; Auto vars:     Size  Location     Type
  5325 ;;  grs             4   26[BANK0 ] unsigned long 
  5326 ;;  rem             4   19[BANK0 ] unsigned long 
  5327 ;;  new_exp         2   24[BANK0 ] int 
  5328 ;;  aexp            1   31[BANK0 ] unsigned char 
  5329 ;;  bexp            1   30[BANK0 ] unsigned char 
  5330 ;;  sign            1   23[BANK0 ] unsigned char 
  5331 ;; Return value:  Size  Location     Type
  5332 ;;                  4    6[BANK0 ] unsigned char 
  5333 ;; Registers used:
  5334 ;;		wreg, status,2, status,0, btemp+1
  5335 ;; Tracked objects:
  5336 ;;		On entry : 0/0
  5337 ;;		On exit  : 0/0
  5338 ;;		Unchanged: 0/0
  5339 ;; Data sizes:     COMMON   BANK0   BANK1   BANK3   BANK2
  5340 ;;      Params:         0       8       0       0       0
  5341 ;;      Locals:         0      13       0       0       0
  5342 ;;      Temps:          0       5       0       0       0
  5343 ;;      Totals:         0      26       0       0       0
  5344 ;;Total ram usage:       26 bytes
  5345 ;; Hardware stack levels used:    1
  5346 ;; Hardware stack levels required when called:    1
  5347 ;; This function calls:
  5348 ;;		Nothing
  5349 ;; This function is called by:
  5350 ;;		_decimalASCII
  5351 ;; This function uses a non-reentrant model
  5352 ;;
  5353                           
  5354                           
  5355                           ;psect for function ___fldiv
  5356  0604                     ___fldiv:
  5357  0604                     l2194:	
  5358                           ;incstack = 0
  5359                           ; Regs used in ___fldiv: [wreg+status,2+status,0+btemp+1]
  5360                           
  5361  0604  1283               	bcf	3,5	;RP0=0, select bank0
  5362  0605  1303               	bcf	3,6	;RP1=0, select bank0
  5363  0606  082D               	movf	___fldiv@b+3,w
  5364  0607  3980               	andlw	128
  5365  0608  00AE               	movwf	??___fldiv
  5366  0609  082E               	movf	??___fldiv,w
  5367  060A  00B7               	movwf	___fldiv@sign
  5368  060B                     l2196:
  5369  060B  082D               	movf	___fldiv@b+3,w
  5370  060C  00AE               	movwf	??___fldiv
  5371  060D  072E               	addwf	??___fldiv,w
  5372  060E  00AF               	movwf	??___fldiv+1
  5373  060F  082F               	movf	??___fldiv+1,w
  5374  0610  00BE               	movwf	___fldiv@bexp
  5375  0611                     l2198:
  5376  0611  1FAC               	btfss	___fldiv@b+2,7
  5377  0612  2E14               	goto	u2771
  5378  0613  2E15               	goto	u2770
  5379  0614                     u2771:
  5380  0614  2E16               	goto	l2202
  5381  0615                     u2770:
  5382  0615                     l2200:
  5383  0615  143E               	bsf	___fldiv@bexp,0
  5384  0616                     l2202:
  5385  0616  083E               	movf	___fldiv@bexp,w
  5386  0617  1903               	btfsc	3,2
  5387  0618  2E1A               	goto	u2781
  5388  0619  2E1B               	goto	u2780
  5389  061A                     u2781:
  5390  061A  2E2B               	goto	l2212
  5391  061B                     u2780:
  5392  061B                     l2204:
  5393  061B  0A3E               	incf	___fldiv@bexp,w
  5394  061C  1D03               	btfss	3,2
  5395  061D  2E1F               	goto	u2791
  5396  061E  2E20               	goto	u2790
  5397  061F                     u2791:
  5398  061F  2E28               	goto	l2208
  5399  0620                     u2790:
  5400  0620                     l2206:
  5401  0620  3000               	movlw	0
  5402  0621  00AD               	movwf	___fldiv@b+3
  5403  0622  3000               	movlw	0
  5404  0623  00AC               	movwf	___fldiv@b+2
  5405  0624  3000               	movlw	0
  5406  0625  00AB               	movwf	___fldiv@b+1
  5407  0626  3000               	movlw	0
  5408  0627  00AA               	movwf	___fldiv@b
  5409  0628                     l2208:
  5410  0628  17AC               	bsf	___fldiv@b+2,7
  5411  0629                     l2210:
  5412  0629  01AD               	clrf	___fldiv@b+3
  5413  062A  2E33               	goto	l2214
  5414  062B                     l2212:
  5415  062B  3000               	movlw	0
  5416  062C  00AD               	movwf	___fldiv@b+3
  5417  062D  3000               	movlw	0
  5418  062E  00AC               	movwf	___fldiv@b+2
  5419  062F  3000               	movlw	0
  5420  0630  00AB               	movwf	___fldiv@b+1
  5421  0631  3000               	movlw	0
  5422  0632  00AA               	movwf	___fldiv@b
  5423  0633                     l2214:
  5424  0633  0829               	movf	___fldiv@a+3,w
  5425  0634  3980               	andlw	128
  5426  0635  00AE               	movwf	??___fldiv
  5427  0636  082E               	movf	??___fldiv,w
  5428  0637  06B7               	xorwf	___fldiv@sign,f
  5429  0638                     l2216:
  5430  0638  0829               	movf	___fldiv@a+3,w
  5431  0639  00AE               	movwf	??___fldiv
  5432  063A  072E               	addwf	??___fldiv,w
  5433  063B  00AF               	movwf	??___fldiv+1
  5434  063C  082F               	movf	??___fldiv+1,w
  5435  063D  00BF               	movwf	___fldiv@aexp
  5436  063E                     l2218:
  5437  063E  1FA8               	btfss	___fldiv@a+2,7
  5438  063F  2E41               	goto	u2801
  5439  0640  2E42               	goto	u2800
  5440  0641                     u2801:
  5441  0641  2E43               	goto	l2222
  5442  0642                     u2800:
  5443  0642                     l2220:
  5444  0642  143F               	bsf	___fldiv@aexp,0
  5445  0643                     l2222:
  5446  0643  083F               	movf	___fldiv@aexp,w
  5447  0644  1903               	btfsc	3,2
  5448  0645  2E47               	goto	u2811
  5449  0646  2E48               	goto	u2810
  5450  0647                     u2811:
  5451  0647  2E58               	goto	l2232
  5452  0648                     u2810:
  5453  0648                     l2224:
  5454  0648  0A3F               	incf	___fldiv@aexp,w
  5455  0649  1D03               	btfss	3,2
  5456  064A  2E4C               	goto	u2821
  5457  064B  2E4D               	goto	u2820
  5458  064C                     u2821:
  5459  064C  2E55               	goto	l2228
  5460  064D                     u2820:
  5461  064D                     l2226:
  5462  064D  3000               	movlw	0
  5463  064E  00A9               	movwf	___fldiv@a+3
  5464  064F  3000               	movlw	0
  5465  0650  00A8               	movwf	___fldiv@a+2
  5466  0651  3000               	movlw	0
  5467  0652  00A7               	movwf	___fldiv@a+1
  5468  0653  3000               	movlw	0
  5469  0654  00A6               	movwf	___fldiv@a
  5470  0655                     l2228:
  5471  0655  17A8               	bsf	___fldiv@a+2,7
  5472  0656                     l2230:
  5473  0656  01A9               	clrf	___fldiv@a+3
  5474  0657  2E60               	goto	l643
  5475  0658                     l2232:
  5476  0658  3000               	movlw	0
  5477  0659  00A9               	movwf	___fldiv@a+3
  5478  065A  3000               	movlw	0
  5479  065B  00A8               	movwf	___fldiv@a+2
  5480  065C  3000               	movlw	0
  5481  065D  00A7               	movwf	___fldiv@a+1
  5482  065E  3000               	movlw	0
  5483  065F  00A6               	movwf	___fldiv@a
  5484  0660                     l643:
  5485  0660  0829               	movf	___fldiv@a+3,w
  5486  0661  0428               	iorwf	___fldiv@a+2,w
  5487  0662  0427               	iorwf	___fldiv@a+1,w
  5488  0663  0426               	iorwf	___fldiv@a,w
  5489  0664  1D03               	skipz
  5490  0665  2E67               	goto	u2831
  5491  0666  2E68               	goto	u2830
  5492  0667                     u2831:
  5493  0667  2E81               	goto	l2242
  5494  0668                     u2830:
  5495  0668                     l2234:
  5496  0668  3000               	movlw	0
  5497  0669  00AD               	movwf	___fldiv@b+3
  5498  066A  3000               	movlw	0
  5499  066B  00AC               	movwf	___fldiv@b+2
  5500  066C  3000               	movlw	0
  5501  066D  00AB               	movwf	___fldiv@b+1
  5502  066E  3000               	movlw	0
  5503  066F  00AA               	movwf	___fldiv@b
  5504  0670  3080               	movlw	128
  5505  0671  04AC               	iorwf	___fldiv@b+2,f
  5506  0672  307F               	movlw	127
  5507  0673  04AD               	iorwf	___fldiv@b+3,f
  5508  0674                     l2236:
  5509  0674  0837               	movf	___fldiv@sign,w
  5510  0675  00AE               	movwf	??___fldiv
  5511  0676  082E               	movf	??___fldiv,w
  5512  0677  04AD               	iorwf	___fldiv@b+3,f
  5513  0678                     l2238:
  5514  0678  082D               	movf	___fldiv@b+3,w
  5515  0679  00A9               	movwf	?___fldiv+3
  5516  067A  082C               	movf	___fldiv@b+2,w
  5517  067B  00A8               	movwf	?___fldiv+2
  5518  067C  082B               	movf	___fldiv@b+1,w
  5519  067D  00A7               	movwf	?___fldiv+1
  5520  067E  082A               	movf	___fldiv@b,w
  5521  067F  00A6               	movwf	?___fldiv
  5522  0680  2FE0               	goto	l645
  5523  0681                     l2242:
  5524  0681  083E               	movf	___fldiv@bexp,w
  5525  0682  1D03               	btfss	3,2
  5526  0683  2E85               	goto	u2841
  5527  0684  2E86               	goto	u2840
  5528  0685                     u2841:
  5529  0685  2E8F               	goto	l2248
  5530  0686                     u2840:
  5531  0686                     l2244:
  5532  0686  3000               	movlw	0
  5533  0687  00A9               	movwf	?___fldiv+3
  5534  0688  3000               	movlw	0
  5535  0689  00A8               	movwf	?___fldiv+2
  5536  068A  3000               	movlw	0
  5537  068B  00A7               	movwf	?___fldiv+1
  5538  068C  3000               	movlw	0
  5539  068D  00A6               	movwf	?___fldiv
  5540  068E  2FE0               	goto	l645
  5541  068F                     l2248:
  5542  068F  083E               	movf	___fldiv@bexp,w
  5543  0690  00AE               	movwf	??___fldiv
  5544  0691  01AF               	clrf	??___fldiv+1
  5545  0692  082F               	movf	??___fldiv+1,w
  5546  0693  00B1               	movwf	??___fldiv+3
  5547  0694  083F               	movf	___fldiv@aexp,w
  5548  0695  022E               	subwf	??___fldiv,w
  5549  0696  00B0               	movwf	??___fldiv+2
  5550  0697  1C03               	skipc
  5551  0698  03B1               	decf	??___fldiv+3,f
  5552  0699  0830               	movf	??___fldiv+2,w
  5553  069A  3E7F               	addlw	127
  5554  069B  00B8               	movwf	___fldiv@new_exp
  5555  069C  0831               	movf	??___fldiv+3,w
  5556  069D  1803               	skipnc
  5557  069E  3E01               	addlw	1
  5558  069F  3E00               	addlw	0
  5559  06A0  00B9               	movwf	___fldiv@new_exp+1
  5560  06A1                     l2250:
  5561  06A1  082D               	movf	___fldiv@b+3,w
  5562  06A2  00B6               	movwf	___fldiv@rem+3
  5563  06A3  082C               	movf	___fldiv@b+2,w
  5564  06A4  00B5               	movwf	___fldiv@rem+2
  5565  06A5  082B               	movf	___fldiv@b+1,w
  5566  06A6  00B4               	movwf	___fldiv@rem+1
  5567  06A7  082A               	movf	___fldiv@b,w
  5568  06A8  00B3               	movwf	___fldiv@rem
  5569  06A9                     l2252:
  5570  06A9  3000               	movlw	0
  5571  06AA  00AD               	movwf	___fldiv@b+3
  5572  06AB  3000               	movlw	0
  5573  06AC  00AC               	movwf	___fldiv@b+2
  5574  06AD  3000               	movlw	0
  5575  06AE  00AB               	movwf	___fldiv@b+1
  5576  06AF  3000               	movlw	0
  5577  06B0  00AA               	movwf	___fldiv@b
  5578  06B1                     l2254:
  5579  06B1  3000               	movlw	0
  5580  06B2  00BD               	movwf	___fldiv@grs+3
  5581  06B3  3000               	movlw	0
  5582  06B4  00BC               	movwf	___fldiv@grs+2
  5583  06B5  3000               	movlw	0
  5584  06B6  00BB               	movwf	___fldiv@grs+1
  5585  06B7  3000               	movlw	0
  5586  06B8  00BA               	movwf	___fldiv@grs
  5587  06B9                     l2256:
  5588  06B9  01BF               	clrf	___fldiv@aexp
  5589  06BA  2F05               	goto	l2276
  5590  06BB                     l2258:
  5591  06BB  083F               	movf	___fldiv@aexp,w
  5592  06BC  1903               	btfsc	3,2
  5593  06BD  2EBF               	goto	u2851
  5594  06BE  2EC0               	goto	u2850
  5595  06BF                     u2851:
  5596  06BF  2EE0               	goto	l2268
  5597  06C0                     u2850:
  5598  06C0                     l2260:
  5599  06C0  3001               	movlw	1
  5600  06C1  00AE               	movwf	??___fldiv
  5601  06C2                     u2865:
  5602  06C2  1003               	clrc
  5603  06C3  0DB3               	rlf	___fldiv@rem,f
  5604  06C4  0DB4               	rlf	___fldiv@rem+1,f
  5605  06C5  0DB5               	rlf	___fldiv@rem+2,f
  5606  06C6  0DB6               	rlf	___fldiv@rem+3,f
  5607  06C7  0BAE               	decfsz	??___fldiv,f
  5608  06C8  2EC2               	goto	u2865
  5609  06C9  3001               	movlw	1
  5610  06CA  00AE               	movwf	??___fldiv
  5611  06CB                     u2875:
  5612  06CB  1003               	clrc
  5613  06CC  0DAA               	rlf	___fldiv@b,f
  5614  06CD  0DAB               	rlf	___fldiv@b+1,f
  5615  06CE  0DAC               	rlf	___fldiv@b+2,f
  5616  06CF  0DAD               	rlf	___fldiv@b+3,f
  5617  06D0  0BAE               	decfsz	??___fldiv,f
  5618  06D1  2ECB               	goto	u2875
  5619  06D2                     l2262:
  5620  06D2  1FBD               	btfss	___fldiv@grs+3,7
  5621  06D3  2ED5               	goto	u2881
  5622  06D4  2ED6               	goto	u2880
  5623  06D5                     u2881:
  5624  06D5  2ED7               	goto	l2266
  5625  06D6                     u2880:
  5626  06D6                     l2264:
  5627  06D6  142A               	bsf	___fldiv@b,0
  5628  06D7                     l2266:
  5629  06D7  3001               	movlw	1
  5630  06D8  00AE               	movwf	??___fldiv
  5631  06D9                     u2895:
  5632  06D9  1003               	clrc
  5633  06DA  0DBA               	rlf	___fldiv@grs,f
  5634  06DB  0DBB               	rlf	___fldiv@grs+1,f
  5635  06DC  0DBC               	rlf	___fldiv@grs+2,f
  5636  06DD  0DBD               	rlf	___fldiv@grs+3,f
  5637  06DE  0BAE               	decfsz	??___fldiv,f
  5638  06DF  2ED9               	goto	u2895
  5639  06E0                     l2268:
  5640  06E0  0829               	movf	___fldiv@a+3,w
  5641  06E1  0236               	subwf	___fldiv@rem+3,w
  5642  06E2  1D03               	skipz
  5643  06E3  2EEE               	goto	u2905
  5644  06E4  0828               	movf	___fldiv@a+2,w
  5645  06E5  0235               	subwf	___fldiv@rem+2,w
  5646  06E6  1D03               	skipz
  5647  06E7  2EEE               	goto	u2905
  5648  06E8  0827               	movf	___fldiv@a+1,w
  5649  06E9  0234               	subwf	___fldiv@rem+1,w
  5650  06EA  1D03               	skipz
  5651  06EB  2EEE               	goto	u2905
  5652  06EC  0826               	movf	___fldiv@a,w
  5653  06ED  0233               	subwf	___fldiv@rem,w
  5654  06EE                     u2905:
  5655  06EE  1C03               	skipc
  5656  06EF  2EF1               	goto	u2901
  5657  06F0  2EF2               	goto	u2900
  5658  06F1                     u2901:
  5659  06F1  2F01               	goto	l2274
  5660  06F2                     u2900:
  5661  06F2                     l2270:
  5662  06F2  173D               	bsf	___fldiv@grs+3,6
  5663  06F3                     l2272:
  5664  06F3  0826               	movf	___fldiv@a,w
  5665  06F4  02B3               	subwf	___fldiv@rem,f
  5666  06F5  0827               	movf	___fldiv@a+1,w
  5667  06F6  1C03               	skipc
  5668  06F7  0F27               	incfsz	___fldiv@a+1,w
  5669  06F8  02B4               	subwf	___fldiv@rem+1,f
  5670  06F9  0828               	movf	___fldiv@a+2,w
  5671  06FA  1C03               	skipc
  5672  06FB  0F28               	incfsz	___fldiv@a+2,w
  5673  06FC  02B5               	subwf	___fldiv@rem+2,f
  5674  06FD  0829               	movf	___fldiv@a+3,w
  5675  06FE  1C03               	skipc
  5676  06FF  0F29               	incfsz	___fldiv@a+3,w
  5677  0700  02B6               	subwf	___fldiv@rem+3,f
  5678  0701                     l2274:
  5679  0701  3001               	movlw	1
  5680  0702  00AE               	movwf	??___fldiv
  5681  0703  082E               	movf	??___fldiv,w
  5682  0704  07BF               	addwf	___fldiv@aexp,f
  5683  0705                     l2276:
  5684  0705  301A               	movlw	26
  5685  0706  023F               	subwf	___fldiv@aexp,w
  5686  0707  1C03               	skipc
  5687  0708  2F0A               	goto	u2911
  5688  0709  2F0B               	goto	u2910
  5689  070A                     u2911:
  5690  070A  2EBB               	goto	l2258
  5691  070B                     u2910:
  5692  070B                     l2278:
  5693  070B  0836               	movf	___fldiv@rem+3,w
  5694  070C  0435               	iorwf	___fldiv@rem+2,w
  5695  070D  0434               	iorwf	___fldiv@rem+1,w
  5696  070E  0433               	iorwf	___fldiv@rem,w
  5697  070F  1903               	skipnz
  5698  0710  2F12               	goto	u2921
  5699  0711  2F13               	goto	u2920
  5700  0712                     u2921:
  5701  0712  2F32               	goto	l2292
  5702  0713                     u2920:
  5703  0713                     l2280:
  5704  0713  143A               	bsf	___fldiv@grs,0
  5705  0714  2F32               	goto	l2292
  5706  0715                     l2282:
  5707  0715  3001               	movlw	1
  5708  0716  00AE               	movwf	??___fldiv
  5709  0717                     u2935:
  5710  0717  1003               	clrc
  5711  0718  0DAA               	rlf	___fldiv@b,f
  5712  0719  0DAB               	rlf	___fldiv@b+1,f
  5713  071A  0DAC               	rlf	___fldiv@b+2,f
  5714  071B  0DAD               	rlf	___fldiv@b+3,f
  5715  071C  0BAE               	decfsz	??___fldiv,f
  5716  071D  2F17               	goto	u2935
  5717  071E                     l2284:
  5718  071E  1FBD               	btfss	___fldiv@grs+3,7
  5719  071F  2F21               	goto	u2941
  5720  0720  2F22               	goto	u2940
  5721  0721                     u2941:
  5722  0721  2F23               	goto	l2288
  5723  0722                     u2940:
  5724  0722                     l2286:
  5725  0722  142A               	bsf	___fldiv@b,0
  5726  0723                     l2288:
  5727  0723  3001               	movlw	1
  5728  0724  00AE               	movwf	??___fldiv
  5729  0725                     u2955:
  5730  0725  1003               	clrc
  5731  0726  0DBA               	rlf	___fldiv@grs,f
  5732  0727  0DBB               	rlf	___fldiv@grs+1,f
  5733  0728  0DBC               	rlf	___fldiv@grs+2,f
  5734  0729  0DBD               	rlf	___fldiv@grs+3,f
  5735  072A  0BAE               	decfsz	??___fldiv,f
  5736  072B  2F25               	goto	u2955
  5737  072C                     l2290:
  5738  072C  30FF               	movlw	255
  5739  072D  07B8               	addwf	___fldiv@new_exp,f
  5740  072E  1803               	skipnc
  5741  072F  0AB9               	incf	___fldiv@new_exp+1,f
  5742  0730  30FF               	movlw	255
  5743  0731  07B9               	addwf	___fldiv@new_exp+1,f
  5744  0732                     l2292:
  5745  0732  1FAC               	btfss	___fldiv@b+2,7
  5746  0733  2F35               	goto	u2961
  5747  0734  2F36               	goto	u2960
  5748  0735                     u2961:
  5749  0735  2F15               	goto	l2282
  5750  0736                     u2960:
  5751  0736                     l2294:
  5752  0736  01BF               	clrf	___fldiv@aexp
  5753  0737                     l2296:
  5754  0737  1FBD               	btfss	___fldiv@grs+3,7
  5755  0738  2F3A               	goto	u2971
  5756  0739  2F3B               	goto	u2970
  5757  073A                     u2971:
  5758  073A  2F57               	goto	l2304
  5759  073B                     u2970:
  5760  073B                     l2298:
  5761  073B  30FF               	movlw	255
  5762  073C  053A               	andwf	___fldiv@grs,w
  5763  073D  00AE               	movwf	??___fldiv
  5764  073E  30FF               	movlw	255
  5765  073F  053B               	andwf	___fldiv@grs+1,w
  5766  0740  00AF               	movwf	??___fldiv+1
  5767  0741  30FF               	movlw	255
  5768  0742  053C               	andwf	___fldiv@grs+2,w
  5769  0743  00B0               	movwf	??___fldiv+2
  5770  0744  307F               	movlw	127
  5771  0745  053D               	andwf	___fldiv@grs+3,w
  5772  0746  00B1               	movwf	??___fldiv+3
  5773  0747  0831               	movf	??___fldiv+3,w
  5774  0748  0430               	iorwf	??___fldiv+2,w
  5775  0749  042F               	iorwf	??___fldiv+1,w
  5776  074A  042E               	iorwf	??___fldiv,w
  5777  074B  1903               	skipnz
  5778  074C  2F4E               	goto	u2981
  5779  074D  2F4F               	goto	u2980
  5780  074E                     u2981:
  5781  074E  2F52               	goto	l659
  5782  074F                     u2980:
  5783  074F                     l2300:
  5784  074F  01BF               	clrf	___fldiv@aexp
  5785  0750  0ABF               	incf	___fldiv@aexp,f
  5786  0751  2F57               	goto	l2304
  5787  0752                     l659:
  5788  0752  1C2A               	btfss	___fldiv@b,0
  5789  0753  2F55               	goto	u2991
  5790  0754  2F56               	goto	u2990
  5791  0755                     u2991:
  5792  0755  2F57               	goto	l2304
  5793  0756                     u2990:
  5794  0756  2F4F               	goto	l2300
  5795  0757                     l2304:
  5796  0757  083F               	movf	___fldiv@aexp,w
  5797  0758  1903               	btfsc	3,2
  5798  0759  2F5B               	goto	u3001
  5799  075A  2F5C               	goto	u3000
  5800  075B                     u3001:
  5801  075B  2F8D               	goto	l2314
  5802  075C                     u3000:
  5803  075C                     l2306:
  5804  075C  3001               	movlw	1
  5805  075D  07AA               	addwf	___fldiv@b,f
  5806  075E  3000               	movlw	0
  5807  075F  1803               	skipnc
  5808  0760  3001               	movlw	1
  5809  0761  07AB               	addwf	___fldiv@b+1,f
  5810  0762  3000               	movlw	0
  5811  0763  1803               	skipnc
  5812  0764  3001               	movlw	1
  5813  0765  07AC               	addwf	___fldiv@b+2,f
  5814  0766  3000               	movlw	0
  5815  0767  1803               	skipnc
  5816  0768  3001               	movlw	1
  5817  0769  07AD               	addwf	___fldiv@b+3,f
  5818  076A                     l2308:
  5819  076A  1C2D               	btfss	___fldiv@b+3,0
  5820  076B  2F6D               	goto	u3011
  5821  076C  2F6E               	goto	u3010
  5822  076D                     u3011:
  5823  076D  2F8D               	goto	l2314
  5824  076E                     u3010:
  5825  076E                     l2310:
  5826  076E  082A               	movf	___fldiv@b,w
  5827  076F  00AE               	movwf	??___fldiv
  5828  0770  082B               	movf	___fldiv@b+1,w
  5829  0771  00AF               	movwf	??___fldiv+1
  5830  0772  082C               	movf	___fldiv@b+2,w
  5831  0773  00B0               	movwf	??___fldiv+2
  5832  0774  082D               	movf	___fldiv@b+3,w
  5833  0775  00B1               	movwf	??___fldiv+3
  5834  0776  3001               	movlw	1
  5835  0777  00B2               	movwf	??___fldiv+4
  5836  0778                     u3025:
  5837  0778  0D31               	rlf	??___fldiv+3,w
  5838  0779  0CB1               	rrf	??___fldiv+3,f
  5839  077A  0CB0               	rrf	??___fldiv+2,f
  5840  077B  0CAF               	rrf	??___fldiv+1,f
  5841  077C  0CAE               	rrf	??___fldiv,f
  5842  077D                     u3020:
  5843  077D  0BB2               	decfsz	??___fldiv+4,f
  5844  077E  2F78               	goto	u3025
  5845  077F  0831               	movf	??___fldiv+3,w
  5846  0780  00AD               	movwf	___fldiv@b+3
  5847  0781  0830               	movf	??___fldiv+2,w
  5848  0782  00AC               	movwf	___fldiv@b+2
  5849  0783  082F               	movf	??___fldiv+1,w
  5850  0784  00AB               	movwf	___fldiv@b+1
  5851  0785  082E               	movf	??___fldiv,w
  5852  0786  00AA               	movwf	___fldiv@b
  5853  0787                     l2312:
  5854  0787  3001               	movlw	1
  5855  0788  07B8               	addwf	___fldiv@new_exp,f
  5856  0789  1803               	skipnc
  5857  078A  0AB9               	incf	___fldiv@new_exp+1,f
  5858  078B  3000               	movlw	0
  5859  078C  07B9               	addwf	___fldiv@new_exp+1,f
  5860  078D                     l2314:
  5861  078D  0839               	movf	___fldiv@new_exp+1,w
  5862  078E  3A80               	xorlw	128
  5863  078F  00FF               	movwf	btemp+1
  5864  0790  3080               	movlw	128
  5865  0791  027F               	subwf	btemp+1,w
  5866  0792  1D03               	skipz
  5867  0793  2F96               	goto	u3035
  5868  0794  30FF               	movlw	255
  5869  0795  0238               	subwf	___fldiv@new_exp,w
  5870  0796                     u3035:
  5871  0796  1C03               	skipc
  5872  0797  2F99               	goto	u3031
  5873  0798  2F9A               	goto	u3030
  5874  0799                     u3031:
  5875  0799  2FA8               	goto	l2318
  5876  079A                     u3030:
  5877  079A                     l2316:
  5878  079A  30FF               	movlw	255
  5879  079B  1283               	bcf	3,5	;RP0=0, select bank0
  5880  079C  1303               	bcf	3,6	;RP1=0, select bank0
  5881  079D  00B8               	movwf	___fldiv@new_exp
  5882  079E  3000               	movlw	0
  5883  079F  00B9               	movwf	___fldiv@new_exp+1
  5884  07A0  3000               	movlw	0
  5885  07A1  00AD               	movwf	___fldiv@b+3
  5886  07A2  3000               	movlw	0
  5887  07A3  00AC               	movwf	___fldiv@b+2
  5888  07A4  3000               	movlw	0
  5889  07A5  00AB               	movwf	___fldiv@b+1
  5890  07A6  3000               	movlw	0
  5891  07A7  00AA               	movwf	___fldiv@b
  5892  07A8                     l2318:
  5893  07A8  1283               	bcf	3,5	;RP0=0, select bank0
  5894  07A9  1303               	bcf	3,6	;RP1=0, select bank0
  5895  07AA  0839               	movf	___fldiv@new_exp+1,w
  5896  07AB  3A80               	xorlw	128
  5897  07AC  00FF               	movwf	btemp+1
  5898  07AD  3080               	movlw	128
  5899  07AE  027F               	subwf	btemp+1,w
  5900  07AF  1D03               	skipz
  5901  07B0  2FB3               	goto	u3045
  5902  07B1  3001               	movlw	1
  5903  07B2  0238               	subwf	___fldiv@new_exp,w
  5904  07B3                     u3045:
  5905  07B3  1803               	skipnc
  5906  07B4  2FB6               	goto	u3041
  5907  07B5  2FB7               	goto	u3040
  5908  07B6                     u3041:
  5909  07B6  2FC4               	goto	l665
  5910  07B7                     u3040:
  5911  07B7                     l2320:
  5912  07B7  1283               	bcf	3,5	;RP0=0, select bank0
  5913  07B8  1303               	bcf	3,6	;RP1=0, select bank0
  5914  07B9  01B8               	clrf	___fldiv@new_exp
  5915  07BA  01B9               	clrf	___fldiv@new_exp+1
  5916  07BB                     l2322:
  5917  07BB  3000               	movlw	0
  5918  07BC  00AD               	movwf	___fldiv@b+3
  5919  07BD  3000               	movlw	0
  5920  07BE  00AC               	movwf	___fldiv@b+2
  5921  07BF  3000               	movlw	0
  5922  07C0  00AB               	movwf	___fldiv@b+1
  5923  07C1  3000               	movlw	0
  5924  07C2  00AA               	movwf	___fldiv@b
  5925  07C3                     l2324:
  5926  07C3  01B7               	clrf	___fldiv@sign
  5927  07C4                     l665:
  5928  07C4  1283               	bcf	3,5	;RP0=0, select bank0
  5929  07C5  1303               	bcf	3,6	;RP1=0, select bank0
  5930  07C6  0838               	movf	___fldiv@new_exp,w
  5931  07C7  00AE               	movwf	??___fldiv
  5932  07C8  082E               	movf	??___fldiv,w
  5933  07C9  00BE               	movwf	___fldiv@bexp
  5934  07CA                     l2326:
  5935  07CA  1C3E               	btfss	___fldiv@bexp,0
  5936  07CB  2FCD               	goto	u3051
  5937  07CC  2FCE               	goto	u3050
  5938  07CD                     u3051:
  5939  07CD  2FD0               	goto	l2330
  5940  07CE                     u3050:
  5941  07CE                     l2328:
  5942  07CE  17AC               	bsf	___fldiv@b+2,7
  5943  07CF  2FD4               	goto	l667
  5944  07D0                     l2330:
  5945  07D0  307F               	movlw	127
  5946  07D1  00AE               	movwf	??___fldiv
  5947  07D2  082E               	movf	??___fldiv,w
  5948  07D3  05AC               	andwf	___fldiv@b+2,f
  5949  07D4                     l667:
  5950  07D4  083E               	movf	___fldiv@bexp,w
  5951  07D5  00AE               	movwf	??___fldiv
  5952  07D6  1003               	clrc
  5953  07D7  0C2E               	rrf	??___fldiv,w
  5954  07D8  00AF               	movwf	??___fldiv+1
  5955  07D9  082F               	movf	??___fldiv+1,w
  5956  07DA  00AD               	movwf	___fldiv@b+3
  5957  07DB  0837               	movf	___fldiv@sign,w
  5958  07DC  00AE               	movwf	??___fldiv
  5959  07DD  082E               	movf	??___fldiv,w
  5960  07DE  04AD               	iorwf	___fldiv@b+3,f
  5961  07DF  2E78               	goto	l2238
  5962  07E0                     l645:
  5963  07E0  0008               	return
  5964  07E1                     __end_of___fldiv:
  5965                           
  5966                           	psect	text17
  5967  0971                     __ptext17:	
  5968 ;; *************** function _UARTSendString *****************
  5969 ;; Defined at:
  5970 ;;		line 50 in file "UART.c"
  5971 ;; Parameters:    Size  Location     Type
  5972 ;;  str             2    3[COMMON] PTR const unsigned char 
  5973 ;;		 -> NULL(0), intToString@valor(4), decimalASCII@cadena(5), STR_9(2), 
  5974 ;;		 -> STR_8(13), STR_7(2), STR_6(10), STR_5(3), 
  5975 ;;		 -> STR_4(5), 
  5976 ;;  max_length      1    5[COMMON] const unsigned char 
  5977 ;; Auto vars:     Size  Location     Type
  5978 ;;  i               2    0[BANK0 ] int 
  5979 ;; Return value:  Size  Location     Type
  5980 ;;                  1    wreg      void 
  5981 ;; Registers used:
  5982 ;;		wreg, fsr0l, fsr0h, status,2, status,0, btemp+1, pclath, cstack
  5983 ;; Tracked objects:
  5984 ;;		On entry : 0/0
  5985 ;;		On exit  : 0/0
  5986 ;;		Unchanged: 0/0
  5987 ;; Data sizes:     COMMON   BANK0   BANK1   BANK3   BANK2
  5988 ;;      Params:         3       0       0       0       0
  5989 ;;      Locals:         0       2       0       0       0
  5990 ;;      Temps:          3       0       0       0       0
  5991 ;;      Totals:         6       2       0       0       0
  5992 ;;Total ram usage:        8 bytes
  5993 ;; Hardware stack levels used:    1
  5994 ;; Hardware stack levels required when called:    2
  5995 ;; This function calls:
  5996 ;;		_UARTSendChar
  5997 ;; This function is called by:
  5998 ;;		_main
  5999 ;; This function uses a non-reentrant model
  6000 ;;
  6001                           
  6002                           
  6003                           ;psect for function _UARTSendString
  6004  0971                     _UARTSendString:
  6005  0971                     l3134:	
  6006                           ;incstack = 0
  6007                           ; Regs used in _UARTSendString: [wreg-fsr0h+status,2+status,0+btemp+1+pclath+cstack]
  6008                           
  6009                           
  6010                           ;UART.c: 51:     int i = 0;
  6011  0971  1283               	bcf	3,5	;RP0=0, select bank0
  6012  0972  1303               	bcf	3,6	;RP1=0, select bank0
  6013  0973  01A0               	clrf	UARTSendString@i
  6014  0974  01A1               	clrf	UARTSendString@i+1
  6015                           
  6016                           ;UART.c: 52:     for (i=0 ; i<max_length && str[i]!='\0' ; i++) {
  6017  0975  01A0               	clrf	UARTSendString@i
  6018  0976  01A1               	clrf	UARTSendString@i+1
  6019  0977  299C               	goto	l3140
  6020  0978                     l3136:
  6021                           
  6022                           ;UART.c: 53:         UARTSendChar(str[i]);
  6023  0978  0820               	movf	UARTSendString@i,w
  6024  0979  0773               	addwf	UARTSendString@str,w
  6025  097A  00F7               	movwf	??_UARTSendString+1
  6026  097B  0874               	movf	UARTSendString@str+1,w
  6027  097C  00F6               	movwf	??_UARTSendString
  6028  097D  1803               	skipnc
  6029  097E  0AF6               	incf	??_UARTSendString,f
  6030  097F  1FA0               	btfss	UARTSendString@i,7
  6031  0980  2982               	goto	u4460
  6032  0981  03F6               	decf	??_UARTSendString,f
  6033  0982                     u4460:
  6034  0982  0876               	movf	??_UARTSendString,w
  6035  0983  00F8               	movwf	??_UARTSendString+2
  6036  0984  0878               	movf	??_UARTSendString+2,w
  6037  0985  1283               	bcf	3,5	;RP0=0, select bank0
  6038  0986  1303               	bcf	3,6	;RP1=0, select bank0
  6039  0987  00FF               	movwf	btemp+1
  6040  0988  0877               	movf	??_UARTSendString+1,w
  6041  0989  0084               	movwf	4
  6042  098A  120A  158A  2000  120A  158A  	fcall	stringtab
  6043  098F  160A  118A  27CA  120A  158A  	fcall	_UARTSendChar
  6044  0994                     l3138:
  6045                           
  6046                           ;UART.c: 54:     }
  6047  0994  3001               	movlw	1
  6048  0995  1283               	bcf	3,5	;RP0=0, select bank0
  6049  0996  1303               	bcf	3,6	;RP1=0, select bank0
  6050  0997  07A0               	addwf	UARTSendString@i,f
  6051  0998  1803               	skipnc
  6052  0999  0AA1               	incf	UARTSendString@i+1,f
  6053  099A  3000               	movlw	0
  6054  099B  07A1               	addwf	UARTSendString@i+1,f
  6055  099C                     l3140:
  6056  099C  0821               	movf	UARTSendString@i+1,w
  6057  099D  3A80               	xorlw	128
  6058  099E  00F6               	movwf	??_UARTSendString
  6059  099F  3080               	movlw	128
  6060  09A0  0276               	subwf	??_UARTSendString,w
  6061  09A1  1D03               	skipz
  6062  09A2  29A5               	goto	u4475
  6063  09A3  0875               	movf	UARTSendString@max_length,w
  6064  09A4  0220               	subwf	UARTSendString@i,w
  6065  09A5                     u4475:
  6066  09A5  1803               	skipnc
  6067  09A6  29A8               	goto	u4471
  6068  09A7  29A9               	goto	u4470
  6069  09A8                     u4471:
  6070  09A8  29C7               	goto	l151
  6071  09A9                     u4470:
  6072  09A9                     l3142:
  6073  09A9  1283               	bcf	3,5	;RP0=0, select bank0
  6074  09AA  1303               	bcf	3,6	;RP1=0, select bank0
  6075  09AB  0820               	movf	UARTSendString@i,w
  6076  09AC  0773               	addwf	UARTSendString@str,w
  6077  09AD  00F7               	movwf	??_UARTSendString+1
  6078  09AE  0874               	movf	UARTSendString@str+1,w
  6079  09AF  00F6               	movwf	??_UARTSendString
  6080  09B0  1803               	skipnc
  6081  09B1  0AF6               	incf	??_UARTSendString,f
  6082  09B2  1FA0               	btfss	UARTSendString@i,7
  6083  09B3  29B5               	goto	u4480
  6084  09B4  03F6               	decf	??_UARTSendString,f
  6085  09B5                     u4480:
  6086  09B5  0876               	movf	??_UARTSendString,w
  6087  09B6  00F8               	movwf	??_UARTSendString+2
  6088  09B7  0878               	movf	??_UARTSendString+2,w
  6089  09B8  1283               	bcf	3,5	;RP0=0, select bank0
  6090  09B9  1303               	bcf	3,6	;RP1=0, select bank0
  6091  09BA  00FF               	movwf	btemp+1
  6092  09BB  0877               	movf	??_UARTSendString+1,w
  6093  09BC  0084               	movwf	4
  6094  09BD  120A  158A  2000  120A  158A  	fcall	stringtab
  6095  09C2  3A00               	xorlw	0
  6096  09C3  1D03               	skipz
  6097  09C4  29C6               	goto	u4491
  6098  09C5  29C7               	goto	u4490
  6099  09C6                     u4491:
  6100  09C6  2978               	goto	l3136
  6101  09C7                     u4490:
  6102  09C7                     l151:
  6103  09C7  0008               	return
  6104  09C8                     __end_of_UARTSendString:
  6105                           
  6106                           	psect	text18
  6107  17CA                     __ptext18:	
  6108 ;; *************** function _UARTSendChar *****************
  6109 ;; Defined at:
  6110 ;;		line 40 in file "UART.c"
  6111 ;; Parameters:    Size  Location     Type
  6112 ;;  c               1    wreg     const unsigned char 
  6113 ;; Auto vars:     Size  Location     Type
  6114 ;;  c               1    2[COMMON] const unsigned char 
  6115 ;; Return value:  Size  Location     Type
  6116 ;;                  1    wreg      void 
  6117 ;; Registers used:
  6118 ;;		wreg
  6119 ;; Tracked objects:
  6120 ;;		On entry : 0/0
  6121 ;;		On exit  : 0/0
  6122 ;;		Unchanged: 0/0
  6123 ;; Data sizes:     COMMON   BANK0   BANK1   BANK3   BANK2
  6124 ;;      Params:         0       0       0       0       0
  6125 ;;      Locals:         1       0       0       0       0
  6126 ;;      Temps:          0       0       0       0       0
  6127 ;;      Totals:         1       0       0       0       0
  6128 ;;Total ram usage:        1 bytes
  6129 ;; Hardware stack levels used:    1
  6130 ;; Hardware stack levels required when called:    1
  6131 ;; This function calls:
  6132 ;;		Nothing
  6133 ;; This function is called by:
  6134 ;;		_UARTSendString
  6135 ;; This function uses a non-reentrant model
  6136 ;;
  6137                           
  6138                           
  6139                           ;psect for function _UARTSendChar
  6140  17CA                     _UARTSendChar:
  6141                           
  6142                           ;incstack = 0
  6143                           ; Regs used in _UARTSendChar: [wreg]
  6144                           ;UARTSendChar@c stored from wreg
  6145  17CA  00F2               	movwf	UARTSendChar@c
  6146  17CB                     l2774:
  6147  17CB                     l140:	
  6148                           ;UART.c: 41:     while (TXSTAbits.TRMT == 0);
  6149                           
  6150  17CB  1683               	bsf	3,5	;RP0=1, select bank1
  6151  17CC  1303               	bcf	3,6	;RP1=0, select bank1
  6152  17CD  1C98               	btfss	24,1	;volatile
  6153  17CE  2FD0               	goto	u3731
  6154  17CF  2FD1               	goto	u3730
  6155  17D0                     u3731:
  6156  17D0  2FCB               	goto	l140
  6157  17D1                     u3730:
  6158  17D1                     l2776:
  6159                           
  6160                           ;UART.c: 42:     TXREG = c;
  6161  17D1  0872               	movf	UARTSendChar@c,w
  6162  17D2  1283               	bcf	3,5	;RP0=0, select bank0
  6163  17D3  1303               	bcf	3,6	;RP1=0, select bank0
  6164  17D4  0099               	movwf	25	;volatile
  6165  17D5                     l143:
  6166  17D5  0008               	return
  6167  17D6                     __end_of_UARTSendChar:
  6168                           
  6169                           	psect	text19
  6170  0B51                     __ptext19:	
  6171 ;; *************** function _UARTInit *****************
  6172 ;; Defined at:
  6173 ;;		line 9 in file "UART.c"
  6174 ;; Parameters:    Size  Location     Type
  6175 ;;  baud_rate       4    6[BANK0 ] const unsigned long 
  6176 ;;  BRGH            1   10[BANK0 ] const unsigned char 
  6177 ;; Auto vars:     Size  Location     Type
  6178 ;;		None
  6179 ;; Return value:  Size  Location     Type
  6180 ;;                  1    wreg      void 
  6181 ;; Registers used:
  6182 ;;		wreg, status,2, status,0, pclath, cstack
  6183 ;; Tracked objects:
  6184 ;;		On entry : 0/0
  6185 ;;		On exit  : 0/0
  6186 ;;		Unchanged: 0/0
  6187 ;; Data sizes:     COMMON   BANK0   BANK1   BANK3   BANK2
  6188 ;;      Params:         0       5       0       0       0
  6189 ;;      Locals:         0       0       0       0       0
  6190 ;;      Temps:          0       4       0       0       0
  6191 ;;      Totals:         0       9       0       0       0
  6192 ;;Total ram usage:        9 bytes
  6193 ;; Hardware stack levels used:    1
  6194 ;; Hardware stack levels required when called:    2
  6195 ;; This function calls:
  6196 ;;		___lldiv
  6197 ;; This function is called by:
  6198 ;;		_main
  6199 ;; This function uses a non-reentrant model
  6200 ;;
  6201                           
  6202                           
  6203                           ;psect for function _UARTInit
  6204  0B51                     _UARTInit:
  6205  0B51                     l3042:	
  6206                           ;incstack = 0
  6207                           ; Regs used in _UARTInit: [wreg+status,2+status,0+pclath+cstack]
  6208                           
  6209                           
  6210                           ;UART.c: 11:     if (BRGH == 0) {
  6211  0B51  1283               	bcf	3,5	;RP0=0, select bank0
  6212  0B52  1303               	bcf	3,6	;RP1=0, select bank0
  6213  0B53  082A               	movf	UARTInit@BRGH,w
  6214  0B54  1D03               	btfss	3,2
  6215  0B55  2B57               	goto	u4381
  6216  0B56  2B58               	goto	u4380
  6217  0B57                     u4381:
  6218  0B57  2B85               	goto	l3048
  6219  0B58                     u4380:
  6220  0B58                     l3044:
  6221                           
  6222                           ;UART.c: 12:         SPBRG = 4000000/(64*baud_rate) - 1;
  6223  0B58  0826               	movf	UARTInit@baud_rate,w
  6224  0B59  00AB               	movwf	??_UARTInit
  6225  0B5A  0827               	movf	UARTInit@baud_rate+1,w
  6226  0B5B  00AC               	movwf	??_UARTInit+1
  6227  0B5C  0828               	movf	UARTInit@baud_rate+2,w
  6228  0B5D  00AD               	movwf	??_UARTInit+2
  6229  0B5E  0829               	movf	UARTInit@baud_rate+3,w
  6230  0B5F  00AE               	movwf	??_UARTInit+3
  6231  0B60  3006               	movlw	6
  6232  0B61                     u4395:
  6233  0B61  1003               	clrc
  6234  0B62  0DAB               	rlf	??_UARTInit,f
  6235  0B63  0DAC               	rlf	??_UARTInit+1,f
  6236  0B64  0DAD               	rlf	??_UARTInit+2,f
  6237  0B65  0DAE               	rlf	??_UARTInit+3,f
  6238  0B66                     u4390:
  6239  0B66  3EFF               	addlw	-1
  6240  0B67  1D03               	skipz
  6241  0B68  2B61               	goto	u4395
  6242  0B69  082E               	movf	??_UARTInit+3,w
  6243  0B6A  00F5               	movwf	___lldiv@divisor+3
  6244  0B6B  082D               	movf	??_UARTInit+2,w
  6245  0B6C  00F4               	movwf	___lldiv@divisor+2
  6246  0B6D  082C               	movf	??_UARTInit+1,w
  6247  0B6E  00F3               	movwf	___lldiv@divisor+1
  6248  0B6F  082B               	movf	??_UARTInit,w
  6249  0B70  00F2               	movwf	___lldiv@divisor
  6250  0B71  3000               	movlw	0
  6251  0B72  00F9               	movwf	___lldiv@dividend+3
  6252  0B73  303D               	movlw	61
  6253  0B74  00F8               	movwf	___lldiv@dividend+2
  6254  0B75  3009               	movlw	9
  6255  0B76  00F7               	movwf	___lldiv@dividend+1
  6256  0B77  3000               	movlw	0
  6257  0B78  00F6               	movwf	___lldiv@dividend
  6258  0B79  120A  158A  2280  120A  158A  	fcall	___lldiv
  6259  0B7E  0872               	movf	?___lldiv,w
  6260  0B7F  3EFF               	addlw	255
  6261  0B80  1683               	bsf	3,5	;RP0=1, select bank1
  6262  0B81  1303               	bcf	3,6	;RP1=0, select bank1
  6263  0B82  0099               	movwf	25	;volatile
  6264  0B83                     l3046:
  6265                           
  6266                           ;UART.c: 13:         TXSTAbits.BRGH = 0;
  6267  0B83  1118               	bcf	24,2	;volatile
  6268                           
  6269                           ;UART.c: 14:     } else {
  6270  0B84  2BB1               	goto	l3052
  6271  0B85                     l3048:
  6272                           
  6273                           ;UART.c: 15:         SPBRG = 4000000/(16*baud_rate) - 1;
  6274  0B85  0826               	movf	UARTInit@baud_rate,w
  6275  0B86  00AB               	movwf	??_UARTInit
  6276  0B87  0827               	movf	UARTInit@baud_rate+1,w
  6277  0B88  00AC               	movwf	??_UARTInit+1
  6278  0B89  0828               	movf	UARTInit@baud_rate+2,w
  6279  0B8A  00AD               	movwf	??_UARTInit+2
  6280  0B8B  0829               	movf	UARTInit@baud_rate+3,w
  6281  0B8C  00AE               	movwf	??_UARTInit+3
  6282  0B8D  3004               	movlw	4
  6283  0B8E                     u4405:
  6284  0B8E  1003               	clrc
  6285  0B8F  0DAB               	rlf	??_UARTInit,f
  6286  0B90  0DAC               	rlf	??_UARTInit+1,f
  6287  0B91  0DAD               	rlf	??_UARTInit+2,f
  6288  0B92  0DAE               	rlf	??_UARTInit+3,f
  6289  0B93                     u4400:
  6290  0B93  3EFF               	addlw	-1
  6291  0B94  1D03               	skipz
  6292  0B95  2B8E               	goto	u4405
  6293  0B96  082E               	movf	??_UARTInit+3,w
  6294  0B97  00F5               	movwf	___lldiv@divisor+3
  6295  0B98  082D               	movf	??_UARTInit+2,w
  6296  0B99  00F4               	movwf	___lldiv@divisor+2
  6297  0B9A  082C               	movf	??_UARTInit+1,w
  6298  0B9B  00F3               	movwf	___lldiv@divisor+1
  6299  0B9C  082B               	movf	??_UARTInit,w
  6300  0B9D  00F2               	movwf	___lldiv@divisor
  6301  0B9E  3000               	movlw	0
  6302  0B9F  00F9               	movwf	___lldiv@dividend+3
  6303  0BA0  303D               	movlw	61
  6304  0BA1  00F8               	movwf	___lldiv@dividend+2
  6305  0BA2  3009               	movlw	9
  6306  0BA3  00F7               	movwf	___lldiv@dividend+1
  6307  0BA4  3000               	movlw	0
  6308  0BA5  00F6               	movwf	___lldiv@dividend
  6309  0BA6  120A  158A  2280  120A  158A  	fcall	___lldiv
  6310  0BAB  0872               	movf	?___lldiv,w
  6311  0BAC  3EFF               	addlw	255
  6312  0BAD  1683               	bsf	3,5	;RP0=1, select bank1
  6313  0BAE  1303               	bcf	3,6	;RP1=0, select bank1
  6314  0BAF  0099               	movwf	25	;volatile
  6315  0BB0                     l3050:
  6316                           
  6317                           ;UART.c: 16:         TXSTAbits.BRGH = 1;
  6318  0BB0  1518               	bsf	24,2	;volatile
  6319  0BB1                     l3052:
  6320                           
  6321                           ;UART.c: 20:     TXSTAbits.TX9 = 0;
  6322  0BB1  1318               	bcf	24,6	;volatile
  6323  0BB2                     l3054:
  6324                           
  6325                           ;UART.c: 21:     TXSTAbits.TXEN = 1;
  6326  0BB2  1698               	bsf	24,5	;volatile
  6327  0BB3                     l3056:
  6328                           
  6329                           ;UART.c: 22:     TXSTAbits.SYNC = 0;
  6330  0BB3  1218               	bcf	24,4	;volatile
  6331  0BB4                     l3058:
  6332                           
  6333                           ;UART.c: 25:     RCSTAbits.SPEN = 1;
  6334  0BB4  1283               	bcf	3,5	;RP0=0, select bank0
  6335  0BB5  1303               	bcf	3,6	;RP1=0, select bank0
  6336  0BB6  1798               	bsf	24,7	;volatile
  6337  0BB7                     l3060:
  6338                           
  6339                           ;UART.c: 26:     RCSTAbits.RX9 = 0;
  6340  0BB7  1318               	bcf	24,6	;volatile
  6341  0BB8                     l3062:
  6342                           
  6343                           ;UART.c: 27:     RCSTAbits.CREN = 1;
  6344  0BB8  1618               	bsf	24,4	;volatile
  6345  0BB9                     l3064:
  6346                           
  6347                           ;UART.c: 28:     RCSTAbits.FERR = 0;
  6348  0BB9  1118               	bcf	24,2	;volatile
  6349  0BBA                     l3066:
  6350                           
  6351                           ;UART.c: 29:     RCSTAbits.OERR = 0;
  6352  0BBA  1098               	bcf	24,1	;volatile
  6353  0BBB                     l3068:
  6354                           
  6355                           ;UART.c: 32:     TRISCbits.TRISC7 = 1;
  6356  0BBB  1683               	bsf	3,5	;RP0=1, select bank1
  6357  0BBC  1303               	bcf	3,6	;RP1=0, select bank1
  6358  0BBD  1787               	bsf	7,7	;volatile
  6359  0BBE                     l3070:
  6360                           
  6361                           ;UART.c: 33:     TRISCbits.TRISC6 = 0;
  6362  0BBE  1307               	bcf	7,6	;volatile
  6363  0BBF                     l137:
  6364  0BBF  0008               	return
  6365  0BC0                     __end_of_UARTInit:
  6366                           
  6367                           	psect	text20
  6368  0A80                     __ptext20:	
  6369 ;; *************** function ___lldiv *****************
  6370 ;; Defined at:
  6371 ;;		line 5 in file "C:\Program Files\Microchip\xc8\v2.31\pic\sources\c90\common\__lldiv.c"
  6372 ;; Parameters:    Size  Location     Type
  6373 ;;  divisor         4    2[COMMON] unsigned long 
  6374 ;;  dividend        4    6[COMMON] unsigned long 
  6375 ;; Auto vars:     Size  Location     Type
  6376 ;;  quotient        4    1[BANK0 ] unsigned long 
  6377 ;;  counter         1    5[BANK0 ] unsigned char 
  6378 ;; Return value:  Size  Location     Type
  6379 ;;                  4    2[COMMON] unsigned long 
  6380 ;; Registers used:
  6381 ;;		wreg, status,2, status,0
  6382 ;; Tracked objects:
  6383 ;;		On entry : 0/0
  6384 ;;		On exit  : 0/0
  6385 ;;		Unchanged: 0/0
  6386 ;; Data sizes:     COMMON   BANK0   BANK1   BANK3   BANK2
  6387 ;;      Params:         8       0       0       0       0
  6388 ;;      Locals:         0       5       0       0       0
  6389 ;;      Temps:          0       1       0       0       0
  6390 ;;      Totals:         8       6       0       0       0
  6391 ;;Total ram usage:       14 bytes
  6392 ;; Hardware stack levels used:    1
  6393 ;; Hardware stack levels required when called:    1
  6394 ;; This function calls:
  6395 ;;		Nothing
  6396 ;; This function is called by:
  6397 ;;		_UARTInit
  6398 ;; This function uses a non-reentrant model
  6399 ;;
  6400                           
  6401                           
  6402                           ;psect for function ___lldiv
  6403  0A80                     ___lldiv:
  6404  0A80                     l2798:	
  6405                           ;incstack = 0
  6406                           ; Regs used in ___lldiv: [wreg+status,2+status,0]
  6407                           
  6408  0A80  3000               	movlw	0
  6409  0A81  1283               	bcf	3,5	;RP0=0, select bank0
  6410  0A82  1303               	bcf	3,6	;RP1=0, select bank0
  6411  0A83  00A4               	movwf	___lldiv@quotient+3
  6412  0A84  3000               	movlw	0
  6413  0A85  00A3               	movwf	___lldiv@quotient+2
  6414  0A86  3000               	movlw	0
  6415  0A87  00A2               	movwf	___lldiv@quotient+1
  6416  0A88  3000               	movlw	0
  6417  0A89  00A1               	movwf	___lldiv@quotient
  6418  0A8A  0875               	movf	___lldiv@divisor+3,w
  6419  0A8B  0474               	iorwf	___lldiv@divisor+2,w
  6420  0A8C  0473               	iorwf	___lldiv@divisor+1,w
  6421  0A8D  0472               	iorwf	___lldiv@divisor,w
  6422  0A8E  1903               	skipnz
  6423  0A8F  2A91               	goto	u3741
  6424  0A90  2A92               	goto	u3740
  6425  0A91                     u3741:
  6426  0A91  2ADF               	goto	l2818
  6427  0A92                     u3740:
  6428  0A92                     l2800:
  6429  0A92  01A5               	clrf	___lldiv@counter
  6430  0A93  0AA5               	incf	___lldiv@counter,f
  6431  0A94  2AA2               	goto	l2804
  6432  0A95                     l2802:
  6433  0A95  3001               	movlw	1
  6434  0A96  00A0               	movwf	??___lldiv
  6435  0A97                     u3755:
  6436  0A97  1003               	clrc
  6437  0A98  0DF2               	rlf	___lldiv@divisor,f
  6438  0A99  0DF3               	rlf	___lldiv@divisor+1,f
  6439  0A9A  0DF4               	rlf	___lldiv@divisor+2,f
  6440  0A9B  0DF5               	rlf	___lldiv@divisor+3,f
  6441  0A9C  0BA0               	decfsz	??___lldiv,f
  6442  0A9D  2A97               	goto	u3755
  6443  0A9E  3001               	movlw	1
  6444  0A9F  00A0               	movwf	??___lldiv
  6445  0AA0  0820               	movf	??___lldiv,w
  6446  0AA1  07A5               	addwf	___lldiv@counter,f
  6447  0AA2                     l2804:
  6448  0AA2  1FF5               	btfss	___lldiv@divisor+3,7
  6449  0AA3  2AA5               	goto	u3761
  6450  0AA4  2AA6               	goto	u3760
  6451  0AA5                     u3761:
  6452  0AA5  2A95               	goto	l2802
  6453  0AA6                     u3760:
  6454  0AA6                     l2806:
  6455  0AA6  3001               	movlw	1
  6456  0AA7  00A0               	movwf	??___lldiv
  6457  0AA8                     u3775:
  6458  0AA8  1003               	clrc
  6459  0AA9  0DA1               	rlf	___lldiv@quotient,f
  6460  0AAA  0DA2               	rlf	___lldiv@quotient+1,f
  6461  0AAB  0DA3               	rlf	___lldiv@quotient+2,f
  6462  0AAC  0DA4               	rlf	___lldiv@quotient+3,f
  6463  0AAD  0BA0               	decfsz	??___lldiv,f
  6464  0AAE  2AA8               	goto	u3775
  6465  0AAF                     l2808:
  6466  0AAF  0875               	movf	___lldiv@divisor+3,w
  6467  0AB0  0279               	subwf	___lldiv@dividend+3,w
  6468  0AB1  1D03               	skipz
  6469  0AB2  2ABD               	goto	u3785
  6470  0AB3  0874               	movf	___lldiv@divisor+2,w
  6471  0AB4  0278               	subwf	___lldiv@dividend+2,w
  6472  0AB5  1D03               	skipz
  6473  0AB6  2ABD               	goto	u3785
  6474  0AB7  0873               	movf	___lldiv@divisor+1,w
  6475  0AB8  0277               	subwf	___lldiv@dividend+1,w
  6476  0AB9  1D03               	skipz
  6477  0ABA  2ABD               	goto	u3785
  6478  0ABB  0872               	movf	___lldiv@divisor,w
  6479  0ABC  0276               	subwf	___lldiv@dividend,w
  6480  0ABD                     u3785:
  6481  0ABD  1C03               	skipc
  6482  0ABE  2AC0               	goto	u3781
  6483  0ABF  2AC1               	goto	u3780
  6484  0AC0                     u3781:
  6485  0AC0  2AD0               	goto	l2814
  6486  0AC1                     u3780:
  6487  0AC1                     l2810:
  6488  0AC1  0872               	movf	___lldiv@divisor,w
  6489  0AC2  02F6               	subwf	___lldiv@dividend,f
  6490  0AC3  0873               	movf	___lldiv@divisor+1,w
  6491  0AC4  1C03               	skipc
  6492  0AC5  0F73               	incfsz	___lldiv@divisor+1,w
  6493  0AC6  02F7               	subwf	___lldiv@dividend+1,f
  6494  0AC7  0874               	movf	___lldiv@divisor+2,w
  6495  0AC8  1C03               	skipc
  6496  0AC9  0F74               	incfsz	___lldiv@divisor+2,w
  6497  0ACA  02F8               	subwf	___lldiv@dividend+2,f
  6498  0ACB  0875               	movf	___lldiv@divisor+3,w
  6499  0ACC  1C03               	skipc
  6500  0ACD  0F75               	incfsz	___lldiv@divisor+3,w
  6501  0ACE  02F9               	subwf	___lldiv@dividend+3,f
  6502  0ACF                     l2812:
  6503  0ACF  1421               	bsf	___lldiv@quotient,0
  6504  0AD0                     l2814:
  6505  0AD0  3001               	movlw	1
  6506  0AD1                     u3795:
  6507  0AD1  1003               	clrc
  6508  0AD2  0CF5               	rrf	___lldiv@divisor+3,f
  6509  0AD3  0CF4               	rrf	___lldiv@divisor+2,f
  6510  0AD4  0CF3               	rrf	___lldiv@divisor+1,f
  6511  0AD5  0CF2               	rrf	___lldiv@divisor,f
  6512  0AD6  3EFF               	addlw	-1
  6513  0AD7  1D03               	skipz
  6514  0AD8  2AD1               	goto	u3795
  6515  0AD9                     l2816:
  6516  0AD9  3001               	movlw	1
  6517  0ADA  02A5               	subwf	___lldiv@counter,f
  6518  0ADB  1D03               	btfss	3,2
  6519  0ADC  2ADE               	goto	u3801
  6520  0ADD  2ADF               	goto	u3800
  6521  0ADE                     u3801:
  6522  0ADE  2AA6               	goto	l2806
  6523  0ADF                     u3800:
  6524  0ADF                     l2818:
  6525  0ADF  0824               	movf	___lldiv@quotient+3,w
  6526  0AE0  00F5               	movwf	?___lldiv+3
  6527  0AE1  0823               	movf	___lldiv@quotient+2,w
  6528  0AE2  00F4               	movwf	?___lldiv+2
  6529  0AE3  0822               	movf	___lldiv@quotient+1,w
  6530  0AE4  00F3               	movwf	?___lldiv+1
  6531  0AE5  0821               	movf	___lldiv@quotient,w
  6532  0AE6  00F2               	movwf	?___lldiv
  6533  0AE7                     l330:
  6534  0AE7  0008               	return
  6535  0AE8                     __end_of___lldiv:
  6536                           
  6537                           	psect	text21
  6538  085E                     __ptext21:	
  6539 ;; *************** function _Setup *****************
  6540 ;; Defined at:
  6541 ;;		line 138 in file "mainMaestro.c"
  6542 ;; Parameters:    Size  Location     Type
  6543 ;;		None
  6544 ;; Auto vars:     Size  Location     Type
  6545 ;;		None
  6546 ;; Return value:  Size  Location     Type
  6547 ;;                  1    wreg      void 
  6548 ;; Registers used:
  6549 ;;		wreg, status,2
  6550 ;; Tracked objects:
  6551 ;;		On entry : 0/0
  6552 ;;		On exit  : 0/0
  6553 ;;		Unchanged: 0/0
  6554 ;; Data sizes:     COMMON   BANK0   BANK1   BANK3   BANK2
  6555 ;;      Params:         0       0       0       0       0
  6556 ;;      Locals:         0       0       0       0       0
  6557 ;;      Temps:          0       0       0       0       0
  6558 ;;      Totals:         0       0       0       0       0
  6559 ;;Total ram usage:        0 bytes
  6560 ;; Hardware stack levels used:    1
  6561 ;; Hardware stack levels required when called:    1
  6562 ;; This function calls:
  6563 ;;		Nothing
  6564 ;; This function is called by:
  6565 ;;		_main
  6566 ;; This function uses a non-reentrant model
  6567 ;;
  6568                           
  6569                           
  6570                           ;psect for function _Setup
  6571  085E                     _Setup:
  6572  085E                     l2520:	
  6573                           ;incstack = 0
  6574                           ; Regs used in _Setup: [wreg+status,2]
  6575                           
  6576                           
  6577                           ;mainMaestro.c: 139: 
  6578  085E  1683               	bsf	3,5	;RP0=1, select bank1
  6579  085F  1303               	bcf	3,6	;RP1=0, select bank1
  6580  0860  0185               	clrf	5	;volatile
  6581                           
  6582                           ;mainMaestro.c: 140:     entero = convertir3;
  6583  0861  1683               	bsf	3,5	;RP0=1, select bank3
  6584  0862  1703               	bsf	3,6	;RP1=1, select bank3
  6585  0863  0188               	clrf	8	;volatile
  6586                           
  6587                           ;mainMaestro.c: 141:     cadena[3] = entero + 48;
  6588  0864  0189               	clrf	9	;volatile
  6589                           
  6590                           ;mainMaestro.c: 142:     cadena[4] = '\0';
  6591  0865  1683               	bsf	3,5	;RP0=1, select bank1
  6592  0866  1303               	bcf	3,6	;RP1=0, select bank1
  6593  0867  0187               	clrf	7	;volatile
  6594                           
  6595                           ;mainMaestro.c: 143:     return cadena;
  6596  0868  0186               	clrf	6	;volatile
  6597                           
  6598                           ;mainMaestro.c: 144: }
  6599  0869  0188               	clrf	8	;volatile
  6600                           
  6601                           ;mainMaestro.c: 145: 
  6602  086A  1283               	bcf	3,5	;RP0=0, select bank0
  6603  086B  1303               	bcf	3,6	;RP1=0, select bank0
  6604  086C  0187               	clrf	7	;volatile
  6605                           
  6606                           ;mainMaestro.c: 146: char* intToString(uint8_t value) {
  6607  086D  0186               	clrf	6	;volatile
  6608                           
  6609                           ;mainMaestro.c: 147:     char valor[4];
  6610  086E  0188               	clrf	8	;volatile
  6611  086F                     l2522:
  6612                           
  6613                           ;mainMaestro.c: 149:     uint8_t entero = value / 100;
  6614  086F  30FF               	movlw	255
  6615  0870  0085               	movwf	5	;volatile
  6616  0871                     l2524:
  6617                           
  6618                           ;mainMaestro.c: 151: 
  6619  0871  1683               	bsf	3,5	;RP0=1, select bank1
  6620  0872  1303               	bcf	3,6	;RP1=0, select bank1
  6621  0873  1607               	bsf	7,4	;volatile
  6622  0874                     l78:
  6623  0874  0008               	return
  6624  0875                     __end_of_Setup:
  6625                           
  6626                           	psect	text22
  6627  092B                     __ptext22:	
  6628 ;; *************** function _Lcd_Write_String *****************
  6629 ;; Defined at:
  6630 ;;		line 58 in file "LCD.c"
  6631 ;; Parameters:    Size  Location     Type
  6632 ;;  a               2    5[COMMON] PTR unsigned char 
  6633 ;;		 -> NULL(0), intToString@valor(4), decimalASCII@cadena(5), STR_3(3), 
  6634 ;;		 -> STR_2(3), STR_1(3), 
  6635 ;; Auto vars:     Size  Location     Type
  6636 ;;  i               2    0[BANK0 ] int 
  6637 ;; Return value:  Size  Location     Type
  6638 ;;                  1    wreg      void 
  6639 ;; Registers used:
  6640 ;;		wreg, fsr0l, fsr0h, status,2, status,0, btemp+1, pclath, cstack
  6641 ;; Tracked objects:
  6642 ;;		On entry : 0/0
  6643 ;;		On exit  : 0/0
  6644 ;;		Unchanged: 0/0
  6645 ;; Data sizes:     COMMON   BANK0   BANK1   BANK3   BANK2
  6646 ;;      Params:         2       0       0       0       0
  6647 ;;      Locals:         0       2       0       0       0
  6648 ;;      Temps:          3       0       0       0       0
  6649 ;;      Totals:         5       2       0       0       0
  6650 ;;Total ram usage:        7 bytes
  6651 ;; Hardware stack levels used:    1
  6652 ;; Hardware stack levels required when called:    3
  6653 ;; This function calls:
  6654 ;;		_Lcd_Write_Char
  6655 ;; This function is called by:
  6656 ;;		_main
  6657 ;; This function uses a non-reentrant model
  6658 ;;
  6659                           
  6660                           
  6661                           ;psect for function _Lcd_Write_String
  6662  092B                     _Lcd_Write_String:
  6663  092B                     l3096:	
  6664                           ;incstack = 0
  6665                           ; Regs used in _Lcd_Write_String: [wreg-fsr0h+status,2+status,0+btemp+1+pclath+cstack]
  6666                           
  6667                           
  6668                           ;LCD.c: 59:     int i;;LCD.c: 60:     for (i = 0; a[i] != '\0'; i++)
  6669  092B  1283               	bcf	3,5	;RP0=0, select bank0
  6670  092C  1303               	bcf	3,6	;RP1=0, select bank0
  6671  092D  01A0               	clrf	Lcd_Write_String@i
  6672  092E  01A1               	clrf	Lcd_Write_String@i+1
  6673  092F  2954               	goto	l3102
  6674  0930                     l3098:
  6675                           
  6676                           ;LCD.c: 61:         Lcd_Write_Char(a[i]);
  6677  0930  0820               	movf	Lcd_Write_String@i,w
  6678  0931  0775               	addwf	Lcd_Write_String@a,w
  6679  0932  00F8               	movwf	??_Lcd_Write_String+1
  6680  0933  0876               	movf	Lcd_Write_String@a+1,w
  6681  0934  00F7               	movwf	??_Lcd_Write_String
  6682  0935  1803               	skipnc
  6683  0936  0AF7               	incf	??_Lcd_Write_String,f
  6684  0937  1FA0               	btfss	Lcd_Write_String@i,7
  6685  0938  293A               	goto	u4430
  6686  0939  03F7               	decf	??_Lcd_Write_String,f
  6687  093A                     u4430:
  6688  093A  0877               	movf	??_Lcd_Write_String,w
  6689  093B  00F9               	movwf	??_Lcd_Write_String+2
  6690  093C  0879               	movf	??_Lcd_Write_String+2,w
  6691  093D  1283               	bcf	3,5	;RP0=0, select bank0
  6692  093E  1303               	bcf	3,6	;RP1=0, select bank0
  6693  093F  00FF               	movwf	btemp+1
  6694  0940  0878               	movf	??_Lcd_Write_String+1,w
  6695  0941  0084               	movwf	4
  6696  0942  120A  158A  2000  120A  158A  	fcall	stringtab
  6697  0947  160A  118A  27D6  120A  158A  	fcall	_Lcd_Write_Char
  6698  094C                     l3100:
  6699  094C  3001               	movlw	1
  6700  094D  1283               	bcf	3,5	;RP0=0, select bank0
  6701  094E  1303               	bcf	3,6	;RP1=0, select bank0
  6702  094F  07A0               	addwf	Lcd_Write_String@i,f
  6703  0950  1803               	skipnc
  6704  0951  0AA1               	incf	Lcd_Write_String@i+1,f
  6705  0952  3000               	movlw	0
  6706  0953  07A1               	addwf	Lcd_Write_String@i+1,f
  6707  0954                     l3102:
  6708  0954  0820               	movf	Lcd_Write_String@i,w
  6709  0955  0775               	addwf	Lcd_Write_String@a,w
  6710  0956  00F8               	movwf	??_Lcd_Write_String+1
  6711  0957  0876               	movf	Lcd_Write_String@a+1,w
  6712  0958  00F7               	movwf	??_Lcd_Write_String
  6713  0959  1803               	skipnc
  6714  095A  0AF7               	incf	??_Lcd_Write_String,f
  6715  095B  1FA0               	btfss	Lcd_Write_String@i,7
  6716  095C  295E               	goto	u4440
  6717  095D  03F7               	decf	??_Lcd_Write_String,f
  6718  095E                     u4440:
  6719  095E  0877               	movf	??_Lcd_Write_String,w
  6720  095F  00F9               	movwf	??_Lcd_Write_String+2
  6721  0960  0879               	movf	??_Lcd_Write_String+2,w
  6722  0961  1283               	bcf	3,5	;RP0=0, select bank0
  6723  0962  1303               	bcf	3,6	;RP1=0, select bank0
  6724  0963  00FF               	movwf	btemp+1
  6725  0964  0878               	movf	??_Lcd_Write_String+1,w
  6726  0965  0084               	movwf	4
  6727  0966  120A  158A  2000  120A  158A  	fcall	stringtab
  6728  096B  3A00               	xorlw	0
  6729  096C  1D03               	skipz
  6730  096D  296F               	goto	u4451
  6731  096E  2970               	goto	u4450
  6732  096F                     u4451:
  6733  096F  2930               	goto	l3098
  6734  0970                     u4450:
  6735  0970                     l202:
  6736  0970  0008               	return
  6737  0971                     __end_of_Lcd_Write_String:
  6738                           
  6739                           	psect	text23
  6740  17D6                     __ptext23:	
  6741 ;; *************** function _Lcd_Write_Char *****************
  6742 ;; Defined at:
  6743 ;;		line 50 in file "LCD.c"
  6744 ;; Parameters:    Size  Location     Type
  6745 ;;  a               1    wreg     unsigned char 
  6746 ;; Auto vars:     Size  Location     Type
  6747 ;;  a               1    4[COMMON] unsigned char 
  6748 ;; Return value:  Size  Location     Type
  6749 ;;                  1    wreg      void 
  6750 ;; Registers used:
  6751 ;;		wreg, status,2, status,0, pclath, cstack
  6752 ;; Tracked objects:
  6753 ;;		On entry : 0/0
  6754 ;;		On exit  : 0/0
  6755 ;;		Unchanged: 0/0
  6756 ;; Data sizes:     COMMON   BANK0   BANK1   BANK3   BANK2
  6757 ;;      Params:         0       0       0       0       0
  6758 ;;      Locals:         1       0       0       0       0
  6759 ;;      Temps:          1       0       0       0       0
  6760 ;;      Totals:         2       0       0       0       0
  6761 ;;Total ram usage:        2 bytes
  6762 ;; Hardware stack levels used:    1
  6763 ;; Hardware stack levels required when called:    2
  6764 ;; This function calls:
  6765 ;;		_Lcd_Port
  6766 ;; This function is called by:
  6767 ;;		_Lcd_Write_String
  6768 ;; This function uses a non-reentrant model
  6769 ;;
  6770                           
  6771                           
  6772                           ;psect for function _Lcd_Write_Char
  6773  17D6                     _Lcd_Write_Char:
  6774                           
  6775                           ;incstack = 0
  6776                           ; Regs used in _Lcd_Write_Char: [wreg+status,2+status,0+pclath+cstack]
  6777                           ;Lcd_Write_Char@a stored from wreg
  6778  17D6  00F4               	movwf	Lcd_Write_Char@a
  6779  17D7                     l2788:
  6780                           
  6781                           ;LCD.c: 51:     PORTCbits.RC0 = 1;
  6782  17D7  1283               	bcf	3,5	;RP0=0, select bank0
  6783  17D8  1303               	bcf	3,6	;RP1=0, select bank0
  6784  17D9  1407               	bsf	7,0	;volatile
  6785  17DA                     l2790:
  6786                           
  6787                           ;LCD.c: 52:     Lcd_Port(a);
  6788  17DA  0874               	movf	Lcd_Write_Char@a,w
  6789  17DB  160A  118A  27AE  160A  118A  	fcall	_Lcd_Port
  6790  17E0                     l2792:
  6791                           
  6792                           ;LCD.c: 53:     PORTCbits.RC1 = 1;
  6793  17E0  1283               	bcf	3,5	;RP0=0, select bank0
  6794  17E1  1303               	bcf	3,6	;RP1=0, select bank0
  6795  17E2  1487               	bsf	7,1	;volatile
  6796  17E3                     l2794:
  6797                           
  6798                           ;LCD.c: 54:     _delay((unsigned long)((10)*(4000000/4000000.0)));
  6799  17E3  3003               	movlw	3
  6800  17E4  00F3               	movwf	??_Lcd_Write_Char
  6801  17E5                     u4577:
  6802  17E5  0BF3               	decfsz	??_Lcd_Write_Char,f
  6803  17E6  2FE5               	goto	u4577
  6804  17E7                     l2796:
  6805                           
  6806                           ;LCD.c: 55:     PORTCbits.RC1 = 0;
  6807  17E7  1283               	bcf	3,5	;RP0=0, select bank0
  6808  17E8  1303               	bcf	3,6	;RP1=0, select bank0
  6809  17E9  1087               	bcf	7,1	;volatile
  6810  17EA                     l196:
  6811  17EA  0008               	return
  6812  17EB                     __end_of_Lcd_Write_Char:
  6813                           
  6814                           	psect	text24
  6815  0875                     __ptext24:	
  6816 ;; *************** function _Lcd_Set_Cursor *****************
  6817 ;; Defined at:
  6818 ;;		line 24 in file "LCD.c"
  6819 ;; Parameters:    Size  Location     Type
  6820 ;;  a               1    wreg     unsigned char 
  6821 ;;  b               1    5[COMMON] unsigned char 
  6822 ;; Auto vars:     Size  Location     Type
  6823 ;;  a               1    7[COMMON] unsigned char 
  6824 ;;  temp            1    8[COMMON] unsigned char 
  6825 ;;  y               1    0        unsigned char 
  6826 ;;  z               1    0        unsigned char 
  6827 ;; Return value:  Size  Location     Type
  6828 ;;                  1    wreg      void 
  6829 ;; Registers used:
  6830 ;;		wreg, status,2, status,0, pclath, cstack
  6831 ;; Tracked objects:
  6832 ;;		On entry : 0/0
  6833 ;;		On exit  : 0/0
  6834 ;;		Unchanged: 0/0
  6835 ;; Data sizes:     COMMON   BANK0   BANK1   BANK3   BANK2
  6836 ;;      Params:         1       0       0       0       0
  6837 ;;      Locals:         2       0       0       0       0
  6838 ;;      Temps:          1       0       0       0       0
  6839 ;;      Totals:         4       0       0       0       0
  6840 ;;Total ram usage:        4 bytes
  6841 ;; Hardware stack levels used:    1
  6842 ;; Hardware stack levels required when called:    3
  6843 ;; This function calls:
  6844 ;;		_Lcd_Cmd
  6845 ;; This function is called by:
  6846 ;;		_main
  6847 ;; This function uses a non-reentrant model
  6848 ;;
  6849                           
  6850                           
  6851                           ;psect for function _Lcd_Set_Cursor
  6852  0875                     _Lcd_Set_Cursor:
  6853                           
  6854                           ;incstack = 0
  6855                           ; Regs used in _Lcd_Set_Cursor: [wreg+status,2+status,0+pclath+cstack]
  6856                           ;Lcd_Set_Cursor@a stored from wreg
  6857  0875  00F7               	movwf	Lcd_Set_Cursor@a
  6858  0876                     l3084:
  6859                           
  6860                           ;LCD.c: 25:     char temp, z, y;;LCD.c: 26:     if (a == 1) {
  6861  0876  0377               	decf	Lcd_Set_Cursor@a,w
  6862  0877  1D03               	btfss	3,2
  6863  0878  287A               	goto	u4411
  6864  0879  287B               	goto	u4410
  6865  087A                     u4411:
  6866  087A  2887               	goto	l3090
  6867  087B                     u4410:
  6868  087B                     l3086:
  6869                           
  6870                           ;LCD.c: 27:         temp = 0x80 + b - 1;
  6871  087B  0875               	movf	Lcd_Set_Cursor@b,w
  6872  087C  3E7F               	addlw	127
  6873  087D  00F6               	movwf	??_Lcd_Set_Cursor
  6874  087E  0876               	movf	??_Lcd_Set_Cursor,w
  6875  087F  00F8               	movwf	Lcd_Set_Cursor@temp
  6876  0880                     l3088:
  6877                           
  6878                           ;LCD.c: 28:         Lcd_Cmd(temp);
  6879  0880  0878               	movf	Lcd_Set_Cursor@temp,w
  6880  0881  120A  118A  27E1  120A  158A  	fcall	_Lcd_Cmd
  6881                           
  6882                           ;LCD.c: 29:     } else if (a == 2) {
  6883  0886  2898               	goto	l190
  6884  0887                     l3090:
  6885  0887  3002               	movlw	2
  6886  0888  0677               	xorwf	Lcd_Set_Cursor@a,w
  6887  0889  1D03               	btfss	3,2
  6888  088A  288C               	goto	u4421
  6889  088B  288D               	goto	u4420
  6890  088C                     u4421:
  6891  088C  2898               	goto	l190
  6892  088D                     u4420:
  6893  088D                     l3092:
  6894                           
  6895                           ;LCD.c: 30:         temp = 0xC0 + b - 1;
  6896  088D  0875               	movf	Lcd_Set_Cursor@b,w
  6897  088E  3EBF               	addlw	191
  6898  088F  00F6               	movwf	??_Lcd_Set_Cursor
  6899  0890  0876               	movf	??_Lcd_Set_Cursor,w
  6900  0891  00F8               	movwf	Lcd_Set_Cursor@temp
  6901  0892                     l3094:
  6902                           
  6903                           ;LCD.c: 31:         Lcd_Cmd(temp);
  6904  0892  0878               	movf	Lcd_Set_Cursor@temp,w
  6905  0893  120A  118A  27E1  120A  158A  	fcall	_Lcd_Cmd
  6906  0898                     l190:
  6907  0898  0008               	return
  6908  0899                     __end_of_Lcd_Set_Cursor:
  6909                           
  6910                           	psect	text25
  6911  08E6                     __ptext25:	
  6912 ;; *************** function _Lcd_Init *****************
  6913 ;; Defined at:
  6914 ;;		line 35 in file "LCD.c"
  6915 ;; Parameters:    Size  Location     Type
  6916 ;;		None
  6917 ;; Auto vars:     Size  Location     Type
  6918 ;;		None
  6919 ;; Return value:  Size  Location     Type
  6920 ;;                  1    wreg      void 
  6921 ;; Registers used:
  6922 ;;		wreg, status,2, status,0, pclath, cstack
  6923 ;; Tracked objects:
  6924 ;;		On entry : 0/0
  6925 ;;		On exit  : 0/0
  6926 ;;		Unchanged: 0/0
  6927 ;; Data sizes:     COMMON   BANK0   BANK1   BANK3   BANK2
  6928 ;;      Params:         0       0       0       0       0
  6929 ;;      Locals:         0       0       0       0       0
  6930 ;;      Temps:          2       0       0       0       0
  6931 ;;      Totals:         2       0       0       0       0
  6932 ;;Total ram usage:        2 bytes
  6933 ;; Hardware stack levels used:    1
  6934 ;; Hardware stack levels required when called:    3
  6935 ;; This function calls:
  6936 ;;		_Lcd_Cmd
  6937 ;;		_Lcd_Port
  6938 ;; This function is called by:
  6939 ;;		_main
  6940 ;; This function uses a non-reentrant model
  6941 ;;
  6942                           
  6943                           
  6944                           ;psect for function _Lcd_Init
  6945  08E6                     _Lcd_Init:
  6946  08E6                     l3072:	
  6947                           ;incstack = 0
  6948                           ; Regs used in _Lcd_Init: [wreg+status,2+status,0+pclath+cstack]
  6949                           
  6950                           
  6951                           ;LCD.c: 36:     Lcd_Port(0x00);
  6952  08E6  3000               	movlw	0
  6953  08E7  160A  118A  27AE  120A  158A  	fcall	_Lcd_Port
  6954  08EC                     l3074:
  6955                           
  6956                           ;LCD.c: 37:     _delay((unsigned long)((20)*(4000000/4000.0)));
  6957  08EC  301A               	movlw	26
  6958  08ED  00F6               	movwf	??_Lcd_Init+1
  6959  08EE  30F8               	movlw	248
  6960  08EF  00F5               	movwf	??_Lcd_Init
  6961  08F0                     u4587:
  6962  08F0  0BF5               	decfsz	??_Lcd_Init,f
  6963  08F1  28F0               	goto	u4587
  6964  08F2  0BF6               	decfsz	??_Lcd_Init+1,f
  6965  08F3  28F0               	goto	u4587
  6966  08F4  0000               	nop
  6967  08F5                     l3076:
  6968                           
  6969                           ;LCD.c: 38:     Lcd_Cmd(0x30);
  6970  08F5  3030               	movlw	48
  6971  08F6  120A  118A  27E1  120A  158A  	fcall	_Lcd_Cmd
  6972                           
  6973                           ;LCD.c: 39:     _delay((unsigned long)((5)*(4000000/4000.0)));
  6974  08FB  3007               	movlw	7
  6975  08FC  00F6               	movwf	??_Lcd_Init+1
  6976  08FD  307D               	movlw	125
  6977  08FE  00F5               	movwf	??_Lcd_Init
  6978  08FF                     u4597:
  6979  08FF  0BF5               	decfsz	??_Lcd_Init,f
  6980  0900  28FF               	goto	u4597
  6981  0901  0BF6               	decfsz	??_Lcd_Init+1,f
  6982  0902  28FF               	goto	u4597
  6983  0903                     l3078:
  6984                           
  6985                           ;LCD.c: 40:     Lcd_Cmd(0x30);
  6986  0903  3030               	movlw	48
  6987  0904  120A  118A  27E1  120A  158A  	fcall	_Lcd_Cmd
  6988  0909                     l3080:
  6989                           
  6990                           ;LCD.c: 41:     _delay((unsigned long)((11)*(4000000/4000.0)));
  6991  0909  300F               	movlw	15
  6992  090A  00F6               	movwf	??_Lcd_Init+1
  6993  090B  3047               	movlw	71
  6994  090C  00F5               	movwf	??_Lcd_Init
  6995  090D                     u4607:
  6996  090D  0BF5               	decfsz	??_Lcd_Init,f
  6997  090E  290D               	goto	u4607
  6998  090F  0BF6               	decfsz	??_Lcd_Init+1,f
  6999  0910  290D               	goto	u4607
  7000  0911  2912               	nop2
  7001                           
  7002                           ;LCD.c: 42:     Lcd_Cmd(0x30);
  7003  0912  3030               	movlw	48
  7004  0913  120A  118A  27E1  120A  158A  	fcall	_Lcd_Cmd
  7005                           
  7006                           ;LCD.c: 44:     Lcd_Cmd(0b00111000);
  7007  0918  3038               	movlw	56
  7008  0919  120A  118A  27E1  120A  158A  	fcall	_Lcd_Cmd
  7009                           
  7010                           ;LCD.c: 45:     Lcd_Cmd(0x0C);
  7011  091E  300C               	movlw	12
  7012  091F  120A  118A  27E1  120A  158A  	fcall	_Lcd_Cmd
  7013                           
  7014                           ;LCD.c: 46:     Lcd_Cmd(0x6);
  7015  0924  3006               	movlw	6
  7016  0925  120A  118A  27E1  120A  158A  	fcall	_Lcd_Cmd
  7017  092A                     l193:
  7018  092A  0008               	return
  7019  092B                     __end_of_Lcd_Init:
  7020                           
  7021                           	psect	text26
  7022  083B                     __ptext26:	
  7023 ;; *************** function _Lcd_Clear *****************
  7024 ;; Defined at:
  7025 ;;		line 19 in file "LCD.c"
  7026 ;; Parameters:    Size  Location     Type
  7027 ;;		None
  7028 ;; Auto vars:     Size  Location     Type
  7029 ;;		None
  7030 ;; Return value:  Size  Location     Type
  7031 ;;                  1    wreg      void 
  7032 ;; Registers used:
  7033 ;;		wreg, status,2, status,0, pclath, cstack
  7034 ;; Tracked objects:
  7035 ;;		On entry : 0/0
  7036 ;;		On exit  : 0/0
  7037 ;;		Unchanged: 0/0
  7038 ;; Data sizes:     COMMON   BANK0   BANK1   BANK3   BANK2
  7039 ;;      Params:         0       0       0       0       0
  7040 ;;      Locals:         0       0       0       0       0
  7041 ;;      Temps:          0       0       0       0       0
  7042 ;;      Totals:         0       0       0       0       0
  7043 ;;Total ram usage:        0 bytes
  7044 ;; Hardware stack levels used:    1
  7045 ;; Hardware stack levels required when called:    3
  7046 ;; This function calls:
  7047 ;;		_Lcd_Cmd
  7048 ;; This function is called by:
  7049 ;;		_main
  7050 ;; This function uses a non-reentrant model
  7051 ;;
  7052                           
  7053                           
  7054                           ;psect for function _Lcd_Clear
  7055  083B                     _Lcd_Clear:
  7056  083B                     l3082:	
  7057                           ;incstack = 0
  7058                           ; Regs used in _Lcd_Clear: [wreg+status,2+status,0+pclath+cstack]
  7059                           
  7060                           
  7061                           ;LCD.c: 20:     Lcd_Cmd(0);
  7062  083B  3000               	movlw	0
  7063  083C  120A  118A  27E1  120A  158A  	fcall	_Lcd_Cmd
  7064                           
  7065                           ;LCD.c: 21:     Lcd_Cmd(1);
  7066  0841  3001               	movlw	1
  7067  0842  120A  118A  27E1  120A  158A  	fcall	_Lcd_Cmd
  7068  0847                     l184:
  7069  0847  0008               	return
  7070  0848                     __end_of_Lcd_Clear:
  7071                           
  7072                           	psect	text27
  7073  07E1                     __ptext27:	
  7074 ;; *************** function _Lcd_Cmd *****************
  7075 ;; Defined at:
  7076 ;;		line 11 in file "LCD.c"
  7077 ;; Parameters:    Size  Location     Type
  7078 ;;  a               1    wreg     unsigned char 
  7079 ;; Auto vars:     Size  Location     Type
  7080 ;;  a               1    4[COMMON] unsigned char 
  7081 ;; Return value:  Size  Location     Type
  7082 ;;                  1    wreg      void 
  7083 ;; Registers used:
  7084 ;;		wreg, status,2, status,0, pclath, cstack
  7085 ;; Tracked objects:
  7086 ;;		On entry : 0/0
  7087 ;;		On exit  : 0/0
  7088 ;;		Unchanged: 0/0
  7089 ;; Data sizes:     COMMON   BANK0   BANK1   BANK3   BANK2
  7090 ;;      Params:         0       0       0       0       0
  7091 ;;      Locals:         1       0       0       0       0
  7092 ;;      Temps:          1       0       0       0       0
  7093 ;;      Totals:         2       0       0       0       0
  7094 ;;Total ram usage:        2 bytes
  7095 ;; Hardware stack levels used:    1
  7096 ;; Hardware stack levels required when called:    2
  7097 ;; This function calls:
  7098 ;;		_Lcd_Port
  7099 ;; This function is called by:
  7100 ;;		_Lcd_Clear
  7101 ;;		_Lcd_Set_Cursor
  7102 ;;		_Lcd_Init
  7103 ;;		_Lcd_Shift_Right
  7104 ;;		_Lcd_Shift_Left
  7105 ;; This function uses a non-reentrant model
  7106 ;;
  7107                           
  7108                           
  7109                           ;psect for function _Lcd_Cmd
  7110  07E1                     _Lcd_Cmd:
  7111                           
  7112                           ;incstack = 0
  7113                           ; Regs used in _Lcd_Cmd: [wreg+status,2+status,0+pclath+cstack]
  7114                           ;Lcd_Cmd@a stored from wreg
  7115  07E1  00F4               	movwf	Lcd_Cmd@a
  7116  07E2                     l2778:
  7117                           
  7118                           ;LCD.c: 12:     PORTCbits.RC0 = 0;
  7119  07E2  1283               	bcf	3,5	;RP0=0, select bank0
  7120  07E3  1303               	bcf	3,6	;RP1=0, select bank0
  7121  07E4  1007               	bcf	7,0	;volatile
  7122  07E5                     l2780:
  7123                           
  7124                           ;LCD.c: 13:     Lcd_Port(a);
  7125  07E5  0874               	movf	Lcd_Cmd@a,w
  7126  07E6  160A  118A  27AE  120A  118A  	fcall	_Lcd_Port
  7127  07EB                     l2782:
  7128                           
  7129                           ;LCD.c: 14:     PORTCbits.RC1 = 1;
  7130  07EB  1283               	bcf	3,5	;RP0=0, select bank0
  7131  07EC  1303               	bcf	3,6	;RP1=0, select bank0
  7132  07ED  1487               	bsf	7,1	;volatile
  7133  07EE                     l2784:
  7134                           
  7135                           ;LCD.c: 15:     _delay((unsigned long)((1)*(4000000/4000.0)));
  7136  07EE  30C7               	movlw	199
  7137  07EF  00F3               	movwf	??_Lcd_Cmd
  7138  07F0                     u4617:
  7139  07F0  2FF1               	nop2
  7140  07F1  0BF3               	decfsz	??_Lcd_Cmd,f
  7141  07F2  2FF0               	goto	u4617
  7142  07F3  2FF4               	nop2
  7143  07F4  2FF5               	nop2
  7144  07F5                     l2786:
  7145                           
  7146                           ;LCD.c: 16:     PORTCbits.RC1 = 0;
  7147  07F5  1283               	bcf	3,5	;RP0=0, select bank0
  7148  07F6  1303               	bcf	3,6	;RP1=0, select bank0
  7149  07F7  1087               	bcf	7,1	;volatile
  7150  07F8                     l181:
  7151  07F8  0008               	return
  7152  07F9                     __end_of_Lcd_Cmd:
  7153                           
  7154                           	psect	text28
  7155  17AE                     __ptext28:	
  7156 ;; *************** function _Lcd_Port *****************
  7157 ;; Defined at:
  7158 ;;		line 7 in file "LCD.c"
  7159 ;; Parameters:    Size  Location     Type
  7160 ;;  a               1    wreg     unsigned char 
  7161 ;; Auto vars:     Size  Location     Type
  7162 ;;  a               1    2[COMMON] unsigned char 
  7163 ;; Return value:  Size  Location     Type
  7164 ;;                  1    wreg      void 
  7165 ;; Registers used:
  7166 ;;		wreg
  7167 ;; Tracked objects:
  7168 ;;		On entry : 0/0
  7169 ;;		On exit  : 0/0
  7170 ;;		Unchanged: 0/0
  7171 ;; Data sizes:     COMMON   BANK0   BANK1   BANK3   BANK2
  7172 ;;      Params:         0       0       0       0       0
  7173 ;;      Locals:         1       0       0       0       0
  7174 ;;      Temps:          0       0       0       0       0
  7175 ;;      Totals:         1       0       0       0       0
  7176 ;;Total ram usage:        1 bytes
  7177 ;; Hardware stack levels used:    1
  7178 ;; Hardware stack levels required when called:    1
  7179 ;; This function calls:
  7180 ;;		Nothing
  7181 ;; This function is called by:
  7182 ;;		_Lcd_Cmd
  7183 ;;		_Lcd_Init
  7184 ;;		_Lcd_Write_Char
  7185 ;; This function uses a non-reentrant model
  7186 ;;
  7187                           
  7188                           
  7189                           ;psect for function _Lcd_Port
  7190  17AE                     _Lcd_Port:
  7191                           
  7192                           ;incstack = 0
  7193                           ; Regs used in _Lcd_Port: [wreg]
  7194                           ;Lcd_Port@a stored from wreg
  7195  17AE  00F2               	movwf	Lcd_Port@a
  7196  17AF                     l2758:
  7197                           
  7198                           ;LCD.c: 8:     PORTD = a;
  7199  17AF  0872               	movf	Lcd_Port@a,w
  7200  17B0  1283               	bcf	3,5	;RP0=0, select bank0
  7201  17B1  1303               	bcf	3,6	;RP1=0, select bank0
  7202  17B2  0088               	movwf	8	;volatile
  7203  17B3                     l178:
  7204  17B3  0008               	return
  7205  17B4                     __end_of_Lcd_Port:
  7206                           
  7207                           	psect	text29
  7208  17BA                     __ptext29:	
  7209 ;; *************** function _ISR *****************
  7210 ;; Defined at:
  7211 ;;		line 53 in file "mainMaestro.c"
  7212 ;; Parameters:    Size  Location     Type
  7213 ;;		None
  7214 ;; Auto vars:     Size  Location     Type
  7215 ;;		None
  7216 ;; Return value:  Size  Location     Type
  7217 ;;                  1    wreg      void 
  7218 ;; Registers used:
  7219 ;;		None
  7220 ;; Tracked objects:
  7221 ;;		On entry : 0/0
  7222 ;;		On exit  : 0/0
  7223 ;;		Unchanged: 0/0
  7224 ;; Data sizes:     COMMON   BANK0   BANK1   BANK3   BANK2
  7225 ;;      Params:         0       0       0       0       0
  7226 ;;      Locals:         0       0       0       0       0
  7227 ;;      Temps:          2       0       0       0       0
  7228 ;;      Totals:         2       0       0       0       0
  7229 ;;Total ram usage:        2 bytes
  7230 ;; Hardware stack levels used:    1
  7231 ;; This function calls:
  7232 ;;		Nothing
  7233 ;; This function is called by:
  7234 ;;		Interrupt level 1
  7235 ;; This function uses a non-reentrant model
  7236 ;;
  7237                           
  7238                           
  7239                           ;psect for function _ISR
  7240  17BA                     _ISR:
  7241  17BA                     i1l67:
  7242  17BA  0871               	movf	??_ISR+1,w
  7243  17BB  008A               	movwf	10
  7244  17BC  0E70               	swapf	??_ISR,w
  7245  17BD  0083               	movwf	3
  7246  17BE  0EFE               	swapf	btemp,f
  7247  17BF  0E7E               	swapf	btemp,w
  7248  17C0  0009               	retfie
  7249  17C1                     __end_of_ISR:
  7250  007E                     btemp	set	126	;btemp
  7251  007E                     wtemp0	set	126
  7252                           
  7253                           	psect	intentry
  7254  0004                     __pintentry:	
  7255                           ;incstack = 0
  7256                           ; Regs used in _ISR: []
  7257                           
  7258  0004                     interrupt_function:
  7259  007E                     saved_w	set	btemp
  7260  0004  00FE               	movwf	btemp
  7261  0005  0E03               	swapf	3,w
  7262  0006  00F0               	movwf	??_ISR
  7263  0007  080A               	movf	10,w
  7264  0008  00F1               	movwf	??_ISR+1
  7265  0009  160A  118A  2FBA   	ljmp	_ISR
  7266                           
  7267                           	psect	config
  7268                           
  7269                           ;Config register CONFIG1 @ 0x2007
  7270                           ;	Oscillator Selection bits
  7271                           ;	FOSC = INTRC_NOCLKOUT, INTOSCIO oscillator: I/O function on RA6/OSC2/CLKOUT pin, I/O f
      +                          unction on RA7/OSC1/CLKIN
  7272                           ;	Watchdog Timer Enable bit
  7273                           ;	WDTE = OFF, WDT disabled and can be enabled by SWDTEN bit of the WDTCON register
  7274                           ;	Power-up Timer Enable bit
  7275                           ;	PWRTE = OFF, PWRT disabled
  7276                           ;	RE3/MCLR pin function select bit
  7277                           ;	MCLRE = OFF, RE3/MCLR pin function is digital input, MCLR internally tied to VDD
  7278                           ;	Code Protection bit
  7279                           ;	CP = OFF, Program memory code protection is disabled
  7280                           ;	Data Code Protection bit
  7281                           ;	CPD = OFF, Data memory code protection is disabled
  7282                           ;	Brown Out Reset Selection bits
  7283                           ;	BOREN = OFF, BOR disabled
  7284                           ;	Internal External Switchover bit
  7285                           ;	IESO = OFF, Internal/External Switchover mode is disabled
  7286                           ;	Fail-Safe Clock Monitor Enabled bit
  7287                           ;	FCMEN = OFF, Fail-Safe Clock Monitor is disabled
  7288                           ;	Low Voltage Programming Enable bit
  7289                           ;	LVP = OFF, RB3 pin has digital I/O, HV on MCLR must be used for programming
  7290                           ;	In-Circuit Debugger Mode bit
  7291                           ;	DEBUG = 0x1, unprogrammed default
  7292  2007                     	org	8199
  7293  2007  20D4               	dw	8404
  7294                           
  7295                           ;Config register CONFIG2 @ 0x2008
  7296                           ;	Brown-out Reset Selection bit
  7297                           ;	BOR4V = BOR40V, Brown-out Reset set to 4.0V
  7298                           ;	Flash Program Memory Self Write Enable bits
  7299                           ;	WRT = OFF, Write protection off
  7300  2008                     	org	8200
  7301  2008  3FFF               	dw	16383

Data Sizes:
    Strings     40
    Constant    0
    Data        0
    BSS         6
    Persistent  0
    Stack       0

Auto Spaces:
    Space          Size  Autos    Used
    COMMON           14     10      12
    BANK0            80     49      53
    BANK1            80      0       0
    BANK3            96      0       0
    BANK2            96      0       0

Pointer List with Targets:

    Lcd_Write_String@a	PTR unsigned char  size(2) Largest target is 5
		 -> NULL(NULL[0]), intToString@valor(BANK0[4]), decimalASCII@cadena(BANK0[5]), STR_3(CODE[3]), 
		 -> STR_2(CODE[3]), STR_1(CODE[3]), 

    UARTSendString@str	PTR const unsigned char  size(2) Largest target is 13
		 -> NULL(NULL[0]), intToString@valor(BANK0[4]), decimalASCII@cadena(BANK0[5]), STR_9(CODE[2]), 
		 -> STR_8(CODE[13]), STR_7(CODE[2]), STR_6(CODE[10]), STR_5(CODE[3]), 
		 -> STR_4(CODE[5]), 

    temperaturaenvio	PTR unsigned char  size(1) Largest target is 4
		 -> NULL(NULL[0]), intToString@valor(BANK0[4]), 

    sp__intToString	PTR unsigned char  size(1) Largest target is 4
		 -> intToString@valor(BANK0[4]), 

    contadorenvio	PTR unsigned char  size(1) Largest target is 4
		 -> NULL(NULL[0]), intToString@valor(BANK0[4]), 

    sp__decimalASCII	PTR unsigned char  size(1) Largest target is 5
		 -> decimalASCII@cadena(BANK0[5]), 

    ADCenvio	PTR unsigned char  size(1) Largest target is 5
		 -> NULL(NULL[0]), decimalASCII@cadena(BANK0[5]), 


Critical Paths under _main in COMMON

    _main->_Lcd_Write_String
    _intToString->___awmod
    _decimalASCII->___xxtofl
    ___flsub->___fladd
    ___flsub->___xxtofl
    ___flmul->__Umul8_16
    ___fldiv->___xxtofl
    _UARTSendString->_UARTSendChar
    _UARTInit->___lldiv
    _Lcd_Write_String->_Lcd_Write_Char
    _Lcd_Write_Char->_Lcd_Port
    _Lcd_Set_Cursor->_Lcd_Cmd
    _Lcd_Init->_Lcd_Cmd
    _Lcd_Clear->_Lcd_Cmd
    _Lcd_Cmd->_Lcd_Port

Critical Paths under _ISR in COMMON

    None.

Critical Paths under _main in BANK0

    _main->_decimalASCII
    _intToString->___awdiv
    _decimalASCII->___fldiv
    ___flsub->___fladd
    ___flmul->__Umul8_16
    ___fldiv->___xxtofl
    _UARTInit->___lldiv

Critical Paths under _ISR in BANK0

    None.

Critical Paths under _main in BANK1

    None.

Critical Paths under _ISR in BANK1

    None.

Critical Paths under _main in BANK3

    None.

Critical Paths under _ISR in BANK3

    None.

Critical Paths under _main in BANK2

    None.

Critical Paths under _ISR in BANK2

    None.

Call Graph Tables:

 ---------------------------------------------------------------------------------
 (Depth) Function   	        Calls       Base Space   Used Autos Params    Refs
 ---------------------------------------------------------------------------------
 (0) _main                                                 2     2      0   15622
                                             47 BANK0      2     2      0
                          _Lcd_Clear
                           _Lcd_Init
                     _Lcd_Set_Cursor
                   _Lcd_Write_String
                              _Setup
                           _UARTInit
                     _UARTSendString
                       _decimalASCII
                        _intToString
                            _spiInit
                            _spiRead
                           _spiWrite
 ---------------------------------------------------------------------------------
 (1) _spiWrite                                             1     1      0      22
                                              2 COMMON     1     1      0
 ---------------------------------------------------------------------------------
 (1) _spiRead                                              0     0      0       0
                     _spiReceiveWait
 ---------------------------------------------------------------------------------
 (2) _spiReceiveWait                                       0     0      0       0
 ---------------------------------------------------------------------------------
 (1) _spiInit                                              4     1      3     360
                                              2 COMMON     4     1      3
 ---------------------------------------------------------------------------------
 (1) _intToString                                          9     9      0    1770
                                              4 BANK0      9     9      0
                            ___awdiv
                            ___awmod
                             ___bmul
 ---------------------------------------------------------------------------------
 (2) ___bmul                                               4     3      1     168
                                              2 COMMON     4     3      1
 ---------------------------------------------------------------------------------
 (2) ___awmod                                              7     3      4     448
                                              2 COMMON     7     3      4
 ---------------------------------------------------------------------------------
 (2) ___awdiv                                              9     5      4     805
                                              2 COMMON     5     1      4
                                              0 BANK0      4     4      0
 ---------------------------------------------------------------------------------
 (1) _decimalASCII                                        15    15      0    9069
                                             32 BANK0     15    15      0
                            ___fldiv
                            ___flmul
                            ___flsub
                            ___fltol
                           ___xxtofl
 ---------------------------------------------------------------------------------
 (2) ___xxtofl                                            14    10      4     550
                                              2 COMMON     8     4      4
                                              0 BANK0      6     6      0
 ---------------------------------------------------------------------------------
 (2) ___fltol                                             11     7      4     607
                                              2 COMMON     6     2      4
                                              0 BANK0      5     5      0
 ---------------------------------------------------------------------------------
 (2) ___flsub                                              8     0      8    2485
                                             12 BANK0      8     0      8
                            ___fladd
                           ___xxtofl (ARG)
 ---------------------------------------------------------------------------------
 (3) ___fladd                                             20    12      8    2136
                                              2 COMMON     8     0      8
                                              0 BANK0     12    12      0
 ---------------------------------------------------------------------------------
 (2) ___flmul                                             26    18      8    3533
                                              5 BANK0     26    18      8
                          __Umul8_16
 ---------------------------------------------------------------------------------
 (3) __Umul8_16                                            9     7      2     980
                                              2 COMMON     4     2      2
                                              0 BANK0      5     5      0
 ---------------------------------------------------------------------------------
 (2) ___fldiv                                             26    18      8    1273
                                              6 BANK0     26    18      8
                           ___xxtofl (ARG)
 ---------------------------------------------------------------------------------
 (1) _UARTSendString                                       8     5      3    1846
                                              3 COMMON     6     3      3
                                              0 BANK0      2     2      0
                       _UARTSendChar
 ---------------------------------------------------------------------------------
 (2) _UARTSendChar                                         1     1      0      31
                                              2 COMMON     1     1      0
 ---------------------------------------------------------------------------------
 (1) _UARTInit                                             9     4      5     874
                                              6 BANK0      9     4      5
                            ___lldiv
 ---------------------------------------------------------------------------------
 (2) ___lldiv                                             14     6      8     601
                                              2 COMMON     8     0      8
                                              0 BANK0      6     6      0
 ---------------------------------------------------------------------------------
 (1) _Setup                                                0     0      0       0
 ---------------------------------------------------------------------------------
 (1) _Lcd_Write_String                                     7     5      2     732
                                              5 COMMON     5     3      2
                                              0 BANK0      2     2      0
                     _Lcd_Write_Char
 ---------------------------------------------------------------------------------
 (2) _Lcd_Write_Char                                       2     2      0      62
                                              3 COMMON     2     2      0
                           _Lcd_Port
 ---------------------------------------------------------------------------------
 (1) _Lcd_Set_Cursor                                       6     5      1     794
                                              5 COMMON     4     3      1
                            _Lcd_Cmd
 ---------------------------------------------------------------------------------
 (1) _Lcd_Init                                             2     2      0      93
                                              5 COMMON     2     2      0
                            _Lcd_Cmd
                           _Lcd_Port
 ---------------------------------------------------------------------------------
 (1) _Lcd_Clear                                            0     0      0      62
                            _Lcd_Cmd
 ---------------------------------------------------------------------------------
 (2) _Lcd_Cmd                                              2     2      0      62
                                              3 COMMON     2     2      0
                           _Lcd_Port
 ---------------------------------------------------------------------------------
 (3) _Lcd_Port                                             1     1      0      31
                                              2 COMMON     1     1      0
 ---------------------------------------------------------------------------------
 Estimated maximum stack depth 3
 ---------------------------------------------------------------------------------
 (Depth) Function   	        Calls       Base Space   Used Autos Params    Refs
 ---------------------------------------------------------------------------------
 (4) _ISR                                                  2     2      0       0
                                              0 COMMON     2     2      0
 ---------------------------------------------------------------------------------
 Estimated maximum stack depth 4
 ---------------------------------------------------------------------------------

 Call Graph Graphs:

 _main (ROOT)
   _Lcd_Clear
     _Lcd_Cmd
       _Lcd_Port
   _Lcd_Init
     _Lcd_Cmd
       _Lcd_Port
     _Lcd_Port
   _Lcd_Set_Cursor
     _Lcd_Cmd
       _Lcd_Port
   _Lcd_Write_String
     _Lcd_Write_Char
       _Lcd_Port
   _Setup
   _UARTInit
     ___lldiv
   _UARTSendString
     _UARTSendChar
   _decimalASCII
     ___fldiv
       ___xxtofl (ARG)
     ___flmul
       __Umul8_16
     ___flsub
       ___fladd
       ___xxtofl (ARG)
     ___fltol
     ___xxtofl
   _intToString
     ___awdiv
     ___awmod
     ___bmul
   _spiInit
   _spiRead
     _spiReceiveWait
   _spiWrite

 _ISR (ROOT)

 Address spaces:
Name               Size   Autos  Total    Cost      Usage
BITCOMMON            E      0       0       0        0.0%
EEDATA             100      0       0       0        0.0%
NULL                 0      0       0       0        0.0%
CODE                 0      0       0       0        0.0%
COMMON               E      A       C       1       85.7%
BITSFR0              0      0       0       1        0.0%
SFR0                 0      0       0       1        0.0%
BITSFR1              0      0       0       2        0.0%
SFR1                 0      0       0       2        0.0%
STACK                0      0       0       2        0.0%
ABS                  0      0      41       3        0.0%
BITBANK0            50      0       0       4        0.0%
BITSFR3              0      0       0       4        0.0%
SFR3                 0      0       0       4        0.0%
BANK0               50     31      35       5       66.2%
BITSFR2              0      0       0       5        0.0%
SFR2                 0      0       0       5        0.0%
BITBANK1            50      0       0       6        0.0%
BANK1               50      0       0       7        0.0%
BITBANK3            60      0       0       8        0.0%
BANK3               60      0       0       9        0.0%
BITBANK2            60      0       0      10        0.0%
BANK2               60      0       0      11        0.0%
DATA                 0      0      41      12        0.0%


Microchip Technology PIC Macro Assembler V2.31 build 20201012212115 
Symbol Table                                                                                   Fri Feb 19 09:15:11 2021

     __end_of_decimalASCII 0E24          UARTInit@baud_rate 0026               ___fldiv@aexp 003F  
             ___fldiv@bexp 003E                          pc 0002               ___fldiv@sign 0037  
           ___bmul@product 0074                _SSPSTATbits 0094                         l81 0E23  
                       l84 0A7F                         l78 0874               ___awdiv@sign 0021  
                       fsr 0004        __Umul8_16@word_mpld 0022                        l100 0858  
                      l101 085D                        l110 17B9                        l104 07F9  
                      l202 0970                        l107 07FF                        l140 17CB  
                      l118 17C9                        l143 17D5                        l151 09C7  
                      l320 17FF                        l137 0BBF                        l330 0AE7  
                      l181 07F8                        l190 0898                        l184 0847  
                      l600 0603                        l193 092A                        l178 17B3  
                      l196 17EA                        l612 0575                        l460 0A20  
                      l621 05D5                        l702 08D3                        l630 0603  
                      l447 0B50                        l704 08E5                        l608 0551  
                      l480 0C3B                        l633 08BC                        l618 0597  
                      l490 0C3B                        l643 0660                        l740 0CC1  
                      l645 07E0                        l629 05F7                        l741 0CCD  
                      l733 0CA5                        l591 0486                        l487 0C26  
                      l727 0C60                        l665 07C4                        l593 045D  
                      l729 0CF7                        l667 07D4                        l659 0752  
                      l683 037B                        l587 03DF                        l695 036F  
                      l689 02E7                        _ISR 17BA              _contadorenvio 007A  
                      fsr0 0004                        indf 0000               ___awmod@sign 0078  
             ___flmul@aexp 0033               ___flmul@bexp 0038               ___flmul@sign 0032  
             ___flmul@temp 003D               ___flmul@prod 0039                       ?_ISR 0070  
             ___fltol@exp1 0077                       l2006 07F9                       l2200 0615  
                     l3000 02CB                       l2120 09D2                       l2040 17F7  
                     l2032 17EC                       l2210 0629                       l2202 0616  
                     l3010 02EC                       l3002 02CC                       l2130 09E6  
                     l2122 09D4                       l2114 09C8                       l2042 17FE  
                     l2034 17ED                       l3100 094C                       l2300 074F  
                     l2220 0642                       l2204 061B                       l2212 062B  
                     l3012 02F1                       l3020 0322                       l3004 02D0  
                     l2140 0A05                       l2132 09ED                       l2124 09D8  
                     l2116 09C9                       l2036 17F1                       l3102 0954  
                     l2310 076E                       l2230 0656                       l2222 0643  
                     l2214 0633                       l2206 0620                       l3030 0355  
                     l3022 032F                       l3014 02FF                       l3006 02E4  
                     l3110 0D47                       l2142 0A0C                       l2134 09F1  
                     l2126 09DD                       l2118 09CD                       l2038 17F5  
                     l2320 07B7                       l2312 0787                       l2304 0757  
                     l2224 0648                       l2232 0658                       l2216 0638  
                     l2208 0628                       l3032 0363                       l3024 033A  
                     l3016 0303                       l3120 0DB6                       l3112 0D4B  
                     l3104 0CFB                       l2136 09F5                       l2128 09E3  
                     l2144 0A12                       l3200 0EF8                       l3050 0BB0  
                     l3042 0B51                       l2330 07D0                       l2322 07BB  
                     l2306 075C                       l2314 078D                       l2250 06A1  
                     l2234 0668                       l2242 0681                       l2226 064D  
                     l2218 063E                       l3034 0367                       l3026 0349  
                     l3018 031C                       l3130 0E22                       l3122 0DEA  
                     l3114 0D7F                       l3106 0D2F                       l2146 0A17  
                     l2138 09FF                       l3210 0F1D                       l3202 0F07  
                     l3060 0BB7                       l3052 0BB1                       l3044 0B58  
                     l3140 099C                       l2324 07C3                       l2316 079A  
                     l2308 076A                       l2260 06C0                       l2252 06A9  
                     l2244 0686                       l2236 0674                       l2228 0655  
                     l3036 0368                       l3028 0353                       l2500 0CAC  
                     l3124 0E09                       l3116 0D9E                       l3108 0D42  
                     l2148 0A1C                       l3220 0F52                       l3212 0F27  
                     l3204 0F0A                       l3070 0BBE                       l3062 0BB8  
                     l3054 0BB2                       l3046 0B83                       l3142 09A9  
                     l3134 0971                       l2326 07CA                       l2318 07A8  
                     l2270 06F2                       l2262 06D2                       l2254 06B1  
                     l2238 0678                       l3038 0373                       l2190 089D  
                     l2510 0CE5                       l2502 0CB7                       l3126 0E1C  
                     l3118 0DB1                       l3150 0A4F                       l3230 0F8C  
                     l3222 0F61                       l3214 0F32                       l3206 0F14  
                     l3080 0909                       l3072 08E6                       l2520 085E  
                     l3064 0BB9                       l3056 0BB3                       l3048 0B85  
                     l3136 0978                       l2328 07CE                       l2280 0713  
                     l2272 06F3                       l2264 06D6                       l2256 06B9  
                     l2248 068F                       l1800 0383                       l2512 0CEA  
                     l2504 0CBB                       l3128 0E21                       l3152 0A66  
                     l3144 0A24                       l2600 17C1                       l3240 0FB7  
                     l3232 0F8F                       l3224 0F70                       l3216 0F3F  
                     l3208 0F17                       l3160 0E24                       l3082 083B  
                     l3074 08EC                       l3090 0887                       l2522 086F  
                     l3066 0BBA                       l3058 0BB4                       l3138 0994  
                     l2290 072C                       l2282 0715                       l2274 0701  
                     l2266 06D7                       l2258 06BB                       l2194 0604  
                     l1810 0398                       l1802 0389                       l2514 0CEE  
                     l2506 0CC5                       l3154 0A7D                       l3146 0A3A  
                     l2530 0852                       l2602 17C6                       l3250 0FF9  
                     l3242 0FC1                       l3234 0F95                       l3226 0F7F  
                     l3218 0F49                       l3170 0E63                       l3162 0E32  
                     l3076 08F5                       l3092 088D                       l3084 0876  
                     l2524 0871                       l3068 0BBB                       l2284 071E  
                     l2292 0732                       l2268 06E0                       l2276 0705  
                     l2196 060B                       l1820 03B0                       l1812 03A0  
                     l1804 038D                       l2188 0899                       l2516 0CEF  
                     l2508 0CCF                       l3156 0A7E                       l3148 0A3F  
                     l2532 0854                       l3244 0FCC                       l3236 0F9F  
                     l3228 0F82                       l3180 0E95                       l3172 0E6B  
                     l3164 0E3D                       l3078 0903                       l3094 0892  
                     l3086 087B                       l2294 0736                       l2286 0722  
                     l2278 070B                       l2198 0611                       l1910 04C0  
                     l1902 0498                       l1830 03C2                       l1822 03B6  
                     l1814 03A1                       l1806 038E                       l2534 0857  
                     l2526 0849                       l3246 0FDB                       l3238 0FAA  
                     l3190 0EBC                       l3182 0E9E                       l3174 0E74  
                     l3166 0E4E                       l3088 0880                       l3096 092B  
                     l2800 0A92                       l2296 0737                       l2288 0723  
                     l1912 04C2                       l1904 04AF                       l1920 04D5  
                     l1832 03C7                       l1840 03D7                       l1824 03B7  
                     l1808 0393                       l1816 03A3                       l2480 0C48  
                     l2528 0850                       l3248 0FEA                       l3192 0EC9  
                     l3184 0EA1                       l3176 0E80                       l3168 0E53  
                     l3098 0930                       l2810 0AC1                       l2802 0A95  
                     l2298 073B                       l1922 04EB                       l1930 0543  
                     l1914 04C6                       l1906 04B3                       l1850 03F5  
                     l1842 03E5                       l1834 03CC                       l1826 03BD  
                     l1818 03AB                       l2490 0C76                       l2482 0C58  
                     l3194 0ED1                       l3186 0EA7                       l3178 0E89  
                     l2812 0ACF                       l2804 0AA2                       l1940 0570  
                     l1932 0559                       l1924 0529                       l1916 04C7  
                     l1908 04B7                       l1860 0409                       l1852 03F9  
                     l1844 03E9                       l1836 03D4                       l1828 03C1  
                     l2900 0C30                       l2492 0C83                       l2484 0C68  
                     l2476 0C3F                       l3196 0EDA                       l3188 0EB1  
                     l2814 0AD0                       l2806 0AA6                       l2910 002D  
                     l2902 001B                       l1950 0583                       l1942 0574  
                     l1934 055E                       l1926 052F                       l1918 04D0  
                     l1870 041D                       l1862 040D                       l1854 03FD  
                     l1846 03ED                       l1838 03D5                       l2494 0C8A  
                     l2478 0C44                       l2830 0AF6                       l2822 0AE8  
                     l3198 0EE9                       l2816 0AD9                       l2808 0AAF  
                     l2760 08C0                       l2920 0049                       l2912 0032  
                     l2904 0022                       l1960 0594                       l1944 0579  
                     l1952 0585                       l1928 0534                       l1880 0441  
                     l1872 0421                       l1864 0411                       l1856 0401  
                     l1848 03F1                       l2496 0C8E                       l2488 0C71  
                     l2840 0B0B                       l2832 0AFA                       l2824 0AEB  
                     l2818 0ADF                       l2770 08E1                       l2762 08C2  
                     l2930 005E                       l2922 004E                       l2914 0037  
                     l2906 0028                       l1970 05B3                       l1946 057C  
                     l1938 0567                       l1954 0589                       l1890 0471  
                     l1882 0461                       l1874 0425                       l1866 0415  
                     l1858 0405                       l2498 0C9C                       l2850 0B2E  
                     l2842 0B0E                       l2834 0AFF                       l2826 0AEF  
                     l2780 07E5                       l2764 08C9                       l2940 007A  
                     l2932 0063                       l2924 0054                       l2916 003F  
                     l2908 002C                       l1980 05EC                       l1972 05D1  
                     l1964 059C                       l1956 058A                       l1948 057E  
                     l1892 047A                       l1884 046A                       l1868 0419  
                     l1876 0429                       l2860 0B47                       l2852 0B34  
                     l2844 0B15                       l2836 0B03                       l2828 0AF4  
                     l2758 17AF                       l2782 07EB                       l2790 17DA  
                     l2774 17CB                       l2766 08CD                       l2950 00A5  
                     l2942 007F                       l2934 006B                       l2926 0058  
                     l2918 0041                       l1990 0602                       l1982 05ED  
                     l1974 05DA                       l1966 05A1                       l1958 058E  
                     l1886 046C                       l1894 047E                       l1878 042A  
                     l1798 037C                       l2862 0B4C                       l2854 0B35  
                     l2846 0B19                       l2838 0B05                       l2598 17B5  
                     l2784 07EE                       l2792 17E0                       l2776 17D1  
                     l2768 08DC                       l2960 0142                       l2952 00C2  
                     l2936 006D                       l2928 0059                       l1984 05F1  
                     l1976 05DF                       l1968 05AF                       l1896 048A  
                     l1888 0470                       l2880 0BF6                       l2872 0BD6  
                     l2856 0B3C                       l2848 0B1D                       l2786 07F5  
                     l2778 07E2                       l2794 17E3                       l2970 01A5  
                     l2962 014B                       l2954 00DE                       l2946 0088  
                     l2938 0075                       l1986 05F3                       l1978 05E7  
                     l1898 048F                       l2882 0BFA                       l2890 0C14  
                     l2874 0BEB                       l2866 0BC0                       l2858 0B42  
                     l2796 17E7                       l2788 17D7                       l2980 0245  
                     l2972 01BE                       l2964 015B                       l2956 010A  
                     l2948 0098                       l1988 05FE                       l2876 0BEC  
                     l2868 0BCD                       l2798 0A80                       l2990 02B3  
                     l2982 026B                       l2974 01DB                       l2966 0178  
                     l2958 0126                       l2878 0BF4                       l2992 02B7  
                     l2984 0293                       l2976 0208                       l2968 0188  
                     l2896 0C1B                       l2888 0C02                       l2994 02B8  
                     l2986 029C                       l2978 0218                       l2898 0C2B  
                     l2996 02C1                       l2988 02AA                       l2998 02C7  
                     STR_1 082F                       STR_2 0832                       STR_3 0835  
                     STR_4 0827                       STR_5 082C                       STR_6 081D  
                     STR_7 082A                       STR_8 0810                       STR_9 082A  
                     u2000 0461                       u2001 0460                       u2010 0470  
                     u2011 046F                       u2110 04EB                       u2030 0486  
                     u2111 04EA                       u2031 0485                       u3000 075C  
                     u2200 0583                       u2040 048A                       u3001 075B  
                     u2201 0582                       u2121 0502                       u2113 04E7  
                     u2105 04C9                       u2041 0489                       u2025 0473  
                     u3010 076E                       u2210 0589                       u2130 0516  
                     u2122 0503                       u2050 048F                       u3011 076D  
                     u2211 0588                       u2131 0517                       u2123 0508  
                     u2051 048E                       u3020 077D                       u2300 05DF  
                     u2220 058E                       u2140 0534                       u2132 051C  
                     u2124 0509                       u2301 05DE                       u2221 058D  
                     u2141 0533                       u2133 051D                       u2125 050E  
                     u2061 04A1                       u3030 079A                       u2310 05EC  
                     u2230 0594                       u2150 0559                       u2126 050F  
                     u2070 04B3                       u2062 04A8                       u3031 0799  
                     u2311 05EB                       u2231 0593                       u2151 0558  
                     u2071 04B2                       u2063 04AF                       u3040 07B7  
                     u2320 05F1                       u2240 059B                       u2160 055E  
                     u2080 04B7                       u4000 0C30                       u2400 17FE  
                     u3041 07B6                       u3025 0778                       u2321 05F0  
                     u2241 059A                       u2161 055D                       u2081 04B6  
                     u4001 0C2F                       u2401 17FD                       u3050 07CE  
                     u4010 002C                       u2330 0602                       u2250 05A1  
                     u2090 04C6                       u3051 07CD                       u3035 0796  
                     u4011 002B                       u2331 0601                       u2251 05A0  
                     u2091 04C5                       u4020 0032                       u2260 05B3  
                     u2180 0574                       u3045 07B3                       u4101 00EC  
                     u4021 0031                       u2261 05B2                       u2181 0573  
                     u4102 00F3                       u4030 0037                       u2270 05C2  
                     u2190 0579                       u4111 0118                       u4103 00FA  
                     u4031 0036                       u2191 0578                       u2175 0569  
                     u4200 0251                       u4112 011F                       u4040 0058  
                     u2280 05D1                       u2600 09E3                       u4121 0134  
                     u4113 0126                       u4041 0057                       u2281 05D0  
                     u2601 09E2                       u4122 013B                       u4050 005E  
                     u2290 05DA                       u2370 07FF                       u4211 025D  
                     u4123 0142                       u4051 005D                       u2291 05D9  
                     u2275 05BD                       u2371 07FE                       u4300 02E4  
                     u4220 0279                       u4212 0264                       u4060 0063  
                     u1900 0398                       u2620 09F5                       u4301 02E3  
                     u4213 026B                       u4205 024C                       u4141 016A  
                     u4061 0062                       u1901 0397                       u2621 09F4  
                     u4310 02EB                       u4142 0171                       u4070 007A  
                     u1910 03B6                       u3510 0CBB                       u3430 0C44  
                     u2630 09FF                       u2390 17F1                       u4311 02EA  
                     u4231 0285                       u4151 0197                       u4143 0178  
                     u4135 0144                       u4071 0079                       u1911 03B5  
                     u3511 0CBA                       u3431 0C43                       u2631 09FE  
                     u2615 09E7                       u2391 17F0                       u4400 0B93  
                     u2800 0642                       u4320 02F1                       u4232 028C  
                     u4152 019E                       u4080 007F                       u1920 03C1  
                     u3520 0CC1                       u3440 0C48                       u2801 0641  
                     u4321 02F0                       u4233 0293                       u4225 0274  
                     u4153 01A5                       u4081 007E                       u1921 03C0  
                     u3521 0CC0                       u3505 0CB0                       u3441 0C47  
                     u4410 087B                       u2810 0648                       u4330 0303  
                     u1930 03C7                       u3530 0CC5                       u3450 0C68  
                     u2650 0A12                       u4411 087A                       u2811 0647  
                     u4331 0302                       u4171 01CD                       u4091 00D0  
                     u1931 03C6                       u3531 0CC4                       u3451 0C67  
                     u2651 0A11                       u2635 09FB                       u4420 088D  
                     u2900 06F2                       u2820 064D                       u3700 08CD  
                     u4340 0312                       u4260 02B7                       u4172 01D4  
                     u4092 00D7                       u1940 03CC                       u3540 0CDA  
                     u2660 0A17                       u2580 09CD                       u4421 088C  
                     u4405 0B8E                       u2901 06F1                       u2821 064C  
                     u3701 08CC                       u4261 02B6                       u4245 0295  
                     u4181 01FA                       u4173 01DB                       u4165 01A7  
                     u4093 00DE                       u1941 03CB                       u2661 0A16  
                     u2645 0A06                       u2581 09CC                       u4430 093A  
                     u2910 070B                       u2830 0668                       u4350 032F  
                     u4182 0201                       u1950 03E5                       u3550 0CEA  
                     u3470 0C89                       u2590 09D8                       u2911 070A  
                     u2831 0667                       u4351 032E                       u4255 02AC  
                     u4191 0227                       u4183 0208                       u1951 03E4  
                     u3551 0CE9                       u3471 0C88                       u2591 09D7  
                     u4440 095E                       u3800 0ADF                       u2920 0713  
                     u2840 0686                       u3720 08E1                       u4360 0349  
                     u4280 02CB                       u4192 022E                       u1960 03E9  
                     u1880 038D                       u3560 0CEE                       u3801 0ADE  
                     u2921 0712                       u2905 06EE                       u2841 0685  
                     u3721 08E0                       u4361 0348                       u4345 030D  
                     u4281 02CA                       u4193 0235                       u1961 03E8  
                     u1881 038C                       u3561 0CED                       u3545 0CD5  
                     u3465 0C7B                       u4450 0970                       u3730 17D1  
                     u2850 06C0                       u2770 0615                       u4370 0367  
                     u4290 02D0                       u1970 0441                       u1890 0393  
                     u3490 0CAB                       u3810 0AEF                       u3570 0850  
                     u4451 096F                       u3731 17D0                       u2851 06BF  
                     u2771 0614                       u3715 08D4                       u4371 0366  
                     u4355 032B                       u4291 02CF                       u4275 02BA  
                     u1971 0440                       u1891 0392                       u3491 0CAA  
                     u3811 0AEE                       u3571 084F                       u4507 0E38  
                     u3740 0A92                       u4380 0B58                       u4460 0982  
                     u2940 0722                       u2780 061B                       u1980 044A  
                     u3900 0B47                       u3820 0AFA                       u3741 0A91  
                     u4381 0B57                       u2941 0721                       u2781 061A  
                     u4365 0345                       u1981 0448                       u3485 0C9D  
                     u3901 0B46                       u3821 0AF9                       u4517 0E5E  
                     u4390 0B66                       u4470 09A9                       u2790 0620  
                     u1990 044B                       u3910 0BCD                       u3830 0B0B  
                     u4607 090D                       u4471 09A8                       u2935 0717  
                     u2791 061F                       u1975 043D                       u3911 0BCC  
                     u3831 0B0A                       u4527 0EB7                       u3760 0AA6  
                     u4480 09B5                       u2960 0736                       u2880 06D6  
                     u3920 0BE4                       u4617 07F0                       u3761 0AA5  
                     u2961 0735                       u2881 06D5                       u2865 06C2  
                     u4537 0F10                       u4490 09C7                       u2970 073B  
                     u3930 0BFA                       u3850 0B1D                       u3755 0A97  
                     u4395 0B61                       u4491 09C6                       u4475 09A5  
                     u2971 073A                       u2955 0725                       u2875 06CB  
                     u3931 0BF9                       u3851 0B1C                       u4547 0F2D  
                     u3780 0AC1                       u2980 074F                       u3940 0C01  
                     u3781 0AC0                       u2981 074E                       u3941 0C00  
                     u3925 0BDF                       u3845 0B0F                       u4557 0F88  
                     u2990 0756                       u3870 0B2E                       u3775 0AA8  
                     u2991 0755                       u2895 06D9                       u3871 0B2D  
                     u4567 0FA5                       u3960 0C13                       u4577 17E5  
                     u3785 0ABD                       u3961 0C12                       u3865 0B1E  
                     u3970 0C1A                       u3890 0B42                       i1l67 17BA  
                     u4587 08F0                       u3795 0AD1                       u3971 0C19  
                     u3955 0C03                       u3891 0B41                       u3875 0B2A  
                     u4597 08FF                       u3885 0B36                       u3990 0C2B  
                     u3991 0C2A                       u3985 0C1D          ?_Lcd_Write_String 0075  
                     _main 0E24                       btemp 007E                       start 000C  
       ??_Lcd_Write_String 0077            ___fldiv@new_exp 0038            __end_of_Lcd_Cmd 07F9  
        ___bmul@multiplier 0075                      ??_ISR 0070               ?_intToString 0070  
            ___fltol@sign1 0076            __end_of___fladd 0604                      ?_main 0070  
          __end_of___fldiv 07E1            __end_of___awdiv 0B51            __end_of___awmod 0A21  
          __end_of___flmul 037C            __end_of___flsub 08BD            __end_of___fltol 0C3C  
                    _ANSEL 0188            __end_of___lldiv 0AE8            ___awdiv@divisor 0072  
          ___awdiv@counter 0020                      _RCREG 001A                      _SPBRG 0099  
                    _PORTA 0005                      _PORTB 0006                      _PORTC 0007  
                    _PORTD 0008    __size_of_Lcd_Set_Cursor 0024                      _TRISA 0085  
                    _TRISB 0086                      _TRISC 0087                      _TRISD 0088  
       decimalASCII@cadena 0045                      _TXREG 0019           __end_of_UARTInit 0BC0  
                    _Setup 085E         decimalASCII@entero 004A                      pclath 000A  
          __end_of_spiInit 085E            __end_of_spiRead 17CA                      status 0003  
                    wtemp0 007E           __end_of_Lcd_Init 092B           __end_of_Lcd_Port 17B4  
          __initialization 000F               __end_of_main 1000                     ??_main 004F  
       __size_of_Lcd_Clear 000D                     ?_Setup 0070           ___awdiv@dividend 0074  
                   _ANSELH 0189                  ??_Lcd_Cmd 0073    __size_of_Lcd_Write_Char 0015  
                   _TRISC3 043B                     _TRISC5 043D                     _SSPCON 0014  
                   _SSPBUF 0013           __end_of___xxtofl 0CF8      __size_of_decimalASCII 012C  
      decimalASCII@lectura 0044                     ___bmul 17EB                  ??___fladd 0020  
                ??___fldiv 002E                  ??___awdiv 0076                  ??___awmod 0076  
                ??___flmul 002D                  ??___flsub 007A                  ??___fltol 0020  
                ??___lldiv 0020    __size_of_UARTSendString 0057           ___awdiv@quotient 0022  
          ___awmod@divisor 0072            ___awmod@counter 0077         __size_of__Umul8_16 0029  
                   saved_w 007E           __end_of_spiWrite 17BA                  ??_spiInit 0075  
                ??_spiRead 0072               _decimalASCII 0CF8            Lcd_Set_Cursor@a 0077  
          Lcd_Set_Cursor@b 0075               ___xxtofl@arg 0022               ___xxtofl@exp 0021  
             ___xxtofl@val 0072    __end_of__initialization 0017          __end_of_Lcd_Clear 0848  
               ___fltol@f1 0072        ___bmul@multiplicand 0072           intToString@value 002C  
         intToString@valor 0027             __pcstackCOMMON 0070              __end_of_Setup 0875  
                ?_UARTInit 0026       __size_of_intToString 005F             _Lcd_Set_Cursor 0875  
 UARTSendString@max_length 0075                    ??_Setup 0072                  ?_Lcd_Init 0070  
                ?_Lcd_Port 0070                 __pbssBANK0 0051          __end_of__Umul8_16 08E6  
               __pmaintext 0E24                    ?___bmul 0072                 ??_UARTInit 002B  
               __pintentry 0004    __size_of_spiReceiveWait 0007  __size_of_Lcd_Write_String 0046  
   __end_of_Lcd_Set_Cursor 0899                  ?___xxtofl 0072                 ??_Lcd_Init 0075  
               ??_Lcd_Port 0072                    _SSPSTAT 0094                 __stringtab 0800  
            ?_UARTSendChar 0070             _Lcd_Write_Char 17D6                    _Lcd_Cmd 07E1  
                ?_spiWrite 0070            __size_of___bmul 0015                    ___fladd 037C  
                  ___fldiv 0604                    ___awdiv 0AE8                    ___awmod 09C8  
                  ___flmul 001B                    ___flsub 0899                    ___fltol 0BC0  
                  ___lldiv 0A80             _UARTSendString 0971            ?_Lcd_Set_Cursor 0075  
                  __ptext1 17B4                    __ptext2 17C1                    __ptext3 07F9  
                  __ptext4 0848                    __ptext5 0A21                    __ptext6 17EB  
                  __ptext7 09C8                    __ptext8 0AE8                    __ptext9 0CF8  
             __size_of_ISR 0007                 ??___xxtofl 0076           ___awmod@dividend 0074  
                  _spiInit 0848                    _spiRead 17C1     __end_of_Lcd_Write_Char 17EB  
     end_of_initialization 0017             ??_UARTSendChar 0072            ___lldiv@divisor 0072  
          ___lldiv@counter 0025                  _RCSTAbits 0018     __end_of_UARTSendString 09C8  
               ??_spiWrite 0072                  Lcd_Port@a 0072                  _PORTAbits 0005  
                _PORTCbits 0007                ___fladd@grs 002B              ___xxtofl@sign 0020  
                _TRISCbits 0087                ___fldiv@grs 003A                ___fldiv@rem 0033  
              spiWrite@dat 0072            ?_Lcd_Write_Char 0070          Lcd_Write_String@a 0075  
        Lcd_Write_String@i 0020                ___flmul@grs 0034                  _TXSTAbits 0098  
        intToString@entero 002B                  _Lcd_Clear 083B            ?_UARTSendString 0073  
           _spiReceiveWait 07F9             __end_of___bmul 1800           _Lcd_Write_String 092B  
        __size_of_UARTInit 006F        start_initialization 000F                __end_of_ISR 17C1  
        __size_of_Lcd_Init 0045          __size_of_Lcd_Port 0006           _temperaturaenvio 0051  
   __end_of_spiReceiveWait 0800                 ?_Lcd_Clear 0070                   ??___bmul 0073  
   decimalASCII@convertir3 004B                  __Umul8_16 08BD              ??_intToString 0024  
          Lcd_Write_Char@a 0074       __end_of_UARTSendChar 17D6                  ___fladd@a 0076  
                ___fladd@b 0072                  ___fldiv@a 0026                  ___fldiv@b 002A  
                ___flmul@a 0029                  ___flmul@b 0025                __pbssCOMMON 007A  
                ___flsub@a 002C                  ___flsub@b 0030                  ___latbits 0002  
            __pcstackBANK0 0020          __size_of___xxtofl 00BC                   ?_Lcd_Cmd 0070  
            UARTSendChar@c 0072            ?_spiReceiveWait 0070           ??_Lcd_Set_Cursor 0076  
                 ?___fladd 0072                   ?___fldiv 0026                   ?___awdiv 0072  
                 ?___awmod 0072                   ?___flmul 0025                   ?___flsub 002C  
                 ?___fltol 0072                   ?___lldiv 0072                 ?__Umul8_16 0072  
        __size_of_spiWrite 0006                  __pstrings 0800        __end_of_intToString 0A80  
                 ?_spiInit 0072                   ?_spiRead 0070             __size_of_Setup 0017  
                 _ADCenvio 007B       spiInit@sTransmitEdge 0074          interrupt_function 0004  
          UARTSendString@i 0020         spiInit@sDataSample 0072                   Lcd_Cmd@a 0074  
                 _PIR1bits 000C                ??_Lcd_Clear 0075                   _UARTInit 0B51  
              __stringbase 080F           ??_Lcd_Write_Char 0073                   _Lcd_Init 08E6  
            ?_decimalASCII 0070                   _Lcd_Port 17AE   __end_of_Lcd_Write_String 0971  
         __size_of_Lcd_Cmd 0018           ??_UARTSendString 0076      __size_of_UARTSendChar 000C  
             UARTInit@BRGH 002A                ??__Umul8_16 0074           __size_of___fladd 0288  
         __size_of___fldiv 01DD           __size_of___awdiv 0069           __size_of___awmod 0059  
         __size_of___flmul 0361           __size_of___flsub 0024           __size_of___fltol 007C  
         __size_of___lldiv 0068                _intToString 0A21         __end_of__stringtab 0810  
                 ___xxtofl 0C3C             ??_decimalASCII 0040                   __ptext10 0C3C  
                 __ptext11 0BC0                   __ptext20 0A80                   __ptext12 0899  
                 __ptext21 085E                   __ptext13 037C                   __ptext22 092B  
                 __ptext14 001B                   __ptext23 17D6                   __ptext15 08BD  
                 __ptext24 0875                   __ptext16 0604                   __ptext25 08E6  
                 __ptext17 0971                   __ptext26 083B                   __ptext18 17CA  
                 __ptext27 07E1                   __ptext19 0B51                   __ptext28 17AE  
                 __ptext29 17BA           __size_of_spiInit 0016           __size_of_spiRead 0009  
                 _contador 0053               _UARTSendChar 17CA              __size_of_main 01DC  
                 _valorADC 0054                   _spiWrite 17B4               spiInit@sType 0075  
        spiInit@sClockIdle 0073          UARTSendString@str 0073                   intlevel1 0000  
         ___lldiv@dividend 0076           ??_spiReceiveWait 0072                  stringcode 080A  
       Lcd_Set_Cursor@temp 0078     __Umul8_16@multiplicand 0072                _temperatura 0052  
         ___lldiv@quotient 0021                   stringdir 080A                   stringtab 0800  
            ___fladd@signs 0028               ___fladd@aexp 0029               ___fladd@bexp 002A  
     __Umul8_16@multiplier 0024          __Umul8_16@product 0020  
