

Microchip MPLAB XC8 Assembler V2.31 build 20201012212115 
                                                                                               Thu Mar 04 18:54:20 2021

Microchip MPLAB XC8 C Compiler v2.31 (Free license) build 20201012212115 Og1 
     1                           	processor	16F887
     2                           	pagewidth 120
     3                           	opt	flic
     4                           	psect	strings,global,class=STRING,delta=2,noexec
     5                           	psect	cinit,global,class=CODE,merge=1,delta=2
     6                           	psect	bssCOMMON,global,class=COMMON,space=1,delta=1,noexec
     7                           	psect	bssBANK0,global,class=BANK0,space=1,delta=1,noexec
     8                           	psect	bssBANK1,global,class=BANK1,space=1,delta=1,noexec
     9                           	psect	clrtext,global,class=CODE,delta=2
    10                           	psect	cstackBANK1,global,class=BANK1,space=1,delta=1,noexec
    11                           	psect	cstackCOMMON,global,class=COMMON,space=1,delta=1,noexec
    12                           	psect	cstackBANK0,global,class=BANK0,space=1,delta=1,noexec
    13                           	psect	maintext,global,class=CODE,split=1,delta=2
    14                           	psect	text1,local,class=CODE,merge=1,delta=2,group=3
    15                           	psect	text2,local,class=CODE,merge=1,delta=2,group=1
    16                           	psect	text3,local,class=CODE,merge=1,delta=2,group=3
    17                           	psect	text4,local,class=CODE,merge=1,delta=2,group=2
    18                           	psect	text5,local,class=CODE,merge=1,delta=2,group=2
    19                           	psect	text6,local,class=CODE,merge=1,delta=2,group=2
    20                           	psect	text7,local,class=CODE,merge=1,delta=2,group=2
    21                           	psect	text8,local,class=CODE,merge=1,delta=2,group=2
    22                           	psect	text9,local,class=CODE,merge=1,delta=2,group=2
    23                           	psect	text10,local,class=CODE,merge=1,delta=2
    24                           	psect	text11,local,class=CODE,merge=1,delta=2
    25                           	psect	text12,local,class=CODE,merge=1,delta=2
    26                           	psect	text13,local,class=CODE,merge=1,delta=2,group=2
    27                           	psect	text14,local,class=CODE,merge=1,delta=2
    28                           	psect	text15,local,class=CODE,merge=1,delta=2
    29                           	psect	text16,local,class=CODE,merge=1,delta=2
    30                           	psect	text17,local,class=CODE,merge=1,delta=2
    31                           	psect	text18,local,class=CODE,merge=1,delta=2
    32                           	psect	text19,local,class=CODE,merge=1,delta=2,group=2
    33                           	psect	text20,local,class=CODE,merge=1,delta=2,group=2
    34                           	psect	text21,local,class=CODE,merge=1,delta=2,group=2
    35                           	psect	text22,local,class=CODE,merge=1,delta=2,group=2
    36                           	psect	text23,local,class=CODE,merge=1,delta=2,group=2
    37                           	psect	text24,local,class=CODE,merge=1,delta=2
    38                           	psect	text25,local,class=CODE,merge=1,delta=2
    39                           	psect	text26,local,class=CODE,merge=1,delta=2
    40                           	psect	text27,local,class=CODE,merge=1,delta=2
    41                           	psect	text28,local,class=CODE,merge=1,delta=2
    42                           	psect	text29,local,class=CODE,merge=1,delta=2
    43                           	psect	text30,local,class=CODE,merge=1,delta=2
    44                           	psect	text31,local,class=CODE,merge=1,delta=2
    45                           	psect	text32,local,class=CODE,merge=1,delta=2
    46                           	psect	intentry,global,class=CODE,delta=2
    47                           	psect	config,global,abs,ovrld,class=CONFIG,space=4,delta=2,noexec
    48                           	dabs	1,0x7E,2
    49  0000                     
    50                           ; Version 2.20
    51                           ; Generated 12/02/2020 GMT
    52                           ; 
    53                           ; Copyright © 2020, Microchip Technology Inc. and its subsidiaries ("Microchip")
    54                           ; All rights reserved.
    55                           ; 
    56                           ; This software is developed by Microchip Technology Inc. and its subsidiaries ("Microch
      +                          ip").
    57                           ; 
    58                           ; Redistribution and use in source and binary forms, with or without modification, are
    59                           ; permitted provided that the following conditions are met:
    60                           ; 
    61                           ;     1. Redistributions of source code must retain the above copyright notice, this lis
      +                          t of
    62                           ;        conditions and the following disclaimer.
    63                           ; 
    64                           ;     2. Redistributions in binary form must reproduce the above copyright notice, this 
      +                          list
    65                           ;        of conditions and the following disclaimer in the documentation and/or other
    66                           ;        materials provided with the distribution.
    67                           ; 
    68                           ;     3. Microchip's name may not be used to endorse or promote products derived from th
      +                          is
    69                           ;        software without specific prior written permission.
    70                           ; 
    71                           ; THIS SOFTWARE IS PROVIDED BY MICROCHIP "AS IS" AND ANY EXPRESS OR IMPLIED WARRANTIES,
    72                           ; INCLUDING, BUT NOT LIMITED TO, THE IMPLIED WARRANTIES OF MERCHANTABILITY AND FITNESS F
      +                          OR
    73                           ; PURPOSE ARE DISCLAIMED.  IN NO EVENT SHALL MICROCHIP BE LIABLE FOR ANY DIRECT, INDIREC
      +                          T,
    74                           ; INCIDENTAL, SPECIAL, EXEMPLARY, OR CONSEQUENTIAL DAMAGES (INCLUDING BUT NOT LIMITED TO
    75                           ; PROCUREMENT OF SUBSTITUTE GOODS OR SERVICES; LOSS OF USE, DATA OR PROFITS; OR BUSINESS
    76                           ; INTERRUPTION) HOWSOEVER CAUSED AND ON ANY THEORY OF LIABILITY, WHETHER IN CONTRACT, ST
      +                          RICT
    77                           ; LIABILITY, OR TORT (INCLUDING NEGLIGENCE OR OTHERWISE) ARISING IN ANY WAY OUT OF THE U
      +                          SE OF
    78                           ; THIS SOFTWARE, EVEN IF ADVISED OF THE POSSIBILITY OF SUCH DAMAGE.
    79                           ; 
    80                           ; 
    81                           ; Code-generator required, PIC16F887 Definitions
    82                           ; 
    83                           ; SFR Addresses
    84  0000                     	;# 
    85  0001                     	;# 
    86  0002                     	;# 
    87  0003                     	;# 
    88  0004                     	;# 
    89  0005                     	;# 
    90  0006                     	;# 
    91  0007                     	;# 
    92  0008                     	;# 
    93  0009                     	;# 
    94  000A                     	;# 
    95  000B                     	;# 
    96  000C                     	;# 
    97  000D                     	;# 
    98  000E                     	;# 
    99  000E                     	;# 
   100  000F                     	;# 
   101  0010                     	;# 
   102  0011                     	;# 
   103  0012                     	;# 
   104  0013                     	;# 
   105  0014                     	;# 
   106  0015                     	;# 
   107  0015                     	;# 
   108  0016                     	;# 
   109  0017                     	;# 
   110  0018                     	;# 
   111  0019                     	;# 
   112  001A                     	;# 
   113  001B                     	;# 
   114  001B                     	;# 
   115  001C                     	;# 
   116  001D                     	;# 
   117  001E                     	;# 
   118  001F                     	;# 
   119  0081                     	;# 
   120  0085                     	;# 
   121  0086                     	;# 
   122  0087                     	;# 
   123  0088                     	;# 
   124  0089                     	;# 
   125  008C                     	;# 
   126  008D                     	;# 
   127  008E                     	;# 
   128  008F                     	;# 
   129  0090                     	;# 
   130  0091                     	;# 
   131  0092                     	;# 
   132  0093                     	;# 
   133  0093                     	;# 
   134  0093                     	;# 
   135  0094                     	;# 
   136  0095                     	;# 
   137  0096                     	;# 
   138  0097                     	;# 
   139  0098                     	;# 
   140  0099                     	;# 
   141  009A                     	;# 
   142  009B                     	;# 
   143  009C                     	;# 
   144  009D                     	;# 
   145  009E                     	;# 
   146  009F                     	;# 
   147  0105                     	;# 
   148  0107                     	;# 
   149  0108                     	;# 
   150  0109                     	;# 
   151  010C                     	;# 
   152  010C                     	;# 
   153  010D                     	;# 
   154  010E                     	;# 
   155  010F                     	;# 
   156  0185                     	;# 
   157  0187                     	;# 
   158  0188                     	;# 
   159  0189                     	;# 
   160  018C                     	;# 
   161  018D                     	;# 
   162  0000                     	;# 
   163  0001                     	;# 
   164  0002                     	;# 
   165  0003                     	;# 
   166  0004                     	;# 
   167  0005                     	;# 
   168  0006                     	;# 
   169  0007                     	;# 
   170  0008                     	;# 
   171  0009                     	;# 
   172  000A                     	;# 
   173  000B                     	;# 
   174  000C                     	;# 
   175  000D                     	;# 
   176  000E                     	;# 
   177  000E                     	;# 
   178  000F                     	;# 
   179  0010                     	;# 
   180  0011                     	;# 
   181  0012                     	;# 
   182  0013                     	;# 
   183  0014                     	;# 
   184  0015                     	;# 
   185  0015                     	;# 
   186  0016                     	;# 
   187  0017                     	;# 
   188  0018                     	;# 
   189  0019                     	;# 
   190  001A                     	;# 
   191  001B                     	;# 
   192  001B                     	;# 
   193  001C                     	;# 
   194  001D                     	;# 
   195  001E                     	;# 
   196  001F                     	;# 
   197  0081                     	;# 
   198  0085                     	;# 
   199  0086                     	;# 
   200  0087                     	;# 
   201  0088                     	;# 
   202  0089                     	;# 
   203  008C                     	;# 
   204  008D                     	;# 
   205  008E                     	;# 
   206  008F                     	;# 
   207  0090                     	;# 
   208  0091                     	;# 
   209  0092                     	;# 
   210  0093                     	;# 
   211  0093                     	;# 
   212  0093                     	;# 
   213  0094                     	;# 
   214  0095                     	;# 
   215  0096                     	;# 
   216  0097                     	;# 
   217  0098                     	;# 
   218  0099                     	;# 
   219  009A                     	;# 
   220  009B                     	;# 
   221  009C                     	;# 
   222  009D                     	;# 
   223  009E                     	;# 
   224  009F                     	;# 
   225  0105                     	;# 
   226  0107                     	;# 
   227  0108                     	;# 
   228  0109                     	;# 
   229  010C                     	;# 
   230  010C                     	;# 
   231  010D                     	;# 
   232  010E                     	;# 
   233  010F                     	;# 
   234  0185                     	;# 
   235  0187                     	;# 
   236  0188                     	;# 
   237  0189                     	;# 
   238  018C                     	;# 
   239  018D                     	;# 
   240  0000                     	;# 
   241  0001                     	;# 
   242  0002                     	;# 
   243  0003                     	;# 
   244  0004                     	;# 
   245  0005                     	;# 
   246  0006                     	;# 
   247  0007                     	;# 
   248  0008                     	;# 
   249  0009                     	;# 
   250  000A                     	;# 
   251  000B                     	;# 
   252  000C                     	;# 
   253  000D                     	;# 
   254  000E                     	;# 
   255  000E                     	;# 
   256  000F                     	;# 
   257  0010                     	;# 
   258  0011                     	;# 
   259  0012                     	;# 
   260  0013                     	;# 
   261  0014                     	;# 
   262  0015                     	;# 
   263  0015                     	;# 
   264  0016                     	;# 
   265  0017                     	;# 
   266  0018                     	;# 
   267  0019                     	;# 
   268  001A                     	;# 
   269  001B                     	;# 
   270  001B                     	;# 
   271  001C                     	;# 
   272  001D                     	;# 
   273  001E                     	;# 
   274  001F                     	;# 
   275  0081                     	;# 
   276  0085                     	;# 
   277  0086                     	;# 
   278  0087                     	;# 
   279  0088                     	;# 
   280  0089                     	;# 
   281  008C                     	;# 
   282  008D                     	;# 
   283  008E                     	;# 
   284  008F                     	;# 
   285  0090                     	;# 
   286  0091                     	;# 
   287  0092                     	;# 
   288  0093                     	;# 
   289  0093                     	;# 
   290  0093                     	;# 
   291  0094                     	;# 
   292  0095                     	;# 
   293  0096                     	;# 
   294  0097                     	;# 
   295  0098                     	;# 
   296  0099                     	;# 
   297  009A                     	;# 
   298  009B                     	;# 
   299  009C                     	;# 
   300  009D                     	;# 
   301  009E                     	;# 
   302  009F                     	;# 
   303  0105                     	;# 
   304  0107                     	;# 
   305  0108                     	;# 
   306  0109                     	;# 
   307  010C                     	;# 
   308  010C                     	;# 
   309  010D                     	;# 
   310  010E                     	;# 
   311  010F                     	;# 
   312  0185                     	;# 
   313  0187                     	;# 
   314  0188                     	;# 
   315  0189                     	;# 
   316  018C                     	;# 
   317  018D                     	;# 
   318  0000                     	;# 
   319  0001                     	;# 
   320  0002                     	;# 
   321  0003                     	;# 
   322  0004                     	;# 
   323  0005                     	;# 
   324  0006                     	;# 
   325  0007                     	;# 
   326  0008                     	;# 
   327  0009                     	;# 
   328  000A                     	;# 
   329  000B                     	;# 
   330  000C                     	;# 
   331  000D                     	;# 
   332  000E                     	;# 
   333  000E                     	;# 
   334  000F                     	;# 
   335  0010                     	;# 
   336  0011                     	;# 
   337  0012                     	;# 
   338  0013                     	;# 
   339  0014                     	;# 
   340  0015                     	;# 
   341  0015                     	;# 
   342  0016                     	;# 
   343  0017                     	;# 
   344  0018                     	;# 
   345  0019                     	;# 
   346  001A                     	;# 
   347  001B                     	;# 
   348  001B                     	;# 
   349  001C                     	;# 
   350  001D                     	;# 
   351  001E                     	;# 
   352  001F                     	;# 
   353  0081                     	;# 
   354  0085                     	;# 
   355  0086                     	;# 
   356  0087                     	;# 
   357  0088                     	;# 
   358  0089                     	;# 
   359  008C                     	;# 
   360  008D                     	;# 
   361  008E                     	;# 
   362  008F                     	;# 
   363  0090                     	;# 
   364  0091                     	;# 
   365  0092                     	;# 
   366  0093                     	;# 
   367  0093                     	;# 
   368  0093                     	;# 
   369  0094                     	;# 
   370  0095                     	;# 
   371  0096                     	;# 
   372  0097                     	;# 
   373  0098                     	;# 
   374  0099                     	;# 
   375  009A                     	;# 
   376  009B                     	;# 
   377  009C                     	;# 
   378  009D                     	;# 
   379  009E                     	;# 
   380  009F                     	;# 
   381  0105                     	;# 
   382  0107                     	;# 
   383  0108                     	;# 
   384  0109                     	;# 
   385  010C                     	;# 
   386  010C                     	;# 
   387  010D                     	;# 
   388  010E                     	;# 
   389  010F                     	;# 
   390  0185                     	;# 
   391  0187                     	;# 
   392  0188                     	;# 
   393  0189                     	;# 
   394  018C                     	;# 
   395  018D                     	;# 
   396  0000                     	;# 
   397  0001                     	;# 
   398  0002                     	;# 
   399  0003                     	;# 
   400  0004                     	;# 
   401  0005                     	;# 
   402  0006                     	;# 
   403  0007                     	;# 
   404  0008                     	;# 
   405  0009                     	;# 
   406  000A                     	;# 
   407  000B                     	;# 
   408  000C                     	;# 
   409  000D                     	;# 
   410  000E                     	;# 
   411  000E                     	;# 
   412  000F                     	;# 
   413  0010                     	;# 
   414  0011                     	;# 
   415  0012                     	;# 
   416  0013                     	;# 
   417  0014                     	;# 
   418  0015                     	;# 
   419  0015                     	;# 
   420  0016                     	;# 
   421  0017                     	;# 
   422  0018                     	;# 
   423  0019                     	;# 
   424  001A                     	;# 
   425  001B                     	;# 
   426  001B                     	;# 
   427  001C                     	;# 
   428  001D                     	;# 
   429  001E                     	;# 
   430  001F                     	;# 
   431  0081                     	;# 
   432  0085                     	;# 
   433  0086                     	;# 
   434  0087                     	;# 
   435  0088                     	;# 
   436  0089                     	;# 
   437  008C                     	;# 
   438  008D                     	;# 
   439  008E                     	;# 
   440  008F                     	;# 
   441  0090                     	;# 
   442  0091                     	;# 
   443  0092                     	;# 
   444  0093                     	;# 
   445  0093                     	;# 
   446  0093                     	;# 
   447  0094                     	;# 
   448  0095                     	;# 
   449  0096                     	;# 
   450  0097                     	;# 
   451  0098                     	;# 
   452  0099                     	;# 
   453  009A                     	;# 
   454  009B                     	;# 
   455  009C                     	;# 
   456  009D                     	;# 
   457  009E                     	;# 
   458  009F                     	;# 
   459  0105                     	;# 
   460  0107                     	;# 
   461  0108                     	;# 
   462  0109                     	;# 
   463  010C                     	;# 
   464  010C                     	;# 
   465  010D                     	;# 
   466  010E                     	;# 
   467  010F                     	;# 
   468  0185                     	;# 
   469  0187                     	;# 
   470  0188                     	;# 
   471  0189                     	;# 
   472  018C                     	;# 
   473  018D                     	;# 
   474                           
   475                           	psect	strings
   476  1000                     __pstrings:
   477  1000                     stringtab:
   478  1000                     __stringtab:
   479                           
   480                           ;	String table - string pointers are 1 byte each
   481  1000  1BFF               	btfsc	btemp+1,7
   482  1001  280A               	ljmp	stringcode
   483  1002  1383               	bcf	3,7
   484  1003  187F               	btfsc	btemp+1,0
   485  1004  1783               	bsf	3,7
   486  1005  0800               	movf	0,w
   487  1006  0A84               	incf	4,f
   488  1007  1903               	skipnz
   489  1008  0AFF               	incf	btemp+1,f
   490  1009  0008               	return
   491  100A                     stringcode:
   492  100A                     stringdir:
   493  100A  3010               	movlw	high stringdir
   494  100B  008A               	movwf	10
   495  100C  0804               	movf	4,w
   496  100D  0A84               	incf	4,f
   497  100E  0782               	addwf	2,f
   498  100F                     __stringbase:
   499  100F  3400               	retlw	0
   500  1010                     __end_of__stringtab:
   501  1010                     _dpowers:
   502  1010  3401               	retlw	1
   503  1011  3400               	retlw	0
   504  1012  3400               	retlw	0
   505  1013  3400               	retlw	0
   506  1014  340A               	retlw	10
   507  1015  3400               	retlw	0
   508  1016  3400               	retlw	0
   509  1017  3400               	retlw	0
   510  1018  3464               	retlw	100
   511  1019  3400               	retlw	0
   512  101A  3400               	retlw	0
   513  101B  3400               	retlw	0
   514  101C  34E8               	retlw	232
   515  101D  3403               	retlw	3
   516  101E  3400               	retlw	0
   517  101F  3400               	retlw	0
   518  1020  3410               	retlw	16
   519  1021  3427               	retlw	39
   520  1022  3400               	retlw	0
   521  1023  3400               	retlw	0
   522  1024  34A0               	retlw	160
   523  1025  3486               	retlw	134
   524  1026  3401               	retlw	1
   525  1027  3400               	retlw	0
   526  1028  3440               	retlw	64
   527  1029  3442               	retlw	66
   528  102A  340F               	retlw	15
   529  102B  3400               	retlw	0
   530  102C  3480               	retlw	128
   531  102D  3496               	retlw	150
   532  102E  3498               	retlw	152
   533  102F  3400               	retlw	0
   534  1030  3400               	retlw	0
   535  1031  34E1               	retlw	225
   536  1032  34F5               	retlw	245
   537  1033  3405               	retlw	5
   538  1034  3400               	retlw	0
   539  1035  34CA               	retlw	202
   540  1036  349A               	retlw	154
   541  1037  343B               	retlw	59
   542  1038                     __end_of_dpowers:
   543  001A                     _RCREG	set	26
   544  000C                     _PIR1bits	set	12
   545  0019                     _TXREG	set	25
   546  0018                     _RCSTAbits	set	24
   547  0013                     _SSPBUF	set	19
   548  0014                     _SSPCON	set	20
   549  0007                     _PORTC	set	7
   550  0005                     _PORTA	set	5
   551  0063                     _SSPIF	set	99
   552  0091                     _SSPCON2bits	set	145
   553  0087                     _TRISCbits	set	135
   554  0098                     _TXSTAbits	set	152
   555  0099                     _SPBRG	set	153
   556  0093                     _SSPADD	set	147
   557  0094                     _SSPSTAT	set	148
   558  0091                     _SSPCON2	set	145
   559  0085                     _TRISA	set	133
   560  04A0                     _BF	set	1184
   561  048B                     _RCEN	set	1163
   562  048E                     _ACKSTAT	set	1166
   563  048C                     _ACKEN	set	1164
   564  048D                     _ACKDT	set	1165
   565  048A                     _PEN	set	1162
   566  0489                     _RSEN	set	1161
   567  0488                     _SEN	set	1160
   568  043C                     _TRISC4	set	1084
   569  043B                     _TRISC3	set	1083
   570  0189                     _ANSELH	set	393
   571  0188                     _ANSEL	set	392
   572  1038                     STR_7:
   573  1038  3425               	retlw	37	;'%'
   574  1039  346C               	retlw	108	;'l'
   575  103A  3475               	retlw	117	;'u'
   576  103B  342E               	retlw	46	;'.'
   577  103C  3425               	retlw	37	;'%'
   578  103D  3436               	retlw	54	;'6'
   579  103E  342E               	retlw	46	;'.'
   580  103F  3436               	retlw	54	;'6'
   581  1040  346C               	retlw	108	;'l'
   582  1041  3475               	retlw	117	;'u'
   583  1042  3400               	retlw	0
   584  1043                     STR_1:
   585  1043  3420               	retlw	32	;' '
   586  1044  3400               	retlw	0
   587  1043                     
   588                           	psect	cinit
   589  000F                     start_initialization:	
   590                           ; #config settings
   591                           
   592  000F                     __initialization:
   593                           
   594                           ; Clear objects allocated to COMMON
   595  000F  01FA               	clrf	__pbssCOMMON& (0+127)
   596  0010  01FB               	clrf	(__pbssCOMMON+1)& (0+127)
   597                           
   598                           ; Clear objects allocated to BANK0
   599  0011  1283               	bcf	3,5	;RP0=0, select bank0
   600  0012  1303               	bcf	3,6	;RP1=0, select bank0
   601  0013  01EF               	clrf	__pbssBANK0& (0+127)
   602                           
   603                           ; Clear objects allocated to BANK1
   604  0014  1383               	bcf	3,7	;select IRP bank0
   605  0015  30A0               	movlw	low __pbssBANK1
   606  0016  0084               	movwf	4
   607  0017  30CD               	movlw	low (__pbssBANK1+45)
   608  0018  160A  118A  22E2  120A  118A  	fcall	clear_ram0
   609  001D                     end_of_initialization:	
   610                           ;End of C runtime variable initialization code
   611                           
   612  001D                     __end_of__initialization:
   613  001D  0183               	clrf	3
   614  001E  160A  118A  2E25   	ljmp	_main	;jump to C main() function
   615                           
   616                           	psect	bssCOMMON
   617  007A                     __pbssCOMMON:
   618  007A                     _status:
   619  007A                     	ds	2
   620                           
   621                           	psect	bssBANK0
   622  006F                     __pbssBANK0:
   623  006F                     _buffer:
   624  006F                     	ds	1
   625                           
   626                           	psect	bssBANK1
   627  00A0                     __pbssBANK1:
   628  00A0                     _datos:
   629  00A0                     	ds	28
   630  00BC                     ftoa@buf:
   631  00BC                     	ds	17
   632                           
   633                           	psect	clrtext
   634  12E2                     clear_ram0:	
   635                           ;	Called with FSR containing the base address, and
   636                           ;	W with the last address+1
   637                           
   638  12E2  0064               	clrwdt	;clear the watchdog before getting into this loop
   639  12E3                     clrloop0:
   640  12E3  0180               	clrf	0	;clear RAM location pointed to by FSR
   641  12E4  0A84               	incf	4,f	;increment pointer
   642  12E5  0604               	xorwf	4,w	;XOR with final address
   643  12E6  1903               	btfsc	3,2	;have we reached the end yet?
   644  12E7  3400               	retlw	0	;all done for this memory range, return
   645  12E8  0604               	xorwf	4,w	;XOR again to restore value
   646  12E9  2AE3               	goto	clrloop0	;do the next byte
   647                           
   648                           	psect	cstackBANK1
   649  00CD                     __pcstackBANK1:
   650  00CD                     GY_Read@valores:
   651                           
   652                           ; 14 bytes @ 0x0
   653  00CD                     	ds	14
   654  00DB                     GY_Read@guardar:
   655                           
   656                           ; 14 bytes @ 0xE
   657  00DB                     	ds	14
   658  00E9                     GY_Read@i:
   659                           
   660                           ; 2 bytes @ 0x1C
   661  00E9                     	ds	2
   662  00EB                     GY_Read@datos:
   663                           
   664                           ; 1 bytes @ 0x1E
   665  00EB                     	ds	1
   666                           
   667                           	psect	cstackCOMMON
   668  0070                     __pcstackCOMMON:
   669  0070                     ?_isdigit:
   670  0070                     ?_Setup:	
   671                           ; 1 bit 
   672                           
   673  0070                     ?_GY_init:	
   674                           ; 1 bytes @ 0x0
   675                           
   676  0070                     ?_GY_Read:	
   677                           ; 1 bytes @ 0x0
   678                           
   679  0070                     ?_UARTSendChar:	
   680                           ; 1 bytes @ 0x0
   681                           
   682  0070                     ?_I2C_Master_Write:	
   683                           ; 1 bytes @ 0x0
   684                           
   685  0070                     ?_ISR:	
   686                           ; 1 bytes @ 0x0
   687                           
   688  0070                     ??_ISR:	
   689                           ; 1 bytes @ 0x0
   690                           
   691  0070                     ?_main:	
   692                           ; 1 bytes @ 0x0
   693                           
   694  0070                     ?_I2C_Master_Wait:	
   695                           ; 1 bytes @ 0x0
   696                           
   697  0070                     ?_I2C_Master_Start:	
   698                           ; 1 bytes @ 0x0
   699                           
   700  0070                     ?_I2C_Start:	
   701                           ; 1 bytes @ 0x0
   702                           
   703  0070                     ?_I2C_Master_RepeatedStart:	
   704                           ; 1 bytes @ 0x0
   705                           
   706  0070                     ?_I2C_Master_Stop:	
   707                           ; 1 bytes @ 0x0
   708                           
   709  0070                     ?_I2C_ACK:	
   710                           ; 1 bytes @ 0x0
   711                           
   712  0070                     ?_I2C_NACK:	
   713                           ; 1 bytes @ 0x0
   714                           
   715  0070                     ?_I2C_Read:	
   716                           ; 1 bytes @ 0x0
   717                           
   718                           
   719                           ; 1 bytes @ 0x0
   720  0070                     	ds	2
   721  0072                     ?___flge:
   722  0072                     ??_Setup:	
   723                           ; 1 bit 
   724                           
   725  0072                     ?_I2C_Master_Init:	
   726                           ; 1 bytes @ 0x2
   727                           
   728  0072                     ??_UARTSendChar:	
   729                           ; 1 bytes @ 0x2
   730                           
   731  0072                     ??_I2C_Master_Write:	
   732                           ; 1 bytes @ 0x2
   733                           
   734  0072                     ??_isdigit:	
   735                           ; 1 bytes @ 0x2
   736                           
   737  0072                     ??_I2C_Master_Wait:	
   738                           ; 1 bytes @ 0x2
   739                           
   740  0072                     ??_I2C_Master_Start:	
   741                           ; 1 bytes @ 0x2
   742                           
   743  0072                     ??_I2C_Master_RepeatedStart:	
   744                           ; 1 bytes @ 0x2
   745                           
   746  0072                     ??_I2C_Master_Stop:	
   747                           ; 1 bytes @ 0x2
   748                           
   749  0072                     ??_I2C_ACK:	
   750                           ; 1 bytes @ 0x2
   751                           
   752  0072                     ??_I2C_NACK:	
   753                           ; 1 bytes @ 0x2
   754                           
   755  0072                     ??_I2C_Read:	
   756                           ; 1 bytes @ 0x2
   757                           
   758  0072                     ?__Umul8_16:	
   759                           ; 1 bytes @ 0x2
   760                           
   761  0072                     ?___wmul:	
   762                           ; 2 bytes @ 0x2
   763                           
   764  0072                     ?___lldiv:	
   765                           ; 2 bytes @ 0x2
   766                           
   767  0072                     ?___flneg:	
   768                           ; 4 bytes @ 0x2
   769                           
   770  0072                     ?___xxtofl:	
   771                           ; 4 bytes @ 0x2
   772                           
   773  0072                     I2C_Master_Write@data:	
   774                           ; 4 bytes @ 0x2
   775                           
   776  0072                     UARTSendChar@c:	
   777                           ; 1 bytes @ 0x2
   778                           
   779  0072                     __Umul8_16@multiplicand:	
   780                           ; 1 bytes @ 0x2
   781                           
   782  0072                     _isdigit$841:	
   783                           ; 1 bytes @ 0x2
   784                           
   785  0072                     ___wmul@multiplier:	
   786                           ; 1 bytes @ 0x2
   787                           
   788  0072                     ___lldiv@divisor:	
   789                           ; 2 bytes @ 0x2
   790                           
   791  0072                     ___flge@ff1:	
   792                           ; 4 bytes @ 0x2
   793                           
   794  0072                     ___flneg@f1:	
   795                           ; 4 bytes @ 0x2
   796                           
   797  0072                     ___xxtofl@val:	
   798                           ; 4 bytes @ 0x2
   799                           
   800                           
   801                           ; 4 bytes @ 0x2
   802  0072                     	ds	1
   803  0073                     ??_GY_init:
   804  0073                     ?_UARTSendString:	
   805                           ; 1 bytes @ 0x3
   806                           
   807  0073                     ??_I2C_Start:	
   808                           ; 1 bytes @ 0x3
   809                           
   810  0073                     I2C_Start@add:	
   811                           ; 1 bytes @ 0x3
   812                           
   813  0073                     I2C_Read@ACK_NACK:	
   814                           ; 1 bytes @ 0x3
   815                           
   816  0073                     isdigit@c:	
   817                           ; 1 bytes @ 0x3
   818                           
   819  0073                     UARTSendString@str:	
   820                           ; 1 bytes @ 0x3
   821                           
   822                           
   823                           ; 2 bytes @ 0x3
   824  0073                     	ds	1
   825  0074                     ??__Umul8_16:
   826  0074                     I2C_Read@Data:	
   827                           ; 1 bytes @ 0x4
   828                           
   829  0074                     ___wmul@multiplicand:	
   830                           ; 1 bytes @ 0x4
   831                           
   832                           
   833                           ; 2 bytes @ 0x4
   834  0074                     	ds	1
   835  0075                     UARTSendString@max_length:
   836                           
   837                           ; 1 bytes @ 0x5
   838  0075                     	ds	1
   839  0076                     ??_I2C_Master_Init:
   840  0076                     ??_UARTSendString:	
   841                           ; 1 bytes @ 0x6
   842                           
   843  0076                     ??___wmul:	
   844                           ; 1 bytes @ 0x6
   845                           
   846  0076                     ??___flneg:	
   847                           ; 1 bytes @ 0x6
   848                           
   849  0076                     ??___xxtofl:	
   850                           ; 1 bytes @ 0x6
   851                           
   852  0076                     ___wmul@product:	
   853                           ; 1 bytes @ 0x6
   854                           
   855  0076                     ___lldiv@dividend:	
   856                           ; 2 bytes @ 0x6
   857                           
   858  0076                     ___flge@ff2:	
   859                           ; 4 bytes @ 0x6
   860                           
   861                           
   862                           ; 4 bytes @ 0x6
   863  0076                     	ds	4
   864  007A                     ??___flsub:
   865                           
   866                           	psect	cstackBANK0
   867  0020                     __pcstackBANK0:	
   868                           ; 1 bytes @ 0xA
   869                           
   870  0020                     ??___lldiv:
   871  0020                     ??___flge:	
   872                           ; 1 bytes @ 0x0
   873                           
   874  0020                     ___xxtofl@sign:	
   875                           ; 1 bytes @ 0x0
   876                           
   877  0020                     UARTSendString@i:	
   878                           ; 1 bytes @ 0x0
   879                           
   880  0020                     __Umul8_16@product:	
   881                           ; 2 bytes @ 0x0
   882                           
   883                           
   884                           ; 2 bytes @ 0x0
   885  0020                     	ds	1
   886  0021                     ___xxtofl@exp:
   887  0021                     ___lldiv@quotient:	
   888                           ; 1 bytes @ 0x1
   889                           
   890                           
   891                           ; 4 bytes @ 0x1
   892  0021                     	ds	1
   893  0022                     __Umul8_16@word_mpld:
   894  0022                     ___xxtofl@arg:	
   895                           ; 2 bytes @ 0x2
   896                           
   897                           
   898                           ; 4 bytes @ 0x2
   899  0022                     	ds	2
   900  0024                     __Umul8_16@multiplier:
   901                           
   902                           ; 1 bytes @ 0x4
   903  0024                     	ds	1
   904  0025                     ___lldiv@counter:
   905                           
   906                           ; 1 bytes @ 0x5
   907  0025                     	ds	1
   908  0026                     ?_UARTInit:
   909  0026                     ?___llmod:	
   910                           ; 1 bytes @ 0x6
   911                           
   912  0026                     ?___fldiv:	
   913                           ; 4 bytes @ 0x6
   914                           
   915  0026                     ?___flmul:	
   916                           ; 4 bytes @ 0x6
   917                           
   918  0026                     UARTInit@baud_rate:	
   919                           ; 4 bytes @ 0x6
   920                           
   921  0026                     ___llmod@divisor:	
   922                           ; 4 bytes @ 0x6
   923                           
   924  0026                     ___fldiv@a:	
   925                           ; 4 bytes @ 0x6
   926                           
   927  0026                     ___flmul@b:	
   928                           ; 4 bytes @ 0x6
   929                           
   930                           
   931                           ; 4 bytes @ 0x6
   932  0026                     	ds	4
   933  002A                     UARTInit@BRGH:
   934  002A                     ___llmod@dividend:	
   935                           ; 1 bytes @ 0xA
   936                           
   937  002A                     ___fldiv@b:	
   938                           ; 4 bytes @ 0xA
   939                           
   940  002A                     ___flmul@a:	
   941                           ; 4 bytes @ 0xA
   942                           
   943                           
   944                           ; 4 bytes @ 0xA
   945  002A                     	ds	1
   946  002B                     ??_UARTInit:
   947                           
   948                           ; 1 bytes @ 0xB
   949  002B                     	ds	3
   950  002E                     ??___llmod:
   951  002E                     ??___fldiv:	
   952                           ; 1 bytes @ 0xE
   953                           
   954  002E                     ??___flmul:	
   955                           ; 1 bytes @ 0xE
   956                           
   957                           
   958                           ; 1 bytes @ 0xE
   959  002E                     	ds	1
   960  002F                     ___llmod@counter:
   961                           
   962                           ; 1 bytes @ 0xF
   963  002F                     	ds	1
   964  0030                     ?_sprintf:
   965  0030                     sprintf@f:	
   966                           ; 2 bytes @ 0x10
   967                           
   968                           
   969                           ; 1 bytes @ 0x10
   970  0030                     	ds	3
   971  0033                     ___flmul@sign:
   972  0033                     ___fldiv@rem:	
   973                           ; 1 bytes @ 0x13
   974                           
   975                           
   976                           ; 4 bytes @ 0x13
   977  0033                     	ds	1
   978  0034                     ___flmul@aexp:
   979                           
   980                           ; 1 bytes @ 0x14
   981  0034                     	ds	1
   982  0035                     ___flmul@grs:
   983                           
   984                           ; 4 bytes @ 0x15
   985  0035                     	ds	2
   986  0037                     ___fldiv@sign:
   987                           
   988                           ; 1 bytes @ 0x17
   989  0037                     	ds	1
   990  0038                     ___fldiv@new_exp:
   991                           
   992                           ; 2 bytes @ 0x18
   993  0038                     	ds	1
   994  0039                     ??_sprintf:
   995  0039                     ___flmul@bexp:	
   996                           ; 1 bytes @ 0x19
   997                           
   998                           
   999                           ; 1 bytes @ 0x19
  1000  0039                     	ds	1
  1001  003A                     ___fldiv@grs:
  1002  003A                     ___flmul@prod:	
  1003                           ; 4 bytes @ 0x1A
  1004                           
  1005                           
  1006                           ; 4 bytes @ 0x1A
  1007  003A                     	ds	4
  1008  003E                     ___fldiv@bexp:
  1009  003E                     sprintf@flag:	
  1010                           ; 1 bytes @ 0x1E
  1011                           
  1012  003E                     ___flmul@temp:	
  1013                           ; 1 bytes @ 0x1E
  1014                           
  1015                           
  1016                           ; 2 bytes @ 0x1E
  1017  003E                     	ds	1
  1018  003F                     ___fldiv@aexp:
  1019  003F                     sprintf@ap:	
  1020                           ; 1 bytes @ 0x1F
  1021                           
  1022                           
  1023                           ; 1 bytes @ 0x1F
  1024  003F                     	ds	1
  1025  0040                     ?___fltol:
  1026  0040                     ?___fladd:	
  1027                           ; 4 bytes @ 0x20
  1028                           
  1029  0040                     ___fltol@f1:	
  1030                           ; 4 bytes @ 0x20
  1031                           
  1032  0040                     ___fladd@b:	
  1033                           ; 4 bytes @ 0x20
  1034                           
  1035  0040                     sprintf@val:	
  1036                           ; 4 bytes @ 0x20
  1037                           
  1038                           
  1039                           ; 4 bytes @ 0x20
  1040  0040                     	ds	4
  1041  0044                     ??___fltol:
  1042  0044                     sprintf@sp:	
  1043                           ; 1 bytes @ 0x24
  1044                           
  1045  0044                     ___fladd@a:	
  1046                           ; 1 bytes @ 0x24
  1047                           
  1048                           
  1049                           ; 4 bytes @ 0x24
  1050  0044                     	ds	1
  1051  0045                     sprintf@width:
  1052                           
  1053                           ; 2 bytes @ 0x25
  1054  0045                     	ds	2
  1055  0047                     sprintf@prec:
  1056                           
  1057                           ; 2 bytes @ 0x27
  1058  0047                     	ds	1
  1059  0048                     ??___fladd:
  1060                           
  1061                           ; 1 bytes @ 0x28
  1062  0048                     	ds	1
  1063  0049                     ___fltol@sign1:
  1064  0049                     sprintf@c:	
  1065                           ; 1 bytes @ 0x29
  1066                           
  1067                           
  1068                           ; 1 bytes @ 0x29
  1069  0049                     	ds	1
  1070  004A                     ___fltol@exp1:
  1071                           
  1072                           ; 1 bytes @ 0x2A
  1073  004A                     	ds	6
  1074  0050                     ___fladd@signs:
  1075                           
  1076                           ; 1 bytes @ 0x30
  1077  0050                     	ds	1
  1078  0051                     ___fladd@aexp:
  1079                           
  1080                           ; 1 bytes @ 0x31
  1081  0051                     	ds	1
  1082  0052                     ___fladd@bexp:
  1083                           
  1084                           ; 1 bytes @ 0x32
  1085  0052                     	ds	1
  1086  0053                     ___fladd@grs:
  1087                           
  1088                           ; 1 bytes @ 0x33
  1089  0053                     	ds	1
  1090  0054                     ??_GY_Read:
  1091  0054                     ?___flsub:	
  1092                           ; 1 bytes @ 0x34
  1093                           
  1094  0054                     ___flsub@a:	
  1095                           ; 4 bytes @ 0x34
  1096                           
  1097                           
  1098                           ; 4 bytes @ 0x34
  1099  0054                     	ds	4
  1100  0058                     ___flsub@b:
  1101                           
  1102                           ; 4 bytes @ 0x38
  1103  0058                     	ds	4
  1104  005C                     ?_ftoa:
  1105  005C                     ftoa@f:	
  1106                           ; 1 bytes @ 0x3C
  1107                           
  1108                           
  1109                           ; 4 bytes @ 0x3C
  1110  005C                     	ds	4
  1111  0060                     ftoa@status:
  1112                           
  1113                           ; 2 bytes @ 0x40
  1114  0060                     	ds	2
  1115  0062                     ??_ftoa:
  1116                           
  1117                           ; 1 bytes @ 0x42
  1118  0062                     	ds	1
  1119  0063                     ftoa@rem:
  1120                           
  1121                           ; 4 bytes @ 0x43
  1122  0063                     	ds	4
  1123  0067                     ftoa@l:
  1124                           
  1125                           ; 4 bytes @ 0x47
  1126  0067                     	ds	4
  1127  006B                     ftoa@cp:
  1128                           
  1129                           ; 1 bytes @ 0x4B
  1130  006B                     	ds	1
  1131  006C                     ??_main:
  1132                           
  1133                           ; 1 bytes @ 0x4C
  1134  006C                     	ds	3
  1135                           
  1136                           	psect	maintext
  1137  1625                     __pmaintext:	
  1138 ;;
  1139 ;;Main: autosize = 0, tempsize = 3, incstack = 0, save=0
  1140 ;;
  1141 ;; *************** function _main *****************
  1142 ;; Defined at:
  1143 ;;		line 53 in file "main.c"
  1144 ;; Parameters:    Size  Location     Type
  1145 ;;		None
  1146 ;; Auto vars:     Size  Location     Type
  1147 ;;		None
  1148 ;; Return value:  Size  Location     Type
  1149 ;;                  1    wreg      void 
  1150 ;; Registers used:
  1151 ;;		wreg, fsr0l, fsr0h, status,2, status,0, btemp+1, pclath, cstack
  1152 ;; Tracked objects:
  1153 ;;		On entry : B00/0
  1154 ;;		On exit  : 0/0
  1155 ;;		Unchanged: 0/0
  1156 ;; Data sizes:     COMMON   BANK0   BANK1   BANK3   BANK2
  1157 ;;      Params:         0       0       0       0       0
  1158 ;;      Locals:         0       0       0       0       0
  1159 ;;      Temps:          0       3       0       0       0
  1160 ;;      Totals:         0       3       0       0       0
  1161 ;;Total ram usage:        3 bytes
  1162 ;; Hardware stack levels required when called:    5
  1163 ;; This function calls:
  1164 ;;		_GY_Read
  1165 ;;		_GY_init
  1166 ;;		_I2C_Master_Init
  1167 ;;		_Setup
  1168 ;;		_UARTInit
  1169 ;;		_UARTSendChar
  1170 ;;		_UARTSendString
  1171 ;;		_ftoa
  1172 ;; This function is called by:
  1173 ;;		Startup code after reset
  1174 ;; This function uses a non-reentrant model
  1175 ;;
  1176                           
  1177                           
  1178                           ;psect for function _main
  1179  1625                     _main:
  1180  1625                     l3410:	
  1181                           ;incstack = 0
  1182                           ; Regs used in _main: [wreg-fsr0h+status,2+status,0+btemp+1+pclath+cstack]
  1183                           
  1184                           
  1185                           ;main.c: 54:         UARTSendString(" ", 10);
  1186  1625  160A  118A  2322  160A  118A  	fcall	_Setup
  1187  162A                     l3412:
  1188                           
  1189                           ;main.c: 56: 
  1190  162A  3006               	movlw	6
  1191  162B  1283               	bcf	3,5	;RP0=0, select bank0
  1192  162C  1303               	bcf	3,6	;RP1=0, select bank0
  1193  162D  00EE               	movwf	??_main+2
  1194  162E  3013               	movlw	19
  1195  162F  00ED               	movwf	??_main+1
  1196  1630  30AD               	movlw	173
  1197  1631  00EC               	movwf	??_main
  1198  1632                     u5027:
  1199  1632  0BEC               	decfsz	??_main,f
  1200  1633  2E32               	goto	u5027
  1201  1634  0BED               	decfsz	??_main+1,f
  1202  1635  2E32               	goto	u5027
  1203  1636  0BEE               	decfsz	??_main+2,f
  1204  1637  2E32               	goto	u5027
  1205                           
  1206                           ;main.c: 57:         buffer = ftoa(datos[6], status);
  1207  1638  3000               	movlw	0
  1208  1639  00F5               	movwf	?_I2C_Master_Init+3
  1209  163A  3001               	movlw	1
  1210  163B  00F4               	movwf	?_I2C_Master_Init+2
  1211  163C  3086               	movlw	134
  1212  163D  00F3               	movwf	?_I2C_Master_Init+1
  1213  163E  30A0               	movlw	160
  1214  163F  00F2               	movwf	?_I2C_Master_Init
  1215  1640  160A  118A  2347  160A  118A  	fcall	_I2C_Master_Init
  1216                           
  1217                           ;main.c: 58:         UARTSendString(" ", 10);
  1218  1645  3000               	movlw	0
  1219  1646  1283               	bcf	3,5	;RP0=0, select bank0
  1220  1647  1303               	bcf	3,6	;RP1=0, select bank0
  1221  1648  00A9               	movwf	UARTInit@baud_rate+3
  1222  1649  3000               	movlw	0
  1223  164A  00A8               	movwf	UARTInit@baud_rate+2
  1224  164B  3025               	movlw	37
  1225  164C  00A7               	movwf	UARTInit@baud_rate+1
  1226  164D  3080               	movlw	128
  1227  164E  00A6               	movwf	UARTInit@baud_rate
  1228  164F  01AA               	clrf	UARTInit@BRGH
  1229  1650  0AAA               	incf	UARTInit@BRGH,f
  1230  1651  160A  118A  2512  160A  118A  	fcall	_UARTInit
  1231                           
  1232                           ;main.c: 59:         UARTSendString(buffer, 6);
  1233  1656  120A  118A  2730  160A  118A  	fcall	_GY_init
  1234  165B                     l3414:
  1235  165B  30A0               	movlw	(low (_datos| 0))& (0+255)
  1236  165C  120A  118A  2382  160A  118A  	fcall	_GY_Read
  1237  1661                     l3416:
  1238  1661  1683               	bsf	3,5	;RP0=1, select bank1
  1239  1662  1303               	bcf	3,6	;RP1=0, select bank1
  1240  1663  0823               	movf	(_datos+3)^(0+128),w
  1241  1664  1283               	bcf	3,5	;RP0=0, select bank0
  1242  1665  1303               	bcf	3,6	;RP1=0, select bank0
  1243  1666  00DF               	movwf	ftoa@f+3
  1244  1667  1683               	bsf	3,5	;RP0=1, select bank1
  1245  1668  1303               	bcf	3,6	;RP1=0, select bank1
  1246  1669  0822               	movf	(_datos+2)^(0+128),w
  1247  166A  1283               	bcf	3,5	;RP0=0, select bank0
  1248  166B  1303               	bcf	3,6	;RP1=0, select bank0
  1249  166C  00DE               	movwf	ftoa@f+2
  1250  166D  1683               	bsf	3,5	;RP0=1, select bank1
  1251  166E  1303               	bcf	3,6	;RP1=0, select bank1
  1252  166F  0821               	movf	(_datos+1)^(0+128),w
  1253  1670  1283               	bcf	3,5	;RP0=0, select bank0
  1254  1671  1303               	bcf	3,6	;RP1=0, select bank0
  1255  1672  00DD               	movwf	ftoa@f+1
  1256  1673  1683               	bsf	3,5	;RP0=1, select bank1
  1257  1674  1303               	bcf	3,6	;RP1=0, select bank1
  1258  1675  0820               	movf	_datos^(0+128),w
  1259  1676  1283               	bcf	3,5	;RP0=0, select bank0
  1260  1677  1303               	bcf	3,6	;RP1=0, select bank0
  1261  1678  00DC               	movwf	ftoa@f
  1262  1679  3000               	movlw	0
  1263  167A  00E0               	movwf	ftoa@status
  1264  167B  3000               	movlw	0
  1265  167C  00E1               	movwf	ftoa@status+1
  1266  167D  120A  118A  265B  160A  118A  	fcall	_ftoa
  1267  1682  1283               	bcf	3,5	;RP0=0, select bank0
  1268  1683  1303               	bcf	3,6	;RP1=0, select bank0
  1269  1684  00EC               	movwf	??_main
  1270  1685  086C               	movf	??_main,w
  1271  1686  00EF               	movwf	_buffer
  1272  1687                     l3418:
  1273  1687  086F               	movf	_buffer,w
  1274  1688  00F3               	movwf	UARTSendString@str
  1275  1689  3000               	movlw	0
  1276  168A  00F4               	movwf	UARTSendString@str+1
  1277  168B  3006               	movlw	6
  1278  168C  00EC               	movwf	??_main
  1279  168D  086C               	movf	??_main,w
  1280  168E  00F5               	movwf	UARTSendString@max_length
  1281  168F  160A  118A  2453  160A  118A  	fcall	_UARTSendString
  1282  1694                     l3420:
  1283  1694  3004               	movlw	4
  1284  1695  3EA0               	addlw	(low (_datos| 0))& (0+255)
  1285  1696  0084               	movwf	4
  1286  1697  1383               	bcf	3,7	;select IRP bank1
  1287  1698  0800               	movf	0,w
  1288  1699  1283               	bcf	3,5	;RP0=0, select bank0
  1289  169A  1303               	bcf	3,6	;RP1=0, select bank0
  1290  169B  00DC               	movwf	ftoa@f
  1291  169C  0A84               	incf	4,f
  1292  169D  0800               	movf	0,w
  1293  169E  00DD               	movwf	ftoa@f+1
  1294  169F  0A84               	incf	4,f
  1295  16A0  0800               	movf	0,w
  1296  16A1  00DE               	movwf	ftoa@f+2
  1297  16A2  0A84               	incf	4,f
  1298  16A3  0800               	movf	0,w
  1299  16A4  00DF               	movwf	ftoa@f+3
  1300  16A5  3000               	movlw	0
  1301  16A6  00E0               	movwf	ftoa@status
  1302  16A7  3000               	movlw	0
  1303  16A8  00E1               	movwf	ftoa@status+1
  1304  16A9  120A  118A  265B  160A  118A  	fcall	_ftoa
  1305  16AE  1283               	bcf	3,5	;RP0=0, select bank0
  1306  16AF  1303               	bcf	3,6	;RP1=0, select bank0
  1307  16B0  00EC               	movwf	??_main
  1308  16B1  086C               	movf	??_main,w
  1309  16B2  00EF               	movwf	_buffer
  1310  16B3                     l3422:
  1311  16B3  3034               	movlw	(low ((STR_1-__stringbase)| (0+32768)))& (0+255)
  1312  16B4  00F3               	movwf	UARTSendString@str
  1313  16B5  3080               	movlw	128
  1314  16B6  00F4               	movwf	UARTSendString@str+1
  1315  16B7  300A               	movlw	10
  1316  16B8  00EC               	movwf	??_main
  1317  16B9  086C               	movf	??_main,w
  1318  16BA  00F5               	movwf	UARTSendString@max_length
  1319  16BB  160A  118A  2453  160A  118A  	fcall	_UARTSendString
  1320  16C0                     l3424:
  1321  16C0  1283               	bcf	3,5	;RP0=0, select bank0
  1322  16C1  1303               	bcf	3,6	;RP1=0, select bank0
  1323  16C2  086F               	movf	_buffer,w
  1324  16C3  00F3               	movwf	UARTSendString@str
  1325  16C4  3000               	movlw	0
  1326  16C5  00F4               	movwf	UARTSendString@str+1
  1327  16C6  3006               	movlw	6
  1328  16C7  00EC               	movwf	??_main
  1329  16C8  086C               	movf	??_main,w
  1330  16C9  00F5               	movwf	UARTSendString@max_length
  1331  16CA  160A  118A  2453  160A  118A  	fcall	_UARTSendString
  1332  16CF                     l3426:
  1333  16CF  3008               	movlw	8
  1334  16D0  3EA0               	addlw	(low (_datos| 0))& (0+255)
  1335  16D1  0084               	movwf	4
  1336  16D2  1383               	bcf	3,7	;select IRP bank1
  1337  16D3  0800               	movf	0,w
  1338  16D4  1283               	bcf	3,5	;RP0=0, select bank0
  1339  16D5  1303               	bcf	3,6	;RP1=0, select bank0
  1340  16D6  00DC               	movwf	ftoa@f
  1341  16D7  0A84               	incf	4,f
  1342  16D8  0800               	movf	0,w
  1343  16D9  00DD               	movwf	ftoa@f+1
  1344  16DA  0A84               	incf	4,f
  1345  16DB  0800               	movf	0,w
  1346  16DC  00DE               	movwf	ftoa@f+2
  1347  16DD  0A84               	incf	4,f
  1348  16DE  0800               	movf	0,w
  1349  16DF  00DF               	movwf	ftoa@f+3
  1350  16E0  3000               	movlw	0
  1351  16E1  00E0               	movwf	ftoa@status
  1352  16E2  3000               	movlw	0
  1353  16E3  00E1               	movwf	ftoa@status+1
  1354  16E4  120A  118A  265B  160A  118A  	fcall	_ftoa
  1355  16E9  1283               	bcf	3,5	;RP0=0, select bank0
  1356  16EA  1303               	bcf	3,6	;RP1=0, select bank0
  1357  16EB  00EC               	movwf	??_main
  1358  16EC  086C               	movf	??_main,w
  1359  16ED  00EF               	movwf	_buffer
  1360  16EE                     l3428:
  1361  16EE  3034               	movlw	(low ((STR_1-__stringbase)| (0+32768)))& (0+255)
  1362  16EF  00F3               	movwf	UARTSendString@str
  1363  16F0  3080               	movlw	128
  1364  16F1  00F4               	movwf	UARTSendString@str+1
  1365  16F2  300A               	movlw	10
  1366  16F3  00EC               	movwf	??_main
  1367  16F4  086C               	movf	??_main,w
  1368  16F5  00F5               	movwf	UARTSendString@max_length
  1369  16F6  160A  118A  2453  160A  118A  	fcall	_UARTSendString
  1370  16FB                     l3430:
  1371  16FB  1283               	bcf	3,5	;RP0=0, select bank0
  1372  16FC  1303               	bcf	3,6	;RP1=0, select bank0
  1373  16FD  086F               	movf	_buffer,w
  1374  16FE  00F3               	movwf	UARTSendString@str
  1375  16FF  3000               	movlw	0
  1376  1700  00F4               	movwf	UARTSendString@str+1
  1377  1701  3006               	movlw	6
  1378  1702  00EC               	movwf	??_main
  1379  1703  086C               	movf	??_main,w
  1380  1704  00F5               	movwf	UARTSendString@max_length
  1381  1705  160A  118A  2453  160A  118A  	fcall	_UARTSendString
  1382  170A                     l3432:
  1383  170A  300C               	movlw	12
  1384  170B  3EA0               	addlw	(low (_datos| 0))& (0+255)
  1385  170C  0084               	movwf	4
  1386  170D  1383               	bcf	3,7	;select IRP bank1
  1387  170E  0800               	movf	0,w
  1388  170F  1283               	bcf	3,5	;RP0=0, select bank0
  1389  1710  1303               	bcf	3,6	;RP1=0, select bank0
  1390  1711  00DC               	movwf	ftoa@f
  1391  1712  0A84               	incf	4,f
  1392  1713  0800               	movf	0,w
  1393  1714  00DD               	movwf	ftoa@f+1
  1394  1715  0A84               	incf	4,f
  1395  1716  0800               	movf	0,w
  1396  1717  00DE               	movwf	ftoa@f+2
  1397  1718  0A84               	incf	4,f
  1398  1719  0800               	movf	0,w
  1399  171A  00DF               	movwf	ftoa@f+3
  1400  171B  3000               	movlw	0
  1401  171C  00E0               	movwf	ftoa@status
  1402  171D  3000               	movlw	0
  1403  171E  00E1               	movwf	ftoa@status+1
  1404  171F  120A  118A  265B  160A  118A  	fcall	_ftoa
  1405  1724  1283               	bcf	3,5	;RP0=0, select bank0
  1406  1725  1303               	bcf	3,6	;RP1=0, select bank0
  1407  1726  00EC               	movwf	??_main
  1408  1727  086C               	movf	??_main,w
  1409  1728  00EF               	movwf	_buffer
  1410  1729                     l3434:
  1411  1729  3034               	movlw	(low ((STR_1-__stringbase)| (0+32768)))& (0+255)
  1412  172A  00F3               	movwf	UARTSendString@str
  1413  172B  3080               	movlw	128
  1414  172C  00F4               	movwf	UARTSendString@str+1
  1415  172D  300A               	movlw	10
  1416  172E  00EC               	movwf	??_main
  1417  172F  086C               	movf	??_main,w
  1418  1730  00F5               	movwf	UARTSendString@max_length
  1419  1731  160A  118A  2453  160A  118A  	fcall	_UARTSendString
  1420  1736                     l3436:
  1421  1736  1283               	bcf	3,5	;RP0=0, select bank0
  1422  1737  1303               	bcf	3,6	;RP1=0, select bank0
  1423  1738  086F               	movf	_buffer,w
  1424  1739  00F3               	movwf	UARTSendString@str
  1425  173A  3000               	movlw	0
  1426  173B  00F4               	movwf	UARTSendString@str+1
  1427  173C  3006               	movlw	6
  1428  173D  00EC               	movwf	??_main
  1429  173E  086C               	movf	??_main,w
  1430  173F  00F5               	movwf	UARTSendString@max_length
  1431  1740  160A  118A  2453  160A  118A  	fcall	_UARTSendString
  1432  1745                     l3438:
  1433  1745  3010               	movlw	16
  1434  1746  3EA0               	addlw	(low (_datos| 0))& (0+255)
  1435  1747  0084               	movwf	4
  1436  1748  1383               	bcf	3,7	;select IRP bank1
  1437  1749  0800               	movf	0,w
  1438  174A  1283               	bcf	3,5	;RP0=0, select bank0
  1439  174B  1303               	bcf	3,6	;RP1=0, select bank0
  1440  174C  00DC               	movwf	ftoa@f
  1441  174D  0A84               	incf	4,f
  1442  174E  0800               	movf	0,w
  1443  174F  00DD               	movwf	ftoa@f+1
  1444  1750  0A84               	incf	4,f
  1445  1751  0800               	movf	0,w
  1446  1752  00DE               	movwf	ftoa@f+2
  1447  1753  0A84               	incf	4,f
  1448  1754  0800               	movf	0,w
  1449  1755  00DF               	movwf	ftoa@f+3
  1450  1756  3000               	movlw	0
  1451  1757  00E0               	movwf	ftoa@status
  1452  1758  3000               	movlw	0
  1453  1759  00E1               	movwf	ftoa@status+1
  1454  175A  120A  118A  265B  160A  118A  	fcall	_ftoa
  1455  175F  1283               	bcf	3,5	;RP0=0, select bank0
  1456  1760  1303               	bcf	3,6	;RP1=0, select bank0
  1457  1761  00EC               	movwf	??_main
  1458  1762  086C               	movf	??_main,w
  1459  1763  00EF               	movwf	_buffer
  1460  1764                     l3440:
  1461  1764  3034               	movlw	(low ((STR_1-__stringbase)| (0+32768)))& (0+255)
  1462  1765  00F3               	movwf	UARTSendString@str
  1463  1766  3080               	movlw	128
  1464  1767  00F4               	movwf	UARTSendString@str+1
  1465  1768  300A               	movlw	10
  1466  1769  00EC               	movwf	??_main
  1467  176A  086C               	movf	??_main,w
  1468  176B  00F5               	movwf	UARTSendString@max_length
  1469  176C  160A  118A  2453  160A  118A  	fcall	_UARTSendString
  1470  1771                     l3442:
  1471  1771  1283               	bcf	3,5	;RP0=0, select bank0
  1472  1772  1303               	bcf	3,6	;RP1=0, select bank0
  1473  1773  086F               	movf	_buffer,w
  1474  1774  00F3               	movwf	UARTSendString@str
  1475  1775  3000               	movlw	0
  1476  1776  00F4               	movwf	UARTSendString@str+1
  1477  1777  3006               	movlw	6
  1478  1778  00EC               	movwf	??_main
  1479  1779  086C               	movf	??_main,w
  1480  177A  00F5               	movwf	UARTSendString@max_length
  1481  177B  160A  118A  2453  160A  118A  	fcall	_UARTSendString
  1482  1780                     l3444:
  1483  1780  3014               	movlw	20
  1484  1781  3EA0               	addlw	(low (_datos| 0))& (0+255)
  1485  1782  0084               	movwf	4
  1486  1783  1383               	bcf	3,7	;select IRP bank1
  1487  1784  0800               	movf	0,w
  1488  1785  1283               	bcf	3,5	;RP0=0, select bank0
  1489  1786  1303               	bcf	3,6	;RP1=0, select bank0
  1490  1787  00DC               	movwf	ftoa@f
  1491  1788  0A84               	incf	4,f
  1492  1789  0800               	movf	0,w
  1493  178A  00DD               	movwf	ftoa@f+1
  1494  178B  0A84               	incf	4,f
  1495  178C  0800               	movf	0,w
  1496  178D  00DE               	movwf	ftoa@f+2
  1497  178E  0A84               	incf	4,f
  1498  178F  0800               	movf	0,w
  1499  1790  00DF               	movwf	ftoa@f+3
  1500  1791  3000               	movlw	0
  1501  1792  00E0               	movwf	ftoa@status
  1502  1793  3000               	movlw	0
  1503  1794  00E1               	movwf	ftoa@status+1
  1504  1795  120A  118A  265B  160A  118A  	fcall	_ftoa
  1505  179A  1283               	bcf	3,5	;RP0=0, select bank0
  1506  179B  1303               	bcf	3,6	;RP1=0, select bank0
  1507  179C  00EC               	movwf	??_main
  1508  179D  086C               	movf	??_main,w
  1509  179E  00EF               	movwf	_buffer
  1510  179F                     l3446:
  1511  179F  3034               	movlw	(low ((STR_1-__stringbase)| (0+32768)))& (0+255)
  1512  17A0  00F3               	movwf	UARTSendString@str
  1513  17A1  3080               	movlw	128
  1514  17A2  00F4               	movwf	UARTSendString@str+1
  1515  17A3  300A               	movlw	10
  1516  17A4  00EC               	movwf	??_main
  1517  17A5  086C               	movf	??_main,w
  1518  17A6  00F5               	movwf	UARTSendString@max_length
  1519  17A7  160A  118A  2453  160A  118A  	fcall	_UARTSendString
  1520  17AC                     l3448:
  1521  17AC  1283               	bcf	3,5	;RP0=0, select bank0
  1522  17AD  1303               	bcf	3,6	;RP1=0, select bank0
  1523  17AE  086F               	movf	_buffer,w
  1524  17AF  00F3               	movwf	UARTSendString@str
  1525  17B0  3000               	movlw	0
  1526  17B1  00F4               	movwf	UARTSendString@str+1
  1527  17B2  3006               	movlw	6
  1528  17B3  00EC               	movwf	??_main
  1529  17B4  086C               	movf	??_main,w
  1530  17B5  00F5               	movwf	UARTSendString@max_length
  1531  17B6  160A  118A  2453  160A  118A  	fcall	_UARTSendString
  1532  17BB                     l3450:
  1533  17BB  3018               	movlw	24
  1534  17BC  3EA0               	addlw	(low (_datos| 0))& (0+255)
  1535  17BD  0084               	movwf	4
  1536  17BE  1383               	bcf	3,7	;select IRP bank1
  1537  17BF  0800               	movf	0,w
  1538  17C0  1283               	bcf	3,5	;RP0=0, select bank0
  1539  17C1  1303               	bcf	3,6	;RP1=0, select bank0
  1540  17C2  00DC               	movwf	ftoa@f
  1541  17C3  0A84               	incf	4,f
  1542  17C4  0800               	movf	0,w
  1543  17C5  00DD               	movwf	ftoa@f+1
  1544  17C6  0A84               	incf	4,f
  1545  17C7  0800               	movf	0,w
  1546  17C8  00DE               	movwf	ftoa@f+2
  1547  17C9  0A84               	incf	4,f
  1548  17CA  0800               	movf	0,w
  1549  17CB  00DF               	movwf	ftoa@f+3
  1550  17CC  3000               	movlw	0
  1551  17CD  00E0               	movwf	ftoa@status
  1552  17CE  3000               	movlw	0
  1553  17CF  00E1               	movwf	ftoa@status+1
  1554  17D0  120A  118A  265B  160A  118A  	fcall	_ftoa
  1555  17D5  1283               	bcf	3,5	;RP0=0, select bank0
  1556  17D6  1303               	bcf	3,6	;RP1=0, select bank0
  1557  17D7  00EC               	movwf	??_main
  1558  17D8  086C               	movf	??_main,w
  1559  17D9  00EF               	movwf	_buffer
  1560  17DA                     l3452:
  1561  17DA  3034               	movlw	(low ((STR_1-__stringbase)| (0+32768)))& (0+255)
  1562  17DB  00F3               	movwf	UARTSendString@str
  1563  17DC  3080               	movlw	128
  1564  17DD  00F4               	movwf	UARTSendString@str+1
  1565  17DE  300A               	movlw	10
  1566  17DF  00EC               	movwf	??_main
  1567  17E0  086C               	movf	??_main,w
  1568  17E1  00F5               	movwf	UARTSendString@max_length
  1569  17E2  160A  118A  2453  160A  118A  	fcall	_UARTSendString
  1570  17E7                     l3454:
  1571  17E7  1283               	bcf	3,5	;RP0=0, select bank0
  1572  17E8  1303               	bcf	3,6	;RP1=0, select bank0
  1573  17E9  086F               	movf	_buffer,w
  1574  17EA  00F3               	movwf	UARTSendString@str
  1575  17EB  3000               	movlw	0
  1576  17EC  00F4               	movwf	UARTSendString@str+1
  1577  17ED  3006               	movlw	6
  1578  17EE  00EC               	movwf	??_main
  1579  17EF  086C               	movf	??_main,w
  1580  17F0  00F5               	movwf	UARTSendString@max_length
  1581  17F1  160A  118A  2453  160A  118A  	fcall	_UARTSendString
  1582  17F6                     l3456:
  1583  17F6  300A               	movlw	10
  1584  17F7  160A  118A  232E  160A  118A  	fcall	_UARTSendChar
  1585  17FC  2E5B               	goto	l3414
  1586  17FD  120A  118A  280C   	ljmp	start
  1587  1800                     __end_of_main:
  1588                           
  1589                           	psect	text1
  1590  065B                     __ptext1:	
  1591 ;; *************** function _ftoa *****************
  1592 ;; Defined at:
  1593 ;;		line 6 in file "C:\Program Files\Microchip\xc8\v2.31\pic\sources\c90\common\ftoa.c"
  1594 ;; Parameters:    Size  Location     Type
  1595 ;;  f               4   60[BANK0 ] float 
  1596 ;;  status          2   64[BANK0 ] PTR int 
  1597 ;;		 -> NULL(0), RAM(512), 
  1598 ;; Auto vars:     Size  Location     Type
  1599 ;;  l               4   71[BANK0 ] unsigned long 
  1600 ;;  rem             4   67[BANK0 ] unsigned long 
  1601 ;;  cp              1   75[BANK0 ] PTR unsigned char 
  1602 ;;		 -> ftoa@buf(17), 
  1603 ;; Return value:  Size  Location     Type
  1604 ;;                  1    wreg      PTR unsigned char 
  1605 ;; Registers used:
  1606 ;;		wreg, fsr0l, fsr0h, status,2, status,0, btemp+1, pclath, cstack
  1607 ;; Tracked objects:
  1608 ;;		On entry : 0/0
  1609 ;;		On exit  : 0/0
  1610 ;;		Unchanged: 0/0
  1611 ;; Data sizes:     COMMON   BANK0   BANK1   BANK3   BANK2
  1612 ;;      Params:         0       6       0       0       0
  1613 ;;      Locals:         0       9       0       0       0
  1614 ;;      Temps:          0       1       0       0       0
  1615 ;;      Totals:         0      16       0       0       0
  1616 ;;Total ram usage:       16 bytes
  1617 ;; Hardware stack levels used:    1
  1618 ;; Hardware stack levels required when called:    3
  1619 ;; This function calls:
  1620 ;;		___flge
  1621 ;;		___flmul
  1622 ;;		___flneg
  1623 ;;		___flsub
  1624 ;;		___fltol
  1625 ;;		___xxtofl
  1626 ;;		_sprintf
  1627 ;; This function is called by:
  1628 ;;		_main
  1629 ;; This function uses a non-reentrant model
  1630 ;;
  1631                           
  1632                           
  1633                           ;psect for function _ftoa
  1634  065B                     _ftoa:
  1635  065B                     l3378:	
  1636                           ;incstack = 0
  1637                           ; Regs used in _ftoa: [wreg-fsr0h+status,2+status,0+btemp+1+pclath+cstack]
  1638                           
  1639  065B  30BC               	movlw	(low (ftoa@buf| 0))& (0+255)
  1640  065C  1283               	bcf	3,5	;RP0=0, select bank0
  1641  065D  1303               	bcf	3,6	;RP1=0, select bank0
  1642  065E  00E2               	movwf	??_ftoa
  1643  065F  0862               	movf	??_ftoa,w
  1644  0660  00EB               	movwf	ftoa@cp
  1645  0661                     l3380:
  1646  0661  085F               	movf	ftoa@f+3,w
  1647  0662  00F5               	movwf	___flge@ff1+3
  1648  0663  085E               	movf	ftoa@f+2,w
  1649  0664  00F4               	movwf	___flge@ff1+2
  1650  0665  085D               	movf	ftoa@f+1,w
  1651  0666  00F3               	movwf	___flge@ff1+1
  1652  0667  085C               	movf	ftoa@f,w
  1653  0668  00F2               	movwf	___flge@ff1
  1654  0669  3000               	movlw	0
  1655  066A  00F9               	movwf	___flge@ff2+3
  1656  066B  3000               	movlw	0
  1657  066C  00F8               	movwf	___flge@ff2+2
  1658  066D  3000               	movlw	0
  1659  066E  00F7               	movwf	___flge@ff2+1
  1660  066F  3000               	movlw	0
  1661  0670  00F6               	movwf	___flge@ff2
  1662  0671  160A  118A  2581  120A  118A  	fcall	___flge
  1663  0676  1803               	btfsc	3,0
  1664  0677  2E79               	goto	u4971
  1665  0678  2E7A               	goto	u4970
  1666  0679                     u4971:
  1667  0679  2E9E               	goto	l3388
  1668  067A                     u4970:
  1669  067A                     l3382:
  1670  067A  302D               	movlw	45
  1671  067B  1283               	bcf	3,5	;RP0=0, select bank0
  1672  067C  1303               	bcf	3,6	;RP1=0, select bank0
  1673  067D  00E2               	movwf	??_ftoa
  1674  067E  086B               	movf	ftoa@cp,w
  1675  067F  0084               	movwf	4
  1676  0680  0862               	movf	??_ftoa,w
  1677  0681  1383               	bcf	3,7	;select IRP bank0
  1678  0682  0080               	movwf	0
  1679  0683                     l3384:
  1680  0683  3001               	movlw	1
  1681  0684  00E2               	movwf	??_ftoa
  1682  0685  0862               	movf	??_ftoa,w
  1683  0686  07EB               	addwf	ftoa@cp,f
  1684  0687                     l3386:
  1685  0687  085F               	movf	ftoa@f+3,w
  1686  0688  00F5               	movwf	___flneg@f1+3
  1687  0689  085E               	movf	ftoa@f+2,w
  1688  068A  00F4               	movwf	___flneg@f1+2
  1689  068B  085D               	movf	ftoa@f+1,w
  1690  068C  00F3               	movwf	___flneg@f1+1
  1691  068D  085C               	movf	ftoa@f,w
  1692  068E  00F2               	movwf	___flneg@f1
  1693  068F  160A  118A  2317  120A  118A  	fcall	___flneg
  1694  0694  0875               	movf	?___flneg+3,w
  1695  0695  1283               	bcf	3,5	;RP0=0, select bank0
  1696  0696  1303               	bcf	3,6	;RP1=0, select bank0
  1697  0697  00DF               	movwf	ftoa@f+3
  1698  0698  0874               	movf	?___flneg+2,w
  1699  0699  00DE               	movwf	ftoa@f+2
  1700  069A  0873               	movf	?___flneg+1,w
  1701  069B  00DD               	movwf	ftoa@f+1
  1702  069C  0872               	movf	?___flneg,w
  1703  069D  00DC               	movwf	ftoa@f
  1704  069E                     l3388:
  1705  069E  1283               	bcf	3,5	;RP0=0, select bank0
  1706  069F  1303               	bcf	3,6	;RP1=0, select bank0
  1707  06A0  085F               	movf	ftoa@f+3,w
  1708  06A1  00C3               	movwf	___fltol@f1+3
  1709  06A2  085E               	movf	ftoa@f+2,w
  1710  06A3  00C2               	movwf	___fltol@f1+2
  1711  06A4  085D               	movf	ftoa@f+1,w
  1712  06A5  00C1               	movwf	___fltol@f1+1
  1713  06A6  085C               	movf	ftoa@f,w
  1714  06A7  00C0               	movwf	___fltol@f1
  1715  06A8  120A  158A  2017  120A  118A  	fcall	___fltol
  1716  06AD  1283               	bcf	3,5	;RP0=0, select bank0
  1717  06AE  1303               	bcf	3,6	;RP1=0, select bank0
  1718  06AF  0843               	movf	?___fltol+3,w
  1719  06B0  00EA               	movwf	ftoa@l+3
  1720  06B1  0842               	movf	?___fltol+2,w
  1721  06B2  00E9               	movwf	ftoa@l+2
  1722  06B3  0841               	movf	?___fltol+1,w
  1723  06B4  00E8               	movwf	ftoa@l+1
  1724  06B5  0840               	movf	?___fltol,w
  1725  06B6  00E7               	movwf	ftoa@l
  1726  06B7                     l3390:
  1727  06B7  086A               	movf	ftoa@l+3,w
  1728  06B8  00F5               	movwf	___xxtofl@val+3
  1729  06B9  0869               	movf	ftoa@l+2,w
  1730  06BA  00F4               	movwf	___xxtofl@val+2
  1731  06BB  0868               	movf	ftoa@l+1,w
  1732  06BC  00F3               	movwf	___xxtofl@val+1
  1733  06BD  0867               	movf	ftoa@l,w
  1734  06BE  00F2               	movwf	___xxtofl@val
  1735  06BF  3000               	movlw	0
  1736  06C0  120A  158A  2093  120A  118A  	fcall	___xxtofl
  1737  06C5  0875               	movf	?___xxtofl+3,w
  1738  06C6  1283               	bcf	3,5	;RP0=0, select bank0
  1739  06C7  1303               	bcf	3,6	;RP1=0, select bank0
  1740  06C8  00D7               	movwf	___flsub@a+3
  1741  06C9  0874               	movf	?___xxtofl+2,w
  1742  06CA  00D6               	movwf	___flsub@a+2
  1743  06CB  0873               	movf	?___xxtofl+1,w
  1744  06CC  00D5               	movwf	___flsub@a+1
  1745  06CD  0872               	movf	?___xxtofl,w
  1746  06CE  00D4               	movwf	___flsub@a
  1747  06CF  085F               	movf	ftoa@f+3,w
  1748  06D0  00DB               	movwf	___flsub@b+3
  1749  06D1  085E               	movf	ftoa@f+2,w
  1750  06D2  00DA               	movwf	___flsub@b+2
  1751  06D3  085D               	movf	ftoa@f+1,w
  1752  06D4  00D9               	movwf	___flsub@b+1
  1753  06D5  085C               	movf	ftoa@f,w
  1754  06D6  00D8               	movwf	___flsub@b
  1755  06D7  160A  118A  2364  120A  118A  	fcall	___flsub
  1756  06DC  1283               	bcf	3,5	;RP0=0, select bank0
  1757  06DD  1303               	bcf	3,6	;RP1=0, select bank0
  1758  06DE  0857               	movf	?___flsub+3,w
  1759  06DF  00DF               	movwf	ftoa@f+3
  1760  06E0  0856               	movf	?___flsub+2,w
  1761  06E1  00DE               	movwf	ftoa@f+2
  1762  06E2  0855               	movf	?___flsub+1,w
  1763  06E3  00DD               	movwf	ftoa@f+1
  1764  06E4  0854               	movf	?___flsub,w
  1765  06E5  00DC               	movwf	ftoa@f
  1766  06E6                     l3392:
  1767  06E6  085F               	movf	ftoa@f+3,w
  1768  06E7  00AD               	movwf	___flmul@a+3
  1769  06E8  085E               	movf	ftoa@f+2,w
  1770  06E9  00AC               	movwf	___flmul@a+2
  1771  06EA  085D               	movf	ftoa@f+1,w
  1772  06EB  00AB               	movwf	___flmul@a+1
  1773  06EC  085C               	movf	ftoa@f,w
  1774  06ED  00AA               	movwf	___flmul@a
  1775  06EE  3049               	movlw	73
  1776  06EF  00A9               	movwf	___flmul@b+3
  1777  06F0  3074               	movlw	116
  1778  06F1  00A8               	movwf	___flmul@b+2
  1779  06F2  3024               	movlw	36
  1780  06F3  00A7               	movwf	___flmul@b+1
  1781  06F4  3000               	movlw	0
  1782  06F5  00A6               	movwf	___flmul@b
  1783  06F6  120A  118A  2021  120A  118A  	fcall	___flmul
  1784  06FB  1283               	bcf	3,5	;RP0=0, select bank0
  1785  06FC  1303               	bcf	3,6	;RP1=0, select bank0
  1786  06FD  0829               	movf	?___flmul+3,w
  1787  06FE  00C3               	movwf	___fltol@f1+3
  1788  06FF  0828               	movf	?___flmul+2,w
  1789  0700  00C2               	movwf	___fltol@f1+2
  1790  0701  0827               	movf	?___flmul+1,w
  1791  0702  00C1               	movwf	___fltol@f1+1
  1792  0703  0826               	movf	?___flmul,w
  1793  0704  00C0               	movwf	___fltol@f1
  1794  0705  120A  158A  2017  120A  118A  	fcall	___fltol
  1795  070A  1283               	bcf	3,5	;RP0=0, select bank0
  1796  070B  1303               	bcf	3,6	;RP1=0, select bank0
  1797  070C  0843               	movf	?___fltol+3,w
  1798  070D  00E6               	movwf	ftoa@rem+3
  1799  070E  0842               	movf	?___fltol+2,w
  1800  070F  00E5               	movwf	ftoa@rem+2
  1801  0710  0841               	movf	?___fltol+1,w
  1802  0711  00E4               	movwf	ftoa@rem+1
  1803  0712  0840               	movf	?___fltol,w
  1804  0713  00E3               	movwf	ftoa@rem
  1805  0714                     l3394:
  1806  0714  3029               	movlw	(low ((STR_7-__stringbase)| (0+32768)))& (0+255)
  1807  0715  00E2               	movwf	??_ftoa
  1808  0716  0862               	movf	??_ftoa,w
  1809  0717  00B0               	movwf	sprintf@f
  1810  0718  086A               	movf	ftoa@l+3,w
  1811  0719  00B4               	movwf	?_sprintf+4
  1812  071A  0869               	movf	ftoa@l+2,w
  1813  071B  00B3               	movwf	?_sprintf+3
  1814  071C  0868               	movf	ftoa@l+1,w
  1815  071D  00B2               	movwf	?_sprintf+2
  1816  071E  0867               	movf	ftoa@l,w
  1817  071F  00B1               	movwf	?_sprintf+1
  1818  0720  0866               	movf	ftoa@rem+3,w
  1819  0721  00B8               	movwf	?_sprintf+8
  1820  0722  0865               	movf	ftoa@rem+2,w
  1821  0723  00B7               	movwf	?_sprintf+7
  1822  0724  0864               	movf	ftoa@rem+1,w
  1823  0725  00B6               	movwf	?_sprintf+6
  1824  0726  0863               	movf	ftoa@rem,w
  1825  0727  00B5               	movwf	?_sprintf+5
  1826  0728  086B               	movf	ftoa@cp,w
  1827  0729  120A  158A  232C  120A  118A  	fcall	_sprintf
  1828  072E                     l3396:
  1829  072E  30BC               	movlw	(low (ftoa@buf| 0))& (0+255)
  1830  072F                     l761:
  1831  072F  0008               	return
  1832  0730                     __end_of_ftoa:
  1833                           
  1834                           	psect	text2
  1835  0B2C                     __ptext2:	
  1836 ;; *************** function _sprintf *****************
  1837 ;; Defined at:
  1838 ;;		line 505 in file "C:\Program Files\Microchip\xc8\v2.31\pic\sources\c90\common\doprnt.c"
  1839 ;; Parameters:    Size  Location     Type
  1840 ;;  sp              1    wreg     PTR unsigned char 
  1841 ;;		 -> ftoa@buf(17), 
  1842 ;;  f               1   16[BANK0 ] PTR const unsigned char 
  1843 ;;		 -> STR_7(11), 
  1844 ;; Auto vars:     Size  Location     Type
  1845 ;;  sp              1   36[BANK0 ] PTR unsigned char 
  1846 ;;		 -> ftoa@buf(17), 
  1847 ;;  val             4   32[BANK0 ] unsigned long 
  1848 ;;  tmpval          4    0        struct .
  1849 ;;  prec            2   39[BANK0 ] int 
  1850 ;;  width           2   37[BANK0 ] int 
  1851 ;;  cp              2    0        PTR const unsigned char 
  1852 ;;  len             2    0        unsigned int 
  1853 ;;  c               1   41[BANK0 ] unsigned char 
  1854 ;;  ap              1   31[BANK0 ] PTR void [1]
  1855 ;;		 -> ?_sprintf(2), 
  1856 ;;  flag            1   30[BANK0 ] unsigned char 
  1857 ;; Return value:  Size  Location     Type
  1858 ;;                  2   16[BANK0 ] int 
  1859 ;; Registers used:
  1860 ;;		wreg, fsr0l, fsr0h, status,2, status,0, pclath, cstack
  1861 ;; Tracked objects:
  1862 ;;		On entry : 0/0
  1863 ;;		On exit  : 0/0
  1864 ;;		Unchanged: 0/0
  1865 ;; Data sizes:     COMMON   BANK0   BANK1   BANK3   BANK2
  1866 ;;      Params:         0       9       0       0       0
  1867 ;;      Locals:         0      12       0       0       0
  1868 ;;      Temps:          0       5       0       0       0
  1869 ;;      Totals:         0      26       0       0       0
  1870 ;;Total ram usage:       26 bytes
  1871 ;; Hardware stack levels used:    1
  1872 ;; Hardware stack levels required when called:    2
  1873 ;; This function calls:
  1874 ;;		___lldiv
  1875 ;;		___llmod
  1876 ;;		___wmul
  1877 ;;		_isdigit
  1878 ;; This function is called by:
  1879 ;;		_ftoa
  1880 ;; This function uses a non-reentrant model
  1881 ;;
  1882                           
  1883                           
  1884                           ;psect for function _sprintf
  1885  0B2C                     _sprintf:
  1886                           
  1887                           ;incstack = 0
  1888                           ; Regs used in _sprintf: [wreg-fsr0h+status,2+status,0+pclath+cstack]
  1889                           ;sprintf@sp stored from wreg
  1890  0B2C  1283               	bcf	3,5	;RP0=0, select bank0
  1891  0B2D  1303               	bcf	3,6	;RP1=0, select bank0
  1892  0B2E  00C4               	movwf	sprintf@sp
  1893  0B2F                     l3190:
  1894                           
  1895                           ;C:\Program Files\Microchip\xc8\v2.31\pic\sources\c90\common\doprnt.c: 505: sprintf(char
      +                           * sp, const char * f, ...);C:\Program Files\Microchip\xc8\v2.31\pic\sources\c90\common\
      +                          doprnt.c: 506: {;C:\Program Files\Microchip\xc8\v2.31\pic\sources\c90\common\doprnt.c: 5
      +                          07:  va_list ap;;C:\Program Files\Microchip\xc8\v2.31\pic\sources\c90\common\doprnt.c: 5
      +                          12:  char c;;C:\Program Files\Microchip\xc8\v2.31\pic\sources\c90\common\doprnt.c: 514: 
      +                           int width;;C:\Program Files\Microchip\xc8\v2.31\pic\sources\c90\common\doprnt.c: 517:  
      +                          int prec;
  1896  0B2F  3031               	movlw	(low ((?_sprintf| 0+1)))& (0+255)
  1897  0B30  00B9               	movwf	??_sprintf
  1898  0B31  0839               	movf	??_sprintf,w
  1899  0B32  00BF               	movwf	sprintf@ap
  1900                           
  1901                           ;C:\Program Files\Microchip\xc8\v2.31\pic\sources\c90\common\doprnt.c: 553:  while((c = 
      +                          *f++)) {
  1902  0B33  2D61               	goto	l3288
  1903  0B34                     l3192:
  1904                           
  1905                           ;C:\Program Files\Microchip\xc8\v2.31\pic\sources\c90\common\doprnt.c: 555:   if(c != '%
      +                          ')
  1906  0B34  3025               	movlw	37
  1907  0B35  0649               	xorwf	sprintf@c,w
  1908  0B36  1903               	btfsc	3,2
  1909  0B37  2B39               	goto	u4721
  1910  0B38  2B3A               	goto	u4720
  1911  0B39                     u4721:
  1912  0B39  2B46               	goto	l3198
  1913  0B3A                     u4720:
  1914  0B3A                     l3194:
  1915                           
  1916                           ;C:\Program Files\Microchip\xc8\v2.31\pic\sources\c90\common\doprnt.c: 557:   {;C:\Progr
      +                          am Files\Microchip\xc8\v2.31\pic\sources\c90\common\doprnt.c: 558:    ((*sp++ = (c)));
  1917  0B3A  0849               	movf	sprintf@c,w
  1918  0B3B  00B9               	movwf	??_sprintf
  1919  0B3C  0844               	movf	sprintf@sp,w
  1920  0B3D  0084               	movwf	4
  1921  0B3E  0839               	movf	??_sprintf,w
  1922  0B3F  1383               	bcf	3,7	;select IRP bank0
  1923  0B40  0080               	movwf	0
  1924  0B41                     l3196:
  1925  0B41  3001               	movlw	1
  1926  0B42  00B9               	movwf	??_sprintf
  1927  0B43  0839               	movf	??_sprintf,w
  1928  0B44  07C4               	addwf	sprintf@sp,f
  1929                           
  1930                           ;C:\Program Files\Microchip\xc8\v2.31\pic\sources\c90\common\doprnt.c: 559:    continue;
  1931  0B45  2D61               	goto	l3288
  1932  0B46                     l3198:
  1933                           
  1934                           ;C:\Program Files\Microchip\xc8\v2.31\pic\sources\c90\common\doprnt.c: 563:   width = 0;
  1935  0B46  01C5               	clrf	sprintf@width
  1936  0B47  01C6               	clrf	sprintf@width+1
  1937                           
  1938                           ;C:\Program Files\Microchip\xc8\v2.31\pic\sources\c90\common\doprnt.c: 565:   flag = 0;
  1939  0B48  01BE               	clrf	sprintf@flag
  1940  0B49                     l3200:
  1941                           
  1942                           ;C:\Program Files\Microchip\xc8\v2.31\pic\sources\c90\common\doprnt.c: 614:   if(isdigit
      +                          ((unsigned)*f)) {
  1943  0B49  0830               	movf	sprintf@f,w
  1944  0B4A  0084               	movwf	4
  1945  0B4B  160A  118A  200A  120A  158A  	fcall	stringdir
  1946  0B50  120A  158A  2005  120A  158A  	fcall	_isdigit
  1947  0B55  1C03               	btfss	3,0
  1948  0B56  2B58               	goto	u4731
  1949  0B57  2B59               	goto	u4730
  1950  0B58                     u4731:
  1951  0B58  2B99               	goto	l3212
  1952  0B59                     u4730:
  1953  0B59                     l3202:
  1954                           
  1955                           ;C:\Program Files\Microchip\xc8\v2.31\pic\sources\c90\common\doprnt.c: 615:    width = 0
      +                          ;
  1956  0B59  1283               	bcf	3,5	;RP0=0, select bank0
  1957  0B5A  1303               	bcf	3,6	;RP1=0, select bank0
  1958  0B5B  01C5               	clrf	sprintf@width
  1959  0B5C  01C6               	clrf	sprintf@width+1
  1960  0B5D                     l3204:
  1961                           
  1962                           ;C:\Program Files\Microchip\xc8\v2.31\pic\sources\c90\common\doprnt.c: 617:     width *=
      +                           10;
  1963  0B5D  300A               	movlw	10
  1964  0B5E  00F2               	movwf	___wmul@multiplier
  1965  0B5F  3000               	movlw	0
  1966  0B60  00F3               	movwf	___wmul@multiplier+1
  1967  0B61  1283               	bcf	3,5	;RP0=0, select bank0
  1968  0B62  1303               	bcf	3,6	;RP1=0, select bank0
  1969  0B63  0846               	movf	sprintf@width+1,w
  1970  0B64  00F5               	movwf	___wmul@multiplicand+1
  1971  0B65  0845               	movf	sprintf@width,w
  1972  0B66  00F4               	movwf	___wmul@multiplicand
  1973  0B67  160A  118A  2388  120A  158A  	fcall	___wmul
  1974  0B6C  0873               	movf	?___wmul+1,w
  1975  0B6D  1283               	bcf	3,5	;RP0=0, select bank0
  1976  0B6E  1303               	bcf	3,6	;RP1=0, select bank0
  1977  0B6F  00C6               	movwf	sprintf@width+1
  1978  0B70  0872               	movf	?___wmul,w
  1979  0B71  00C5               	movwf	sprintf@width
  1980  0B72                     l3206:
  1981                           
  1982                           ;C:\Program Files\Microchip\xc8\v2.31\pic\sources\c90\common\doprnt.c: 618:        width
      +                           += *f++ - '0';
  1983  0B72  0830               	movf	sprintf@f,w
  1984  0B73  0084               	movwf	4
  1985  0B74  160A  118A  200A  120A  158A  	fcall	stringdir
  1986  0B79  3ED0               	addlw	208
  1987  0B7A  00B9               	movwf	??_sprintf
  1988  0B7B  30FF               	movlw	255
  1989  0B7C  1803               	skipnc
  1990  0B7D  3000               	movlw	0
  1991  0B7E  00BA               	movwf	??_sprintf+1
  1992  0B7F  0839               	movf	??_sprintf,w
  1993  0B80  07C5               	addwf	sprintf@width,f
  1994  0B81  1803               	skipnc
  1995  0B82  0AC6               	incf	sprintf@width+1,f
  1996  0B83  083A               	movf	??_sprintf+1,w
  1997  0B84  07C6               	addwf	sprintf@width+1,f
  1998  0B85                     l3208:
  1999  0B85  3001               	movlw	1
  2000  0B86  00B9               	movwf	??_sprintf
  2001  0B87  0839               	movf	??_sprintf,w
  2002  0B88  07B0               	addwf	sprintf@f,f
  2003  0B89                     l3210:
  2004                           
  2005                           ;C:\Program Files\Microchip\xc8\v2.31\pic\sources\c90\common\doprnt.c: 619:    } while(i
      +                          sdigit((unsigned)*f));
  2006  0B89  0830               	movf	sprintf@f,w
  2007  0B8A  0084               	movwf	4
  2008  0B8B  160A  118A  200A  120A  158A  	fcall	stringdir
  2009  0B90  120A  158A  2005  120A  158A  	fcall	_isdigit
  2010  0B95  1803               	btfsc	3,0
  2011  0B96  2B98               	goto	u4741
  2012  0B97  2B99               	goto	u4740
  2013  0B98                     u4741:
  2014  0B98  2B5D               	goto	l3204
  2015  0B99                     u4740:
  2016  0B99                     l3212:
  2017                           
  2018                           ;C:\Program Files\Microchip\xc8\v2.31\pic\sources\c90\common\doprnt.c: 628:   if(*f == '
      +                          .') {
  2019  0B99  1283               	bcf	3,5	;RP0=0, select bank0
  2020  0B9A  1303               	bcf	3,6	;RP1=0, select bank0
  2021  0B9B  0830               	movf	sprintf@f,w
  2022  0B9C  0084               	movwf	4
  2023  0B9D  160A  118A  200A  120A  158A  	fcall	stringdir
  2024  0BA2  3A2E               	xorlw	46
  2025  0BA3  1D03               	skipz
  2026  0BA4  2BA6               	goto	u4751
  2027  0BA5  2BA7               	goto	u4750
  2028  0BA6                     u4751:
  2029  0BA6  2BEB               	goto	l3226
  2030  0BA7                     u4750:
  2031  0BA7                     l3214:
  2032                           
  2033                           ;C:\Program Files\Microchip\xc8\v2.31\pic\sources\c90\common\doprnt.c: 630:    f++;
  2034  0BA7  3001               	movlw	1
  2035  0BA8  00B9               	movwf	??_sprintf
  2036  0BA9  0839               	movf	??_sprintf,w
  2037  0BAA  07B0               	addwf	sprintf@f,f
  2038  0BAB                     l3216:
  2039                           
  2040                           ;C:\Program Files\Microchip\xc8\v2.31\pic\sources\c90\common\doprnt.c: 644:    {;C:\Prog
      +                          ram Files\Microchip\xc8\v2.31\pic\sources\c90\common\doprnt.c: 645:     prec = 0;
  2041  0BAB  01C7               	clrf	sprintf@prec
  2042  0BAC  01C8               	clrf	sprintf@prec+1
  2043                           
  2044                           ;C:\Program Files\Microchip\xc8\v2.31\pic\sources\c90\common\doprnt.c: 646:     while(is
      +                          digit((unsigned)*f)) {
  2045  0BAD  2BDA               	goto	l3224
  2046  0BAE                     l3218:
  2047                           
  2048                           ;C:\Program Files\Microchip\xc8\v2.31\pic\sources\c90\common\doprnt.c: 647:      prec *=
      +                           10;
  2049  0BAE  300A               	movlw	10
  2050  0BAF  00F2               	movwf	___wmul@multiplier
  2051  0BB0  3000               	movlw	0
  2052  0BB1  00F3               	movwf	___wmul@multiplier+1
  2053  0BB2  1283               	bcf	3,5	;RP0=0, select bank0
  2054  0BB3  1303               	bcf	3,6	;RP1=0, select bank0
  2055  0BB4  0848               	movf	sprintf@prec+1,w
  2056  0BB5  00F5               	movwf	___wmul@multiplicand+1
  2057  0BB6  0847               	movf	sprintf@prec,w
  2058  0BB7  00F4               	movwf	___wmul@multiplicand
  2059  0BB8  160A  118A  2388  120A  158A  	fcall	___wmul
  2060  0BBD  0873               	movf	?___wmul+1,w
  2061  0BBE  1283               	bcf	3,5	;RP0=0, select bank0
  2062  0BBF  1303               	bcf	3,6	;RP1=0, select bank0
  2063  0BC0  00C8               	movwf	sprintf@prec+1
  2064  0BC1  0872               	movf	?___wmul,w
  2065  0BC2  00C7               	movwf	sprintf@prec
  2066  0BC3                     l3220:
  2067                           
  2068                           ;C:\Program Files\Microchip\xc8\v2.31\pic\sources\c90\common\doprnt.c: 648:         prec
      +                           += *f++ - '0';
  2069  0BC3  0830               	movf	sprintf@f,w
  2070  0BC4  0084               	movwf	4
  2071  0BC5  160A  118A  200A  120A  158A  	fcall	stringdir
  2072  0BCA  3ED0               	addlw	208
  2073  0BCB  00B9               	movwf	??_sprintf
  2074  0BCC  30FF               	movlw	255
  2075  0BCD  1803               	skipnc
  2076  0BCE  3000               	movlw	0
  2077  0BCF  00BA               	movwf	??_sprintf+1
  2078  0BD0  0839               	movf	??_sprintf,w
  2079  0BD1  07C7               	addwf	sprintf@prec,f
  2080  0BD2  1803               	skipnc
  2081  0BD3  0AC8               	incf	sprintf@prec+1,f
  2082  0BD4  083A               	movf	??_sprintf+1,w
  2083  0BD5  07C8               	addwf	sprintf@prec+1,f
  2084  0BD6                     l3222:
  2085  0BD6  3001               	movlw	1
  2086  0BD7  00B9               	movwf	??_sprintf
  2087  0BD8  0839               	movf	??_sprintf,w
  2088  0BD9  07B0               	addwf	sprintf@f,f
  2089  0BDA                     l3224:
  2090                           
  2091                           ;C:\Program Files\Microchip\xc8\v2.31\pic\sources\c90\common\doprnt.c: 646:     while(is
      +                          digit((unsigned)*f)) {
  2092  0BDA  0830               	movf	sprintf@f,w
  2093  0BDB  0084               	movwf	4
  2094  0BDC  160A  118A  200A  120A  158A  	fcall	stringdir
  2095  0BE1  120A  158A  2005  120A  158A  	fcall	_isdigit
  2096  0BE6  1803               	btfsc	3,0
  2097  0BE7  2BE9               	goto	u4761
  2098  0BE8  2BEA               	goto	u4760
  2099  0BE9                     u4761:
  2100  0BE9  2BAE               	goto	l3218
  2101  0BEA                     u4760:
  2102  0BEA  2BF5               	goto	l3232
  2103  0BEB                     l3226:
  2104                           
  2105                           ;C:\Program Files\Microchip\xc8\v2.31\pic\sources\c90\common\doprnt.c: 652:    prec = 0;
  2106  0BEB  01C7               	clrf	sprintf@prec
  2107  0BEC  01C8               	clrf	sprintf@prec+1
  2108  0BED  2BF5               	goto	l3232
  2109  0BEE                     l787:	
  2110                           ;C:\Program Files\Microchip\xc8\v2.31\pic\sources\c90\common\doprnt.c: 667:   case 'l':
  2111                           
  2112                           
  2113                           ;C:\Program Files\Microchip\xc8\v2.31\pic\sources\c90\common\doprnt.c: 669:    flag |= 0
      +                          x10;
  2114  0BEE  163E               	bsf	sprintf@flag,4
  2115                           
  2116                           ;C:\Program Files\Microchip\xc8\v2.31\pic\sources\c90\common\doprnt.c: 670:    goto loop
      +                          ;
  2117  0BEF  2BF5               	goto	l3232
  2118  0BF0                     l3228:
  2119                           
  2120                           ;C:\Program Files\Microchip\xc8\v2.31\pic\sources\c90\common\doprnt.c: 844:    flag |= 0
      +                          xC0;
  2121  0BF0  30C0               	movlw	192
  2122  0BF1  00B9               	movwf	??_sprintf
  2123  0BF2  0839               	movf	??_sprintf,w
  2124  0BF3  04BE               	iorwf	sprintf@flag,f
  2125                           
  2126                           ;C:\Program Files\Microchip\xc8\v2.31\pic\sources\c90\common\doprnt.c: 845:    break;
  2127  0BF4  2C14               	goto	l790
  2128  0BF5                     l3232:
  2129  0BF5  3001               	movlw	1
  2130  0BF6  1283               	bcf	3,5	;RP0=0, select bank0
  2131  0BF7  1303               	bcf	3,6	;RP1=0, select bank0
  2132  0BF8  07B0               	addwf	sprintf@f,f
  2133  0BF9  30FF               	movlw	-1
  2134  0BFA  0730               	addwf	sprintf@f,w
  2135  0BFB  0084               	movwf	4
  2136  0BFC  160A  118A  200A  120A  158A  	fcall	stringdir
  2137  0C01  00C9               	movwf	sprintf@c
  2138  0C02  00B9               	movwf	??_sprintf
  2139  0C03  01BA               	clrf	??_sprintf+1
  2140                           
  2141                           ; Switch on 2 bytes has been partitioned into a top level switch of size 1, and 1 sub-sw
      +                          itches
  2142                           ; Switch size 1, requested type "simple"
  2143                           ; Number of cases is 1, Range of values is 0 to 0
  2144                           ; switch strategies available:
  2145                           ; Name         Instructions Cycles
  2146                           ; simple_byte            4     3 (average)
  2147                           ; direct_byte           11     8 (fixed)
  2148                           ; jumptable            260     6 (fixed)
  2149                           ;	Chosen strategy is simple_byte
  2150  0C04  083A               	movf	??_sprintf+1,w
  2151  0C05  3A00               	xorlw	0	; case 0
  2152  0C06  1903               	skipnz
  2153  0C07  2C09               	goto	l3478
  2154  0C08  2D61               	goto	l3288
  2155  0C09                     l3478:
  2156                           
  2157                           ; Switch size 1, requested type "simple"
  2158                           ; Number of cases is 3, Range of values is 0 to 117
  2159                           ; switch strategies available:
  2160                           ; Name         Instructions Cycles
  2161                           ; simple_byte           10     6 (average)
  2162                           ; jumptable            260     6 (fixed)
  2163                           ;	Chosen strategy is simple_byte
  2164  0C09  0839               	movf	??_sprintf,w
  2165  0C0A  3A00               	xorlw	0	; case 0
  2166  0C0B  1903               	skipnz
  2167  0C0C  2D73               	goto	l3290
  2168  0C0D  3A6C               	xorlw	108	; case 108
  2169  0C0E  1903               	skipnz
  2170  0C0F  2BEE               	goto	l787
  2171  0C10  3A19               	xorlw	25	; case 117
  2172  0C11  1903               	skipnz
  2173  0C12  2BF0               	goto	l3228
  2174  0C13  2D61               	goto	l3288
  2175  0C14                     l790:
  2176                           
  2177                           ;C:\Program Files\Microchip\xc8\v2.31\pic\sources\c90\common\doprnt.c: 1299:   {;C:\Prog
      +                          ram Files\Microchip\xc8\v2.31\pic\sources\c90\common\doprnt.c: 1307:     if(flag & 0x10)
  2178  0C14  1E3E               	btfss	sprintf@flag,4
  2179  0C15  2C17               	goto	u4771
  2180  0C16  2C18               	goto	u4770
  2181  0C17                     u4771:
  2182  0C17  2C2B               	goto	l3238
  2183  0C18                     u4770:
  2184  0C18                     l3234:
  2185                           
  2186                           ;C:\Program Files\Microchip\xc8\v2.31\pic\sources\c90\common\doprnt.c: 1308:     val = (
      +                          *(unsigned long *)__va_arg((*(unsigned long **)ap), (unsigned long)0));
  2187  0C18  083F               	movf	sprintf@ap,w
  2188  0C19  0084               	movwf	4
  2189  0C1A  1383               	bcf	3,7	;select IRP bank0
  2190  0C1B  0800               	movf	0,w
  2191  0C1C  00C0               	movwf	sprintf@val
  2192  0C1D  0A84               	incf	4,f
  2193  0C1E  0800               	movf	0,w
  2194  0C1F  00C1               	movwf	sprintf@val+1
  2195  0C20  0A84               	incf	4,f
  2196  0C21  0800               	movf	0,w
  2197  0C22  00C2               	movwf	sprintf@val+2
  2198  0C23  0A84               	incf	4,f
  2199  0C24  0800               	movf	0,w
  2200  0C25  00C3               	movwf	sprintf@val+3
  2201  0C26                     l3236:
  2202  0C26  3004               	movlw	4
  2203  0C27  00B9               	movwf	??_sprintf
  2204  0C28  0839               	movf	??_sprintf,w
  2205  0C29  07BF               	addwf	sprintf@ap,f
  2206  0C2A  2C3D               	goto	l3242
  2207  0C2B                     l3238:
  2208                           
  2209                           ;C:\Program Files\Microchip\xc8\v2.31\pic\sources\c90\common\doprnt.c: 1312:     val = (
      +                          *(unsigned *)__va_arg((*(unsigned **)ap), (unsigned)0));
  2210  0C2B  083F               	movf	sprintf@ap,w
  2211  0C2C  0084               	movwf	4
  2212  0C2D  1383               	bcf	3,7	;select IRP bank0
  2213  0C2E  0800               	movf	0,w
  2214  0C2F  00B9               	movwf	??_sprintf
  2215  0C30  0A84               	incf	4,f
  2216  0C31  0800               	movf	0,w
  2217  0C32  00BA               	movwf	??_sprintf+1
  2218  0C33  0839               	movf	??_sprintf,w
  2219  0C34  00C0               	movwf	sprintf@val
  2220  0C35  083A               	movf	??_sprintf+1,w
  2221  0C36  00C1               	movwf	sprintf@val+1
  2222  0C37  01C2               	clrf	sprintf@val+2
  2223  0C38  01C3               	clrf	sprintf@val+3
  2224  0C39                     l3240:
  2225  0C39  3002               	movlw	2
  2226  0C3A  00B9               	movwf	??_sprintf
  2227  0C3B  0839               	movf	??_sprintf,w
  2228  0C3C  07BF               	addwf	sprintf@ap,f
  2229  0C3D                     l3242:
  2230                           
  2231                           ;C:\Program Files\Microchip\xc8\v2.31\pic\sources\c90\common\doprnt.c: 1313:   };C:\Prog
      +                          ram Files\Microchip\xc8\v2.31\pic\sources\c90\common\doprnt.c: 1316:   if(prec == 0 && v
      +                          al == 0)
  2232  0C3D  0847               	movf	sprintf@prec,w
  2233  0C3E  0448               	iorwf	sprintf@prec+1,w
  2234  0C3F  1D03               	btfss	3,2
  2235  0C40  2C42               	goto	u4781
  2236  0C41  2C43               	goto	u4780
  2237  0C42                     u4781:
  2238  0C42  2C51               	goto	l3248
  2239  0C43                     u4780:
  2240  0C43                     l3244:
  2241  0C43  0843               	movf	sprintf@val+3,w
  2242  0C44  0442               	iorwf	sprintf@val+2,w
  2243  0C45  0441               	iorwf	sprintf@val+1,w
  2244  0C46  0440               	iorwf	sprintf@val,w
  2245  0C47  1D03               	skipz
  2246  0C48  2C4A               	goto	u4791
  2247  0C49  2C4B               	goto	u4790
  2248  0C4A                     u4791:
  2249  0C4A  2C51               	goto	l3248
  2250  0C4B                     u4790:
  2251  0C4B                     l3246:
  2252                           
  2253                           ;C:\Program Files\Microchip\xc8\v2.31\pic\sources\c90\common\doprnt.c: 1317:    prec++;
  2254  0C4B  3001               	movlw	1
  2255  0C4C  07C7               	addwf	sprintf@prec,f
  2256  0C4D  1803               	skipnc
  2257  0C4E  0AC8               	incf	sprintf@prec+1,f
  2258  0C4F  3000               	movlw	0
  2259  0C50  07C8               	addwf	sprintf@prec+1,f
  2260  0C51                     l3248:
  2261                           
  2262                           ;C:\Program Files\Microchip\xc8\v2.31\pic\sources\c90\common\doprnt.c: 1331:    for(c = 
      +                          1 ; c != sizeof dpowers/sizeof dpowers[0] ; c++)
  2263  0C51  01C9               	clrf	sprintf@c
  2264  0C52  0AC9               	incf	sprintf@c,f
  2265  0C53                     l3254:
  2266                           
  2267                           ;C:\Program Files\Microchip\xc8\v2.31\pic\sources\c90\common\doprnt.c: 1332:     if(val 
      +                          < dpowers[c])
  2268  0C53  0849               	movf	sprintf@c,w
  2269  0C54  00B9               	movwf	??_sprintf
  2270  0C55  3001               	movlw	1
  2271  0C56                     u4805:
  2272  0C56  1003               	clrc
  2273  0C57  0DB9               	rlf	??_sprintf,f
  2274  0C58  3EFF               	addlw	-1
  2275  0C59  1D03               	skipz
  2276  0C5A  2C56               	goto	u4805
  2277  0C5B  1003               	clrc
  2278  0C5C  0D39               	rlf	??_sprintf,w
  2279  0C5D  3E01               	addlw	low ((_dpowers-__stringbase)| (0+32768))
  2280  0C5E  0084               	movwf	4
  2281  0C5F  160A  118A  200A  120A  158A  	fcall	stringdir
  2282  0C64  00BA               	movwf	??_sprintf+1
  2283  0C65  160A  118A  200A  120A  158A  	fcall	stringdir
  2284  0C6A  00BB               	movwf	??_sprintf+2
  2285  0C6B  160A  118A  200A  120A  158A  	fcall	stringdir
  2286  0C70  00BC               	movwf	??_sprintf+3
  2287  0C71  160A  118A  200A  120A  158A  	fcall	stringdir
  2288  0C76  00BD               	movwf	??_sprintf+4
  2289  0C77  083D               	movf	??_sprintf+4,w
  2290  0C78  0243               	subwf	sprintf@val+3,w
  2291  0C79  1D03               	skipz
  2292  0C7A  2C85               	goto	u4815
  2293  0C7B  083C               	movf	??_sprintf+3,w
  2294  0C7C  0242               	subwf	sprintf@val+2,w
  2295  0C7D  1D03               	skipz
  2296  0C7E  2C85               	goto	u4815
  2297  0C7F  083B               	movf	??_sprintf+2,w
  2298  0C80  0241               	subwf	sprintf@val+1,w
  2299  0C81  1D03               	skipz
  2300  0C82  2C85               	goto	u4815
  2301  0C83  083A               	movf	??_sprintf+1,w
  2302  0C84  0240               	subwf	sprintf@val,w
  2303  0C85                     u4815:
  2304  0C85  1803               	skipnc
  2305  0C86  2C88               	goto	u4811
  2306  0C87  2C89               	goto	u4810
  2307  0C88                     u4811:
  2308  0C88  2C8A               	goto	l3258
  2309  0C89                     u4810:
  2310  0C89  2C94               	goto	l3260
  2311  0C8A                     l3258:
  2312  0C8A  3001               	movlw	1
  2313  0C8B  00B9               	movwf	??_sprintf
  2314  0C8C  0839               	movf	??_sprintf,w
  2315  0C8D  07C9               	addwf	sprintf@c,f
  2316  0C8E  300A               	movlw	10
  2317  0C8F  0649               	xorwf	sprintf@c,w
  2318  0C90  1D03               	btfss	3,2
  2319  0C91  2C93               	goto	u4821
  2320  0C92  2C94               	goto	u4820
  2321  0C93                     u4821:
  2322  0C93  2C53               	goto	l3254
  2323  0C94                     u4820:
  2324  0C94                     l3260:
  2325                           
  2326                           ;C:\Program Files\Microchip\xc8\v2.31\pic\sources\c90\common\doprnt.c: 1365:   if(c < pr
      +                          ec)
  2327  0C94  0848               	movf	sprintf@prec+1,w
  2328  0C95  3A80               	xorlw	128
  2329  0C96  3C80               	sublw	128
  2330  0C97  1D03               	skipz
  2331  0C98  2C9B               	goto	u4835
  2332  0C99  0847               	movf	sprintf@prec,w
  2333  0C9A  0249               	subwf	sprintf@c,w
  2334  0C9B                     u4835:
  2335  0C9B  1803               	skipnc
  2336  0C9C  2C9E               	goto	u4831
  2337  0C9D  2C9F               	goto	u4830
  2338  0C9E                     u4831:
  2339  0C9E  2CA6               	goto	l3264
  2340  0C9F                     u4830:
  2341  0C9F                     l3262:
  2342                           
  2343                           ;C:\Program Files\Microchip\xc8\v2.31\pic\sources\c90\common\doprnt.c: 1366:    c = (cha
      +                          r)prec;
  2344  0C9F  1283               	bcf	3,5	;RP0=0, select bank0
  2345  0CA0  1303               	bcf	3,6	;RP1=0, select bank0
  2346  0CA1  0847               	movf	sprintf@prec,w
  2347  0CA2  00B9               	movwf	??_sprintf
  2348  0CA3  0839               	movf	??_sprintf,w
  2349  0CA4  00C9               	movwf	sprintf@c
  2350  0CA5  2CBE               	goto	l798
  2351  0CA6                     l3264:
  2352  0CA6  1283               	bcf	3,5	;RP0=0, select bank0
  2353  0CA7  1303               	bcf	3,6	;RP1=0, select bank0
  2354  0CA8  0848               	movf	sprintf@prec+1,w
  2355  0CA9  3A80               	xorlw	128
  2356  0CAA  00B9               	movwf	??_sprintf
  2357  0CAB  3080               	movlw	128
  2358  0CAC  0239               	subwf	??_sprintf,w
  2359  0CAD  1D03               	skipz
  2360  0CAE  2CB1               	goto	u4845
  2361  0CAF  0849               	movf	sprintf@c,w
  2362  0CB0  0247               	subwf	sprintf@prec,w
  2363  0CB1                     u4845:
  2364  0CB1  1803               	skipnc
  2365  0CB2  2CB4               	goto	u4841
  2366  0CB3  2CB5               	goto	u4840
  2367  0CB4                     u4841:
  2368  0CB4  2CBE               	goto	l798
  2369  0CB5                     u4840:
  2370  0CB5                     l3266:
  2371                           
  2372                           ;C:\Program Files\Microchip\xc8\v2.31\pic\sources\c90\common\doprnt.c: 1368:    prec = c
      +                          ;
  2373  0CB5  1283               	bcf	3,5	;RP0=0, select bank0
  2374  0CB6  1303               	bcf	3,6	;RP1=0, select bank0
  2375  0CB7  0849               	movf	sprintf@c,w
  2376  0CB8  00B9               	movwf	??_sprintf
  2377  0CB9  01BA               	clrf	??_sprintf+1
  2378  0CBA  0839               	movf	??_sprintf,w
  2379  0CBB  00C7               	movwf	sprintf@prec
  2380  0CBC  083A               	movf	??_sprintf+1,w
  2381  0CBD  00C8               	movwf	sprintf@prec+1
  2382  0CBE                     l798:
  2383                           
  2384                           ;C:\Program Files\Microchip\xc8\v2.31\pic\sources\c90\common\doprnt.c: 1407:   if(width 
      +                          > c)
  2385  0CBE  1283               	bcf	3,5	;RP0=0, select bank0
  2386  0CBF  1303               	bcf	3,6	;RP1=0, select bank0
  2387  0CC0  0846               	movf	sprintf@width+1,w
  2388  0CC1  3A80               	xorlw	128
  2389  0CC2  3C80               	sublw	128
  2390  0CC3  1D03               	skipz
  2391  0CC4  2CC7               	goto	u4855
  2392  0CC5  0845               	movf	sprintf@width,w
  2393  0CC6  0249               	subwf	sprintf@c,w
  2394  0CC7                     u4855:
  2395  0CC7  1803               	skipnc
  2396  0CC8  2CCA               	goto	u4851
  2397  0CC9  2CCB               	goto	u4850
  2398  0CCA                     u4851:
  2399  0CCA  2CD7               	goto	l3270
  2400  0CCB                     u4850:
  2401  0CCB                     l3268:
  2402                           
  2403                           ;C:\Program Files\Microchip\xc8\v2.31\pic\sources\c90\common\doprnt.c: 1408:    width -=
      +                           c;
  2404  0CCB  1283               	bcf	3,5	;RP0=0, select bank0
  2405  0CCC  1303               	bcf	3,6	;RP1=0, select bank0
  2406  0CCD  0849               	movf	sprintf@c,w
  2407  0CCE  00B9               	movwf	??_sprintf
  2408  0CCF  01BA               	clrf	??_sprintf+1
  2409  0CD0  0839               	movf	??_sprintf,w
  2410  0CD1  02C5               	subwf	sprintf@width,f
  2411  0CD2  083A               	movf	??_sprintf+1,w
  2412  0CD3  1C03               	skipc
  2413  0CD4  03C6               	decf	sprintf@width+1,f
  2414  0CD5  02C6               	subwf	sprintf@width+1,f
  2415  0CD6  2CDB               	goto	l3272
  2416  0CD7                     l3270:
  2417                           
  2418                           ;C:\Program Files\Microchip\xc8\v2.31\pic\sources\c90\common\doprnt.c: 1410:    width = 
      +                          0;
  2419  0CD7  1283               	bcf	3,5	;RP0=0, select bank0
  2420  0CD8  1303               	bcf	3,6	;RP1=0, select bank0
  2421  0CD9  01C5               	clrf	sprintf@width
  2422  0CDA  01C6               	clrf	sprintf@width+1
  2423  0CDB                     l3272:
  2424                           
  2425                           ;C:\Program Files\Microchip\xc8\v2.31\pic\sources\c90\common\doprnt.c: 1448:   {;C:\Prog
      +                          ram Files\Microchip\xc8\v2.31\pic\sources\c90\common\doprnt.c: 1450:    if(width
  2426  0CDB  0845               	movf	sprintf@width,w
  2427  0CDC  0446               	iorwf	sprintf@width+1,w
  2428  0CDD  1903               	btfsc	3,2
  2429  0CDE  2CE0               	goto	u4861
  2430  0CDF  2CE1               	goto	u4860
  2431  0CE0                     u4861:
  2432  0CE0  2D53               	goto	l3286
  2433  0CE1                     u4860:
  2434  0CE1                     l3274:
  2435                           
  2436                           ;C:\Program Files\Microchip\xc8\v2.31\pic\sources\c90\common\doprnt.c: 1456:      ((*sp+
      +                          + = (' ')));
  2437  0CE1  3020               	movlw	32
  2438  0CE2  00B9               	movwf	??_sprintf
  2439  0CE3  0844               	movf	sprintf@sp,w
  2440  0CE4  0084               	movwf	4
  2441  0CE5  0839               	movf	??_sprintf,w
  2442  0CE6  1383               	bcf	3,7	;select IRP bank0
  2443  0CE7  0080               	movwf	0
  2444  0CE8                     l3276:
  2445  0CE8  3001               	movlw	1
  2446  0CE9  00B9               	movwf	??_sprintf
  2447  0CEA  0839               	movf	??_sprintf,w
  2448  0CEB  07C4               	addwf	sprintf@sp,f
  2449  0CEC                     l3278:
  2450  0CEC  30FF               	movlw	255
  2451  0CED  07C5               	addwf	sprintf@width,f
  2452  0CEE  1803               	skipnc
  2453  0CEF  0AC6               	incf	sprintf@width+1,f
  2454  0CF0  30FF               	movlw	255
  2455  0CF1  07C6               	addwf	sprintf@width+1,f
  2456  0CF2  0845               	movf	sprintf@width,w
  2457  0CF3  0446               	iorwf	sprintf@width+1,w
  2458  0CF4  1D03               	btfss	3,2
  2459  0CF5  2CF7               	goto	u4871
  2460  0CF6  2CF8               	goto	u4870
  2461  0CF7                     u4871:
  2462  0CF7  2CE1               	goto	l3274
  2463  0CF8                     u4870:
  2464  0CF8  2D53               	goto	l3286
  2465  0CF9                     l3280:
  2466                           
  2467                           ;C:\Program Files\Microchip\xc8\v2.31\pic\sources\c90\common\doprnt.c: 1504:    {;C:\Pro
      +                          gram Files\Microchip\xc8\v2.31\pic\sources\c90\common\doprnt.c: 1515:     c = (val / dpo
      +                          wers[(unsigned int)prec]) % 10 + '0';
  2468  0CF9  3000               	movlw	0
  2469  0CFA  00A9               	movwf	___llmod@divisor+3
  2470  0CFB  3000               	movlw	0
  2471  0CFC  00A8               	movwf	___llmod@divisor+2
  2472  0CFD  3000               	movlw	0
  2473  0CFE  00A7               	movwf	___llmod@divisor+1
  2474  0CFF  300A               	movlw	10
  2475  0D00  00A6               	movwf	___llmod@divisor
  2476  0D01  0847               	movf	sprintf@prec,w
  2477  0D02  00B9               	movwf	??_sprintf
  2478  0D03  3001               	movlw	1
  2479  0D04                     u4885:
  2480  0D04  1003               	clrc
  2481  0D05  0DB9               	rlf	??_sprintf,f
  2482  0D06  3EFF               	addlw	-1
  2483  0D07  1D03               	skipz
  2484  0D08  2D04               	goto	u4885
  2485  0D09  1003               	clrc
  2486  0D0A  0D39               	rlf	??_sprintf,w
  2487  0D0B  3E01               	addlw	low ((_dpowers-__stringbase)| (0+32768))
  2488  0D0C  0084               	movwf	4
  2489  0D0D  160A  118A  200A  120A  158A  	fcall	stringdir
  2490  0D12  00F2               	movwf	___lldiv@divisor
  2491  0D13  160A  118A  200A  120A  158A  	fcall	stringdir
  2492  0D18  00F3               	movwf	___lldiv@divisor+1
  2493  0D19  160A  118A  200A  120A  158A  	fcall	stringdir
  2494  0D1E  00F4               	movwf	___lldiv@divisor+2
  2495  0D1F  160A  118A  200A  120A  158A  	fcall	stringdir
  2496  0D24  00F5               	movwf	___lldiv@divisor+3
  2497  0D25  0843               	movf	sprintf@val+3,w
  2498  0D26  00F9               	movwf	___lldiv@dividend+3
  2499  0D27  0842               	movf	sprintf@val+2,w
  2500  0D28  00F8               	movwf	___lldiv@dividend+2
  2501  0D29  0841               	movf	sprintf@val+1,w
  2502  0D2A  00F7               	movwf	___lldiv@dividend+1
  2503  0D2B  0840               	movf	sprintf@val,w
  2504  0D2C  00F6               	movwf	___lldiv@dividend
  2505  0D2D  160A  118A  24AA  120A  158A  	fcall	___lldiv
  2506  0D32  0875               	movf	?___lldiv+3,w
  2507  0D33  1283               	bcf	3,5	;RP0=0, select bank0
  2508  0D34  1303               	bcf	3,6	;RP1=0, select bank0
  2509  0D35  00AD               	movwf	___llmod@dividend+3
  2510  0D36  0874               	movf	?___lldiv+2,w
  2511  0D37  00AC               	movwf	___llmod@dividend+2
  2512  0D38  0873               	movf	?___lldiv+1,w
  2513  0D39  00AB               	movwf	___llmod@dividend+1
  2514  0D3A  0872               	movf	?___lldiv,w
  2515  0D3B  00AA               	movwf	___llmod@dividend
  2516  0D3C  160A  118A  23FD  120A  158A  	fcall	___llmod
  2517  0D41  1283               	bcf	3,5	;RP0=0, select bank0
  2518  0D42  1303               	bcf	3,6	;RP1=0, select bank0
  2519  0D43  0826               	movf	?___llmod,w
  2520  0D44  3E30               	addlw	48
  2521  0D45  00BA               	movwf	??_sprintf+1
  2522  0D46  083A               	movf	??_sprintf+1,w
  2523  0D47  00C9               	movwf	sprintf@c
  2524  0D48                     l3282:
  2525                           
  2526                           ;C:\Program Files\Microchip\xc8\v2.31\pic\sources\c90\common\doprnt.c: 1549:    };C:\Pro
      +                          gram Files\Microchip\xc8\v2.31\pic\sources\c90\common\doprnt.c: 1550:    ((*sp++ = (c)))
      +                          ;
  2527  0D48  0849               	movf	sprintf@c,w
  2528  0D49  00B9               	movwf	??_sprintf
  2529  0D4A  0844               	movf	sprintf@sp,w
  2530  0D4B  0084               	movwf	4
  2531  0D4C  0839               	movf	??_sprintf,w
  2532  0D4D  1383               	bcf	3,7	;select IRP bank0
  2533  0D4E  0080               	movwf	0
  2534  0D4F                     l3284:
  2535  0D4F  3001               	movlw	1
  2536  0D50  00B9               	movwf	??_sprintf
  2537  0D51  0839               	movf	??_sprintf,w
  2538  0D52  07C4               	addwf	sprintf@sp,f
  2539  0D53                     l3286:
  2540                           
  2541                           ;C:\Program Files\Microchip\xc8\v2.31\pic\sources\c90\common\doprnt.c: 1500:   while(pre
      +                          c--) {
  2542  0D53  30FF               	movlw	255
  2543  0D54  07C7               	addwf	sprintf@prec,f
  2544  0D55  1803               	skipnc
  2545  0D56  0AC8               	incf	sprintf@prec+1,f
  2546  0D57  30FF               	movlw	255
  2547  0D58  07C8               	addwf	sprintf@prec+1,f
  2548  0D59  0A47               	incf	sprintf@prec,w
  2549  0D5A  1D03               	skipz
  2550  0D5B  2D60               	goto	u4891
  2551  0D5C  0A48               	incf	sprintf@prec+1,w
  2552  0D5D  1D03               	btfss	3,2
  2553  0D5E  2D60               	goto	u4891
  2554  0D5F  2D61               	goto	u4890
  2555  0D60                     u4891:
  2556  0D60  2CF9               	goto	l3280
  2557  0D61                     u4890:
  2558  0D61                     l3288:
  2559                           
  2560                           ;C:\Program Files\Microchip\xc8\v2.31\pic\sources\c90\common\doprnt.c: 553:  while((c = 
      +                          *f++)) {
  2561  0D61  3001               	movlw	1
  2562  0D62  07B0               	addwf	sprintf@f,f
  2563  0D63  30FF               	movlw	-1
  2564  0D64  0730               	addwf	sprintf@f,w
  2565  0D65  0084               	movwf	4
  2566  0D66  160A  118A  200A  120A  158A  	fcall	stringdir
  2567  0D6B  00B9               	movwf	??_sprintf
  2568  0D6C  0839               	movf	??_sprintf,w
  2569  0D6D  00C9               	movwf	sprintf@c
  2570  0D6E  0849               	movf	sprintf@c,w
  2571  0D6F  1D03               	btfss	3,2
  2572  0D70  2D72               	goto	u4901
  2573  0D71  2D73               	goto	u4900
  2574  0D72                     u4901:
  2575  0D72  2B34               	goto	l3192
  2576  0D73                     u4900:
  2577  0D73                     l3290:
  2578                           
  2579                           ;C:\Program Files\Microchip\xc8\v2.31\pic\sources\c90\common\doprnt.c: 1564:  *sp = 0;
  2580  0D73  0844               	movf	sprintf@sp,w
  2581  0D74  0084               	movwf	4
  2582  0D75  1383               	bcf	3,7	;select IRP bank0
  2583  0D76  0180               	clrf	0
  2584  0D77                     l809:
  2585  0D77  0008               	return
  2586  0D78                     __end_of_sprintf:
  2587                           
  2588                           	psect	text3
  2589  0805                     __ptext3:	
  2590 ;; *************** function _isdigit *****************
  2591 ;; Defined at:
  2592 ;;		line 8 in file "C:\Program Files\Microchip\xc8\v2.31\pic\sources\c90\common\isdigit.c"
  2593 ;; Parameters:    Size  Location     Type
  2594 ;;  c               1    wreg     unsigned char 
  2595 ;; Auto vars:     Size  Location     Type
  2596 ;;  c               1    3[COMMON] unsigned char 
  2597 ;; Return value:  Size  Location     Type
  2598 ;;		None               void
  2599 ;; Registers used:
  2600 ;;		wreg, status,2, status,0
  2601 ;; Tracked objects:
  2602 ;;		On entry : 0/0
  2603 ;;		On exit  : 0/0
  2604 ;;		Unchanged: 0/0
  2605 ;; Data sizes:     COMMON   BANK0   BANK1   BANK3   BANK2
  2606 ;;      Params:         0       0       0       0       0
  2607 ;;      Locals:         2       0       0       0       0
  2608 ;;      Temps:          0       0       0       0       0
  2609 ;;      Totals:         2       0       0       0       0
  2610 ;;Total ram usage:        2 bytes
  2611 ;; Hardware stack levels used:    1
  2612 ;; Hardware stack levels required when called:    1
  2613 ;; This function calls:
  2614 ;;		Nothing
  2615 ;; This function is called by:
  2616 ;;		_sprintf
  2617 ;; This function uses a non-reentrant model
  2618 ;;
  2619                           
  2620                           
  2621                           ;psect for function _isdigit
  2622  0805                     _isdigit:
  2623                           
  2624                           ;incstack = 0
  2625                           ; Regs used in _isdigit: [wreg+status,2+status,0]
  2626                           ;isdigit@c stored from wreg
  2627  0805  00F3               	movwf	isdigit@c
  2628  0806                     l2230:
  2629  0806  01F2               	clrf	_isdigit$841
  2630  0807                     l2232:
  2631  0807  303A               	movlw	58
  2632  0808  0273               	subwf	isdigit@c,w
  2633  0809  1803               	skipnc
  2634  080A  280C               	goto	u2831
  2635  080B  280D               	goto	u2830
  2636  080C                     u2831:
  2637  080C  2815               	goto	l2238
  2638  080D                     u2830:
  2639  080D                     l2234:
  2640  080D  3030               	movlw	48
  2641  080E  0273               	subwf	isdigit@c,w
  2642  080F  1C03               	skipc
  2643  0810  2812               	goto	u2841
  2644  0811  2813               	goto	u2840
  2645  0812                     u2841:
  2646  0812  2815               	goto	l2238
  2647  0813                     u2840:
  2648  0813                     l2236:
  2649  0813  01F2               	clrf	_isdigit$841
  2650  0814  0AF2               	incf	_isdigit$841,f
  2651  0815                     l2238:
  2652  0815  0C72               	rrf	_isdigit$841,w
  2653  0816                     l814:
  2654  0816  0008               	return
  2655  0817                     __end_of_isdigit:
  2656                           
  2657                           	psect	text4
  2658  1388                     __ptext4:	
  2659 ;; *************** function ___wmul *****************
  2660 ;; Defined at:
  2661 ;;		line 15 in file "C:\Program Files\Microchip\xc8\v2.31\pic\sources\c90\common\Umul16.c"
  2662 ;; Parameters:    Size  Location     Type
  2663 ;;  multiplier      2    2[COMMON] unsigned int 
  2664 ;;  multiplicand    2    4[COMMON] unsigned int 
  2665 ;; Auto vars:     Size  Location     Type
  2666 ;;  product         2    6[COMMON] unsigned int 
  2667 ;; Return value:  Size  Location     Type
  2668 ;;                  2    2[COMMON] unsigned int 
  2669 ;; Registers used:
  2670 ;;		wreg, status,2, status,0
  2671 ;; Tracked objects:
  2672 ;;		On entry : 0/0
  2673 ;;		On exit  : 0/0
  2674 ;;		Unchanged: 0/0
  2675 ;; Data sizes:     COMMON   BANK0   BANK1   BANK3   BANK2
  2676 ;;      Params:         4       0       0       0       0
  2677 ;;      Locals:         2       0       0       0       0
  2678 ;;      Temps:          0       0       0       0       0
  2679 ;;      Totals:         6       0       0       0       0
  2680 ;;Total ram usage:        6 bytes
  2681 ;; Hardware stack levels used:    1
  2682 ;; Hardware stack levels required when called:    1
  2683 ;; This function calls:
  2684 ;;		Nothing
  2685 ;; This function is called by:
  2686 ;;		_sprintf
  2687 ;; This function uses a non-reentrant model
  2688 ;;
  2689                           
  2690                           
  2691                           ;psect for function ___wmul
  2692  1388                     ___wmul:
  2693  1388                     l1964:	
  2694                           ;incstack = 0
  2695                           ; Regs used in ___wmul: [wreg+status,2+status,0]
  2696                           
  2697  1388  01F6               	clrf	___wmul@product
  2698  1389  01F7               	clrf	___wmul@product+1
  2699  138A                     l1966:
  2700  138A  1C72               	btfss	___wmul@multiplier,0
  2701  138B  2B8D               	goto	u2171
  2702  138C  2B8E               	goto	u2170
  2703  138D                     u2171:
  2704  138D  2B94               	goto	l305
  2705  138E                     u2170:
  2706  138E                     l1968:
  2707  138E  0874               	movf	___wmul@multiplicand,w
  2708  138F  07F6               	addwf	___wmul@product,f
  2709  1390  1803               	skipnc
  2710  1391  0AF7               	incf	___wmul@product+1,f
  2711  1392  0875               	movf	___wmul@multiplicand+1,w
  2712  1393  07F7               	addwf	___wmul@product+1,f
  2713  1394                     l305:
  2714  1394  3001               	movlw	1
  2715  1395                     u2185:
  2716  1395  1003               	clrc
  2717  1396  0DF4               	rlf	___wmul@multiplicand,f
  2718  1397  0DF5               	rlf	___wmul@multiplicand+1,f
  2719  1398  3EFF               	addlw	-1
  2720  1399  1D03               	skipz
  2721  139A  2B95               	goto	u2185
  2722  139B                     l1970:
  2723  139B  3001               	movlw	1
  2724  139C                     u2195:
  2725  139C  1003               	clrc
  2726  139D  0CF3               	rrf	___wmul@multiplier+1,f
  2727  139E  0CF2               	rrf	___wmul@multiplier,f
  2728  139F  3EFF               	addlw	-1
  2729  13A0  1D03               	skipz
  2730  13A1  2B9C               	goto	u2195
  2731  13A2                     l1972:
  2732  13A2  0872               	movf	___wmul@multiplier,w
  2733  13A3  0473               	iorwf	___wmul@multiplier+1,w
  2734  13A4  1D03               	btfss	3,2
  2735  13A5  2BA7               	goto	u2201
  2736  13A6  2BA8               	goto	u2200
  2737  13A7                     u2201:
  2738  13A7  2B8A               	goto	l1966
  2739  13A8                     u2200:
  2740  13A8                     l1974:
  2741  13A8  0877               	movf	___wmul@product+1,w
  2742  13A9  00F3               	movwf	?___wmul+1
  2743  13AA  0876               	movf	___wmul@product,w
  2744  13AB  00F2               	movwf	?___wmul
  2745  13AC                     l307:
  2746  13AC  0008               	return
  2747  13AD                     __end_of___wmul:
  2748                           
  2749                           	psect	text5
  2750  13FD                     __ptext5:	
  2751 ;; *************** function ___llmod *****************
  2752 ;; Defined at:
  2753 ;;		line 5 in file "C:\Program Files\Microchip\xc8\v2.31\pic\sources\c90\common\llmod.c"
  2754 ;; Parameters:    Size  Location     Type
  2755 ;;  divisor         4    6[BANK0 ] unsigned long 
  2756 ;;  dividend        4   10[BANK0 ] unsigned long 
  2757 ;; Auto vars:     Size  Location     Type
  2758 ;;  counter         1   15[BANK0 ] unsigned char 
  2759 ;; Return value:  Size  Location     Type
  2760 ;;                  4    6[BANK0 ] unsigned long 
  2761 ;; Registers used:
  2762 ;;		wreg, status,2, status,0
  2763 ;; Tracked objects:
  2764 ;;		On entry : 0/0
  2765 ;;		On exit  : 0/0
  2766 ;;		Unchanged: 0/0
  2767 ;; Data sizes:     COMMON   BANK0   BANK1   BANK3   BANK2
  2768 ;;      Params:         0       8       0       0       0
  2769 ;;      Locals:         0       1       0       0       0
  2770 ;;      Temps:          0       1       0       0       0
  2771 ;;      Totals:         0      10       0       0       0
  2772 ;;Total ram usage:       10 bytes
  2773 ;; Hardware stack levels used:    1
  2774 ;; Hardware stack levels required when called:    1
  2775 ;; This function calls:
  2776 ;;		Nothing
  2777 ;; This function is called by:
  2778 ;;		_sprintf
  2779 ;; This function uses a non-reentrant model
  2780 ;;
  2781                           
  2782                           
  2783                           ;psect for function ___llmod
  2784  13FD                     ___llmod:
  2785  13FD                     l3012:	
  2786                           ;incstack = 0
  2787                           ; Regs used in ___llmod: [wreg+status,2+status,0]
  2788                           
  2789  13FD  1283               	bcf	3,5	;RP0=0, select bank0
  2790  13FE  1303               	bcf	3,6	;RP1=0, select bank0
  2791  13FF  0829               	movf	___llmod@divisor+3,w
  2792  1400  0428               	iorwf	___llmod@divisor+2,w
  2793  1401  0427               	iorwf	___llmod@divisor+1,w
  2794  1402  0426               	iorwf	___llmod@divisor,w
  2795  1403  1903               	skipnz
  2796  1404  2C06               	goto	u4251
  2797  1405  2C07               	goto	u4250
  2798  1406                     u4251:
  2799  1406  2C4A               	goto	l3028
  2800  1407                     u4250:
  2801  1407                     l3014:
  2802  1407  01AF               	clrf	___llmod@counter
  2803  1408  0AAF               	incf	___llmod@counter,f
  2804  1409  2C17               	goto	l3018
  2805  140A                     l3016:
  2806  140A  3001               	movlw	1
  2807  140B  00AE               	movwf	??___llmod
  2808  140C                     u4265:
  2809  140C  1003               	clrc
  2810  140D  0DA6               	rlf	___llmod@divisor,f
  2811  140E  0DA7               	rlf	___llmod@divisor+1,f
  2812  140F  0DA8               	rlf	___llmod@divisor+2,f
  2813  1410  0DA9               	rlf	___llmod@divisor+3,f
  2814  1411  0BAE               	decfsz	??___llmod,f
  2815  1412  2C0C               	goto	u4265
  2816  1413  3001               	movlw	1
  2817  1414  00AE               	movwf	??___llmod
  2818  1415  082E               	movf	??___llmod,w
  2819  1416  07AF               	addwf	___llmod@counter,f
  2820  1417                     l3018:
  2821  1417  1FA9               	btfss	___llmod@divisor+3,7
  2822  1418  2C1A               	goto	u4271
  2823  1419  2C1B               	goto	u4270
  2824  141A                     u4271:
  2825  141A  2C0A               	goto	l3016
  2826  141B                     u4270:
  2827  141B                     l3020:
  2828  141B  0829               	movf	___llmod@divisor+3,w
  2829  141C  022D               	subwf	___llmod@dividend+3,w
  2830  141D  1D03               	skipz
  2831  141E  2C29               	goto	u4285
  2832  141F  0828               	movf	___llmod@divisor+2,w
  2833  1420  022C               	subwf	___llmod@dividend+2,w
  2834  1421  1D03               	skipz
  2835  1422  2C29               	goto	u4285
  2836  1423  0827               	movf	___llmod@divisor+1,w
  2837  1424  022B               	subwf	___llmod@dividend+1,w
  2838  1425  1D03               	skipz
  2839  1426  2C29               	goto	u4285
  2840  1427  0826               	movf	___llmod@divisor,w
  2841  1428  022A               	subwf	___llmod@dividend,w
  2842  1429                     u4285:
  2843  1429  1C03               	skipc
  2844  142A  2C2C               	goto	u4281
  2845  142B  2C2D               	goto	u4280
  2846  142C                     u4281:
  2847  142C  2C3B               	goto	l3024
  2848  142D                     u4280:
  2849  142D                     l3022:
  2850  142D  0826               	movf	___llmod@divisor,w
  2851  142E  02AA               	subwf	___llmod@dividend,f
  2852  142F  0827               	movf	___llmod@divisor+1,w
  2853  1430  1C03               	skipc
  2854  1431  0F27               	incfsz	___llmod@divisor+1,w
  2855  1432  02AB               	subwf	___llmod@dividend+1,f
  2856  1433  0828               	movf	___llmod@divisor+2,w
  2857  1434  1C03               	skipc
  2858  1435  0F28               	incfsz	___llmod@divisor+2,w
  2859  1436  02AC               	subwf	___llmod@dividend+2,f
  2860  1437  0829               	movf	___llmod@divisor+3,w
  2861  1438  1C03               	skipc
  2862  1439  0F29               	incfsz	___llmod@divisor+3,w
  2863  143A  02AD               	subwf	___llmod@dividend+3,f
  2864  143B                     l3024:
  2865  143B  3001               	movlw	1
  2866  143C                     u4295:
  2867  143C  1003               	clrc
  2868  143D  0CA9               	rrf	___llmod@divisor+3,f
  2869  143E  0CA8               	rrf	___llmod@divisor+2,f
  2870  143F  0CA7               	rrf	___llmod@divisor+1,f
  2871  1440  0CA6               	rrf	___llmod@divisor,f
  2872  1441  3EFF               	addlw	-1
  2873  1442  1D03               	skipz
  2874  1443  2C3C               	goto	u4295
  2875  1444                     l3026:
  2876  1444  3001               	movlw	1
  2877  1445  02AF               	subwf	___llmod@counter,f
  2878  1446  1D03               	btfss	3,2
  2879  1447  2C49               	goto	u4301
  2880  1448  2C4A               	goto	u4300
  2881  1449                     u4301:
  2882  1449  2C1B               	goto	l3020
  2883  144A                     u4300:
  2884  144A                     l3028:
  2885  144A  082D               	movf	___llmod@dividend+3,w
  2886  144B  00A9               	movwf	?___llmod+3
  2887  144C  082C               	movf	___llmod@dividend+2,w
  2888  144D  00A8               	movwf	?___llmod+2
  2889  144E  082B               	movf	___llmod@dividend+1,w
  2890  144F  00A7               	movwf	?___llmod+1
  2891  1450  082A               	movf	___llmod@dividend,w
  2892  1451  00A6               	movwf	?___llmod
  2893  1452                     l527:
  2894  1452  0008               	return
  2895  1453                     __end_of___llmod:
  2896                           
  2897                           	psect	text6
  2898  0817                     __ptext6:	
  2899 ;; *************** function ___fltol *****************
  2900 ;; Defined at:
  2901 ;;		line 43 in file "C:\Program Files\Microchip\xc8\v2.31\pic\sources\c90\common\fltol.c"
  2902 ;; Parameters:    Size  Location     Type
  2903 ;;  f1              4   32[BANK0 ] unsigned long 
  2904 ;; Auto vars:     Size  Location     Type
  2905 ;;  exp1            1   42[BANK0 ] unsigned char 
  2906 ;;  sign1           1   41[BANK0 ] unsigned char 
  2907 ;; Return value:  Size  Location     Type
  2908 ;;                  4   32[BANK0 ] long 
  2909 ;; Registers used:
  2910 ;;		wreg, status,2, status,0
  2911 ;; Tracked objects:
  2912 ;;		On entry : 0/0
  2913 ;;		On exit  : 0/0
  2914 ;;		Unchanged: 0/0
  2915 ;; Data sizes:     COMMON   BANK0   BANK1   BANK3   BANK2
  2916 ;;      Params:         0       4       0       0       0
  2917 ;;      Locals:         0       2       0       0       0
  2918 ;;      Temps:          0       5       0       0       0
  2919 ;;      Totals:         0      11       0       0       0
  2920 ;;Total ram usage:       11 bytes
  2921 ;; Hardware stack levels used:    1
  2922 ;; Hardware stack levels required when called:    1
  2923 ;; This function calls:
  2924 ;;		Nothing
  2925 ;; This function is called by:
  2926 ;;		_ftoa
  2927 ;; This function uses a non-reentrant model
  2928 ;;
  2929                           
  2930                           
  2931                           ;psect for function ___fltol
  2932  0817                     ___fltol:
  2933  0817                     l2304:	
  2934                           ;incstack = 0
  2935                           ; Regs used in ___fltol: [wreg+status,2+status,0]
  2936                           
  2937  0817  1003               	clrc
  2938  0818  1283               	bcf	3,5	;RP0=0, select bank0
  2939  0819  1303               	bcf	3,6	;RP1=0, select bank0
  2940  081A  0D42               	rlf	___fltol@f1+2,w
  2941  081B  0D43               	rlf	___fltol@f1+3,w
  2942  081C  00C4               	movwf	??___fltol
  2943  081D  0844               	movf	??___fltol,w
  2944  081E  00CA               	movwf	___fltol@exp1
  2945  081F  084A               	movf	___fltol@exp1,w
  2946  0820  1D03               	btfss	3,2
  2947  0821  2823               	goto	u2971
  2948  0822  2824               	goto	u2970
  2949  0823                     u2971:
  2950  0823  282D               	goto	l2310
  2951  0824                     u2970:
  2952  0824                     l2306:
  2953  0824  3000               	movlw	0
  2954  0825  00C3               	movwf	?___fltol+3
  2955  0826  3000               	movlw	0
  2956  0827  00C2               	movwf	?___fltol+2
  2957  0828  3000               	movlw	0
  2958  0829  00C1               	movwf	?___fltol+1
  2959  082A  3000               	movlw	0
  2960  082B  00C0               	movwf	?___fltol
  2961  082C  2892               	goto	l491
  2962  082D                     l2310:
  2963  082D  0840               	movf	___fltol@f1,w
  2964  082E  00C4               	movwf	??___fltol
  2965  082F  0841               	movf	___fltol@f1+1,w
  2966  0830  00C5               	movwf	??___fltol+1
  2967  0831  0842               	movf	___fltol@f1+2,w
  2968  0832  00C6               	movwf	??___fltol+2
  2969  0833  0843               	movf	___fltol@f1+3,w
  2970  0834  00C7               	movwf	??___fltol+3
  2971  0835  301F               	movlw	31
  2972  0836                     u2985:
  2973  0836  1003               	clrc
  2974  0837  0CC7               	rrf	??___fltol+3,f
  2975  0838  0CC6               	rrf	??___fltol+2,f
  2976  0839  0CC5               	rrf	??___fltol+1,f
  2977  083A  0CC4               	rrf	??___fltol,f
  2978  083B                     u2980:
  2979  083B  3EFF               	addlw	-1
  2980  083C  1D03               	skipz
  2981  083D  2836               	goto	u2985
  2982  083E  0844               	movf	??___fltol,w
  2983  083F  00C8               	movwf	??___fltol+4
  2984  0840  0848               	movf	??___fltol+4,w
  2985  0841  00C9               	movwf	___fltol@sign1
  2986  0842                     l2312:
  2987  0842  17C2               	bsf	___fltol@f1+2,7
  2988  0843                     l2314:
  2989  0843  30FF               	movlw	255
  2990  0844  05C0               	andwf	___fltol@f1,f
  2991  0845  30FF               	movlw	255
  2992  0846  05C1               	andwf	___fltol@f1+1,f
  2993  0847  30FF               	movlw	255
  2994  0848  05C2               	andwf	___fltol@f1+2,f
  2995  0849  3000               	movlw	0
  2996  084A  05C3               	andwf	___fltol@f1+3,f
  2997  084B                     l2316:
  2998  084B  3096               	movlw	150
  2999  084C  02CA               	subwf	___fltol@exp1,f
  3000  084D                     l2318:
  3001  084D  1FCA               	btfss	___fltol@exp1,7
  3002  084E  2850               	goto	u2991
  3003  084F  2851               	goto	u2990
  3004  0850                     u2991:
  3005  0850  286B               	goto	l2328
  3006  0851                     u2990:
  3007  0851                     l2320:
  3008  0851  084A               	movf	___fltol@exp1,w
  3009  0852  3A80               	xorlw	128
  3010  0853  3E97               	addlw	151
  3011  0854  1803               	skipnc
  3012  0855  2857               	goto	u3001
  3013  0856  2858               	goto	u3000
  3014  0857                     u3001:
  3015  0857  2859               	goto	l2326
  3016  0858                     u3000:
  3017  0858  2824               	goto	l2306
  3018  0859                     l2326:
  3019  0859  3001               	movlw	1
  3020  085A                     u3015:
  3021  085A  1003               	clrc
  3022  085B  0CC3               	rrf	___fltol@f1+3,f
  3023  085C  0CC2               	rrf	___fltol@f1+2,f
  3024  085D  0CC1               	rrf	___fltol@f1+1,f
  3025  085E  0CC0               	rrf	___fltol@f1,f
  3026  085F  3EFF               	addlw	-1
  3027  0860  1D03               	skipz
  3028  0861  285A               	goto	u3015
  3029  0862  3001               	movlw	1
  3030  0863  00C4               	movwf	??___fltol
  3031  0864  0844               	movf	??___fltol,w
  3032  0865  07CA               	addwf	___fltol@exp1,f
  3033  0866  1D03               	btfss	3,2
  3034  0867  2869               	goto	u3021
  3035  0868  286A               	goto	u3020
  3036  0869                     u3021:
  3037  0869  2859               	goto	l2326
  3038  086A                     u3020:
  3039  086A  2882               	goto	l2336
  3040  086B                     l2328:
  3041  086B  3020               	movlw	32
  3042  086C  024A               	subwf	___fltol@exp1,w
  3043  086D  1C03               	skipc
  3044  086E  2870               	goto	u3031
  3045  086F  2871               	goto	u3030
  3046  0870                     u3031:
  3047  0870  287D               	goto	l498
  3048  0871                     u3030:
  3049  0871  2824               	goto	l2306
  3050  0872                     l2334:
  3051  0872  3001               	movlw	1
  3052  0873  00C4               	movwf	??___fltol
  3053  0874                     u3045:
  3054  0874  1003               	clrc
  3055  0875  0DC0               	rlf	___fltol@f1,f
  3056  0876  0DC1               	rlf	___fltol@f1+1,f
  3057  0877  0DC2               	rlf	___fltol@f1+2,f
  3058  0878  0DC3               	rlf	___fltol@f1+3,f
  3059  0879  0BC4               	decfsz	??___fltol,f
  3060  087A  2874               	goto	u3045
  3061  087B  3001               	movlw	1
  3062  087C  02CA               	subwf	___fltol@exp1,f
  3063  087D                     l498:
  3064  087D  084A               	movf	___fltol@exp1,w
  3065  087E  1D03               	btfss	3,2
  3066  087F  2881               	goto	u3051
  3067  0880  2882               	goto	u3050
  3068  0881                     u3051:
  3069  0881  2872               	goto	l2334
  3070  0882                     u3050:
  3071  0882                     l2336:
  3072  0882  0849               	movf	___fltol@sign1,w
  3073  0883  1903               	btfsc	3,2
  3074  0884  2886               	goto	u3061
  3075  0885  2887               	goto	u3060
  3076  0886                     u3061:
  3077  0886  2892               	goto	l501
  3078  0887                     u3060:
  3079  0887                     l2338:
  3080  0887  09C0               	comf	___fltol@f1,f
  3081  0888  09C1               	comf	___fltol@f1+1,f
  3082  0889  09C2               	comf	___fltol@f1+2,f
  3083  088A  09C3               	comf	___fltol@f1+3,f
  3084  088B  0AC0               	incf	___fltol@f1,f
  3085  088C  1903               	skipnz
  3086  088D  0AC1               	incf	___fltol@f1+1,f
  3087  088E  1903               	skipnz
  3088  088F  0AC2               	incf	___fltol@f1+2,f
  3089  0890  1903               	skipnz
  3090  0891  0AC3               	incf	___fltol@f1+3,f
  3091  0892                     l501:
  3092  0892                     l491:
  3093  0892  0008               	return
  3094  0893                     __end_of___fltol:
  3095                           
  3096                           	psect	text7
  3097  1364                     __ptext7:	
  3098 ;; *************** function ___flsub *****************
  3099 ;; Defined at:
  3100 ;;		line 242 in file "C:\Program Files\Microchip\xc8\v2.31\pic\sources\c90\common\sprcadd.c"
  3101 ;; Parameters:    Size  Location     Type
  3102 ;;  a               4   52[BANK0 ] long 
  3103 ;;  b               4   56[BANK0 ] long 
  3104 ;; Auto vars:     Size  Location     Type
  3105 ;;		None
  3106 ;; Return value:  Size  Location     Type
  3107 ;;                  4   52[BANK0 ] long 
  3108 ;; Registers used:
  3109 ;;		wreg, status,2, status,0, btemp+1, pclath, cstack
  3110 ;; Tracked objects:
  3111 ;;		On entry : 0/0
  3112 ;;		On exit  : 0/0
  3113 ;;		Unchanged: 0/0
  3114 ;; Data sizes:     COMMON   BANK0   BANK1   BANK3   BANK2
  3115 ;;      Params:         0       8       0       0       0
  3116 ;;      Locals:         0       0       0       0       0
  3117 ;;      Temps:          0       0       0       0       0
  3118 ;;      Totals:         0       8       0       0       0
  3119 ;;Total ram usage:        8 bytes
  3120 ;; Hardware stack levels used:    1
  3121 ;; Hardware stack levels required when called:    2
  3122 ;; This function calls:
  3123 ;;		___fladd
  3124 ;; This function is called by:
  3125 ;;		_ftoa
  3126 ;; This function uses a non-reentrant model
  3127 ;;
  3128                           
  3129                           
  3130                           ;psect for function ___flsub
  3131  1364                     ___flsub:
  3132  1364                     l2340:	
  3133                           ;incstack = 0
  3134                           ; Regs used in ___flsub: [wreg+status,2+status,0+btemp+1+pclath+cstack]
  3135                           
  3136  1364  3080               	movlw	128
  3137  1365  1283               	bcf	3,5	;RP0=0, select bank0
  3138  1366  1303               	bcf	3,6	;RP1=0, select bank0
  3139  1367  06D7               	xorwf	___flsub@a+3,f
  3140  1368                     l2342:
  3141  1368  085B               	movf	___flsub@b+3,w
  3142  1369  00C3               	movwf	___fladd@b+3
  3143  136A  085A               	movf	___flsub@b+2,w
  3144  136B  00C2               	movwf	___fladd@b+2
  3145  136C  0859               	movf	___flsub@b+1,w
  3146  136D  00C1               	movwf	___fladd@b+1
  3147  136E  0858               	movf	___flsub@b,w
  3148  136F  00C0               	movwf	___fladd@b
  3149  1370  0857               	movf	___flsub@a+3,w
  3150  1371  00C7               	movwf	___fladd@a+3
  3151  1372  0856               	movf	___flsub@a+2,w
  3152  1373  00C6               	movwf	___fladd@a+2
  3153  1374  0855               	movf	___flsub@a+1,w
  3154  1375  00C5               	movwf	___fladd@a+1
  3155  1376  0854               	movf	___flsub@a,w
  3156  1377  00C4               	movwf	___fladd@a
  3157  1378  120A  158A  2578  160A  118A  	fcall	___fladd
  3158  137D  1283               	bcf	3,5	;RP0=0, select bank0
  3159  137E  1303               	bcf	3,6	;RP1=0, select bank0
  3160  137F  0843               	movf	?___fladd+3,w
  3161  1380  00D7               	movwf	?___flsub+3
  3162  1381  0842               	movf	?___fladd+2,w
  3163  1382  00D6               	movwf	?___flsub+2
  3164  1383  0841               	movf	?___fladd+1,w
  3165  1384  00D5               	movwf	?___flsub+1
  3166  1385  0840               	movf	?___fladd,w
  3167  1386  00D4               	movwf	?___flsub
  3168  1387                     l644:
  3169  1387  0008               	return
  3170  1388                     __end_of___flsub:
  3171                           
  3172                           	psect	text8
  3173  1317                     __ptext8:	
  3174 ;; *************** function ___flneg *****************
  3175 ;; Defined at:
  3176 ;;		line 15 in file "C:\Program Files\Microchip\xc8\v2.31\pic\sources\c90\common\flneg.c"
  3177 ;; Parameters:    Size  Location     Type
  3178 ;;  f1              4    2[COMMON] long 
  3179 ;; Auto vars:     Size  Location     Type
  3180 ;;		None
  3181 ;; Return value:  Size  Location     Type
  3182 ;;                  4    2[COMMON] long 
  3183 ;; Registers used:
  3184 ;;		wreg
  3185 ;; Tracked objects:
  3186 ;;		On entry : 0/0
  3187 ;;		On exit  : 0/0
  3188 ;;		Unchanged: 0/0
  3189 ;; Data sizes:     COMMON   BANK0   BANK1   BANK3   BANK2
  3190 ;;      Params:         4       0       0       0       0
  3191 ;;      Locals:         0       0       0       0       0
  3192 ;;      Temps:          0       0       0       0       0
  3193 ;;      Totals:         4       0       0       0       0
  3194 ;;Total ram usage:        4 bytes
  3195 ;; Hardware stack levels used:    1
  3196 ;; Hardware stack levels required when called:    1
  3197 ;; This function calls:
  3198 ;;		Nothing
  3199 ;; This function is called by:
  3200 ;;		_ftoa
  3201 ;; This function uses a non-reentrant model
  3202 ;;
  3203                           
  3204                           
  3205                           ;psect for function ___flneg
  3206  1317                     ___flneg:
  3207  1317                     l2296:	
  3208                           ;incstack = 0
  3209                           ; Regs used in ___flneg: [wreg]
  3210                           
  3211  1317  0875               	movf	___flneg@f1+3,w
  3212  1318  0474               	iorwf	___flneg@f1+2,w
  3213  1319  0473               	iorwf	___flneg@f1+1,w
  3214  131A  0472               	iorwf	___flneg@f1,w
  3215  131B  1903               	skipnz
  3216  131C  2B1E               	goto	u2961
  3217  131D  2B1F               	goto	u2960
  3218  131E                     u2961:
  3219  131E  2B21               	goto	l2300
  3220  131F                     u2960:
  3221  131F                     l2298:
  3222  131F  3080               	movlw	128
  3223  1320  06F5               	xorwf	___flneg@f1+3,f
  3224  1321                     l2300:
  3225  1321                     l487:
  3226  1321  0008               	return
  3227  1322                     __end_of___flneg:
  3228                           
  3229                           	psect	text9
  3230  1581                     __ptext9:	
  3231 ;; *************** function ___flge *****************
  3232 ;; Defined at:
  3233 ;;		line 4 in file "C:\Program Files\Microchip\xc8\v2.31\pic\sources\c90\common\flge.c"
  3234 ;; Parameters:    Size  Location     Type
  3235 ;;  ff1             4    2[COMMON] long 
  3236 ;;  ff2             4    6[COMMON] long 
  3237 ;; Auto vars:     Size  Location     Type
  3238 ;;		None
  3239 ;; Return value:  Size  Location     Type
  3240 ;;		None               void
  3241 ;; Registers used:
  3242 ;;		wreg, status,2, status,0
  3243 ;; Tracked objects:
  3244 ;;		On entry : 0/0
  3245 ;;		On exit  : 0/0
  3246 ;;		Unchanged: 0/0
  3247 ;; Data sizes:     COMMON   BANK0   BANK1   BANK3   BANK2
  3248 ;;      Params:         8       0       0       0       0
  3249 ;;      Locals:         0       0       0       0       0
  3250 ;;      Temps:          0       4       0       0       0
  3251 ;;      Totals:         8       4       0       0       0
  3252 ;;Total ram usage:       12 bytes
  3253 ;; Hardware stack levels used:    1
  3254 ;; Hardware stack levels required when called:    1
  3255 ;; This function calls:
  3256 ;;		Nothing
  3257 ;; This function is called by:
  3258 ;;		_ftoa
  3259 ;; This function uses a non-reentrant model
  3260 ;;
  3261                           
  3262                           
  3263                           ;psect for function ___flge
  3264  1581                     ___flge:
  3265  1581                     l2276:	
  3266                           ;incstack = 0
  3267                           ; Regs used in ___flge: [wreg+status,2+status,0]
  3268                           
  3269  1581  3000               	movlw	0
  3270  1582  0572               	andwf	___flge@ff1,w
  3271  1583  1283               	bcf	3,5	;RP0=0, select bank0
  3272  1584  1303               	bcf	3,6	;RP1=0, select bank0
  3273  1585  00A0               	movwf	??___flge
  3274  1586  3000               	movlw	0
  3275  1587  0573               	andwf	___flge@ff1+1,w
  3276  1588  00A1               	movwf	??___flge+1
  3277  1589  3080               	movlw	128
  3278  158A  0574               	andwf	___flge@ff1+2,w
  3279  158B  00A2               	movwf	??___flge+2
  3280  158C  307F               	movlw	127
  3281  158D  0575               	andwf	___flge@ff1+3,w
  3282  158E  00A3               	movwf	??___flge+3
  3283  158F  0823               	movf	??___flge+3,w
  3284  1590  0422               	iorwf	??___flge+2,w
  3285  1591  0421               	iorwf	??___flge+1,w
  3286  1592  0420               	iorwf	??___flge,w
  3287  1593  1D03               	skipz
  3288  1594  2D96               	goto	u2891
  3289  1595  2D97               	goto	u2890
  3290  1596                     u2891:
  3291  1596  2D9F               	goto	l479
  3292  1597                     u2890:
  3293  1597                     l2278:
  3294  1597  3000               	movlw	0
  3295  1598  00F5               	movwf	___flge@ff1+3
  3296  1599  3000               	movlw	0
  3297  159A  00F4               	movwf	___flge@ff1+2
  3298  159B  3000               	movlw	0
  3299  159C  00F3               	movwf	___flge@ff1+1
  3300  159D  3000               	movlw	0
  3301  159E  00F2               	movwf	___flge@ff1
  3302  159F                     l479:
  3303  159F  3000               	movlw	0
  3304  15A0  0576               	andwf	___flge@ff2,w
  3305  15A1  00A0               	movwf	??___flge
  3306  15A2  3000               	movlw	0
  3307  15A3  0577               	andwf	___flge@ff2+1,w
  3308  15A4  00A1               	movwf	??___flge+1
  3309  15A5  3080               	movlw	128
  3310  15A6  0578               	andwf	___flge@ff2+2,w
  3311  15A7  00A2               	movwf	??___flge+2
  3312  15A8  307F               	movlw	127
  3313  15A9  0579               	andwf	___flge@ff2+3,w
  3314  15AA  00A3               	movwf	??___flge+3
  3315  15AB  0823               	movf	??___flge+3,w
  3316  15AC  0422               	iorwf	??___flge+2,w
  3317  15AD  0421               	iorwf	??___flge+1,w
  3318  15AE  0420               	iorwf	??___flge,w
  3319  15AF  1D03               	skipz
  3320  15B0  2DB2               	goto	u2901
  3321  15B1  2DB3               	goto	u2900
  3322  15B2                     u2901:
  3323  15B2  2DBB               	goto	l2282
  3324  15B3                     u2900:
  3325  15B3                     l2280:
  3326  15B3  3000               	movlw	0
  3327  15B4  00F9               	movwf	___flge@ff2+3
  3328  15B5  3000               	movlw	0
  3329  15B6  00F8               	movwf	___flge@ff2+2
  3330  15B7  3000               	movlw	0
  3331  15B8  00F7               	movwf	___flge@ff2+1
  3332  15B9  3000               	movlw	0
  3333  15BA  00F6               	movwf	___flge@ff2
  3334  15BB                     l2282:
  3335  15BB  1FF5               	btfss	___flge@ff1+3,7
  3336  15BC  2DBE               	goto	u2911
  3337  15BD  2DBF               	goto	u2910
  3338  15BE                     u2911:
  3339  15BE  2DE3               	goto	l2286
  3340  15BF                     u2910:
  3341  15BF                     l2284:
  3342  15BF  3000               	movlw	0
  3343  15C0  00A0               	movwf	??___flge
  3344  15C1  3000               	movlw	0
  3345  15C2  00A1               	movwf	??___flge+1
  3346  15C3  3000               	movlw	0
  3347  15C4  00A2               	movwf	??___flge+2
  3348  15C5  3080               	movlw	128
  3349  15C6  00A3               	movwf	??___flge+3
  3350  15C7  0872               	movf	___flge@ff1,w
  3351  15C8  02A0               	subwf	??___flge,f
  3352  15C9  0873               	movf	___flge@ff1+1,w
  3353  15CA  1C03               	skipc
  3354  15CB  0F73               	incfsz	___flge@ff1+1,w
  3355  15CC  2DCE               	goto	u2921
  3356  15CD  2DCF               	goto	u2922
  3357  15CE                     u2921:
  3358  15CE  02A1               	subwf	??___flge+1,f
  3359  15CF                     u2922:
  3360  15CF  0874               	movf	___flge@ff1+2,w
  3361  15D0  1C03               	skipc
  3362  15D1  0F74               	incfsz	___flge@ff1+2,w
  3363  15D2  2DD4               	goto	u2923
  3364  15D3  2DD5               	goto	u2924
  3365  15D4                     u2923:
  3366  15D4  02A2               	subwf	??___flge+2,f
  3367  15D5                     u2924:
  3368  15D5  0875               	movf	___flge@ff1+3,w
  3369  15D6  1C03               	skipc
  3370  15D7  0F75               	incfsz	___flge@ff1+3,w
  3371  15D8  2DDA               	goto	u2925
  3372  15D9  2DDB               	goto	u2926
  3373  15DA                     u2925:
  3374  15DA  02A3               	subwf	??___flge+3,f
  3375  15DB                     u2926:
  3376  15DB  0823               	movf	??___flge+3,w
  3377  15DC  00F5               	movwf	___flge@ff1+3
  3378  15DD  0822               	movf	??___flge+2,w
  3379  15DE  00F4               	movwf	___flge@ff1+2
  3380  15DF  0821               	movf	??___flge+1,w
  3381  15E0  00F3               	movwf	___flge@ff1+1
  3382  15E1  0820               	movf	??___flge,w
  3383  15E2  00F2               	movwf	___flge@ff1
  3384  15E3                     l2286:
  3385  15E3  1FF9               	btfss	___flge@ff2+3,7
  3386  15E4  2DE6               	goto	u2931
  3387  15E5  2DE7               	goto	u2930
  3388  15E6                     u2931:
  3389  15E6  2E0B               	goto	l482
  3390  15E7                     u2930:
  3391  15E7                     l2288:
  3392  15E7  3000               	movlw	0
  3393  15E8  00A0               	movwf	??___flge
  3394  15E9  3000               	movlw	0
  3395  15EA  00A1               	movwf	??___flge+1
  3396  15EB  3000               	movlw	0
  3397  15EC  00A2               	movwf	??___flge+2
  3398  15ED  3080               	movlw	128
  3399  15EE  00A3               	movwf	??___flge+3
  3400  15EF  0876               	movf	___flge@ff2,w
  3401  15F0  02A0               	subwf	??___flge,f
  3402  15F1  0877               	movf	___flge@ff2+1,w
  3403  15F2  1C03               	skipc
  3404  15F3  0F77               	incfsz	___flge@ff2+1,w
  3405  15F4  2DF6               	goto	u2941
  3406  15F5  2DF7               	goto	u2942
  3407  15F6                     u2941:
  3408  15F6  02A1               	subwf	??___flge+1,f
  3409  15F7                     u2942:
  3410  15F7  0878               	movf	___flge@ff2+2,w
  3411  15F8  1C03               	skipc
  3412  15F9  0F78               	incfsz	___flge@ff2+2,w
  3413  15FA  2DFC               	goto	u2943
  3414  15FB  2DFD               	goto	u2944
  3415  15FC                     u2943:
  3416  15FC  02A2               	subwf	??___flge+2,f
  3417  15FD                     u2944:
  3418  15FD  0879               	movf	___flge@ff2+3,w
  3419  15FE  1C03               	skipc
  3420  15FF  0F79               	incfsz	___flge@ff2+3,w
  3421  1600  2E02               	goto	u2945
  3422  1601  2E03               	goto	u2946
  3423  1602                     u2945:
  3424  1602  02A3               	subwf	??___flge+3,f
  3425  1603                     u2946:
  3426  1603  0823               	movf	??___flge+3,w
  3427  1604  00F9               	movwf	___flge@ff2+3
  3428  1605  0822               	movf	??___flge+2,w
  3429  1606  00F8               	movwf	___flge@ff2+2
  3430  1607  0821               	movf	??___flge+1,w
  3431  1608  00F7               	movwf	___flge@ff2+1
  3432  1609  0820               	movf	??___flge,w
  3433  160A  00F6               	movwf	___flge@ff2
  3434  160B                     l482:
  3435  160B  3080               	movlw	128
  3436  160C  06F5               	xorwf	___flge@ff1+3,f
  3437  160D  3080               	movlw	128
  3438  160E  06F9               	xorwf	___flge@ff2+3,f
  3439  160F  0879               	movf	___flge@ff2+3,w
  3440  1610  0275               	subwf	___flge@ff1+3,w
  3441  1611  1D03               	skipz
  3442  1612  2E1D               	goto	u2955
  3443  1613  0878               	movf	___flge@ff2+2,w
  3444  1614  0274               	subwf	___flge@ff1+2,w
  3445  1615  1D03               	skipz
  3446  1616  2E1D               	goto	u2955
  3447  1617  0877               	movf	___flge@ff2+1,w
  3448  1618  0273               	subwf	___flge@ff1+1,w
  3449  1619  1D03               	skipz
  3450  161A  2E1D               	goto	u2955
  3451  161B  0876               	movf	___flge@ff2,w
  3452  161C  0272               	subwf	___flge@ff1,w
  3453  161D                     u2955:
  3454  161D  1803               	skipnc
  3455  161E  2E20               	goto	u2951
  3456  161F  2E21               	goto	u2950
  3457  1620                     u2951:
  3458  1620  2E23               	goto	l2292
  3459  1621                     u2950:
  3460  1621                     l2290:
  3461  1621  1003               	clrc
  3462  1622  2E24               	goto	l483
  3463  1623                     l2292:
  3464  1623  1403               	setc
  3465  1624                     l483:
  3466  1624  0008               	return
  3467  1625                     __end_of___flge:
  3468                           
  3469                           	psect	text10
  3470  1453                     __ptext10:	
  3471 ;; *************** function _UARTSendString *****************
  3472 ;; Defined at:
  3473 ;;		line 49 in file "UART.c"
  3474 ;; Parameters:    Size  Location     Type
  3475 ;;  str             2    3[COMMON] PTR const unsigned char 
  3476 ;;		 -> NULL(0), ftoa@buf(17), STR_6(2), STR_5(2), 
  3477 ;;		 -> STR_4(2), STR_3(2), STR_2(2), STR_1(2), 
  3478 ;;  max_length      1    5[COMMON] const unsigned char 
  3479 ;; Auto vars:     Size  Location     Type
  3480 ;;  i               2    0[BANK0 ] int 
  3481 ;; Return value:  Size  Location     Type
  3482 ;;                  1    wreg      void 
  3483 ;; Registers used:
  3484 ;;		wreg, fsr0l, fsr0h, status,2, status,0, btemp+1, pclath, cstack
  3485 ;; Tracked objects:
  3486 ;;		On entry : 0/0
  3487 ;;		On exit  : 0/0
  3488 ;;		Unchanged: 0/0
  3489 ;; Data sizes:     COMMON   BANK0   BANK1   BANK3   BANK2
  3490 ;;      Params:         3       0       0       0       0
  3491 ;;      Locals:         0       2       0       0       0
  3492 ;;      Temps:          3       0       0       0       0
  3493 ;;      Totals:         6       2       0       0       0
  3494 ;;Total ram usage:        8 bytes
  3495 ;; Hardware stack levels used:    1
  3496 ;; Hardware stack levels required when called:    2
  3497 ;; This function calls:
  3498 ;;		_UARTSendChar
  3499 ;; This function is called by:
  3500 ;;		_main
  3501 ;; This function uses a non-reentrant model
  3502 ;;
  3503                           
  3504                           
  3505                           ;psect for function _UARTSendString
  3506  1453                     _UARTSendString:
  3507  1453                     l3400:	
  3508                           ;incstack = 0
  3509                           ; Regs used in _UARTSendString: [wreg-fsr0h+status,2+status,0+btemp+1+pclath+cstack]
  3510                           
  3511                           
  3512                           ;UART.c: 50:     int i = 0;
  3513  1453  1283               	bcf	3,5	;RP0=0, select bank0
  3514  1454  1303               	bcf	3,6	;RP1=0, select bank0
  3515  1455  01A0               	clrf	UARTSendString@i
  3516  1456  01A1               	clrf	UARTSendString@i+1
  3517                           
  3518                           ;UART.c: 51:     for (i=0 ; i<max_length && str[i]!='\0' ; i++) {
  3519  1457  01A0               	clrf	UARTSendString@i
  3520  1458  01A1               	clrf	UARTSendString@i+1
  3521  1459  2C7E               	goto	l3406
  3522  145A                     l3402:
  3523                           
  3524                           ;UART.c: 52:         UARTSendChar(str[i]);
  3525  145A  0820               	movf	UARTSendString@i,w
  3526  145B  0773               	addwf	UARTSendString@str,w
  3527  145C  00F7               	movwf	??_UARTSendString+1
  3528  145D  0874               	movf	UARTSendString@str+1,w
  3529  145E  00F6               	movwf	??_UARTSendString
  3530  145F  1803               	skipnc
  3531  1460  0AF6               	incf	??_UARTSendString,f
  3532  1461  1FA0               	btfss	UARTSendString@i,7
  3533  1462  2C64               	goto	u4980
  3534  1463  03F6               	decf	??_UARTSendString,f
  3535  1464                     u4980:
  3536  1464  0876               	movf	??_UARTSendString,w
  3537  1465  00F8               	movwf	??_UARTSendString+2
  3538  1466  0878               	movf	??_UARTSendString+2,w
  3539  1467  1283               	bcf	3,5	;RP0=0, select bank0
  3540  1468  1303               	bcf	3,6	;RP1=0, select bank0
  3541  1469  00FF               	movwf	btemp+1
  3542  146A  0877               	movf	??_UARTSendString+1,w
  3543  146B  0084               	movwf	4
  3544  146C  160A  118A  2000  160A  118A  	fcall	stringtab
  3545  1471  160A  118A  232E  160A  118A  	fcall	_UARTSendChar
  3546  1476                     l3404:
  3547                           
  3548                           ;UART.c: 53:     }
  3549  1476  3001               	movlw	1
  3550  1477  1283               	bcf	3,5	;RP0=0, select bank0
  3551  1478  1303               	bcf	3,6	;RP1=0, select bank0
  3552  1479  07A0               	addwf	UARTSendString@i,f
  3553  147A  1803               	skipnc
  3554  147B  0AA1               	incf	UARTSendString@i+1,f
  3555  147C  3000               	movlw	0
  3556  147D  07A1               	addwf	UARTSendString@i+1,f
  3557  147E                     l3406:
  3558  147E  0821               	movf	UARTSendString@i+1,w
  3559  147F  3A80               	xorlw	128
  3560  1480  00F6               	movwf	??_UARTSendString
  3561  1481  3080               	movlw	128
  3562  1482  0276               	subwf	??_UARTSendString,w
  3563  1483  1D03               	skipz
  3564  1484  2C87               	goto	u4995
  3565  1485  0875               	movf	UARTSendString@max_length,w
  3566  1486  0220               	subwf	UARTSendString@i,w
  3567  1487                     u4995:
  3568  1487  1803               	skipnc
  3569  1488  2C8A               	goto	u4991
  3570  1489  2C8B               	goto	u4990
  3571  148A                     u4991:
  3572  148A  2CA9               	goto	l173
  3573  148B                     u4990:
  3574  148B                     l3408:
  3575  148B  1283               	bcf	3,5	;RP0=0, select bank0
  3576  148C  1303               	bcf	3,6	;RP1=0, select bank0
  3577  148D  0820               	movf	UARTSendString@i,w
  3578  148E  0773               	addwf	UARTSendString@str,w
  3579  148F  00F7               	movwf	??_UARTSendString+1
  3580  1490  0874               	movf	UARTSendString@str+1,w
  3581  1491  00F6               	movwf	??_UARTSendString
  3582  1492  1803               	skipnc
  3583  1493  0AF6               	incf	??_UARTSendString,f
  3584  1494  1FA0               	btfss	UARTSendString@i,7
  3585  1495  2C97               	goto	u5000
  3586  1496  03F6               	decf	??_UARTSendString,f
  3587  1497                     u5000:
  3588  1497  0876               	movf	??_UARTSendString,w
  3589  1498  00F8               	movwf	??_UARTSendString+2
  3590  1499  0878               	movf	??_UARTSendString+2,w
  3591  149A  1283               	bcf	3,5	;RP0=0, select bank0
  3592  149B  1303               	bcf	3,6	;RP1=0, select bank0
  3593  149C  00FF               	movwf	btemp+1
  3594  149D  0877               	movf	??_UARTSendString+1,w
  3595  149E  0084               	movwf	4
  3596  149F  160A  118A  2000  160A  118A  	fcall	stringtab
  3597  14A4  3A00               	xorlw	0
  3598  14A5  1D03               	skipz
  3599  14A6  2CA8               	goto	u5011
  3600  14A7  2CA9               	goto	u5010
  3601  14A8                     u5011:
  3602  14A8  2C5A               	goto	l3402
  3603  14A9                     u5010:
  3604  14A9                     l173:
  3605  14A9  0008               	return
  3606  14AA                     __end_of_UARTSendString:
  3607                           
  3608                           	psect	text11
  3609  132E                     __ptext11:	
  3610 ;; *************** function _UARTSendChar *****************
  3611 ;; Defined at:
  3612 ;;		line 39 in file "UART.c"
  3613 ;; Parameters:    Size  Location     Type
  3614 ;;  c               1    wreg     const unsigned char 
  3615 ;; Auto vars:     Size  Location     Type
  3616 ;;  c               1    2[COMMON] const unsigned char 
  3617 ;; Return value:  Size  Location     Type
  3618 ;;                  1    wreg      void 
  3619 ;; Registers used:
  3620 ;;		wreg
  3621 ;; Tracked objects:
  3622 ;;		On entry : 0/0
  3623 ;;		On exit  : 0/0
  3624 ;;		Unchanged: 0/0
  3625 ;; Data sizes:     COMMON   BANK0   BANK1   BANK3   BANK2
  3626 ;;      Params:         0       0       0       0       0
  3627 ;;      Locals:         1       0       0       0       0
  3628 ;;      Temps:          0       0       0       0       0
  3629 ;;      Totals:         1       0       0       0       0
  3630 ;;Total ram usage:        1 bytes
  3631 ;; Hardware stack levels used:    1
  3632 ;; Hardware stack levels required when called:    1
  3633 ;; This function calls:
  3634 ;;		Nothing
  3635 ;; This function is called by:
  3636 ;;		_main
  3637 ;;		_UARTSendString
  3638 ;; This function uses a non-reentrant model
  3639 ;;
  3640                           
  3641                           
  3642                           ;psect for function _UARTSendChar
  3643  132E                     _UARTSendChar:
  3644                           
  3645                           ;incstack = 0
  3646                           ; Regs used in _UARTSendChar: [wreg]
  3647                           ;UARTSendChar@c stored from wreg
  3648  132E  00F2               	movwf	UARTSendChar@c
  3649  132F                     l3046:
  3650  132F                     l162:	
  3651                           ;UART.c: 40:     while (TXSTAbits.TRMT == 0);
  3652                           
  3653  132F  1683               	bsf	3,5	;RP0=1, select bank1
  3654  1330  1303               	bcf	3,6	;RP1=0, select bank1
  3655  1331  1C98               	btfss	24,1	;volatile
  3656  1332  2B34               	goto	u4341
  3657  1333  2B35               	goto	u4340
  3658  1334                     u4341:
  3659  1334  2B2F               	goto	l162
  3660  1335                     u4340:
  3661  1335                     l3048:
  3662                           
  3663                           ;UART.c: 41:     TXREG = c;
  3664  1335  0872               	movf	UARTSendChar@c,w
  3665  1336  1283               	bcf	3,5	;RP0=0, select bank0
  3666  1337  1303               	bcf	3,6	;RP1=0, select bank0
  3667  1338  0099               	movwf	25	;volatile
  3668  1339                     l165:
  3669  1339  0008               	return
  3670  133A                     __end_of_UARTSendChar:
  3671                           
  3672                           	psect	text12
  3673  1512                     __ptext12:	
  3674 ;; *************** function _UARTInit *****************
  3675 ;; Defined at:
  3676 ;;		line 8 in file "UART.c"
  3677 ;; Parameters:    Size  Location     Type
  3678 ;;  baud_rate       4    6[BANK0 ] const unsigned long 
  3679 ;;  BRGH            1   10[BANK0 ] const unsigned char 
  3680 ;; Auto vars:     Size  Location     Type
  3681 ;;		None
  3682 ;; Return value:  Size  Location     Type
  3683 ;;                  1    wreg      void 
  3684 ;; Registers used:
  3685 ;;		wreg, status,2, status,0, pclath, cstack
  3686 ;; Tracked objects:
  3687 ;;		On entry : 0/0
  3688 ;;		On exit  : 0/0
  3689 ;;		Unchanged: 0/0
  3690 ;; Data sizes:     COMMON   BANK0   BANK1   BANK3   BANK2
  3691 ;;      Params:         0       5       0       0       0
  3692 ;;      Locals:         0       0       0       0       0
  3693 ;;      Temps:          0       4       0       0       0
  3694 ;;      Totals:         0       9       0       0       0
  3695 ;;Total ram usage:        9 bytes
  3696 ;; Hardware stack levels used:    1
  3697 ;; Hardware stack levels required when called:    2
  3698 ;; This function calls:
  3699 ;;		___lldiv
  3700 ;; This function is called by:
  3701 ;;		_main
  3702 ;; This function uses a non-reentrant model
  3703 ;;
  3704                           
  3705                           
  3706                           ;psect for function _UARTInit
  3707  1512                     _UARTInit:
  3708  1512                     l3298:	
  3709                           ;incstack = 0
  3710                           ; Regs used in _UARTInit: [wreg+status,2+status,0+pclath+cstack]
  3711                           
  3712                           
  3713                           ;UART.c: 10:     if (BRGH == 0) {
  3714  1512  1283               	bcf	3,5	;RP0=0, select bank0
  3715  1513  1303               	bcf	3,6	;RP1=0, select bank0
  3716  1514  082A               	movf	UARTInit@BRGH,w
  3717  1515  1D03               	btfss	3,2
  3718  1516  2D18               	goto	u4911
  3719  1517  2D19               	goto	u4910
  3720  1518                     u4911:
  3721  1518  2D46               	goto	l3304
  3722  1519                     u4910:
  3723  1519                     l3300:
  3724                           
  3725                           ;UART.c: 11:         SPBRG = 4000000/(64*baud_rate) - 1;
  3726  1519  0826               	movf	UARTInit@baud_rate,w
  3727  151A  00AB               	movwf	??_UARTInit
  3728  151B  0827               	movf	UARTInit@baud_rate+1,w
  3729  151C  00AC               	movwf	??_UARTInit+1
  3730  151D  0828               	movf	UARTInit@baud_rate+2,w
  3731  151E  00AD               	movwf	??_UARTInit+2
  3732  151F  0829               	movf	UARTInit@baud_rate+3,w
  3733  1520  00AE               	movwf	??_UARTInit+3
  3734  1521  3006               	movlw	6
  3735  1522                     u4925:
  3736  1522  1003               	clrc
  3737  1523  0DAB               	rlf	??_UARTInit,f
  3738  1524  0DAC               	rlf	??_UARTInit+1,f
  3739  1525  0DAD               	rlf	??_UARTInit+2,f
  3740  1526  0DAE               	rlf	??_UARTInit+3,f
  3741  1527                     u4920:
  3742  1527  3EFF               	addlw	-1
  3743  1528  1D03               	skipz
  3744  1529  2D22               	goto	u4925
  3745  152A  082E               	movf	??_UARTInit+3,w
  3746  152B  00F5               	movwf	___lldiv@divisor+3
  3747  152C  082D               	movf	??_UARTInit+2,w
  3748  152D  00F4               	movwf	___lldiv@divisor+2
  3749  152E  082C               	movf	??_UARTInit+1,w
  3750  152F  00F3               	movwf	___lldiv@divisor+1
  3751  1530  082B               	movf	??_UARTInit,w
  3752  1531  00F2               	movwf	___lldiv@divisor
  3753  1532  3000               	movlw	0
  3754  1533  00F9               	movwf	___lldiv@dividend+3
  3755  1534  303D               	movlw	61
  3756  1535  00F8               	movwf	___lldiv@dividend+2
  3757  1536  3009               	movlw	9
  3758  1537  00F7               	movwf	___lldiv@dividend+1
  3759  1538  3000               	movlw	0
  3760  1539  00F6               	movwf	___lldiv@dividend
  3761  153A  160A  118A  24AA  160A  118A  	fcall	___lldiv
  3762  153F  0872               	movf	?___lldiv,w
  3763  1540  3EFF               	addlw	255
  3764  1541  1683               	bsf	3,5	;RP0=1, select bank1
  3765  1542  1303               	bcf	3,6	;RP1=0, select bank1
  3766  1543  0099               	movwf	25	;volatile
  3767  1544                     l3302:
  3768                           
  3769                           ;UART.c: 12:         TXSTAbits.BRGH = 0;
  3770  1544  1118               	bcf	24,2	;volatile
  3771                           
  3772                           ;UART.c: 13:     } else {
  3773  1545  2D72               	goto	l3308
  3774  1546                     l3304:
  3775                           
  3776                           ;UART.c: 14:         SPBRG = 4000000/(16*baud_rate) - 1;
  3777  1546  0826               	movf	UARTInit@baud_rate,w
  3778  1547  00AB               	movwf	??_UARTInit
  3779  1548  0827               	movf	UARTInit@baud_rate+1,w
  3780  1549  00AC               	movwf	??_UARTInit+1
  3781  154A  0828               	movf	UARTInit@baud_rate+2,w
  3782  154B  00AD               	movwf	??_UARTInit+2
  3783  154C  0829               	movf	UARTInit@baud_rate+3,w
  3784  154D  00AE               	movwf	??_UARTInit+3
  3785  154E  3004               	movlw	4
  3786  154F                     u4935:
  3787  154F  1003               	clrc
  3788  1550  0DAB               	rlf	??_UARTInit,f
  3789  1551  0DAC               	rlf	??_UARTInit+1,f
  3790  1552  0DAD               	rlf	??_UARTInit+2,f
  3791  1553  0DAE               	rlf	??_UARTInit+3,f
  3792  1554                     u4930:
  3793  1554  3EFF               	addlw	-1
  3794  1555  1D03               	skipz
  3795  1556  2D4F               	goto	u4935
  3796  1557  082E               	movf	??_UARTInit+3,w
  3797  1558  00F5               	movwf	___lldiv@divisor+3
  3798  1559  082D               	movf	??_UARTInit+2,w
  3799  155A  00F4               	movwf	___lldiv@divisor+2
  3800  155B  082C               	movf	??_UARTInit+1,w
  3801  155C  00F3               	movwf	___lldiv@divisor+1
  3802  155D  082B               	movf	??_UARTInit,w
  3803  155E  00F2               	movwf	___lldiv@divisor
  3804  155F  3000               	movlw	0
  3805  1560  00F9               	movwf	___lldiv@dividend+3
  3806  1561  303D               	movlw	61
  3807  1562  00F8               	movwf	___lldiv@dividend+2
  3808  1563  3009               	movlw	9
  3809  1564  00F7               	movwf	___lldiv@dividend+1
  3810  1565  3000               	movlw	0
  3811  1566  00F6               	movwf	___lldiv@dividend
  3812  1567  160A  118A  24AA  160A  118A  	fcall	___lldiv
  3813  156C  0872               	movf	?___lldiv,w
  3814  156D  3EFF               	addlw	255
  3815  156E  1683               	bsf	3,5	;RP0=1, select bank1
  3816  156F  1303               	bcf	3,6	;RP1=0, select bank1
  3817  1570  0099               	movwf	25	;volatile
  3818  1571                     l3306:
  3819                           
  3820                           ;UART.c: 15:         TXSTAbits.BRGH = 1;
  3821  1571  1518               	bsf	24,2	;volatile
  3822  1572                     l3308:
  3823                           
  3824                           ;UART.c: 19:     TXSTAbits.TX9 = 0;
  3825  1572  1318               	bcf	24,6	;volatile
  3826  1573                     l3310:
  3827                           
  3828                           ;UART.c: 20:     TXSTAbits.TXEN = 1;
  3829  1573  1698               	bsf	24,5	;volatile
  3830  1574                     l3312:
  3831                           
  3832                           ;UART.c: 21:     TXSTAbits.SYNC = 0;
  3833  1574  1218               	bcf	24,4	;volatile
  3834  1575                     l3314:
  3835                           
  3836                           ;UART.c: 24:     RCSTAbits.SPEN = 1;
  3837  1575  1283               	bcf	3,5	;RP0=0, select bank0
  3838  1576  1303               	bcf	3,6	;RP1=0, select bank0
  3839  1577  1798               	bsf	24,7	;volatile
  3840  1578                     l3316:
  3841                           
  3842                           ;UART.c: 25:     RCSTAbits.RX9 = 0;
  3843  1578  1318               	bcf	24,6	;volatile
  3844  1579                     l3318:
  3845                           
  3846                           ;UART.c: 26:     RCSTAbits.CREN = 1;
  3847  1579  1618               	bsf	24,4	;volatile
  3848  157A                     l3320:
  3849                           
  3850                           ;UART.c: 27:     RCSTAbits.FERR = 0;
  3851  157A  1118               	bcf	24,2	;volatile
  3852  157B                     l3322:
  3853                           
  3854                           ;UART.c: 28:     RCSTAbits.OERR = 0;
  3855  157B  1098               	bcf	24,1	;volatile
  3856  157C                     l3324:
  3857                           
  3858                           ;UART.c: 31:     TRISCbits.TRISC7 = 1;
  3859  157C  1683               	bsf	3,5	;RP0=1, select bank1
  3860  157D  1303               	bcf	3,6	;RP1=0, select bank1
  3861  157E  1787               	bsf	7,7	;volatile
  3862  157F                     l3326:
  3863                           
  3864                           ;UART.c: 32:     TRISCbits.TRISC6 = 0;
  3865  157F  1307               	bcf	7,6	;volatile
  3866  1580                     l159:
  3867  1580  0008               	return
  3868  1581                     __end_of_UARTInit:
  3869                           
  3870                           	psect	text13
  3871  14AA                     __ptext13:	
  3872 ;; *************** function ___lldiv *****************
  3873 ;; Defined at:
  3874 ;;		line 5 in file "C:\Program Files\Microchip\xc8\v2.31\pic\sources\c90\common\__lldiv.c"
  3875 ;; Parameters:    Size  Location     Type
  3876 ;;  divisor         4    2[COMMON] unsigned long 
  3877 ;;  dividend        4    6[COMMON] unsigned long 
  3878 ;; Auto vars:     Size  Location     Type
  3879 ;;  quotient        4    1[BANK0 ] unsigned long 
  3880 ;;  counter         1    5[BANK0 ] unsigned char 
  3881 ;; Return value:  Size  Location     Type
  3882 ;;                  4    2[COMMON] unsigned long 
  3883 ;; Registers used:
  3884 ;;		wreg, status,2, status,0
  3885 ;; Tracked objects:
  3886 ;;		On entry : 0/0
  3887 ;;		On exit  : 0/0
  3888 ;;		Unchanged: 0/0
  3889 ;; Data sizes:     COMMON   BANK0   BANK1   BANK3   BANK2
  3890 ;;      Params:         8       0       0       0       0
  3891 ;;      Locals:         0       5       0       0       0
  3892 ;;      Temps:          0       1       0       0       0
  3893 ;;      Totals:         8       6       0       0       0
  3894 ;;Total ram usage:       14 bytes
  3895 ;; Hardware stack levels used:    1
  3896 ;; Hardware stack levels required when called:    1
  3897 ;; This function calls:
  3898 ;;		Nothing
  3899 ;; This function is called by:
  3900 ;;		_UARTInit
  3901 ;;		_sprintf
  3902 ;; This function uses a non-reentrant model
  3903 ;;
  3904                           
  3905                           
  3906                           ;psect for function ___lldiv
  3907  14AA                     ___lldiv:
  3908  14AA                     l2988:	
  3909                           ;incstack = 0
  3910                           ; Regs used in ___lldiv: [wreg+status,2+status,0]
  3911                           
  3912  14AA  3000               	movlw	0
  3913  14AB  1283               	bcf	3,5	;RP0=0, select bank0
  3914  14AC  1303               	bcf	3,6	;RP1=0, select bank0
  3915  14AD  00A4               	movwf	___lldiv@quotient+3
  3916  14AE  3000               	movlw	0
  3917  14AF  00A3               	movwf	___lldiv@quotient+2
  3918  14B0  3000               	movlw	0
  3919  14B1  00A2               	movwf	___lldiv@quotient+1
  3920  14B2  3000               	movlw	0
  3921  14B3  00A1               	movwf	___lldiv@quotient
  3922  14B4  0875               	movf	___lldiv@divisor+3,w
  3923  14B5  0474               	iorwf	___lldiv@divisor+2,w
  3924  14B6  0473               	iorwf	___lldiv@divisor+1,w
  3925  14B7  0472               	iorwf	___lldiv@divisor,w
  3926  14B8  1903               	skipnz
  3927  14B9  2CBB               	goto	u4181
  3928  14BA  2CBC               	goto	u4180
  3929  14BB                     u4181:
  3930  14BB  2D09               	goto	l3008
  3931  14BC                     u4180:
  3932  14BC                     l2990:
  3933  14BC  01A5               	clrf	___lldiv@counter
  3934  14BD  0AA5               	incf	___lldiv@counter,f
  3935  14BE  2CCC               	goto	l2994
  3936  14BF                     l2992:
  3937  14BF  3001               	movlw	1
  3938  14C0  00A0               	movwf	??___lldiv
  3939  14C1                     u4195:
  3940  14C1  1003               	clrc
  3941  14C2  0DF2               	rlf	___lldiv@divisor,f
  3942  14C3  0DF3               	rlf	___lldiv@divisor+1,f
  3943  14C4  0DF4               	rlf	___lldiv@divisor+2,f
  3944  14C5  0DF5               	rlf	___lldiv@divisor+3,f
  3945  14C6  0BA0               	decfsz	??___lldiv,f
  3946  14C7  2CC1               	goto	u4195
  3947  14C8  3001               	movlw	1
  3948  14C9  00A0               	movwf	??___lldiv
  3949  14CA  0820               	movf	??___lldiv,w
  3950  14CB  07A5               	addwf	___lldiv@counter,f
  3951  14CC                     l2994:
  3952  14CC  1FF5               	btfss	___lldiv@divisor+3,7
  3953  14CD  2CCF               	goto	u4201
  3954  14CE  2CD0               	goto	u4200
  3955  14CF                     u4201:
  3956  14CF  2CBF               	goto	l2992
  3957  14D0                     u4200:
  3958  14D0                     l2996:
  3959  14D0  3001               	movlw	1
  3960  14D1  00A0               	movwf	??___lldiv
  3961  14D2                     u4215:
  3962  14D2  1003               	clrc
  3963  14D3  0DA1               	rlf	___lldiv@quotient,f
  3964  14D4  0DA2               	rlf	___lldiv@quotient+1,f
  3965  14D5  0DA3               	rlf	___lldiv@quotient+2,f
  3966  14D6  0DA4               	rlf	___lldiv@quotient+3,f
  3967  14D7  0BA0               	decfsz	??___lldiv,f
  3968  14D8  2CD2               	goto	u4215
  3969  14D9                     l2998:
  3970  14D9  0875               	movf	___lldiv@divisor+3,w
  3971  14DA  0279               	subwf	___lldiv@dividend+3,w
  3972  14DB  1D03               	skipz
  3973  14DC  2CE7               	goto	u4225
  3974  14DD  0874               	movf	___lldiv@divisor+2,w
  3975  14DE  0278               	subwf	___lldiv@dividend+2,w
  3976  14DF  1D03               	skipz
  3977  14E0  2CE7               	goto	u4225
  3978  14E1  0873               	movf	___lldiv@divisor+1,w
  3979  14E2  0277               	subwf	___lldiv@dividend+1,w
  3980  14E3  1D03               	skipz
  3981  14E4  2CE7               	goto	u4225
  3982  14E5  0872               	movf	___lldiv@divisor,w
  3983  14E6  0276               	subwf	___lldiv@dividend,w
  3984  14E7                     u4225:
  3985  14E7  1C03               	skipc
  3986  14E8  2CEA               	goto	u4221
  3987  14E9  2CEB               	goto	u4220
  3988  14EA                     u4221:
  3989  14EA  2CFA               	goto	l3004
  3990  14EB                     u4220:
  3991  14EB                     l3000:
  3992  14EB  0872               	movf	___lldiv@divisor,w
  3993  14EC  02F6               	subwf	___lldiv@dividend,f
  3994  14ED  0873               	movf	___lldiv@divisor+1,w
  3995  14EE  1C03               	skipc
  3996  14EF  0F73               	incfsz	___lldiv@divisor+1,w
  3997  14F0  02F7               	subwf	___lldiv@dividend+1,f
  3998  14F1  0874               	movf	___lldiv@divisor+2,w
  3999  14F2  1C03               	skipc
  4000  14F3  0F74               	incfsz	___lldiv@divisor+2,w
  4001  14F4  02F8               	subwf	___lldiv@dividend+2,f
  4002  14F5  0875               	movf	___lldiv@divisor+3,w
  4003  14F6  1C03               	skipc
  4004  14F7  0F75               	incfsz	___lldiv@divisor+3,w
  4005  14F8  02F9               	subwf	___lldiv@dividend+3,f
  4006  14F9                     l3002:
  4007  14F9  1421               	bsf	___lldiv@quotient,0
  4008  14FA                     l3004:
  4009  14FA  3001               	movlw	1
  4010  14FB                     u4235:
  4011  14FB  1003               	clrc
  4012  14FC  0CF5               	rrf	___lldiv@divisor+3,f
  4013  14FD  0CF4               	rrf	___lldiv@divisor+2,f
  4014  14FE  0CF3               	rrf	___lldiv@divisor+1,f
  4015  14FF  0CF2               	rrf	___lldiv@divisor,f
  4016  1500  3EFF               	addlw	-1
  4017  1501  1D03               	skipz
  4018  1502  2CFB               	goto	u4235
  4019  1503                     l3006:
  4020  1503  3001               	movlw	1
  4021  1504  02A5               	subwf	___lldiv@counter,f
  4022  1505  1D03               	btfss	3,2
  4023  1506  2D08               	goto	u4241
  4024  1507  2D09               	goto	u4240
  4025  1508                     u4241:
  4026  1508  2CD0               	goto	l2996
  4027  1509                     u4240:
  4028  1509                     l3008:
  4029  1509  0824               	movf	___lldiv@quotient+3,w
  4030  150A  00F5               	movwf	?___lldiv+3
  4031  150B  0823               	movf	___lldiv@quotient+2,w
  4032  150C  00F4               	movwf	?___lldiv+2
  4033  150D  0822               	movf	___lldiv@quotient+1,w
  4034  150E  00F3               	movwf	?___lldiv+1
  4035  150F  0821               	movf	___lldiv@quotient,w
  4036  1510  00F2               	movwf	?___lldiv
  4037  1511                     l341:
  4038  1511  0008               	return
  4039  1512                     __end_of___lldiv:
  4040                           
  4041                           	psect	text14
  4042  1322                     __ptext14:	
  4043 ;; *************** function _Setup *****************
  4044 ;; Defined at:
  4045 ;;		line 142 in file "main.c"
  4046 ;; Parameters:    Size  Location     Type
  4047 ;;		None
  4048 ;; Auto vars:     Size  Location     Type
  4049 ;;		None
  4050 ;; Return value:  Size  Location     Type
  4051 ;;                  1    wreg      void 
  4052 ;; Registers used:
  4053 ;;		status,2
  4054 ;; Tracked objects:
  4055 ;;		On entry : 0/0
  4056 ;;		On exit  : 0/0
  4057 ;;		Unchanged: 0/0
  4058 ;; Data sizes:     COMMON   BANK0   BANK1   BANK3   BANK2
  4059 ;;      Params:         0       0       0       0       0
  4060 ;;      Locals:         0       0       0       0       0
  4061 ;;      Temps:          0       0       0       0       0
  4062 ;;      Totals:         0       0       0       0       0
  4063 ;;Total ram usage:        0 bytes
  4064 ;; Hardware stack levels used:    1
  4065 ;; Hardware stack levels required when called:    1
  4066 ;; This function calls:
  4067 ;;		Nothing
  4068 ;; This function is called by:
  4069 ;;		_main
  4070 ;; This function uses a non-reentrant model
  4071 ;;
  4072                           
  4073                           
  4074                           ;psect for function _Setup
  4075  1322                     _Setup:
  4076  1322                     l2780:	
  4077                           ;incstack = 0
  4078                           ; Regs used in _Setup: [status,2]
  4079                           
  4080                           
  4081                           ;main.c: 144:     TRISA = 0;
  4082  1322  1683               	bsf	3,5	;RP0=1, select bank1
  4083  1323  1303               	bcf	3,6	;RP1=0, select bank1
  4084  1324  0185               	clrf	5	;volatile
  4085                           
  4086                           ;main.c: 145:     PORTA = 0;
  4087  1325  1283               	bcf	3,5	;RP0=0, select bank0
  4088  1326  1303               	bcf	3,6	;RP1=0, select bank0
  4089  1327  0185               	clrf	5	;volatile
  4090                           
  4091                           ;main.c: 147:     PORTC = 0;
  4092  1328  0187               	clrf	7	;volatile
  4093                           
  4094                           ;main.c: 148:     ANSEL = 0;
  4095  1329  1683               	bsf	3,5	;RP0=1, select bank3
  4096  132A  1703               	bsf	3,6	;RP1=1, select bank3
  4097  132B  0188               	clrf	8	;volatile
  4098                           
  4099                           ;main.c: 149:     ANSELH = 0;
  4100  132C  0189               	clrf	9	;volatile
  4101  132D                     l50:
  4102  132D  0008               	return
  4103  132E                     __end_of_Setup:
  4104                           
  4105                           	psect	text15
  4106  1347                     __ptext15:	
  4107 ;; *************** function _I2C_Master_Init *****************
  4108 ;; Defined at:
  4109 ;;		line 9 in file "I2C.c"
  4110 ;; Parameters:    Size  Location     Type
  4111 ;;		None
  4112 ;; Auto vars:     Size  Location     Type
  4113 ;;		None
  4114 ;; Return value:  Size  Location     Type
  4115 ;;                  1    wreg      void 
  4116 ;; Registers used:
  4117 ;;		wreg, status,2
  4118 ;; Tracked objects:
  4119 ;;		On entry : 0/0
  4120 ;;		On exit  : 0/0
  4121 ;;		Unchanged: 0/0
  4122 ;; Data sizes:     COMMON   BANK0   BANK1   BANK3   BANK2
  4123 ;;      Params:         4       0       0       0       0
  4124 ;;      Locals:         0       0       0       0       0
  4125 ;;      Temps:          0       0       0       0       0
  4126 ;;      Totals:         4       0       0       0       0
  4127 ;;Total ram usage:        4 bytes
  4128 ;; Hardware stack levels used:    1
  4129 ;; Hardware stack levels required when called:    1
  4130 ;; This function calls:
  4131 ;;		Nothing
  4132 ;; This function is called by:
  4133 ;;		_main
  4134 ;; This function uses a non-reentrant model
  4135 ;;
  4136                           
  4137                           
  4138                           ;psect for function _I2C_Master_Init
  4139  1347                     _I2C_Master_Init:
  4140  1347                     l2784:	
  4141                           ;incstack = 0
  4142                           ; Regs used in _I2C_Master_Init: [wreg+status,2]
  4143                           
  4144                           
  4145                           ;I2C.c: 11:   SSPCON = 0x28;
  4146  1347  3028               	movlw	40
  4147  1348  1283               	bcf	3,5	;RP0=0, select bank0
  4148  1349  1303               	bcf	3,6	;RP1=0, select bank0
  4149  134A  0094               	movwf	20	;volatile
  4150  134B                     l2786:
  4151                           
  4152                           ;I2C.c: 12:   SSPCON2 = 0x00;
  4153  134B  1683               	bsf	3,5	;RP0=1, select bank1
  4154  134C  1303               	bcf	3,6	;RP1=0, select bank1
  4155  134D  0191               	clrf	17	;volatile
  4156  134E                     l2788:
  4157                           
  4158                           ;I2C.c: 13:   SSPSTAT = 0x00;
  4159  134E  0194               	clrf	20	;volatile
  4160                           
  4161                           ;I2C.c: 14:   SSPADD = ((4000000/4)/100000) - 1;
  4162  134F  3009               	movlw	9
  4163  1350  0093               	movwf	19	;volatile
  4164  1351                     l2790:
  4165                           
  4166                           ;I2C.c: 15:   TRISC3 = 1;
  4167  1351  1587               	bsf	7,3	;volatile
  4168  1352                     l2792:
  4169                           
  4170                           ;I2C.c: 16:   TRISC4 = 1;
  4171  1352  1607               	bsf	7,4	;volatile
  4172  1353                     l87:
  4173  1353  0008               	return
  4174  1354                     __end_of_I2C_Master_Init:
  4175                           
  4176                           	psect	text16
  4177  0730                     __ptext16:	
  4178 ;; *************** function _GY_init *****************
  4179 ;; Defined at:
  4180 ;;		line 17 in file "GY-521.c"
  4181 ;; Parameters:    Size  Location     Type
  4182 ;;		None
  4183 ;; Auto vars:     Size  Location     Type
  4184 ;;		None
  4185 ;; Return value:  Size  Location     Type
  4186 ;;                  1    wreg      void 
  4187 ;; Registers used:
  4188 ;;		wreg, status,2, status,0, pclath, cstack
  4189 ;; Tracked objects:
  4190 ;;		On entry : 0/0
  4191 ;;		On exit  : 0/0
  4192 ;;		Unchanged: 0/0
  4193 ;; Data sizes:     COMMON   BANK0   BANK1   BANK3   BANK2
  4194 ;;      Params:         0       0       0       0       0
  4195 ;;      Locals:         0       0       0       0       0
  4196 ;;      Temps:          0       0       0       0       0
  4197 ;;      Totals:         0       0       0       0       0
  4198 ;;Total ram usage:        0 bytes
  4199 ;; Hardware stack levels used:    1
  4200 ;; Hardware stack levels required when called:    3
  4201 ;; This function calls:
  4202 ;;		_I2C_Master_Start
  4203 ;;		_I2C_Master_Stop
  4204 ;;		_I2C_Master_Write
  4205 ;; This function is called by:
  4206 ;;		_main
  4207 ;; This function uses a non-reentrant model
  4208 ;;
  4209                           
  4210                           
  4211                           ;psect for function _GY_init
  4212  0730                     _GY_init:
  4213  0730                     l2824:	
  4214                           ;incstack = 0
  4215                           ; Regs used in _GY_init: [wreg+status,2+status,0+pclath+cstack]
  4216                           
  4217                           
  4218                           ;GY-521.c: 21:     I2C_Master_Start();
  4219  0730  160A  118A  230E  120A  118A  	fcall	_I2C_Master_Start
  4220                           
  4221                           ;GY-521.c: 22:     I2C_Master_Write(0xD0);
  4222  0735  30D0               	movlw	208
  4223  0736  160A  118A  2354  120A  118A  	fcall	_I2C_Master_Write
  4224                           
  4225                           ;GY-521.c: 23:     I2C_Master_Write(0x6B);
  4226  073B  306B               	movlw	107
  4227  073C  160A  118A  2354  120A  118A  	fcall	_I2C_Master_Write
  4228                           
  4229                           ;GY-521.c: 24:     I2C_Master_Write(0x01);
  4230  0741  3001               	movlw	1
  4231  0742  160A  118A  2354  120A  118A  	fcall	_I2C_Master_Write
  4232                           
  4233                           ;GY-521.c: 25:     I2C_Master_Stop();
  4234  0747  160A  118A  22F3  120A  118A  	fcall	_I2C_Master_Stop
  4235                           
  4236                           ;GY-521.c: 27:     I2C_Master_Start();
  4237  074C  160A  118A  230E  120A  118A  	fcall	_I2C_Master_Start
  4238                           
  4239                           ;GY-521.c: 28:     I2C_Master_Write(0xD0);
  4240  0751  30D0               	movlw	208
  4241  0752  160A  118A  2354  120A  118A  	fcall	_I2C_Master_Write
  4242                           
  4243                           ;GY-521.c: 29:     I2C_Master_Write(0x00);
  4244  0757  3000               	movlw	0
  4245  0758  160A  118A  2354  120A  118A  	fcall	_I2C_Master_Write
  4246                           
  4247                           ;GY-521.c: 30:     I2C_Master_Stop();
  4248  075D  160A  118A  22F3  120A  118A  	fcall	_I2C_Master_Stop
  4249                           
  4250                           ;GY-521.c: 33:     I2C_Master_Start();
  4251  0762  160A  118A  230E  120A  118A  	fcall	_I2C_Master_Start
  4252                           
  4253                           ;GY-521.c: 34:     I2C_Master_Write(0xD0);
  4254  0767  30D0               	movlw	208
  4255  0768  160A  118A  2354  120A  118A  	fcall	_I2C_Master_Write
  4256                           
  4257                           ;GY-521.c: 35:     I2C_Master_Write(0x19);
  4258  076D  3019               	movlw	25
  4259  076E  160A  118A  2354  120A  118A  	fcall	_I2C_Master_Write
  4260                           
  4261                           ;GY-521.c: 36:     I2C_Master_Write(0x08);
  4262  0773  3008               	movlw	8
  4263  0774  160A  118A  2354  120A  118A  	fcall	_I2C_Master_Write
  4264                           
  4265                           ;GY-521.c: 37:     I2C_Master_Stop();
  4266  0779  160A  118A  22F3  120A  118A  	fcall	_I2C_Master_Stop
  4267                           
  4268                           ;GY-521.c: 39:     I2C_Master_Start();
  4269  077E  160A  118A  230E  120A  118A  	fcall	_I2C_Master_Start
  4270                           
  4271                           ;GY-521.c: 40:     I2C_Master_Write(0xD0);
  4272  0783  30D0               	movlw	208
  4273  0784  160A  118A  2354  120A  118A  	fcall	_I2C_Master_Write
  4274                           
  4275                           ;GY-521.c: 41:     I2C_Master_Write(0x1A);
  4276  0789  301A               	movlw	26
  4277  078A  160A  118A  2354  120A  118A  	fcall	_I2C_Master_Write
  4278                           
  4279                           ;GY-521.c: 42:     I2C_Master_Write(0x00);
  4280  078F  3000               	movlw	0
  4281  0790  160A  118A  2354  120A  118A  	fcall	_I2C_Master_Write
  4282                           
  4283                           ;GY-521.c: 43:     I2C_Master_Stop();
  4284  0795  160A  118A  22F3  120A  118A  	fcall	_I2C_Master_Stop
  4285                           
  4286                           ;GY-521.c: 45:     I2C_Master_Start();
  4287  079A  160A  118A  230E  120A  118A  	fcall	_I2C_Master_Start
  4288                           
  4289                           ;GY-521.c: 46:     I2C_Master_Write(0xD0);
  4290  079F  30D0               	movlw	208
  4291  07A0  160A  118A  2354  120A  118A  	fcall	_I2C_Master_Write
  4292                           
  4293                           ;GY-521.c: 47:     I2C_Master_Write(0x1B);
  4294  07A5  301B               	movlw	27
  4295  07A6  160A  118A  2354  120A  118A  	fcall	_I2C_Master_Write
  4296                           
  4297                           ;GY-521.c: 48:     I2C_Master_Write(0x00);
  4298  07AB  3000               	movlw	0
  4299  07AC  160A  118A  2354  120A  118A  	fcall	_I2C_Master_Write
  4300                           
  4301                           ;GY-521.c: 49:     I2C_Master_Stop();
  4302  07B1  160A  118A  22F3  120A  118A  	fcall	_I2C_Master_Stop
  4303                           
  4304                           ;GY-521.c: 51:     I2C_Master_Start();
  4305  07B6  160A  118A  230E  120A  118A  	fcall	_I2C_Master_Start
  4306                           
  4307                           ;GY-521.c: 52:     I2C_Master_Write(0xD0);
  4308  07BB  30D0               	movlw	208
  4309  07BC  160A  118A  2354  120A  118A  	fcall	_I2C_Master_Write
  4310                           
  4311                           ;GY-521.c: 53:     I2C_Master_Write(0x1C);
  4312  07C1  301C               	movlw	28
  4313  07C2  160A  118A  2354  120A  118A  	fcall	_I2C_Master_Write
  4314                           
  4315                           ;GY-521.c: 54:     I2C_Master_Write(0x00);
  4316  07C7  3000               	movlw	0
  4317  07C8  160A  118A  2354  120A  118A  	fcall	_I2C_Master_Write
  4318                           
  4319                           ;GY-521.c: 55:     I2C_Master_Stop();
  4320  07CD  160A  118A  22F3  120A  118A  	fcall	_I2C_Master_Stop
  4321                           
  4322                           ;GY-521.c: 59:     I2C_Master_Start();
  4323  07D2  160A  118A  230E  120A  118A  	fcall	_I2C_Master_Start
  4324                           
  4325                           ;GY-521.c: 60:     I2C_Master_Write(0x68);
  4326  07D7  3068               	movlw	104
  4327  07D8  160A  118A  2354  120A  118A  	fcall	_I2C_Master_Write
  4328                           
  4329                           ;GY-521.c: 61:     I2C_Master_Write(0x6C);
  4330  07DD  306C               	movlw	108
  4331  07DE  160A  118A  2354  120A  118A  	fcall	_I2C_Master_Write
  4332                           
  4333                           ;GY-521.c: 62:     I2C_Master_Write(0x00);
  4334  07E3  3000               	movlw	0
  4335  07E4  160A  118A  2354  120A  118A  	fcall	_I2C_Master_Write
  4336                           
  4337                           ;GY-521.c: 63:     I2C_Master_Stop();
  4338  07E9  160A  118A  22F3  120A  118A  	fcall	_I2C_Master_Stop
  4339  07EE                     l208:
  4340  07EE  0008               	return
  4341  07EF                     __end_of_GY_init:
  4342                           
  4343                           	psect	text17
  4344  130E                     __ptext17:	
  4345 ;; *************** function _I2C_Master_Start *****************
  4346 ;; Defined at:
  4347 ;;		line 24 in file "I2C.c"
  4348 ;; Parameters:    Size  Location     Type
  4349 ;;		None
  4350 ;; Auto vars:     Size  Location     Type
  4351 ;;		None
  4352 ;; Return value:  Size  Location     Type
  4353 ;;                  1    wreg      void 
  4354 ;; Registers used:
  4355 ;;		wreg, status,2, status,0, pclath, cstack
  4356 ;; Tracked objects:
  4357 ;;		On entry : 0/0
  4358 ;;		On exit  : 0/0
  4359 ;;		Unchanged: 0/0
  4360 ;; Data sizes:     COMMON   BANK0   BANK1   BANK3   BANK2
  4361 ;;      Params:         0       0       0       0       0
  4362 ;;      Locals:         0       0       0       0       0
  4363 ;;      Temps:          0       0       0       0       0
  4364 ;;      Totals:         0       0       0       0       0
  4365 ;;Total ram usage:        0 bytes
  4366 ;; Hardware stack levels used:    1
  4367 ;; Hardware stack levels required when called:    2
  4368 ;; This function calls:
  4369 ;;		_I2C_Master_Wait
  4370 ;; This function is called by:
  4371 ;;		_GY_init
  4372 ;; This function uses a non-reentrant model
  4373 ;;
  4374                           
  4375                           
  4376                           ;psect for function _I2C_Master_Start
  4377  130E                     _I2C_Master_Start:
  4378  130E                     l2246:	
  4379                           ;incstack = 0
  4380                           ; Regs used in _I2C_Master_Start: [wreg+status,2+status,0+pclath+cstack]
  4381                           
  4382                           
  4383                           ;I2C.c: 26:     I2C_Master_Wait();
  4384  130E  160A  118A  233A  160A  118A  	fcall	_I2C_Master_Wait
  4385  1313                     l2248:
  4386                           
  4387                           ;I2C.c: 27:     SEN = 1;
  4388  1313  1683               	bsf	3,5	;RP0=1, select bank1
  4389  1314  1303               	bcf	3,6	;RP1=0, select bank1
  4390  1315  1411               	bsf	17,0	;volatile
  4391  1316                     l96:
  4392  1316  0008               	return
  4393  1317                     __end_of_I2C_Master_Start:
  4394                           
  4395                           	psect	text18
  4396  0382                     __ptext18:	
  4397 ;; *************** function _GY_Read *****************
  4398 ;; Defined at:
  4399 ;;		line 114 in file "GY-521.c"
  4400 ;; Parameters:    Size  Location     Type
  4401 ;;  datos           1    wreg     PTR float 
  4402 ;;		 -> datos(28), 
  4403 ;; Auto vars:     Size  Location     Type
  4404 ;;  datos           1   30[BANK1 ] PTR float 
  4405 ;;		 -> datos(28), 
  4406 ;;  i               2   28[BANK1 ] int 
  4407 ;;  valores        14    0[BANK1 ] unsigned char [14]
  4408 ;;  guardar        14   14[BANK1 ] int [7]
  4409 ;; Return value:  Size  Location     Type
  4410 ;;                  1    wreg      void 
  4411 ;; Registers used:
  4412 ;;		wreg, fsr0l, fsr0h, status,2, status,0, btemp+1, pclath, cstack
  4413 ;; Tracked objects:
  4414 ;;		On entry : 0/0
  4415 ;;		On exit  : 0/0
  4416 ;;		Unchanged: 0/0
  4417 ;; Data sizes:     COMMON   BANK0   BANK1   BANK3   BANK2
  4418 ;;      Params:         0       0       0       0       0
  4419 ;;      Locals:         0       0      31       0       0
  4420 ;;      Temps:          0       4       0       0       0
  4421 ;;      Totals:         0       4      31       0       0
  4422 ;;Total ram usage:       35 bytes
  4423 ;; Hardware stack levels used:    1
  4424 ;; Hardware stack levels required when called:    4
  4425 ;; This function calls:
  4426 ;;		_I2C_Master_RepeatedStart
  4427 ;;		_I2C_Master_Stop
  4428 ;;		_I2C_Master_Write
  4429 ;;		_I2C_Read
  4430 ;;		_I2C_Start
  4431 ;;		___fladd
  4432 ;;		___fldiv
  4433 ;;		___flmul
  4434 ;;		___xxtofl
  4435 ;; This function is called by:
  4436 ;;		_main
  4437 ;; This function uses a non-reentrant model
  4438 ;;
  4439                           
  4440                           
  4441                           ;psect for function _GY_Read
  4442  0382                     _GY_Read:
  4443                           
  4444                           ;incstack = 0
  4445                           ; Regs used in _GY_Read: [wreg-fsr0h+status,2+status,0+btemp+1+pclath+cstack]
  4446                           ;GY_Read@datos stored from wreg
  4447  0382  1683               	bsf	3,5	;RP0=1, select bank1
  4448  0383  1303               	bcf	3,6	;RP1=0, select bank1
  4449  0384  00EB               	movwf	GY_Read@datos^(0+128)
  4450  0385                     l3328:
  4451                           
  4452                           ;GY-521.c: 152:  char valores[14];;GY-521.c: 153:     int guardar[7];;GY-521.c: 154:    
      +                           I2C_Start(0xD0);
  4453  0385  30D0               	movlw	208
  4454  0386  120A  118A  27EF  120A  118A  	fcall	_I2C_Start
  4455  038B                     l211:	
  4456                           ;GY-521.c: 155:     while (SSPCON2bits.ACKSTAT);
  4457                           
  4458  038B  1683               	bsf	3,5	;RP0=1, select bank1
  4459  038C  1303               	bcf	3,6	;RP1=0, select bank1
  4460  038D  1B11               	btfsc	17,6	;volatile
  4461  038E  2B90               	goto	u4941
  4462  038F  2B91               	goto	u4940
  4463  0390                     u4941:
  4464  0390  2B8B               	goto	l211
  4465  0391                     u4940:
  4466  0391                     l3330:
  4467                           
  4468                           ;GY-521.c: 156:     I2C_Master_Write(0x3B);
  4469  0391  303B               	movlw	59
  4470  0392  160A  118A  2354  120A  118A  	fcall	_I2C_Master_Write
  4471  0397                     l214:	
  4472                           ;GY-521.c: 157:     while (SSPCON2bits.ACKSTAT);
  4473                           
  4474  0397  1683               	bsf	3,5	;RP0=1, select bank1
  4475  0398  1303               	bcf	3,6	;RP1=0, select bank1
  4476  0399  1B11               	btfsc	17,6	;volatile
  4477  039A  2B9C               	goto	u4951
  4478  039B  2B9D               	goto	u4950
  4479  039C                     u4951:
  4480  039C  2B97               	goto	l214
  4481  039D                     u4950:
  4482  039D                     l3332:
  4483                           
  4484                           ;GY-521.c: 158:     I2C_Master_RepeatedStart();
  4485  039D  160A  118A  22EA  120A  118A  	fcall	_I2C_Master_RepeatedStart
  4486                           
  4487                           ;GY-521.c: 159:     I2C_Master_Write(0xD1);
  4488  03A2  30D1               	movlw	209
  4489  03A3  160A  118A  2354  120A  118A  	fcall	_I2C_Master_Write
  4490  03A8                     l3334:
  4491                           
  4492                           ;GY-521.c: 160:     for (int i = 0; i < 13; i++) valores[i] = I2C_Read(0);
  4493  03A8  1683               	bsf	3,5	;RP0=1, select bank1
  4494  03A9  1303               	bcf	3,6	;RP1=0, select bank1
  4495  03AA  01E9               	clrf	GY_Read@i^(0+128)
  4496  03AB  01EA               	clrf	(GY_Read@i+1)^(0+128)
  4497  03AC                     l3340:
  4498  03AC  3000               	movlw	0
  4499  03AD  160A  118A  23AD  120A  118A  	fcall	_I2C_Read
  4500  03B2  1283               	bcf	3,5	;RP0=0, select bank0
  4501  03B3  1303               	bcf	3,6	;RP1=0, select bank0
  4502  03B4  00D4               	movwf	??_GY_Read
  4503  03B5  1683               	bsf	3,5	;RP0=1, select bank1
  4504  03B6  1303               	bcf	3,6	;RP1=0, select bank1
  4505  03B7  0869               	movf	GY_Read@i^(0+128),w
  4506  03B8  3ECD               	addlw	(low (GY_Read@valores| 0))& (0+255)
  4507  03B9  0084               	movwf	4
  4508  03BA  1283               	bcf	3,5	;RP0=0, select bank0
  4509  03BB  1303               	bcf	3,6	;RP1=0, select bank0
  4510  03BC  0854               	movf	??_GY_Read,w
  4511  03BD  1383               	bcf	3,7	;select IRP bank1
  4512  03BE  0080               	movwf	0
  4513  03BF                     l3342:
  4514  03BF  3001               	movlw	1
  4515  03C0  1683               	bsf	3,5	;RP0=1, select bank1
  4516  03C1  1303               	bcf	3,6	;RP1=0, select bank1
  4517  03C2  07E9               	addwf	GY_Read@i^(0+128),f
  4518  03C3  1803               	skipnc
  4519  03C4  0AEA               	incf	(GY_Read@i+1)^(0+128),f
  4520  03C5  3000               	movlw	0
  4521  03C6  07EA               	addwf	(GY_Read@i+1)^(0+128),f
  4522  03C7                     l3344:
  4523  03C7  086A               	movf	(GY_Read@i+1)^(0+128),w
  4524  03C8  3A80               	xorlw	128
  4525  03C9  00FF               	movwf	btemp+1
  4526  03CA  3080               	movlw	128
  4527  03CB  027F               	subwf	btemp+1,w
  4528  03CC  1D03               	skipz
  4529  03CD  2BD0               	goto	u4965
  4530  03CE  300D               	movlw	13
  4531  03CF  0269               	subwf	GY_Read@i^(0+128),w
  4532  03D0                     u4965:
  4533  03D0  1C03               	skipc
  4534  03D1  2BD3               	goto	u4961
  4535  03D2  2BD4               	goto	u4960
  4536  03D3                     u4961:
  4537  03D3  2BAC               	goto	l3340
  4538  03D4                     u4960:
  4539  03D4                     l3346:
  4540                           
  4541                           ;GY-521.c: 161:     valores[13] = I2C_Read(1);
  4542  03D4  3001               	movlw	1
  4543  03D5  160A  118A  23AD  120A  118A  	fcall	_I2C_Read
  4544  03DA  1283               	bcf	3,5	;RP0=0, select bank0
  4545  03DB  1303               	bcf	3,6	;RP1=0, select bank0
  4546  03DC  00D4               	movwf	??_GY_Read
  4547  03DD  0854               	movf	??_GY_Read,w
  4548  03DE  1683               	bsf	3,5	;RP0=1, select bank1
  4549  03DF  1303               	bcf	3,6	;RP1=0, select bank1
  4550  03E0  00DA               	movwf	(GY_Read@valores^(0+128)+13)
  4551                           
  4552                           ;GY-521.c: 162:     I2C_Master_Stop();
  4553  03E1  160A  118A  22F3  120A  118A  	fcall	_I2C_Master_Stop
  4554  03E6                     l3348:
  4555                           
  4556                           ;GY-521.c: 165:     guardar[0] = ((int) valores[0] << 8) | ((int) valores[1]);
  4557  03E6  1683               	bsf	3,5	;RP0=1, select bank1
  4558  03E7  1303               	bcf	3,6	;RP1=0, select bank1
  4559  03E8  084E               	movf	(GY_Read@valores^(0+128)+1),w
  4560  03E9  1283               	bcf	3,5	;RP0=0, select bank0
  4561  03EA  1303               	bcf	3,6	;RP1=0, select bank0
  4562  03EB  00D4               	movwf	??_GY_Read
  4563  03EC  01D5               	clrf	??_GY_Read+1
  4564  03ED  1683               	bsf	3,5	;RP0=1, select bank1
  4565  03EE  1303               	bcf	3,6	;RP1=0, select bank1
  4566  03EF  084D               	movf	GY_Read@valores^(0+128),w
  4567  03F0  1283               	bcf	3,5	;RP0=0, select bank0
  4568  03F1  1303               	bcf	3,6	;RP1=0, select bank0
  4569  03F2  00D6               	movwf	??_GY_Read+2
  4570  03F3  01D7               	clrf	??_GY_Read+3
  4571  03F4  0856               	movf	??_GY_Read+2,w
  4572  03F5  00D7               	movwf	??_GY_Read+3
  4573  03F6  01D6               	clrf	??_GY_Read+2
  4574  03F7  0854               	movf	??_GY_Read,w
  4575  03F8  0456               	iorwf	??_GY_Read+2,w
  4576  03F9  1683               	bsf	3,5	;RP0=1, select bank1
  4577  03FA  1303               	bcf	3,6	;RP1=0, select bank1
  4578  03FB  00DB               	movwf	GY_Read@guardar^(0+128)
  4579  03FC  1283               	bcf	3,5	;RP0=0, select bank0
  4580  03FD  1303               	bcf	3,6	;RP1=0, select bank0
  4581  03FE  0855               	movf	??_GY_Read+1,w
  4582  03FF  0457               	iorwf	??_GY_Read+3,w
  4583  0400  1683               	bsf	3,5	;RP0=1, select bank1
  4584  0401  1303               	bcf	3,6	;RP1=0, select bank1
  4585  0402  00DC               	movwf	(GY_Read@guardar+1)^(0+128)
  4586  0403                     l3350:
  4587                           
  4588                           ;GY-521.c: 166:     guardar[1] = ((int) valores[2] << 8) | ((int) valores[3]);
  4589  0403  0850               	movf	(GY_Read@valores^(0+128)+3),w
  4590  0404  1283               	bcf	3,5	;RP0=0, select bank0
  4591  0405  1303               	bcf	3,6	;RP1=0, select bank0
  4592  0406  00D4               	movwf	??_GY_Read
  4593  0407  01D5               	clrf	??_GY_Read+1
  4594  0408  1683               	bsf	3,5	;RP0=1, select bank1
  4595  0409  1303               	bcf	3,6	;RP1=0, select bank1
  4596  040A  084F               	movf	(GY_Read@valores^(0+128)+2),w
  4597  040B  1283               	bcf	3,5	;RP0=0, select bank0
  4598  040C  1303               	bcf	3,6	;RP1=0, select bank0
  4599  040D  00D6               	movwf	??_GY_Read+2
  4600  040E  01D7               	clrf	??_GY_Read+3
  4601  040F  0856               	movf	??_GY_Read+2,w
  4602  0410  00D7               	movwf	??_GY_Read+3
  4603  0411  01D6               	clrf	??_GY_Read+2
  4604  0412  0854               	movf	??_GY_Read,w
  4605  0413  0456               	iorwf	??_GY_Read+2,w
  4606  0414  1683               	bsf	3,5	;RP0=1, select bank1
  4607  0415  1303               	bcf	3,6	;RP1=0, select bank1
  4608  0416  00DD               	movwf	(GY_Read@guardar^(0+128)+2)
  4609  0417  1283               	bcf	3,5	;RP0=0, select bank0
  4610  0418  1303               	bcf	3,6	;RP1=0, select bank0
  4611  0419  0855               	movf	??_GY_Read+1,w
  4612  041A  0457               	iorwf	??_GY_Read+3,w
  4613  041B  1683               	bsf	3,5	;RP0=1, select bank1
  4614  041C  1303               	bcf	3,6	;RP1=0, select bank1
  4615  041D  00DE               	movwf	((GY_Read@guardar+1)^(0+128)+2)
  4616  041E                     l3352:
  4617                           
  4618                           ;GY-521.c: 167:     guardar[2] = ((int) valores[4] << 8) | ((int) valores[5]);
  4619  041E  0852               	movf	(GY_Read@valores^(0+128)+5),w
  4620  041F  1283               	bcf	3,5	;RP0=0, select bank0
  4621  0420  1303               	bcf	3,6	;RP1=0, select bank0
  4622  0421  00D4               	movwf	??_GY_Read
  4623  0422  01D5               	clrf	??_GY_Read+1
  4624  0423  1683               	bsf	3,5	;RP0=1, select bank1
  4625  0424  1303               	bcf	3,6	;RP1=0, select bank1
  4626  0425  0851               	movf	(GY_Read@valores^(0+128)+4),w
  4627  0426  1283               	bcf	3,5	;RP0=0, select bank0
  4628  0427  1303               	bcf	3,6	;RP1=0, select bank0
  4629  0428  00D6               	movwf	??_GY_Read+2
  4630  0429  01D7               	clrf	??_GY_Read+3
  4631  042A  0856               	movf	??_GY_Read+2,w
  4632  042B  00D7               	movwf	??_GY_Read+3
  4633  042C  01D6               	clrf	??_GY_Read+2
  4634  042D  0854               	movf	??_GY_Read,w
  4635  042E  0456               	iorwf	??_GY_Read+2,w
  4636  042F  1683               	bsf	3,5	;RP0=1, select bank1
  4637  0430  1303               	bcf	3,6	;RP1=0, select bank1
  4638  0431  00DF               	movwf	(GY_Read@guardar^(0+128)+4)
  4639  0432  1283               	bcf	3,5	;RP0=0, select bank0
  4640  0433  1303               	bcf	3,6	;RP1=0, select bank0
  4641  0434  0855               	movf	??_GY_Read+1,w
  4642  0435  0457               	iorwf	??_GY_Read+3,w
  4643  0436  1683               	bsf	3,5	;RP0=1, select bank1
  4644  0437  1303               	bcf	3,6	;RP1=0, select bank1
  4645  0438  00E0               	movwf	((GY_Read@guardar+1)^(0+128)+4)
  4646  0439                     l3354:
  4647                           
  4648                           ;GY-521.c: 168:     guardar[3] = ((int) valores[6] << 8) | ((int) valores[7]);
  4649  0439  0854               	movf	(GY_Read@valores^(0+128)+7),w
  4650  043A  1283               	bcf	3,5	;RP0=0, select bank0
  4651  043B  1303               	bcf	3,6	;RP1=0, select bank0
  4652  043C  00D4               	movwf	??_GY_Read
  4653  043D  01D5               	clrf	??_GY_Read+1
  4654  043E  1683               	bsf	3,5	;RP0=1, select bank1
  4655  043F  1303               	bcf	3,6	;RP1=0, select bank1
  4656  0440  0853               	movf	(GY_Read@valores^(0+128)+6),w
  4657  0441  1283               	bcf	3,5	;RP0=0, select bank0
  4658  0442  1303               	bcf	3,6	;RP1=0, select bank0
  4659  0443  00D6               	movwf	??_GY_Read+2
  4660  0444  01D7               	clrf	??_GY_Read+3
  4661  0445  0856               	movf	??_GY_Read+2,w
  4662  0446  00D7               	movwf	??_GY_Read+3
  4663  0447  01D6               	clrf	??_GY_Read+2
  4664  0448  0854               	movf	??_GY_Read,w
  4665  0449  0456               	iorwf	??_GY_Read+2,w
  4666  044A  1683               	bsf	3,5	;RP0=1, select bank1
  4667  044B  1303               	bcf	3,6	;RP1=0, select bank1
  4668  044C  00E1               	movwf	(GY_Read@guardar^(0+128)+6)
  4669  044D  1283               	bcf	3,5	;RP0=0, select bank0
  4670  044E  1303               	bcf	3,6	;RP1=0, select bank0
  4671  044F  0855               	movf	??_GY_Read+1,w
  4672  0450  0457               	iorwf	??_GY_Read+3,w
  4673  0451  1683               	bsf	3,5	;RP0=1, select bank1
  4674  0452  1303               	bcf	3,6	;RP1=0, select bank1
  4675  0453  00E2               	movwf	((GY_Read@guardar+1)^(0+128)+6)
  4676  0454                     l3356:
  4677                           
  4678                           ;GY-521.c: 169:     guardar[4] = ((int) valores[8] << 8) | ((int) valores[9]);
  4679  0454  0856               	movf	(GY_Read@valores^(0+128)+9),w
  4680  0455  1283               	bcf	3,5	;RP0=0, select bank0
  4681  0456  1303               	bcf	3,6	;RP1=0, select bank0
  4682  0457  00D4               	movwf	??_GY_Read
  4683  0458  01D5               	clrf	??_GY_Read+1
  4684  0459  1683               	bsf	3,5	;RP0=1, select bank1
  4685  045A  1303               	bcf	3,6	;RP1=0, select bank1
  4686  045B  0855               	movf	(GY_Read@valores^(0+128)+8),w
  4687  045C  1283               	bcf	3,5	;RP0=0, select bank0
  4688  045D  1303               	bcf	3,6	;RP1=0, select bank0
  4689  045E  00D6               	movwf	??_GY_Read+2
  4690  045F  01D7               	clrf	??_GY_Read+3
  4691  0460  0856               	movf	??_GY_Read+2,w
  4692  0461  00D7               	movwf	??_GY_Read+3
  4693  0462  01D6               	clrf	??_GY_Read+2
  4694  0463  0854               	movf	??_GY_Read,w
  4695  0464  0456               	iorwf	??_GY_Read+2,w
  4696  0465  1683               	bsf	3,5	;RP0=1, select bank1
  4697  0466  1303               	bcf	3,6	;RP1=0, select bank1
  4698  0467  00E3               	movwf	(GY_Read@guardar^(0+128)+8)
  4699  0468  1283               	bcf	3,5	;RP0=0, select bank0
  4700  0469  1303               	bcf	3,6	;RP1=0, select bank0
  4701  046A  0855               	movf	??_GY_Read+1,w
  4702  046B  0457               	iorwf	??_GY_Read+3,w
  4703  046C  1683               	bsf	3,5	;RP0=1, select bank1
  4704  046D  1303               	bcf	3,6	;RP1=0, select bank1
  4705  046E  00E4               	movwf	((GY_Read@guardar+1)^(0+128)+8)
  4706  046F                     l3358:
  4707                           
  4708                           ;GY-521.c: 170:     guardar[5] = ((int) valores[10] << 8) | ((int) valores[11]);
  4709  046F  0858               	movf	(GY_Read@valores^(0+128)+11),w
  4710  0470  1283               	bcf	3,5	;RP0=0, select bank0
  4711  0471  1303               	bcf	3,6	;RP1=0, select bank0
  4712  0472  00D4               	movwf	??_GY_Read
  4713  0473  01D5               	clrf	??_GY_Read+1
  4714  0474  1683               	bsf	3,5	;RP0=1, select bank1
  4715  0475  1303               	bcf	3,6	;RP1=0, select bank1
  4716  0476  0857               	movf	(GY_Read@valores^(0+128)+10),w
  4717  0477  1283               	bcf	3,5	;RP0=0, select bank0
  4718  0478  1303               	bcf	3,6	;RP1=0, select bank0
  4719  0479  00D6               	movwf	??_GY_Read+2
  4720  047A  01D7               	clrf	??_GY_Read+3
  4721  047B  0856               	movf	??_GY_Read+2,w
  4722  047C  00D7               	movwf	??_GY_Read+3
  4723  047D  01D6               	clrf	??_GY_Read+2
  4724  047E  0854               	movf	??_GY_Read,w
  4725  047F  0456               	iorwf	??_GY_Read+2,w
  4726  0480  1683               	bsf	3,5	;RP0=1, select bank1
  4727  0481  1303               	bcf	3,6	;RP1=0, select bank1
  4728  0482  00E5               	movwf	(GY_Read@guardar^(0+128)+10)
  4729  0483  1283               	bcf	3,5	;RP0=0, select bank0
  4730  0484  1303               	bcf	3,6	;RP1=0, select bank0
  4731  0485  0855               	movf	??_GY_Read+1,w
  4732  0486  0457               	iorwf	??_GY_Read+3,w
  4733  0487  1683               	bsf	3,5	;RP0=1, select bank1
  4734  0488  1303               	bcf	3,6	;RP1=0, select bank1
  4735  0489  00E6               	movwf	((GY_Read@guardar+1)^(0+128)+10)
  4736  048A                     l3360:
  4737                           
  4738                           ;GY-521.c: 171:     guardar[6] = ((int) valores[12] << 8) | ((int) valores[13]);
  4739  048A  085A               	movf	(GY_Read@valores^(0+128)+13),w
  4740  048B  1283               	bcf	3,5	;RP0=0, select bank0
  4741  048C  1303               	bcf	3,6	;RP1=0, select bank0
  4742  048D  00D4               	movwf	??_GY_Read
  4743  048E  01D5               	clrf	??_GY_Read+1
  4744  048F  1683               	bsf	3,5	;RP0=1, select bank1
  4745  0490  1303               	bcf	3,6	;RP1=0, select bank1
  4746  0491  0859               	movf	(GY_Read@valores^(0+128)+12),w
  4747  0492  1283               	bcf	3,5	;RP0=0, select bank0
  4748  0493  1303               	bcf	3,6	;RP1=0, select bank0
  4749  0494  00D6               	movwf	??_GY_Read+2
  4750  0495  01D7               	clrf	??_GY_Read+3
  4751  0496  0856               	movf	??_GY_Read+2,w
  4752  0497  00D7               	movwf	??_GY_Read+3
  4753  0498  01D6               	clrf	??_GY_Read+2
  4754  0499  0854               	movf	??_GY_Read,w
  4755  049A  0456               	iorwf	??_GY_Read+2,w
  4756  049B  1683               	bsf	3,5	;RP0=1, select bank1
  4757  049C  1303               	bcf	3,6	;RP1=0, select bank1
  4758  049D  00E7               	movwf	(GY_Read@guardar^(0+128)+12)
  4759  049E  1283               	bcf	3,5	;RP0=0, select bank0
  4760  049F  1303               	bcf	3,6	;RP1=0, select bank0
  4761  04A0  0855               	movf	??_GY_Read+1,w
  4762  04A1  0457               	iorwf	??_GY_Read+3,w
  4763  04A2  1683               	bsf	3,5	;RP0=1, select bank1
  4764  04A3  1303               	bcf	3,6	;RP1=0, select bank1
  4765  04A4  00E8               	movwf	((GY_Read@guardar+1)^(0+128)+12)
  4766  04A5                     l3362:
  4767                           
  4768                           ;GY-521.c: 173:     datos[0] = ((float) guardar[0]) * 0.0005982;
  4769  04A5  303A               	movlw	58
  4770  04A6  1283               	bcf	3,5	;RP0=0, select bank0
  4771  04A7  1303               	bcf	3,6	;RP1=0, select bank0
  4772  04A8  00A9               	movwf	___flmul@b+3
  4773  04A9  301C               	movlw	28
  4774  04AA  00A8               	movwf	___flmul@b+2
  4775  04AB  30D0               	movlw	208
  4776  04AC  00A7               	movwf	___flmul@b+1
  4777  04AD  3086               	movlw	134
  4778  04AE  00A6               	movwf	___flmul@b
  4779  04AF  1683               	bsf	3,5	;RP0=1, select bank1
  4780  04B0  1303               	bcf	3,6	;RP1=0, select bank1
  4781  04B1  085B               	movf	GY_Read@guardar^(0+128),w
  4782  04B2  00F2               	movwf	___xxtofl@val
  4783  04B3  085C               	movf	(GY_Read@guardar+1)^(0+128),w
  4784  04B4  00F3               	movwf	___xxtofl@val+1
  4785  04B5  3000               	movlw	0
  4786  04B6  1BF3               	btfsc	___xxtofl@val+1,7
  4787  04B7  30FF               	movlw	255
  4788  04B8  00F4               	movwf	___xxtofl@val+2
  4789  04B9  00F5               	movwf	___xxtofl@val+3
  4790  04BA  3001               	movlw	1
  4791  04BB  120A  158A  2093  120A  118A  	fcall	___xxtofl
  4792  04C0  0875               	movf	?___xxtofl+3,w
  4793  04C1  1283               	bcf	3,5	;RP0=0, select bank0
  4794  04C2  1303               	bcf	3,6	;RP1=0, select bank0
  4795  04C3  00AD               	movwf	___flmul@a+3
  4796  04C4  0874               	movf	?___xxtofl+2,w
  4797  04C5  00AC               	movwf	___flmul@a+2
  4798  04C6  0873               	movf	?___xxtofl+1,w
  4799  04C7  00AB               	movwf	___flmul@a+1
  4800  04C8  0872               	movf	?___xxtofl,w
  4801  04C9  00AA               	movwf	___flmul@a
  4802  04CA  120A  118A  2021  120A  118A  	fcall	___flmul
  4803  04CF  1683               	bsf	3,5	;RP0=1, select bank1
  4804  04D0  1303               	bcf	3,6	;RP1=0, select bank1
  4805  04D1  086B               	movf	GY_Read@datos^(0+128),w
  4806  04D2  0084               	movwf	4
  4807  04D3  1283               	bcf	3,5	;RP0=0, select bank0
  4808  04D4  1303               	bcf	3,6	;RP1=0, select bank0
  4809  04D5  0826               	movf	?___flmul,w
  4810  04D6  1383               	bcf	3,7	;select IRP bank0
  4811  04D7  0080               	movwf	0
  4812  04D8  0A84               	incf	4,f
  4813  04D9  0827               	movf	?___flmul+1,w
  4814  04DA  0080               	movwf	0
  4815  04DB  0A84               	incf	4,f
  4816  04DC  0828               	movf	?___flmul+2,w
  4817  04DD  0080               	movwf	0
  4818  04DE  0A84               	incf	4,f
  4819  04DF  0829               	movf	?___flmul+3,w
  4820  04E0  0080               	movwf	0
  4821  04E1                     l3364:
  4822                           
  4823                           ;GY-521.c: 174:     datos[1] = ((float) guardar[1]) * 0.0005982;
  4824  04E1  303A               	movlw	58
  4825  04E2  00A9               	movwf	___flmul@b+3
  4826  04E3  301C               	movlw	28
  4827  04E4  00A8               	movwf	___flmul@b+2
  4828  04E5  30D0               	movlw	208
  4829  04E6  00A7               	movwf	___flmul@b+1
  4830  04E7  3086               	movlw	134
  4831  04E8  00A6               	movwf	___flmul@b
  4832  04E9  1683               	bsf	3,5	;RP0=1, select bank1
  4833  04EA  1303               	bcf	3,6	;RP1=0, select bank1
  4834  04EB  085D               	movf	(GY_Read@guardar^(0+128)+2),w
  4835  04EC  00F2               	movwf	___xxtofl@val
  4836  04ED  085E               	movf	((GY_Read@guardar+1)^(0+128)+2),w
  4837  04EE  00F3               	movwf	___xxtofl@val+1
  4838  04EF  3000               	movlw	0
  4839  04F0  1BF3               	btfsc	___xxtofl@val+1,7
  4840  04F1  30FF               	movlw	255
  4841  04F2  00F4               	movwf	___xxtofl@val+2
  4842  04F3  00F5               	movwf	___xxtofl@val+3
  4843  04F4  3001               	movlw	1
  4844  04F5  120A  158A  2093  120A  118A  	fcall	___xxtofl
  4845  04FA  0875               	movf	?___xxtofl+3,w
  4846  04FB  1283               	bcf	3,5	;RP0=0, select bank0
  4847  04FC  1303               	bcf	3,6	;RP1=0, select bank0
  4848  04FD  00AD               	movwf	___flmul@a+3
  4849  04FE  0874               	movf	?___xxtofl+2,w
  4850  04FF  00AC               	movwf	___flmul@a+2
  4851  0500  0873               	movf	?___xxtofl+1,w
  4852  0501  00AB               	movwf	___flmul@a+1
  4853  0502  0872               	movf	?___xxtofl,w
  4854  0503  00AA               	movwf	___flmul@a
  4855  0504  120A  118A  2021  120A  118A  	fcall	___flmul
  4856  0509  1683               	bsf	3,5	;RP0=1, select bank1
  4857  050A  1303               	bcf	3,6	;RP1=0, select bank1
  4858  050B  086B               	movf	GY_Read@datos^(0+128),w
  4859  050C  3E04               	addlw	4
  4860  050D  0084               	movwf	4
  4861  050E  1283               	bcf	3,5	;RP0=0, select bank0
  4862  050F  1303               	bcf	3,6	;RP1=0, select bank0
  4863  0510  0826               	movf	?___flmul,w
  4864  0511  1383               	bcf	3,7	;select IRP bank0
  4865  0512  0080               	movwf	0
  4866  0513  0A84               	incf	4,f
  4867  0514  0827               	movf	?___flmul+1,w
  4868  0515  0080               	movwf	0
  4869  0516  0A84               	incf	4,f
  4870  0517  0828               	movf	?___flmul+2,w
  4871  0518  0080               	movwf	0
  4872  0519  0A84               	incf	4,f
  4873  051A  0829               	movf	?___flmul+3,w
  4874  051B  0080               	movwf	0
  4875  051C                     l3366:
  4876                           
  4877                           ;GY-521.c: 175:     datos[2] = ((float) guardar[2]) * 0.0005982;
  4878  051C  303A               	movlw	58
  4879  051D  00A9               	movwf	___flmul@b+3
  4880  051E  301C               	movlw	28
  4881  051F  00A8               	movwf	___flmul@b+2
  4882  0520  30D0               	movlw	208
  4883  0521  00A7               	movwf	___flmul@b+1
  4884  0522  3086               	movlw	134
  4885  0523  00A6               	movwf	___flmul@b
  4886  0524  1683               	bsf	3,5	;RP0=1, select bank1
  4887  0525  1303               	bcf	3,6	;RP1=0, select bank1
  4888  0526  085F               	movf	(GY_Read@guardar^(0+128)+4),w
  4889  0527  00F2               	movwf	___xxtofl@val
  4890  0528  0860               	movf	((GY_Read@guardar+1)^(0+128)+4),w
  4891  0529  00F3               	movwf	___xxtofl@val+1
  4892  052A  3000               	movlw	0
  4893  052B  1BF3               	btfsc	___xxtofl@val+1,7
  4894  052C  30FF               	movlw	255
  4895  052D  00F4               	movwf	___xxtofl@val+2
  4896  052E  00F5               	movwf	___xxtofl@val+3
  4897  052F  3001               	movlw	1
  4898  0530  120A  158A  2093  120A  118A  	fcall	___xxtofl
  4899  0535  0875               	movf	?___xxtofl+3,w
  4900  0536  1283               	bcf	3,5	;RP0=0, select bank0
  4901  0537  1303               	bcf	3,6	;RP1=0, select bank0
  4902  0538  00AD               	movwf	___flmul@a+3
  4903  0539  0874               	movf	?___xxtofl+2,w
  4904  053A  00AC               	movwf	___flmul@a+2
  4905  053B  0873               	movf	?___xxtofl+1,w
  4906  053C  00AB               	movwf	___flmul@a+1
  4907  053D  0872               	movf	?___xxtofl,w
  4908  053E  00AA               	movwf	___flmul@a
  4909  053F  120A  118A  2021  120A  118A  	fcall	___flmul
  4910  0544  1683               	bsf	3,5	;RP0=1, select bank1
  4911  0545  1303               	bcf	3,6	;RP1=0, select bank1
  4912  0546  086B               	movf	GY_Read@datos^(0+128),w
  4913  0547  3E08               	addlw	8
  4914  0548  0084               	movwf	4
  4915  0549  1283               	bcf	3,5	;RP0=0, select bank0
  4916  054A  1303               	bcf	3,6	;RP1=0, select bank0
  4917  054B  0826               	movf	?___flmul,w
  4918  054C  1383               	bcf	3,7	;select IRP bank0
  4919  054D  0080               	movwf	0
  4920  054E  0A84               	incf	4,f
  4921  054F  0827               	movf	?___flmul+1,w
  4922  0550  0080               	movwf	0
  4923  0551  0A84               	incf	4,f
  4924  0552  0828               	movf	?___flmul+2,w
  4925  0553  0080               	movwf	0
  4926  0554  0A84               	incf	4,f
  4927  0555  0829               	movf	?___flmul+3,w
  4928  0556  0080               	movwf	0
  4929  0557                     l3368:
  4930                           
  4931                           ;GY-521.c: 176:     datos[3] = ((float) guardar[3])/340 + 36.53;
  4932  0557  3042               	movlw	66
  4933  0558  00C3               	movwf	___fladd@b+3
  4934  0559  3012               	movlw	18
  4935  055A  00C2               	movwf	___fladd@b+2
  4936  055B  301E               	movlw	30
  4937  055C  00C1               	movwf	___fladd@b+1
  4938  055D  30B8               	movlw	184
  4939  055E  00C0               	movwf	___fladd@b
  4940  055F  3043               	movlw	67
  4941  0560  00A9               	movwf	___fldiv@a+3
  4942  0561  30AA               	movlw	170
  4943  0562  00A8               	movwf	___fldiv@a+2
  4944  0563  3000               	movlw	0
  4945  0564  00A7               	movwf	___fldiv@a+1
  4946  0565  3000               	movlw	0
  4947  0566  00A6               	movwf	___fldiv@a
  4948  0567  1683               	bsf	3,5	;RP0=1, select bank1
  4949  0568  1303               	bcf	3,6	;RP1=0, select bank1
  4950  0569  0861               	movf	(GY_Read@guardar^(0+128)+6),w
  4951  056A  00F2               	movwf	___xxtofl@val
  4952  056B  0862               	movf	((GY_Read@guardar+1)^(0+128)+6),w
  4953  056C  00F3               	movwf	___xxtofl@val+1
  4954  056D  3000               	movlw	0
  4955  056E  1BF3               	btfsc	___xxtofl@val+1,7
  4956  056F  30FF               	movlw	255
  4957  0570  00F4               	movwf	___xxtofl@val+2
  4958  0571  00F5               	movwf	___xxtofl@val+3
  4959  0572  3001               	movlw	1
  4960  0573  120A  158A  2093  120A  118A  	fcall	___xxtofl
  4961  0578  0875               	movf	?___xxtofl+3,w
  4962  0579  1283               	bcf	3,5	;RP0=0, select bank0
  4963  057A  1303               	bcf	3,6	;RP1=0, select bank0
  4964  057B  00AD               	movwf	___fldiv@b+3
  4965  057C  0874               	movf	?___xxtofl+2,w
  4966  057D  00AC               	movwf	___fldiv@b+2
  4967  057E  0873               	movf	?___xxtofl+1,w
  4968  057F  00AB               	movwf	___fldiv@b+1
  4969  0580  0872               	movf	?___xxtofl,w
  4970  0581  00AA               	movwf	___fldiv@b
  4971  0582  120A  158A  214F  120A  118A  	fcall	___fldiv
  4972  0587  1283               	bcf	3,5	;RP0=0, select bank0
  4973  0588  1303               	bcf	3,6	;RP1=0, select bank0
  4974  0589  0829               	movf	?___fldiv+3,w
  4975  058A  00C7               	movwf	___fladd@a+3
  4976  058B  0828               	movf	?___fldiv+2,w
  4977  058C  00C6               	movwf	___fladd@a+2
  4978  058D  0827               	movf	?___fldiv+1,w
  4979  058E  00C5               	movwf	___fladd@a+1
  4980  058F  0826               	movf	?___fldiv,w
  4981  0590  00C4               	movwf	___fladd@a
  4982  0591  120A  158A  2578  120A  118A  	fcall	___fladd
  4983  0596  1683               	bsf	3,5	;RP0=1, select bank1
  4984  0597  1303               	bcf	3,6	;RP1=0, select bank1
  4985  0598  086B               	movf	GY_Read@datos^(0+128),w
  4986  0599  3E0C               	addlw	12
  4987  059A  0084               	movwf	4
  4988  059B  1283               	bcf	3,5	;RP0=0, select bank0
  4989  059C  1303               	bcf	3,6	;RP1=0, select bank0
  4990  059D  0840               	movf	?___fladd,w
  4991  059E  1383               	bcf	3,7	;select IRP bank0
  4992  059F  0080               	movwf	0
  4993  05A0  0A84               	incf	4,f
  4994  05A1  0841               	movf	?___fladd+1,w
  4995  05A2  0080               	movwf	0
  4996  05A3  0A84               	incf	4,f
  4997  05A4  0842               	movf	?___fladd+2,w
  4998  05A5  0080               	movwf	0
  4999  05A6  0A84               	incf	4,f
  5000  05A7  0843               	movf	?___fladd+3,w
  5001  05A8  0080               	movwf	0
  5002  05A9                     l3370:
  5003                           
  5004                           ;GY-521.c: 177:     datos[4] = ((float) guardar[4]) * 0.00763;
  5005  05A9  303B               	movlw	59
  5006  05AA  00A9               	movwf	___flmul@b+3
  5007  05AB  30FA               	movlw	250
  5008  05AC  00A8               	movwf	___flmul@b+2
  5009  05AD  3005               	movlw	5
  5010  05AE  00A7               	movwf	___flmul@b+1
  5011  05AF  3014               	movlw	20
  5012  05B0  00A6               	movwf	___flmul@b
  5013  05B1  1683               	bsf	3,5	;RP0=1, select bank1
  5014  05B2  1303               	bcf	3,6	;RP1=0, select bank1
  5015  05B3  0863               	movf	(GY_Read@guardar^(0+128)+8),w
  5016  05B4  00F2               	movwf	___xxtofl@val
  5017  05B5  0864               	movf	((GY_Read@guardar+1)^(0+128)+8),w
  5018  05B6  00F3               	movwf	___xxtofl@val+1
  5019  05B7  3000               	movlw	0
  5020  05B8  1BF3               	btfsc	___xxtofl@val+1,7
  5021  05B9  30FF               	movlw	255
  5022  05BA  00F4               	movwf	___xxtofl@val+2
  5023  05BB  00F5               	movwf	___xxtofl@val+3
  5024  05BC  3001               	movlw	1
  5025  05BD  120A  158A  2093  120A  118A  	fcall	___xxtofl
  5026  05C2  0875               	movf	?___xxtofl+3,w
  5027  05C3  1283               	bcf	3,5	;RP0=0, select bank0
  5028  05C4  1303               	bcf	3,6	;RP1=0, select bank0
  5029  05C5  00AD               	movwf	___flmul@a+3
  5030  05C6  0874               	movf	?___xxtofl+2,w
  5031  05C7  00AC               	movwf	___flmul@a+2
  5032  05C8  0873               	movf	?___xxtofl+1,w
  5033  05C9  00AB               	movwf	___flmul@a+1
  5034  05CA  0872               	movf	?___xxtofl,w
  5035  05CB  00AA               	movwf	___flmul@a
  5036  05CC  120A  118A  2021  120A  118A  	fcall	___flmul
  5037  05D1  1683               	bsf	3,5	;RP0=1, select bank1
  5038  05D2  1303               	bcf	3,6	;RP1=0, select bank1
  5039  05D3  086B               	movf	GY_Read@datos^(0+128),w
  5040  05D4  3E10               	addlw	16
  5041  05D5  0084               	movwf	4
  5042  05D6  1283               	bcf	3,5	;RP0=0, select bank0
  5043  05D7  1303               	bcf	3,6	;RP1=0, select bank0
  5044  05D8  0826               	movf	?___flmul,w
  5045  05D9  1383               	bcf	3,7	;select IRP bank0
  5046  05DA  0080               	movwf	0
  5047  05DB  0A84               	incf	4,f
  5048  05DC  0827               	movf	?___flmul+1,w
  5049  05DD  0080               	movwf	0
  5050  05DE  0A84               	incf	4,f
  5051  05DF  0828               	movf	?___flmul+2,w
  5052  05E0  0080               	movwf	0
  5053  05E1  0A84               	incf	4,f
  5054  05E2  0829               	movf	?___flmul+3,w
  5055  05E3  0080               	movwf	0
  5056  05E4                     l3372:
  5057                           
  5058                           ;GY-521.c: 178:     datos[5] = ((float) guardar[5]) * 0.00763;
  5059  05E4  303B               	movlw	59
  5060  05E5  00A9               	movwf	___flmul@b+3
  5061  05E6  30FA               	movlw	250
  5062  05E7  00A8               	movwf	___flmul@b+2
  5063  05E8  3005               	movlw	5
  5064  05E9  00A7               	movwf	___flmul@b+1
  5065  05EA  3014               	movlw	20
  5066  05EB  00A6               	movwf	___flmul@b
  5067  05EC  1683               	bsf	3,5	;RP0=1, select bank1
  5068  05ED  1303               	bcf	3,6	;RP1=0, select bank1
  5069  05EE  0865               	movf	(GY_Read@guardar^(0+128)+10),w
  5070  05EF  00F2               	movwf	___xxtofl@val
  5071  05F0  0866               	movf	((GY_Read@guardar+1)^(0+128)+10),w
  5072  05F1  00F3               	movwf	___xxtofl@val+1
  5073  05F2  3000               	movlw	0
  5074  05F3  1BF3               	btfsc	___xxtofl@val+1,7
  5075  05F4  30FF               	movlw	255
  5076  05F5  00F4               	movwf	___xxtofl@val+2
  5077  05F6  00F5               	movwf	___xxtofl@val+3
  5078  05F7  3001               	movlw	1
  5079  05F8  120A  158A  2093  120A  118A  	fcall	___xxtofl
  5080  05FD  0875               	movf	?___xxtofl+3,w
  5081  05FE  1283               	bcf	3,5	;RP0=0, select bank0
  5082  05FF  1303               	bcf	3,6	;RP1=0, select bank0
  5083  0600  00AD               	movwf	___flmul@a+3
  5084  0601  0874               	movf	?___xxtofl+2,w
  5085  0602  00AC               	movwf	___flmul@a+2
  5086  0603  0873               	movf	?___xxtofl+1,w
  5087  0604  00AB               	movwf	___flmul@a+1
  5088  0605  0872               	movf	?___xxtofl,w
  5089  0606  00AA               	movwf	___flmul@a
  5090  0607  120A  118A  2021  120A  118A  	fcall	___flmul
  5091  060C  1683               	bsf	3,5	;RP0=1, select bank1
  5092  060D  1303               	bcf	3,6	;RP1=0, select bank1
  5093  060E  086B               	movf	GY_Read@datos^(0+128),w
  5094  060F  3E14               	addlw	20
  5095  0610  0084               	movwf	4
  5096  0611  1283               	bcf	3,5	;RP0=0, select bank0
  5097  0612  1303               	bcf	3,6	;RP1=0, select bank0
  5098  0613  0826               	movf	?___flmul,w
  5099  0614  1383               	bcf	3,7	;select IRP bank0
  5100  0615  0080               	movwf	0
  5101  0616  0A84               	incf	4,f
  5102  0617  0827               	movf	?___flmul+1,w
  5103  0618  0080               	movwf	0
  5104  0619  0A84               	incf	4,f
  5105  061A  0828               	movf	?___flmul+2,w
  5106  061B  0080               	movwf	0
  5107  061C  0A84               	incf	4,f
  5108  061D  0829               	movf	?___flmul+3,w
  5109  061E  0080               	movwf	0
  5110  061F                     l3374:
  5111                           
  5112                           ;GY-521.c: 179:     datos[6] = ((float) guardar[6]) * 0.00763;
  5113  061F  303B               	movlw	59
  5114  0620  00A9               	movwf	___flmul@b+3
  5115  0621  30FA               	movlw	250
  5116  0622  00A8               	movwf	___flmul@b+2
  5117  0623  3005               	movlw	5
  5118  0624  00A7               	movwf	___flmul@b+1
  5119  0625  3014               	movlw	20
  5120  0626  00A6               	movwf	___flmul@b
  5121  0627  1683               	bsf	3,5	;RP0=1, select bank1
  5122  0628  1303               	bcf	3,6	;RP1=0, select bank1
  5123  0629  0867               	movf	(GY_Read@guardar^(0+128)+12),w
  5124  062A  00F2               	movwf	___xxtofl@val
  5125  062B  0868               	movf	((GY_Read@guardar+1)^(0+128)+12),w
  5126  062C  00F3               	movwf	___xxtofl@val+1
  5127  062D  3000               	movlw	0
  5128  062E  1BF3               	btfsc	___xxtofl@val+1,7
  5129  062F  30FF               	movlw	255
  5130  0630  00F4               	movwf	___xxtofl@val+2
  5131  0631  00F5               	movwf	___xxtofl@val+3
  5132  0632  3001               	movlw	1
  5133  0633  120A  158A  2093  120A  118A  	fcall	___xxtofl
  5134  0638  0875               	movf	?___xxtofl+3,w
  5135  0639  1283               	bcf	3,5	;RP0=0, select bank0
  5136  063A  1303               	bcf	3,6	;RP1=0, select bank0
  5137  063B  00AD               	movwf	___flmul@a+3
  5138  063C  0874               	movf	?___xxtofl+2,w
  5139  063D  00AC               	movwf	___flmul@a+2
  5140  063E  0873               	movf	?___xxtofl+1,w
  5141  063F  00AB               	movwf	___flmul@a+1
  5142  0640  0872               	movf	?___xxtofl,w
  5143  0641  00AA               	movwf	___flmul@a
  5144  0642  120A  118A  2021  120A  118A  	fcall	___flmul
  5145  0647  1683               	bsf	3,5	;RP0=1, select bank1
  5146  0648  1303               	bcf	3,6	;RP1=0, select bank1
  5147  0649  086B               	movf	GY_Read@datos^(0+128),w
  5148  064A  3E18               	addlw	24
  5149  064B  0084               	movwf	4
  5150  064C  1283               	bcf	3,5	;RP0=0, select bank0
  5151  064D  1303               	bcf	3,6	;RP1=0, select bank0
  5152  064E  0826               	movf	?___flmul,w
  5153  064F  1383               	bcf	3,7	;select IRP bank0
  5154  0650  0080               	movwf	0
  5155  0651  0A84               	incf	4,f
  5156  0652  0827               	movf	?___flmul+1,w
  5157  0653  0080               	movwf	0
  5158  0654  0A84               	incf	4,f
  5159  0655  0828               	movf	?___flmul+2,w
  5160  0656  0080               	movwf	0
  5161  0657  0A84               	incf	4,f
  5162  0658  0829               	movf	?___flmul+3,w
  5163  0659  0080               	movwf	0
  5164  065A                     l219:
  5165  065A  0008               	return
  5166  065B                     __end_of_GY_Read:
  5167                           
  5168                           	psect	text19
  5169  0893                     __ptext19:	
  5170 ;; *************** function ___xxtofl *****************
  5171 ;; Defined at:
  5172 ;;		line 10 in file "C:\Program Files\Microchip\xc8\v2.31\pic\sources\c90\common\xxtofl.c"
  5173 ;; Parameters:    Size  Location     Type
  5174 ;;  sign            1    wreg     unsigned char 
  5175 ;;  val             4    2[COMMON] long 
  5176 ;; Auto vars:     Size  Location     Type
  5177 ;;  sign            1    0[BANK0 ] unsigned char 
  5178 ;;  arg             4    2[BANK0 ] unsigned long 
  5179 ;;  exp             1    1[BANK0 ] unsigned char 
  5180 ;; Return value:  Size  Location     Type
  5181 ;;                  4    2[COMMON] unsigned char 
  5182 ;; Registers used:
  5183 ;;		wreg, status,2, status,0
  5184 ;; Tracked objects:
  5185 ;;		On entry : 0/0
  5186 ;;		On exit  : 0/0
  5187 ;;		Unchanged: 0/0
  5188 ;; Data sizes:     COMMON   BANK0   BANK1   BANK3   BANK2
  5189 ;;      Params:         4       0       0       0       0
  5190 ;;      Locals:         0       6       0       0       0
  5191 ;;      Temps:          4       0       0       0       0
  5192 ;;      Totals:         8       6       0       0       0
  5193 ;;Total ram usage:       14 bytes
  5194 ;; Hardware stack levels used:    1
  5195 ;; Hardware stack levels required when called:    1
  5196 ;; This function calls:
  5197 ;;		Nothing
  5198 ;; This function is called by:
  5199 ;;		_GY_Read
  5200 ;;		_ftoa
  5201 ;; This function uses a non-reentrant model
  5202 ;;
  5203                           
  5204                           
  5205                           ;psect for function ___xxtofl
  5206  0893                     ___xxtofl:
  5207                           
  5208                           ;incstack = 0
  5209                           ; Regs used in ___xxtofl: [wreg+status,2+status,0]
  5210                           ;___xxtofl@sign stored from wreg
  5211  0893  1283               	bcf	3,5	;RP0=0, select bank0
  5212  0894  1303               	bcf	3,6	;RP1=0, select bank0
  5213  0895  00A0               	movwf	___xxtofl@sign
  5214  0896                     l2628:
  5215  0896  0820               	movf	___xxtofl@sign,w
  5216  0897  1903               	btfsc	3,2
  5217  0898  289A               	goto	u3731
  5218  0899  289B               	goto	u3730
  5219  089A                     u3731:
  5220  089A  28AF               	goto	l2634
  5221  089B                     u3730:
  5222  089B                     l2630:
  5223  089B  1FF5               	btfss	___xxtofl@val+3,7
  5224  089C  289E               	goto	u3741
  5225  089D  289F               	goto	u3740
  5226  089E                     u3741:
  5227  089E  28AF               	goto	l2634
  5228  089F                     u3740:
  5229  089F                     l2632:
  5230  089F  0972               	comf	___xxtofl@val,w
  5231  08A0  00A2               	movwf	___xxtofl@arg
  5232  08A1  0973               	comf	___xxtofl@val+1,w
  5233  08A2  00A3               	movwf	___xxtofl@arg+1
  5234  08A3  0974               	comf	___xxtofl@val+2,w
  5235  08A4  00A4               	movwf	___xxtofl@arg+2
  5236  08A5  0975               	comf	___xxtofl@val+3,w
  5237  08A6  00A5               	movwf	___xxtofl@arg+3
  5238  08A7  0AA2               	incf	___xxtofl@arg,f
  5239  08A8  1903               	skipnz
  5240  08A9  0AA3               	incf	___xxtofl@arg+1,f
  5241  08AA  1903               	skipnz
  5242  08AB  0AA4               	incf	___xxtofl@arg+2,f
  5243  08AC  1903               	skipnz
  5244  08AD  0AA5               	incf	___xxtofl@arg+3,f
  5245  08AE  28B7               	goto	l738
  5246  08AF                     l2634:
  5247  08AF  0875               	movf	___xxtofl@val+3,w
  5248  08B0  00A5               	movwf	___xxtofl@arg+3
  5249  08B1  0874               	movf	___xxtofl@val+2,w
  5250  08B2  00A4               	movwf	___xxtofl@arg+2
  5251  08B3  0873               	movf	___xxtofl@val+1,w
  5252  08B4  00A3               	movwf	___xxtofl@arg+1
  5253  08B5  0872               	movf	___xxtofl@val,w
  5254  08B6  00A2               	movwf	___xxtofl@arg
  5255  08B7                     l738:
  5256  08B7  0875               	movf	___xxtofl@val+3,w
  5257  08B8  0474               	iorwf	___xxtofl@val+2,w
  5258  08B9  0473               	iorwf	___xxtofl@val+1,w
  5259  08BA  0472               	iorwf	___xxtofl@val,w
  5260  08BB  1D03               	skipz
  5261  08BC  28BE               	goto	u3751
  5262  08BD  28BF               	goto	u3750
  5263  08BE                     u3751:
  5264  08BE  28C8               	goto	l2640
  5265  08BF                     u3750:
  5266  08BF                     l2636:
  5267  08BF  3000               	movlw	0
  5268  08C0  00F5               	movwf	?___xxtofl+3
  5269  08C1  3000               	movlw	0
  5270  08C2  00F4               	movwf	?___xxtofl+2
  5271  08C3  3000               	movlw	0
  5272  08C4  00F3               	movwf	?___xxtofl+1
  5273  08C5  3000               	movlw	0
  5274  08C6  00F2               	movwf	?___xxtofl
  5275  08C7  294E               	goto	l740
  5276  08C8                     l2640:
  5277  08C8  3096               	movlw	150
  5278  08C9  00F6               	movwf	??___xxtofl
  5279  08CA  0876               	movf	??___xxtofl,w
  5280  08CB  00A1               	movwf	___xxtofl@exp
  5281  08CC  28DA               	goto	l2644
  5282  08CD                     l2642:
  5283  08CD  3001               	movlw	1
  5284  08CE  00F6               	movwf	??___xxtofl
  5285  08CF  0876               	movf	??___xxtofl,w
  5286  08D0  07A1               	addwf	___xxtofl@exp,f
  5287  08D1  3001               	movlw	1
  5288  08D2                     u3765:
  5289  08D2  1003               	clrc
  5290  08D3  0CA5               	rrf	___xxtofl@arg+3,f
  5291  08D4  0CA4               	rrf	___xxtofl@arg+2,f
  5292  08D5  0CA3               	rrf	___xxtofl@arg+1,f
  5293  08D6  0CA2               	rrf	___xxtofl@arg,f
  5294  08D7  3EFF               	addlw	-1
  5295  08D8  1D03               	skipz
  5296  08D9  28D2               	goto	u3765
  5297  08DA                     l2644:
  5298  08DA  30FE               	movlw	254
  5299  08DB  0525               	andwf	___xxtofl@arg+3,w
  5300  08DC  1D03               	btfss	3,2
  5301  08DD  28DF               	goto	u3771
  5302  08DE  28E0               	goto	u3770
  5303  08DF                     u3771:
  5304  08DF  28CD               	goto	l2642
  5305  08E0                     u3770:
  5306  08E0  28FC               	goto	l744
  5307  08E1                     l2646:
  5308  08E1  3001               	movlw	1
  5309  08E2  00F6               	movwf	??___xxtofl
  5310  08E3  0876               	movf	??___xxtofl,w
  5311  08E4  07A1               	addwf	___xxtofl@exp,f
  5312  08E5                     l2648:
  5313  08E5  3001               	movlw	1
  5314  08E6  07A2               	addwf	___xxtofl@arg,f
  5315  08E7  3000               	movlw	0
  5316  08E8  1803               	skipnc
  5317  08E9  3001               	movlw	1
  5318  08EA  07A3               	addwf	___xxtofl@arg+1,f
  5319  08EB  3000               	movlw	0
  5320  08EC  1803               	skipnc
  5321  08ED  3001               	movlw	1
  5322  08EE  07A4               	addwf	___xxtofl@arg+2,f
  5323  08EF  3000               	movlw	0
  5324  08F0  1803               	skipnc
  5325  08F1  3001               	movlw	1
  5326  08F2  07A5               	addwf	___xxtofl@arg+3,f
  5327  08F3                     l2650:
  5328  08F3  3001               	movlw	1
  5329  08F4                     u3785:
  5330  08F4  1003               	clrc
  5331  08F5  0CA5               	rrf	___xxtofl@arg+3,f
  5332  08F6  0CA4               	rrf	___xxtofl@arg+2,f
  5333  08F7  0CA3               	rrf	___xxtofl@arg+1,f
  5334  08F8  0CA2               	rrf	___xxtofl@arg,f
  5335  08F9  3EFF               	addlw	-1
  5336  08FA  1D03               	skipz
  5337  08FB  28F4               	goto	u3785
  5338  08FC                     l744:
  5339  08FC  30FF               	movlw	255
  5340  08FD  0525               	andwf	___xxtofl@arg+3,w
  5341  08FE  1D03               	btfss	3,2
  5342  08FF  2901               	goto	u3791
  5343  0900  2902               	goto	u3790
  5344  0901                     u3791:
  5345  0901  28E1               	goto	l2646
  5346  0902                     u3790:
  5347  0902  290E               	goto	l2654
  5348  0903                     l2652:
  5349  0903  3001               	movlw	1
  5350  0904  02A1               	subwf	___xxtofl@exp,f
  5351  0905  3001               	movlw	1
  5352  0906  00F6               	movwf	??___xxtofl
  5353  0907                     u3805:
  5354  0907  1003               	clrc
  5355  0908  0DA2               	rlf	___xxtofl@arg,f
  5356  0909  0DA3               	rlf	___xxtofl@arg+1,f
  5357  090A  0DA4               	rlf	___xxtofl@arg+2,f
  5358  090B  0DA5               	rlf	___xxtofl@arg+3,f
  5359  090C  0BF6               	decfsz	??___xxtofl,f
  5360  090D  2907               	goto	u3805
  5361  090E                     l2654:
  5362  090E  1BA4               	btfsc	___xxtofl@arg+2,7
  5363  090F  2911               	goto	u3811
  5364  0910  2912               	goto	u3810
  5365  0911                     u3811:
  5366  0911  2918               	goto	l751
  5367  0912                     u3810:
  5368  0912                     l2656:
  5369  0912  3002               	movlw	2
  5370  0913  0221               	subwf	___xxtofl@exp,w
  5371  0914  1803               	skipnc
  5372  0915  2917               	goto	u3821
  5373  0916  2918               	goto	u3820
  5374  0917                     u3821:
  5375  0917  2903               	goto	l2652
  5376  0918                     u3820:
  5377  0918                     l751:
  5378  0918  1821               	btfsc	___xxtofl@exp,0
  5379  0919  291B               	goto	u3831
  5380  091A  291C               	goto	u3830
  5381  091B                     u3831:
  5382  091B  2924               	goto	l752
  5383  091C                     u3830:
  5384  091C                     l2658:
  5385  091C  30FF               	movlw	255
  5386  091D  05A2               	andwf	___xxtofl@arg,f
  5387  091E  30FF               	movlw	255
  5388  091F  05A3               	andwf	___xxtofl@arg+1,f
  5389  0920  307F               	movlw	127
  5390  0921  05A4               	andwf	___xxtofl@arg+2,f
  5391  0922  30FF               	movlw	255
  5392  0923  05A5               	andwf	___xxtofl@arg+3,f
  5393  0924                     l752:
  5394  0924  1003               	clrc
  5395  0925  0CA1               	rrf	___xxtofl@exp,f
  5396  0926                     l2660:
  5397  0926  0821               	movf	___xxtofl@exp,w
  5398  0927  00F6               	movwf	??___xxtofl
  5399  0928  01F7               	clrf	??___xxtofl+1
  5400  0929  01F8               	clrf	??___xxtofl+2
  5401  092A  01F9               	clrf	??___xxtofl+3
  5402  092B  3018               	movlw	24
  5403  092C                     u3845:
  5404  092C  1003               	clrc
  5405  092D  0DF6               	rlf	??___xxtofl,f
  5406  092E  0DF7               	rlf	??___xxtofl+1,f
  5407  092F  0DF8               	rlf	??___xxtofl+2,f
  5408  0930  0DF9               	rlf	??___xxtofl+3,f
  5409  0931                     u3840:
  5410  0931  3EFF               	addlw	-1
  5411  0932  1D03               	skipz
  5412  0933  292C               	goto	u3845
  5413  0934  0876               	movf	??___xxtofl,w
  5414  0935  04A2               	iorwf	___xxtofl@arg,f
  5415  0936  0877               	movf	??___xxtofl+1,w
  5416  0937  04A3               	iorwf	___xxtofl@arg+1,f
  5417  0938  0878               	movf	??___xxtofl+2,w
  5418  0939  04A4               	iorwf	___xxtofl@arg+2,f
  5419  093A  0879               	movf	??___xxtofl+3,w
  5420  093B  04A5               	iorwf	___xxtofl@arg+3,f
  5421  093C                     l2662:
  5422  093C  0820               	movf	___xxtofl@sign,w
  5423  093D  1903               	btfsc	3,2
  5424  093E  2940               	goto	u3851
  5425  093F  2941               	goto	u3850
  5426  0940                     u3851:
  5427  0940  2946               	goto	l2668
  5428  0941                     u3850:
  5429  0941                     l2664:
  5430  0941  1FF5               	btfss	___xxtofl@val+3,7
  5431  0942  2944               	goto	u3861
  5432  0943  2945               	goto	u3860
  5433  0944                     u3861:
  5434  0944  2946               	goto	l2668
  5435  0945                     u3860:
  5436  0945                     l2666:
  5437  0945  17A5               	bsf	___xxtofl@arg+3,7
  5438  0946                     l2668:
  5439  0946  0825               	movf	___xxtofl@arg+3,w
  5440  0947  00F5               	movwf	?___xxtofl+3
  5441  0948  0824               	movf	___xxtofl@arg+2,w
  5442  0949  00F4               	movwf	?___xxtofl+2
  5443  094A  0823               	movf	___xxtofl@arg+1,w
  5444  094B  00F3               	movwf	?___xxtofl+1
  5445  094C  0822               	movf	___xxtofl@arg,w
  5446  094D  00F2               	movwf	?___xxtofl
  5447  094E                     l740:
  5448  094E  0008               	return
  5449  094F                     __end_of___xxtofl:
  5450                           
  5451                           	psect	text20
  5452  0021                     __ptext20:	
  5453 ;; *************** function ___flmul *****************
  5454 ;; Defined at:
  5455 ;;		line 8 in file "C:\Program Files\Microchip\xc8\v2.31\pic\sources\c90\common\sprcmul.c"
  5456 ;; Parameters:    Size  Location     Type
  5457 ;;  b               4    6[BANK0 ] unsigned char 
  5458 ;;  a               4   10[BANK0 ] unsigned char 
  5459 ;; Auto vars:     Size  Location     Type
  5460 ;;  prod            4   26[BANK0 ] struct .
  5461 ;;  grs             4   21[BANK0 ] unsigned long 
  5462 ;;  temp            2   30[BANK0 ] struct .
  5463 ;;  bexp            1   25[BANK0 ] unsigned char 
  5464 ;;  aexp            1   20[BANK0 ] unsigned char 
  5465 ;;  sign            1   19[BANK0 ] unsigned char 
  5466 ;; Return value:  Size  Location     Type
  5467 ;;                  4    6[BANK0 ] unsigned char 
  5468 ;; Registers used:
  5469 ;;		wreg, status,2, status,0, btemp+1, pclath, cstack
  5470 ;; Tracked objects:
  5471 ;;		On entry : 0/0
  5472 ;;		On exit  : 0/0
  5473 ;;		Unchanged: 0/0
  5474 ;; Data sizes:     COMMON   BANK0   BANK1   BANK3   BANK2
  5475 ;;      Params:         0       8       0       0       0
  5476 ;;      Locals:         0      13       0       0       0
  5477 ;;      Temps:          0       5       0       0       0
  5478 ;;      Totals:         0      26       0       0       0
  5479 ;;Total ram usage:       26 bytes
  5480 ;; Hardware stack levels used:    1
  5481 ;; Hardware stack levels required when called:    2
  5482 ;; This function calls:
  5483 ;;		__Umul8_16
  5484 ;; This function is called by:
  5485 ;;		_GY_Read
  5486 ;;		_ftoa
  5487 ;; This function uses a non-reentrant model
  5488 ;;
  5489                           
  5490                           
  5491                           ;psect for function ___flmul
  5492  0021                     ___flmul:
  5493  0021                     l3050:	
  5494                           ;incstack = 0
  5495                           ; Regs used in ___flmul: [wreg+status,2+status,0+btemp+1+pclath+cstack]
  5496                           
  5497  0021  1283               	bcf	3,5	;RP0=0, select bank0
  5498  0022  1303               	bcf	3,6	;RP1=0, select bank0
  5499  0023  0829               	movf	___flmul@b+3,w
  5500  0024  3980               	andlw	128
  5501  0025  00AE               	movwf	??___flmul
  5502  0026  082E               	movf	??___flmul,w
  5503  0027  00B3               	movwf	___flmul@sign
  5504  0028                     l3052:
  5505  0028  0829               	movf	___flmul@b+3,w
  5506  0029  00AE               	movwf	??___flmul
  5507  002A  072E               	addwf	??___flmul,w
  5508  002B  00AF               	movwf	??___flmul+1
  5509  002C  082F               	movf	??___flmul+1,w
  5510  002D  00B9               	movwf	___flmul@bexp
  5511  002E                     l3054:
  5512  002E  1FA8               	btfss	___flmul@b+2,7
  5513  002F  2831               	goto	u4351
  5514  0030  2832               	goto	u4350
  5515  0031                     u4351:
  5516  0031  2833               	goto	l3058
  5517  0032                     u4350:
  5518  0032                     l3056:
  5519  0032  1439               	bsf	___flmul@bexp,0
  5520  0033                     l3058:
  5521  0033  0839               	movf	___flmul@bexp,w
  5522  0034  1903               	btfsc	3,2
  5523  0035  2837               	goto	u4361
  5524  0036  2838               	goto	u4360
  5525  0037                     u4361:
  5526  0037  2847               	goto	l3066
  5527  0038                     u4360:
  5528  0038                     l3060:
  5529  0038  0A39               	incf	___flmul@bexp,w
  5530  0039  1D03               	btfss	3,2
  5531  003A  283C               	goto	u4371
  5532  003B  283D               	goto	u4370
  5533  003C                     u4371:
  5534  003C  2845               	goto	l3064
  5535  003D                     u4370:
  5536  003D                     l3062:
  5537  003D  3000               	movlw	0
  5538  003E  00A9               	movwf	___flmul@b+3
  5539  003F  3000               	movlw	0
  5540  0040  00A8               	movwf	___flmul@b+2
  5541  0041  3000               	movlw	0
  5542  0042  00A7               	movwf	___flmul@b+1
  5543  0043  3000               	movlw	0
  5544  0044  00A6               	movwf	___flmul@b
  5545  0045                     l3064:
  5546  0045  17A8               	bsf	___flmul@b+2,7
  5547  0046  284F               	goto	l3068
  5548  0047                     l3066:
  5549  0047  3000               	movlw	0
  5550  0048  00A9               	movwf	___flmul@b+3
  5551  0049  3000               	movlw	0
  5552  004A  00A8               	movwf	___flmul@b+2
  5553  004B  3000               	movlw	0
  5554  004C  00A7               	movwf	___flmul@b+1
  5555  004D  3000               	movlw	0
  5556  004E  00A6               	movwf	___flmul@b
  5557  004F                     l3068:
  5558  004F  082D               	movf	___flmul@a+3,w
  5559  0050  3980               	andlw	128
  5560  0051  00AE               	movwf	??___flmul
  5561  0052  082E               	movf	??___flmul,w
  5562  0053  06B3               	xorwf	___flmul@sign,f
  5563  0054                     l3070:
  5564  0054  082D               	movf	___flmul@a+3,w
  5565  0055  00AE               	movwf	??___flmul
  5566  0056  072E               	addwf	??___flmul,w
  5567  0057  00AF               	movwf	??___flmul+1
  5568  0058  082F               	movf	??___flmul+1,w
  5569  0059  00B4               	movwf	___flmul@aexp
  5570  005A                     l3072:
  5571  005A  1FAC               	btfss	___flmul@a+2,7
  5572  005B  285D               	goto	u4381
  5573  005C  285E               	goto	u4380
  5574  005D                     u4381:
  5575  005D  285F               	goto	l3076
  5576  005E                     u4380:
  5577  005E                     l3074:
  5578  005E  1434               	bsf	___flmul@aexp,0
  5579  005F                     l3076:
  5580  005F  0834               	movf	___flmul@aexp,w
  5581  0060  1903               	btfsc	3,2
  5582  0061  2863               	goto	u4391
  5583  0062  2864               	goto	u4390
  5584  0063                     u4391:
  5585  0063  2873               	goto	l3084
  5586  0064                     u4390:
  5587  0064                     l3078:
  5588  0064  0A34               	incf	___flmul@aexp,w
  5589  0065  1D03               	btfss	3,2
  5590  0066  2868               	goto	u4401
  5591  0067  2869               	goto	u4400
  5592  0068                     u4401:
  5593  0068  2871               	goto	l3082
  5594  0069                     u4400:
  5595  0069                     l3080:
  5596  0069  3000               	movlw	0
  5597  006A  00AD               	movwf	___flmul@a+3
  5598  006B  3000               	movlw	0
  5599  006C  00AC               	movwf	___flmul@a+2
  5600  006D  3000               	movlw	0
  5601  006E  00AB               	movwf	___flmul@a+1
  5602  006F  3000               	movlw	0
  5603  0070  00AA               	movwf	___flmul@a
  5604  0071                     l3082:
  5605  0071  17AC               	bsf	___flmul@a+2,7
  5606  0072  287B               	goto	l3086
  5607  0073                     l3084:
  5608  0073  3000               	movlw	0
  5609  0074  00AD               	movwf	___flmul@a+3
  5610  0075  3000               	movlw	0
  5611  0076  00AC               	movwf	___flmul@a+2
  5612  0077  3000               	movlw	0
  5613  0078  00AB               	movwf	___flmul@a+1
  5614  0079  3000               	movlw	0
  5615  007A  00AA               	movwf	___flmul@a
  5616  007B                     l3086:
  5617  007B  0834               	movf	___flmul@aexp,w
  5618  007C  1903               	btfsc	3,2
  5619  007D  287F               	goto	u4411
  5620  007E  2880               	goto	u4410
  5621  007F                     u4411:
  5622  007F  2885               	goto	l3090
  5623  0080                     u4410:
  5624  0080                     l3088:
  5625  0080  0839               	movf	___flmul@bexp,w
  5626  0081  1D03               	btfss	3,2
  5627  0082  2884               	goto	u4421
  5628  0083  2885               	goto	u4420
  5629  0084                     u4421:
  5630  0084  288E               	goto	l3094
  5631  0085                     u4420:
  5632  0085                     l3090:
  5633  0085  3000               	movlw	0
  5634  0086  00A9               	movwf	?___flmul+3
  5635  0087  3000               	movlw	0
  5636  0088  00A8               	movwf	?___flmul+2
  5637  0089  3000               	movlw	0
  5638  008A  00A7               	movwf	?___flmul+1
  5639  008B  3000               	movlw	0
  5640  008C  00A6               	movwf	?___flmul
  5641  008D  2B81               	goto	l694
  5642  008E                     l3094:
  5643  008E  0826               	movf	___flmul@b,w
  5644  008F  00AE               	movwf	??___flmul
  5645  0090  082E               	movf	??___flmul,w
  5646  0091  00F2               	movwf	__Umul8_16@multiplicand
  5647  0092  082C               	movf	___flmul@a+2,w
  5648  0093  160A  118A  23D4  120A  118A  	fcall	__Umul8_16
  5649  0098  0873               	movf	?__Umul8_16+1,w
  5650  0099  1283               	bcf	3,5	;RP0=0, select bank0
  5651  009A  1303               	bcf	3,6	;RP1=0, select bank0
  5652  009B  00BF               	movwf	___flmul@temp+1
  5653  009C  0872               	movf	?__Umul8_16,w
  5654  009D  00BE               	movwf	___flmul@temp
  5655  009E                     l3096:
  5656  009E  083E               	movf	___flmul@temp,w
  5657  009F  00AE               	movwf	??___flmul
  5658  00A0  01AF               	clrf	??___flmul+1
  5659  00A1  01B0               	clrf	??___flmul+2
  5660  00A2  01B1               	clrf	??___flmul+3
  5661  00A3  0831               	movf	??___flmul+3,w
  5662  00A4  00B8               	movwf	___flmul@grs+3
  5663  00A5  0830               	movf	??___flmul+2,w
  5664  00A6  00B7               	movwf	___flmul@grs+2
  5665  00A7  082F               	movf	??___flmul+1,w
  5666  00A8  00B6               	movwf	___flmul@grs+1
  5667  00A9  082E               	movf	??___flmul,w
  5668  00AA  00B5               	movwf	___flmul@grs
  5669  00AB                     l3098:
  5670  00AB  083F               	movf	___flmul@temp+1,w
  5671  00AC  00AE               	movwf	??___flmul
  5672  00AD  01AF               	clrf	??___flmul+1
  5673  00AE  01B0               	clrf	??___flmul+2
  5674  00AF  01B1               	clrf	??___flmul+3
  5675  00B0  0831               	movf	??___flmul+3,w
  5676  00B1  00BD               	movwf	___flmul@prod+3
  5677  00B2  0830               	movf	??___flmul+2,w
  5678  00B3  00BC               	movwf	___flmul@prod+2
  5679  00B4  082F               	movf	??___flmul+1,w
  5680  00B5  00BB               	movwf	___flmul@prod+1
  5681  00B6  082E               	movf	??___flmul,w
  5682  00B7  00BA               	movwf	___flmul@prod
  5683  00B8  0827               	movf	___flmul@b+1,w
  5684  00B9  00AE               	movwf	??___flmul
  5685  00BA  082E               	movf	??___flmul,w
  5686  00BB  00F2               	movwf	__Umul8_16@multiplicand
  5687  00BC  082B               	movf	___flmul@a+1,w
  5688  00BD  160A  118A  23D4  120A  118A  	fcall	__Umul8_16
  5689  00C2  0873               	movf	?__Umul8_16+1,w
  5690  00C3  1283               	bcf	3,5	;RP0=0, select bank0
  5691  00C4  1303               	bcf	3,6	;RP1=0, select bank0
  5692  00C5  00BF               	movwf	___flmul@temp+1
  5693  00C6  0872               	movf	?__Umul8_16,w
  5694  00C7  00BE               	movwf	___flmul@temp
  5695  00C8                     l3100:
  5696  00C8  083E               	movf	___flmul@temp,w
  5697  00C9  00AE               	movwf	??___flmul
  5698  00CA  01AF               	clrf	??___flmul+1
  5699  00CB  01B0               	clrf	??___flmul+2
  5700  00CC  01B1               	clrf	??___flmul+3
  5701  00CD  082E               	movf	??___flmul,w
  5702  00CE  07B5               	addwf	___flmul@grs,f
  5703  00CF  082F               	movf	??___flmul+1,w
  5704  00D0  1103               	clrz
  5705  00D1  1803               	skipnc
  5706  00D2  3E01               	addlw	1
  5707  00D3  1903               	skipnz
  5708  00D4  28D6               	goto	u4431
  5709  00D5  07B6               	addwf	___flmul@grs+1,f
  5710  00D6                     u4431:
  5711  00D6  0830               	movf	??___flmul+2,w
  5712  00D7  1103               	clrz
  5713  00D8  1803               	skipnc
  5714  00D9  3E01               	addlw	1
  5715  00DA  1903               	skipnz
  5716  00DB  28DD               	goto	u4432
  5717  00DC  07B7               	addwf	___flmul@grs+2,f
  5718  00DD                     u4432:
  5719  00DD  0831               	movf	??___flmul+3,w
  5720  00DE  1103               	clrz
  5721  00DF  1803               	skipnc
  5722  00E0  3E01               	addlw	1
  5723  00E1  1903               	skipnz
  5724  00E2  28E4               	goto	u4433
  5725  00E3  07B8               	addwf	___flmul@grs+3,f
  5726  00E4                     u4433:
  5727  00E4                     l3102:
  5728  00E4  083F               	movf	___flmul@temp+1,w
  5729  00E5  00AE               	movwf	??___flmul
  5730  00E6  01AF               	clrf	??___flmul+1
  5731  00E7  01B0               	clrf	??___flmul+2
  5732  00E8  01B1               	clrf	??___flmul+3
  5733  00E9  082E               	movf	??___flmul,w
  5734  00EA  07BA               	addwf	___flmul@prod,f
  5735  00EB  082F               	movf	??___flmul+1,w
  5736  00EC  1103               	clrz
  5737  00ED  1803               	skipnc
  5738  00EE  3E01               	addlw	1
  5739  00EF  1903               	skipnz
  5740  00F0  28F2               	goto	u4441
  5741  00F1  07BB               	addwf	___flmul@prod+1,f
  5742  00F2                     u4441:
  5743  00F2  0830               	movf	??___flmul+2,w
  5744  00F3  1103               	clrz
  5745  00F4  1803               	skipnc
  5746  00F5  3E01               	addlw	1
  5747  00F6  1903               	skipnz
  5748  00F7  28F9               	goto	u4442
  5749  00F8  07BC               	addwf	___flmul@prod+2,f
  5750  00F9                     u4442:
  5751  00F9  0831               	movf	??___flmul+3,w
  5752  00FA  1103               	clrz
  5753  00FB  1803               	skipnc
  5754  00FC  3E01               	addlw	1
  5755  00FD  1903               	skipnz
  5756  00FE  2900               	goto	u4443
  5757  00FF  07BD               	addwf	___flmul@prod+3,f
  5758  0100                     u4443:
  5759  0100  0828               	movf	___flmul@b+2,w
  5760  0101  00AE               	movwf	??___flmul
  5761  0102  082E               	movf	??___flmul,w
  5762  0103  00F2               	movwf	__Umul8_16@multiplicand
  5763  0104  082A               	movf	___flmul@a,w
  5764  0105  160A  118A  23D4  120A  118A  	fcall	__Umul8_16
  5765  010A  0873               	movf	?__Umul8_16+1,w
  5766  010B  1283               	bcf	3,5	;RP0=0, select bank0
  5767  010C  1303               	bcf	3,6	;RP1=0, select bank0
  5768  010D  00BF               	movwf	___flmul@temp+1
  5769  010E  0872               	movf	?__Umul8_16,w
  5770  010F  00BE               	movwf	___flmul@temp
  5771  0110                     l3104:
  5772  0110  083E               	movf	___flmul@temp,w
  5773  0111  00AE               	movwf	??___flmul
  5774  0112  01AF               	clrf	??___flmul+1
  5775  0113  01B0               	clrf	??___flmul+2
  5776  0114  01B1               	clrf	??___flmul+3
  5777  0115  082E               	movf	??___flmul,w
  5778  0116  07B5               	addwf	___flmul@grs,f
  5779  0117  082F               	movf	??___flmul+1,w
  5780  0118  1103               	clrz
  5781  0119  1803               	skipnc
  5782  011A  3E01               	addlw	1
  5783  011B  1903               	skipnz
  5784  011C  291E               	goto	u4451
  5785  011D  07B6               	addwf	___flmul@grs+1,f
  5786  011E                     u4451:
  5787  011E  0830               	movf	??___flmul+2,w
  5788  011F  1103               	clrz
  5789  0120  1803               	skipnc
  5790  0121  3E01               	addlw	1
  5791  0122  1903               	skipnz
  5792  0123  2925               	goto	u4452
  5793  0124  07B7               	addwf	___flmul@grs+2,f
  5794  0125                     u4452:
  5795  0125  0831               	movf	??___flmul+3,w
  5796  0126  1103               	clrz
  5797  0127  1803               	skipnc
  5798  0128  3E01               	addlw	1
  5799  0129  1903               	skipnz
  5800  012A  292C               	goto	u4453
  5801  012B  07B8               	addwf	___flmul@grs+3,f
  5802  012C                     u4453:
  5803  012C                     l3106:
  5804  012C  083F               	movf	___flmul@temp+1,w
  5805  012D  00AE               	movwf	??___flmul
  5806  012E  01AF               	clrf	??___flmul+1
  5807  012F  01B0               	clrf	??___flmul+2
  5808  0130  01B1               	clrf	??___flmul+3
  5809  0131  082E               	movf	??___flmul,w
  5810  0132  07BA               	addwf	___flmul@prod,f
  5811  0133  082F               	movf	??___flmul+1,w
  5812  0134  1103               	clrz
  5813  0135  1803               	skipnc
  5814  0136  3E01               	addlw	1
  5815  0137  1903               	skipnz
  5816  0138  293A               	goto	u4461
  5817  0139  07BB               	addwf	___flmul@prod+1,f
  5818  013A                     u4461:
  5819  013A  0830               	movf	??___flmul+2,w
  5820  013B  1103               	clrz
  5821  013C  1803               	skipnc
  5822  013D  3E01               	addlw	1
  5823  013E  1903               	skipnz
  5824  013F  2941               	goto	u4462
  5825  0140  07BC               	addwf	___flmul@prod+2,f
  5826  0141                     u4462:
  5827  0141  0831               	movf	??___flmul+3,w
  5828  0142  1103               	clrz
  5829  0143  1803               	skipnc
  5830  0144  3E01               	addlw	1
  5831  0145  1903               	skipnz
  5832  0146  2948               	goto	u4463
  5833  0147  07BD               	addwf	___flmul@prod+3,f
  5834  0148                     u4463:
  5835  0148                     l3108:
  5836  0148  3008               	movlw	8
  5837  0149  00AE               	movwf	??___flmul
  5838  014A                     u4475:
  5839  014A  1003               	clrc
  5840  014B  0DB5               	rlf	___flmul@grs,f
  5841  014C  0DB6               	rlf	___flmul@grs+1,f
  5842  014D  0DB7               	rlf	___flmul@grs+2,f
  5843  014E  0DB8               	rlf	___flmul@grs+3,f
  5844  014F  0BAE               	decfsz	??___flmul,f
  5845  0150  294A               	goto	u4475
  5846  0151                     l3110:
  5847  0151  0827               	movf	___flmul@b+1,w
  5848  0152  00AE               	movwf	??___flmul
  5849  0153  082E               	movf	??___flmul,w
  5850  0154  00F2               	movwf	__Umul8_16@multiplicand
  5851  0155  082A               	movf	___flmul@a,w
  5852  0156  160A  118A  23D4  120A  118A  	fcall	__Umul8_16
  5853  015B  0873               	movf	?__Umul8_16+1,w
  5854  015C  1283               	bcf	3,5	;RP0=0, select bank0
  5855  015D  1303               	bcf	3,6	;RP1=0, select bank0
  5856  015E  00BF               	movwf	___flmul@temp+1
  5857  015F  0872               	movf	?__Umul8_16,w
  5858  0160  00BE               	movwf	___flmul@temp
  5859  0161                     l3112:
  5860  0161  083E               	movf	___flmul@temp,w
  5861  0162  00AE               	movwf	??___flmul
  5862  0163  083F               	movf	___flmul@temp+1,w
  5863  0164  00AF               	movwf	??___flmul+1
  5864  0165  01B0               	clrf	??___flmul+2
  5865  0166  01B1               	clrf	??___flmul+3
  5866  0167  082E               	movf	??___flmul,w
  5867  0168  07B5               	addwf	___flmul@grs,f
  5868  0169  082F               	movf	??___flmul+1,w
  5869  016A  1103               	clrz
  5870  016B  1803               	skipnc
  5871  016C  3E01               	addlw	1
  5872  016D  1903               	skipnz
  5873  016E  2970               	goto	u4481
  5874  016F  07B6               	addwf	___flmul@grs+1,f
  5875  0170                     u4481:
  5876  0170  0830               	movf	??___flmul+2,w
  5877  0171  1103               	clrz
  5878  0172  1803               	skipnc
  5879  0173  3E01               	addlw	1
  5880  0174  1903               	skipnz
  5881  0175  2977               	goto	u4482
  5882  0176  07B7               	addwf	___flmul@grs+2,f
  5883  0177                     u4482:
  5884  0177  0831               	movf	??___flmul+3,w
  5885  0178  1103               	clrz
  5886  0179  1803               	skipnc
  5887  017A  3E01               	addlw	1
  5888  017B  1903               	skipnz
  5889  017C  297E               	goto	u4483
  5890  017D  07B8               	addwf	___flmul@grs+3,f
  5891  017E                     u4483:
  5892  017E                     l3114:
  5893  017E  0826               	movf	___flmul@b,w
  5894  017F  00AE               	movwf	??___flmul
  5895  0180  082E               	movf	??___flmul,w
  5896  0181  00F2               	movwf	__Umul8_16@multiplicand
  5897  0182  082B               	movf	___flmul@a+1,w
  5898  0183  160A  118A  23D4  120A  118A  	fcall	__Umul8_16
  5899  0188  0873               	movf	?__Umul8_16+1,w
  5900  0189  1283               	bcf	3,5	;RP0=0, select bank0
  5901  018A  1303               	bcf	3,6	;RP1=0, select bank0
  5902  018B  00BF               	movwf	___flmul@temp+1
  5903  018C  0872               	movf	?__Umul8_16,w
  5904  018D  00BE               	movwf	___flmul@temp
  5905  018E                     l3116:
  5906  018E  083E               	movf	___flmul@temp,w
  5907  018F  00AE               	movwf	??___flmul
  5908  0190  083F               	movf	___flmul@temp+1,w
  5909  0191  00AF               	movwf	??___flmul+1
  5910  0192  01B0               	clrf	??___flmul+2
  5911  0193  01B1               	clrf	??___flmul+3
  5912  0194  082E               	movf	??___flmul,w
  5913  0195  07B5               	addwf	___flmul@grs,f
  5914  0196  082F               	movf	??___flmul+1,w
  5915  0197  1103               	clrz
  5916  0198  1803               	skipnc
  5917  0199  3E01               	addlw	1
  5918  019A  1903               	skipnz
  5919  019B  299D               	goto	u4491
  5920  019C  07B6               	addwf	___flmul@grs+1,f
  5921  019D                     u4491:
  5922  019D  0830               	movf	??___flmul+2,w
  5923  019E  1103               	clrz
  5924  019F  1803               	skipnc
  5925  01A0  3E01               	addlw	1
  5926  01A1  1903               	skipnz
  5927  01A2  29A4               	goto	u4492
  5928  01A3  07B7               	addwf	___flmul@grs+2,f
  5929  01A4                     u4492:
  5930  01A4  0831               	movf	??___flmul+3,w
  5931  01A5  1103               	clrz
  5932  01A6  1803               	skipnc
  5933  01A7  3E01               	addlw	1
  5934  01A8  1903               	skipnz
  5935  01A9  29AB               	goto	u4493
  5936  01AA  07B8               	addwf	___flmul@grs+3,f
  5937  01AB                     u4493:
  5938  01AB                     l3118:
  5939  01AB  3008               	movlw	8
  5940  01AC  00AE               	movwf	??___flmul
  5941  01AD                     u4505:
  5942  01AD  1003               	clrc
  5943  01AE  0DB5               	rlf	___flmul@grs,f
  5944  01AF  0DB6               	rlf	___flmul@grs+1,f
  5945  01B0  0DB7               	rlf	___flmul@grs+2,f
  5946  01B1  0DB8               	rlf	___flmul@grs+3,f
  5947  01B2  0BAE               	decfsz	??___flmul,f
  5948  01B3  29AD               	goto	u4505
  5949  01B4  0826               	movf	___flmul@b,w
  5950  01B5  00AE               	movwf	??___flmul
  5951  01B6  082E               	movf	??___flmul,w
  5952  01B7  00F2               	movwf	__Umul8_16@multiplicand
  5953  01B8  082A               	movf	___flmul@a,w
  5954  01B9  160A  118A  23D4  120A  118A  	fcall	__Umul8_16
  5955  01BE  0873               	movf	?__Umul8_16+1,w
  5956  01BF  1283               	bcf	3,5	;RP0=0, select bank0
  5957  01C0  1303               	bcf	3,6	;RP1=0, select bank0
  5958  01C1  00BF               	movwf	___flmul@temp+1
  5959  01C2  0872               	movf	?__Umul8_16,w
  5960  01C3  00BE               	movwf	___flmul@temp
  5961  01C4                     l3120:
  5962  01C4  083E               	movf	___flmul@temp,w
  5963  01C5  00AE               	movwf	??___flmul
  5964  01C6  083F               	movf	___flmul@temp+1,w
  5965  01C7  00AF               	movwf	??___flmul+1
  5966  01C8  01B0               	clrf	??___flmul+2
  5967  01C9  01B1               	clrf	??___flmul+3
  5968  01CA  082E               	movf	??___flmul,w
  5969  01CB  07B5               	addwf	___flmul@grs,f
  5970  01CC  082F               	movf	??___flmul+1,w
  5971  01CD  1103               	clrz
  5972  01CE  1803               	skipnc
  5973  01CF  3E01               	addlw	1
  5974  01D0  1903               	skipnz
  5975  01D1  29D3               	goto	u4511
  5976  01D2  07B6               	addwf	___flmul@grs+1,f
  5977  01D3                     u4511:
  5978  01D3  0830               	movf	??___flmul+2,w
  5979  01D4  1103               	clrz
  5980  01D5  1803               	skipnc
  5981  01D6  3E01               	addlw	1
  5982  01D7  1903               	skipnz
  5983  01D8  29DA               	goto	u4512
  5984  01D9  07B7               	addwf	___flmul@grs+2,f
  5985  01DA                     u4512:
  5986  01DA  0831               	movf	??___flmul+3,w
  5987  01DB  1103               	clrz
  5988  01DC  1803               	skipnc
  5989  01DD  3E01               	addlw	1
  5990  01DE  1903               	skipnz
  5991  01DF  29E1               	goto	u4513
  5992  01E0  07B8               	addwf	___flmul@grs+3,f
  5993  01E1                     u4513:
  5994  01E1                     l3122:
  5995  01E1  0827               	movf	___flmul@b+1,w
  5996  01E2  00AE               	movwf	??___flmul
  5997  01E3  082E               	movf	??___flmul,w
  5998  01E4  00F2               	movwf	__Umul8_16@multiplicand
  5999  01E5  082C               	movf	___flmul@a+2,w
  6000  01E6  160A  118A  23D4  120A  118A  	fcall	__Umul8_16
  6001  01EB  0873               	movf	?__Umul8_16+1,w
  6002  01EC  1283               	bcf	3,5	;RP0=0, select bank0
  6003  01ED  1303               	bcf	3,6	;RP1=0, select bank0
  6004  01EE  00BF               	movwf	___flmul@temp+1
  6005  01EF  0872               	movf	?__Umul8_16,w
  6006  01F0  00BE               	movwf	___flmul@temp
  6007  01F1  083E               	movf	___flmul@temp,w
  6008  01F2  00AE               	movwf	??___flmul
  6009  01F3  083F               	movf	___flmul@temp+1,w
  6010  01F4  00AF               	movwf	??___flmul+1
  6011  01F5  01B0               	clrf	??___flmul+2
  6012  01F6  01B1               	clrf	??___flmul+3
  6013  01F7  082E               	movf	??___flmul,w
  6014  01F8  07BA               	addwf	___flmul@prod,f
  6015  01F9  082F               	movf	??___flmul+1,w
  6016  01FA  1103               	clrz
  6017  01FB  1803               	skipnc
  6018  01FC  3E01               	addlw	1
  6019  01FD  1903               	skipnz
  6020  01FE  2A00               	goto	u4521
  6021  01FF  07BB               	addwf	___flmul@prod+1,f
  6022  0200                     u4521:
  6023  0200  0830               	movf	??___flmul+2,w
  6024  0201  1103               	clrz
  6025  0202  1803               	skipnc
  6026  0203  3E01               	addlw	1
  6027  0204  1903               	skipnz
  6028  0205  2A07               	goto	u4522
  6029  0206  07BC               	addwf	___flmul@prod+2,f
  6030  0207                     u4522:
  6031  0207  0831               	movf	??___flmul+3,w
  6032  0208  1103               	clrz
  6033  0209  1803               	skipnc
  6034  020A  3E01               	addlw	1
  6035  020B  1903               	skipnz
  6036  020C  2A0E               	goto	u4523
  6037  020D  07BD               	addwf	___flmul@prod+3,f
  6038  020E                     u4523:
  6039  020E                     l3124:
  6040  020E  0828               	movf	___flmul@b+2,w
  6041  020F  00AE               	movwf	??___flmul
  6042  0210  082E               	movf	??___flmul,w
  6043  0211  00F2               	movwf	__Umul8_16@multiplicand
  6044  0212  082B               	movf	___flmul@a+1,w
  6045  0213  160A  118A  23D4  120A  118A  	fcall	__Umul8_16
  6046  0218  0873               	movf	?__Umul8_16+1,w
  6047  0219  1283               	bcf	3,5	;RP0=0, select bank0
  6048  021A  1303               	bcf	3,6	;RP1=0, select bank0
  6049  021B  00BF               	movwf	___flmul@temp+1
  6050  021C  0872               	movf	?__Umul8_16,w
  6051  021D  00BE               	movwf	___flmul@temp
  6052  021E                     l3126:
  6053  021E  083E               	movf	___flmul@temp,w
  6054  021F  00AE               	movwf	??___flmul
  6055  0220  083F               	movf	___flmul@temp+1,w
  6056  0221  00AF               	movwf	??___flmul+1
  6057  0222  01B0               	clrf	??___flmul+2
  6058  0223  01B1               	clrf	??___flmul+3
  6059  0224  082E               	movf	??___flmul,w
  6060  0225  07BA               	addwf	___flmul@prod,f
  6061  0226  082F               	movf	??___flmul+1,w
  6062  0227  1103               	clrz
  6063  0228  1803               	skipnc
  6064  0229  3E01               	addlw	1
  6065  022A  1903               	skipnz
  6066  022B  2A2D               	goto	u4531
  6067  022C  07BB               	addwf	___flmul@prod+1,f
  6068  022D                     u4531:
  6069  022D  0830               	movf	??___flmul+2,w
  6070  022E  1103               	clrz
  6071  022F  1803               	skipnc
  6072  0230  3E01               	addlw	1
  6073  0231  1903               	skipnz
  6074  0232  2A34               	goto	u4532
  6075  0233  07BC               	addwf	___flmul@prod+2,f
  6076  0234                     u4532:
  6077  0234  0831               	movf	??___flmul+3,w
  6078  0235  1103               	clrz
  6079  0236  1803               	skipnc
  6080  0237  3E01               	addlw	1
  6081  0238  1903               	skipnz
  6082  0239  2A3B               	goto	u4533
  6083  023A  07BD               	addwf	___flmul@prod+3,f
  6084  023B                     u4533:
  6085  023B  0828               	movf	___flmul@b+2,w
  6086  023C  00AE               	movwf	??___flmul
  6087  023D  082E               	movf	??___flmul,w
  6088  023E  00F2               	movwf	__Umul8_16@multiplicand
  6089  023F  082C               	movf	___flmul@a+2,w
  6090  0240  160A  118A  23D4  120A  118A  	fcall	__Umul8_16
  6091  0245  0873               	movf	?__Umul8_16+1,w
  6092  0246  1283               	bcf	3,5	;RP0=0, select bank0
  6093  0247  1303               	bcf	3,6	;RP1=0, select bank0
  6094  0248  00BF               	movwf	___flmul@temp+1
  6095  0249  0872               	movf	?__Umul8_16,w
  6096  024A  00BE               	movwf	___flmul@temp
  6097  024B                     l3128:
  6098  024B  083E               	movf	___flmul@temp,w
  6099  024C  00AE               	movwf	??___flmul
  6100  024D  083F               	movf	___flmul@temp+1,w
  6101  024E  00AF               	movwf	??___flmul+1
  6102  024F  01B0               	clrf	??___flmul+2
  6103  0250  01B1               	clrf	??___flmul+3
  6104  0251  3008               	movlw	8
  6105  0252                     u4545:
  6106  0252  1003               	clrc
  6107  0253  0DAE               	rlf	??___flmul,f
  6108  0254  0DAF               	rlf	??___flmul+1,f
  6109  0255  0DB0               	rlf	??___flmul+2,f
  6110  0256  0DB1               	rlf	??___flmul+3,f
  6111  0257                     u4540:
  6112  0257  3EFF               	addlw	-1
  6113  0258  1D03               	skipz
  6114  0259  2A52               	goto	u4545
  6115  025A  082E               	movf	??___flmul,w
  6116  025B  07BA               	addwf	___flmul@prod,f
  6117  025C  082F               	movf	??___flmul+1,w
  6118  025D  1103               	clrz
  6119  025E  1803               	skipnc
  6120  025F  3E01               	addlw	1
  6121  0260  1903               	skipnz
  6122  0261  2A63               	goto	u4551
  6123  0262  07BB               	addwf	___flmul@prod+1,f
  6124  0263                     u4551:
  6125  0263  0830               	movf	??___flmul+2,w
  6126  0264  1103               	clrz
  6127  0265  1803               	skipnc
  6128  0266  3E01               	addlw	1
  6129  0267  1903               	skipnz
  6130  0268  2A6A               	goto	u4552
  6131  0269  07BC               	addwf	___flmul@prod+2,f
  6132  026A                     u4552:
  6133  026A  0831               	movf	??___flmul+3,w
  6134  026B  1103               	clrz
  6135  026C  1803               	skipnc
  6136  026D  3E01               	addlw	1
  6137  026E  1903               	skipnz
  6138  026F  2A71               	goto	u4553
  6139  0270  07BD               	addwf	___flmul@prod+3,f
  6140  0271                     u4553:
  6141  0271                     l3130:
  6142  0271  0835               	movf	___flmul@grs,w
  6143  0272  00AE               	movwf	??___flmul
  6144  0273  0836               	movf	___flmul@grs+1,w
  6145  0274  00AF               	movwf	??___flmul+1
  6146  0275  0837               	movf	___flmul@grs+2,w
  6147  0276  00B0               	movwf	??___flmul+2
  6148  0277  0838               	movf	___flmul@grs+3,w
  6149  0278  00B1               	movwf	??___flmul+3
  6150  0279  3018               	movlw	24
  6151  027A                     u4565:
  6152  027A  1003               	clrc
  6153  027B  0CB1               	rrf	??___flmul+3,f
  6154  027C  0CB0               	rrf	??___flmul+2,f
  6155  027D  0CAF               	rrf	??___flmul+1,f
  6156  027E  0CAE               	rrf	??___flmul,f
  6157  027F                     u4560:
  6158  027F  3EFF               	addlw	-1
  6159  0280  1D03               	skipz
  6160  0281  2A7A               	goto	u4565
  6161  0282  082E               	movf	??___flmul,w
  6162  0283  07BA               	addwf	___flmul@prod,f
  6163  0284  082F               	movf	??___flmul+1,w
  6164  0285  1103               	clrz
  6165  0286  1803               	skipnc
  6166  0287  3E01               	addlw	1
  6167  0288  1903               	skipnz
  6168  0289  2A8B               	goto	u4571
  6169  028A  07BB               	addwf	___flmul@prod+1,f
  6170  028B                     u4571:
  6171  028B  0830               	movf	??___flmul+2,w
  6172  028C  1103               	clrz
  6173  028D  1803               	skipnc
  6174  028E  3E01               	addlw	1
  6175  028F  1903               	skipnz
  6176  0290  2A92               	goto	u4572
  6177  0291  07BC               	addwf	___flmul@prod+2,f
  6178  0292                     u4572:
  6179  0292  0831               	movf	??___flmul+3,w
  6180  0293  1103               	clrz
  6181  0294  1803               	skipnc
  6182  0295  3E01               	addlw	1
  6183  0296  1903               	skipnz
  6184  0297  2A99               	goto	u4573
  6185  0298  07BD               	addwf	___flmul@prod+3,f
  6186  0299                     u4573:
  6187  0299                     l3132:
  6188  0299  3008               	movlw	8
  6189  029A  00AE               	movwf	??___flmul
  6190  029B                     u4585:
  6191  029B  1003               	clrc
  6192  029C  0DB5               	rlf	___flmul@grs,f
  6193  029D  0DB6               	rlf	___flmul@grs+1,f
  6194  029E  0DB7               	rlf	___flmul@grs+2,f
  6195  029F  0DB8               	rlf	___flmul@grs+3,f
  6196  02A0  0BAE               	decfsz	??___flmul,f
  6197  02A1  2A9B               	goto	u4585
  6198  02A2                     l3134:
  6199  02A2  0839               	movf	___flmul@bexp,w
  6200  02A3  0734               	addwf	___flmul@aexp,w
  6201  02A4  00AE               	movwf	??___flmul
  6202  02A5  01AF               	clrf	??___flmul+1
  6203  02A6  0DAF               	rlf	??___flmul+1,f
  6204  02A7  082E               	movf	??___flmul,w
  6205  02A8  3E82               	addlw	130
  6206  02A9  00BE               	movwf	___flmul@temp
  6207  02AA  082F               	movf	??___flmul+1,w
  6208  02AB  1803               	skipnc
  6209  02AC  3E01               	addlw	1
  6210  02AD  3EFF               	addlw	255
  6211  02AE  00BF               	movwf	___flmul@temp+1
  6212  02AF  2ACD               	goto	l3146
  6213  02B0                     l3136:
  6214  02B0  3001               	movlw	1
  6215  02B1  00AE               	movwf	??___flmul
  6216  02B2                     u4595:
  6217  02B2  1003               	clrc
  6218  02B3  0DBA               	rlf	___flmul@prod,f
  6219  02B4  0DBB               	rlf	___flmul@prod+1,f
  6220  02B5  0DBC               	rlf	___flmul@prod+2,f
  6221  02B6  0DBD               	rlf	___flmul@prod+3,f
  6222  02B7  0BAE               	decfsz	??___flmul,f
  6223  02B8  2AB2               	goto	u4595
  6224  02B9                     l3138:
  6225  02B9  1FB8               	btfss	___flmul@grs+3,7
  6226  02BA  2ABC               	goto	u4601
  6227  02BB  2ABD               	goto	u4600
  6228  02BC                     u4601:
  6229  02BC  2ABE               	goto	l3142
  6230  02BD                     u4600:
  6231  02BD                     l3140:
  6232  02BD  143A               	bsf	___flmul@prod,0
  6233  02BE                     l3142:
  6234  02BE  3001               	movlw	1
  6235  02BF  00AE               	movwf	??___flmul
  6236  02C0                     u4615:
  6237  02C0  1003               	clrc
  6238  02C1  0DB5               	rlf	___flmul@grs,f
  6239  02C2  0DB6               	rlf	___flmul@grs+1,f
  6240  02C3  0DB7               	rlf	___flmul@grs+2,f
  6241  02C4  0DB8               	rlf	___flmul@grs+3,f
  6242  02C5  0BAE               	decfsz	??___flmul,f
  6243  02C6  2AC0               	goto	u4615
  6244  02C7                     l3144:
  6245  02C7  30FF               	movlw	255
  6246  02C8  07BE               	addwf	___flmul@temp,f
  6247  02C9  1803               	skipnc
  6248  02CA  0ABF               	incf	___flmul@temp+1,f
  6249  02CB  30FF               	movlw	255
  6250  02CC  07BF               	addwf	___flmul@temp+1,f
  6251  02CD                     l3146:
  6252  02CD  1FBC               	btfss	___flmul@prod+2,7
  6253  02CE  2AD0               	goto	u4621
  6254  02CF  2AD1               	goto	u4620
  6255  02D0                     u4621:
  6256  02D0  2AB0               	goto	l3136
  6257  02D1                     u4620:
  6258  02D1                     l3148:
  6259  02D1  01B4               	clrf	___flmul@aexp
  6260  02D2                     l3150:
  6261  02D2  1FB8               	btfss	___flmul@grs+3,7
  6262  02D3  2AD5               	goto	u4631
  6263  02D4  2AD6               	goto	u4630
  6264  02D5                     u4631:
  6265  02D5  2AF2               	goto	l3158
  6266  02D6                     u4630:
  6267  02D6                     l3152:
  6268  02D6  30FF               	movlw	255
  6269  02D7  0535               	andwf	___flmul@grs,w
  6270  02D8  00AE               	movwf	??___flmul
  6271  02D9  30FF               	movlw	255
  6272  02DA  0536               	andwf	___flmul@grs+1,w
  6273  02DB  00AF               	movwf	??___flmul+1
  6274  02DC  30FF               	movlw	255
  6275  02DD  0537               	andwf	___flmul@grs+2,w
  6276  02DE  00B0               	movwf	??___flmul+2
  6277  02DF  307F               	movlw	127
  6278  02E0  0538               	andwf	___flmul@grs+3,w
  6279  02E1  00B1               	movwf	??___flmul+3
  6280  02E2  0831               	movf	??___flmul+3,w
  6281  02E3  0430               	iorwf	??___flmul+2,w
  6282  02E4  042F               	iorwf	??___flmul+1,w
  6283  02E5  042E               	iorwf	??___flmul,w
  6284  02E6  1903               	skipnz
  6285  02E7  2AE9               	goto	u4641
  6286  02E8  2AEA               	goto	u4640
  6287  02E9                     u4641:
  6288  02E9  2AED               	goto	l700
  6289  02EA                     u4640:
  6290  02EA                     l3154:
  6291  02EA  01B4               	clrf	___flmul@aexp
  6292  02EB  0AB4               	incf	___flmul@aexp,f
  6293  02EC  2AF2               	goto	l3158
  6294  02ED                     l700:
  6295  02ED  1C3A               	btfss	___flmul@prod,0
  6296  02EE  2AF0               	goto	u4651
  6297  02EF  2AF1               	goto	u4650
  6298  02F0                     u4651:
  6299  02F0  2AF2               	goto	l3158
  6300  02F1                     u4650:
  6301  02F1  2AEA               	goto	l3154
  6302  02F2                     l3158:
  6303  02F2  0834               	movf	___flmul@aexp,w
  6304  02F3  1903               	btfsc	3,2
  6305  02F4  2AF6               	goto	u4661
  6306  02F5  2AF7               	goto	u4660
  6307  02F6                     u4661:
  6308  02F6  2B28               	goto	l3168
  6309  02F7                     u4660:
  6310  02F7                     l3160:
  6311  02F7  3001               	movlw	1
  6312  02F8  07BA               	addwf	___flmul@prod,f
  6313  02F9  3000               	movlw	0
  6314  02FA  1803               	skipnc
  6315  02FB  3001               	movlw	1
  6316  02FC  07BB               	addwf	___flmul@prod+1,f
  6317  02FD  3000               	movlw	0
  6318  02FE  1803               	skipnc
  6319  02FF  3001               	movlw	1
  6320  0300  07BC               	addwf	___flmul@prod+2,f
  6321  0301  3000               	movlw	0
  6322  0302  1803               	skipnc
  6323  0303  3001               	movlw	1
  6324  0304  07BD               	addwf	___flmul@prod+3,f
  6325  0305                     l3162:
  6326  0305  1C3D               	btfss	___flmul@prod+3,0
  6327  0306  2B08               	goto	u4671
  6328  0307  2B09               	goto	u4670
  6329  0308                     u4671:
  6330  0308  2B28               	goto	l3168
  6331  0309                     u4670:
  6332  0309                     l3164:
  6333  0309  083A               	movf	___flmul@prod,w
  6334  030A  00AE               	movwf	??___flmul
  6335  030B  083B               	movf	___flmul@prod+1,w
  6336  030C  00AF               	movwf	??___flmul+1
  6337  030D  083C               	movf	___flmul@prod+2,w
  6338  030E  00B0               	movwf	??___flmul+2
  6339  030F  083D               	movf	___flmul@prod+3,w
  6340  0310  00B1               	movwf	??___flmul+3
  6341  0311  3001               	movlw	1
  6342  0312  00B2               	movwf	??___flmul+4
  6343  0313                     u4685:
  6344  0313  0D31               	rlf	??___flmul+3,w
  6345  0314  0CB1               	rrf	??___flmul+3,f
  6346  0315  0CB0               	rrf	??___flmul+2,f
  6347  0316  0CAF               	rrf	??___flmul+1,f
  6348  0317  0CAE               	rrf	??___flmul,f
  6349  0318                     u4680:
  6350  0318  0BB2               	decfsz	??___flmul+4,f
  6351  0319  2B13               	goto	u4685
  6352  031A  0831               	movf	??___flmul+3,w
  6353  031B  00BD               	movwf	___flmul@prod+3
  6354  031C  0830               	movf	??___flmul+2,w
  6355  031D  00BC               	movwf	___flmul@prod+2
  6356  031E  082F               	movf	??___flmul+1,w
  6357  031F  00BB               	movwf	___flmul@prod+1
  6358  0320  082E               	movf	??___flmul,w
  6359  0321  00BA               	movwf	___flmul@prod
  6360  0322                     l3166:
  6361  0322  3001               	movlw	1
  6362  0323  07BE               	addwf	___flmul@temp,f
  6363  0324  1803               	skipnc
  6364  0325  0ABF               	incf	___flmul@temp+1,f
  6365  0326  3000               	movlw	0
  6366  0327  07BF               	addwf	___flmul@temp+1,f
  6367  0328                     l3168:
  6368  0328  083F               	movf	___flmul@temp+1,w
  6369  0329  3A80               	xorlw	128
  6370  032A  00FF               	movwf	btemp+1
  6371  032B  3080               	movlw	128
  6372  032C  027F               	subwf	btemp+1,w
  6373  032D  1D03               	skipz
  6374  032E  2B31               	goto	u4695
  6375  032F  30FF               	movlw	255
  6376  0330  023E               	subwf	___flmul@temp,w
  6377  0331                     u4695:
  6378  0331  1C03               	skipc
  6379  0332  2B34               	goto	u4691
  6380  0333  2B35               	goto	u4690
  6381  0334                     u4691:
  6382  0334  2B40               	goto	l3172
  6383  0335                     u4690:
  6384  0335                     l3170:
  6385  0335  307F               	movlw	127
  6386  0336  1283               	bcf	3,5	;RP0=0, select bank0
  6387  0337  1303               	bcf	3,6	;RP1=0, select bank0
  6388  0338  00BD               	movwf	___flmul@prod+3
  6389  0339  3080               	movlw	128
  6390  033A  00BC               	movwf	___flmul@prod+2
  6391  033B  3000               	movlw	0
  6392  033C  00BB               	movwf	___flmul@prod+1
  6393  033D  3000               	movlw	0
  6394  033E  00BA               	movwf	___flmul@prod
  6395  033F  2B75               	goto	l706
  6396  0340                     l3172:
  6397  0340  1283               	bcf	3,5	;RP0=0, select bank0
  6398  0341  1303               	bcf	3,6	;RP1=0, select bank0
  6399  0342  083F               	movf	___flmul@temp+1,w
  6400  0343  3A80               	xorlw	128
  6401  0344  00FF               	movwf	btemp+1
  6402  0345  3080               	movlw	128
  6403  0346  027F               	subwf	btemp+1,w
  6404  0347  1D03               	skipz
  6405  0348  2B4B               	goto	u4705
  6406  0349  3001               	movlw	1
  6407  034A  023E               	subwf	___flmul@temp,w
  6408  034B                     u4705:
  6409  034B  1803               	skipnc
  6410  034C  2B4E               	goto	u4701
  6411  034D  2B4F               	goto	u4700
  6412  034E                     u4701:
  6413  034E  2B5B               	goto	l3178
  6414  034F                     u4700:
  6415  034F                     l3174:
  6416  034F  3000               	movlw	0
  6417  0350  1283               	bcf	3,5	;RP0=0, select bank0
  6418  0351  1303               	bcf	3,6	;RP1=0, select bank0
  6419  0352  00BD               	movwf	___flmul@prod+3
  6420  0353  3000               	movlw	0
  6421  0354  00BC               	movwf	___flmul@prod+2
  6422  0355  3000               	movlw	0
  6423  0356  00BB               	movwf	___flmul@prod+1
  6424  0357  3000               	movlw	0
  6425  0358  00BA               	movwf	___flmul@prod
  6426  0359                     l3176:
  6427  0359  01B3               	clrf	___flmul@sign
  6428  035A  2B75               	goto	l706
  6429  035B                     l3178:
  6430  035B  1283               	bcf	3,5	;RP0=0, select bank0
  6431  035C  1303               	bcf	3,6	;RP1=0, select bank0
  6432  035D  083E               	movf	___flmul@temp,w
  6433  035E  00AE               	movwf	??___flmul
  6434  035F  082E               	movf	??___flmul,w
  6435  0360  00B9               	movwf	___flmul@bexp
  6436  0361  30FF               	movlw	255
  6437  0362  05BA               	andwf	___flmul@prod,f
  6438  0363  30FF               	movlw	255
  6439  0364  05BB               	andwf	___flmul@prod+1,f
  6440  0365  307F               	movlw	127
  6441  0366  05BC               	andwf	___flmul@prod+2,f
  6442  0367  3000               	movlw	0
  6443  0368  05BD               	andwf	___flmul@prod+3,f
  6444  0369                     l3180:
  6445  0369  1C39               	btfss	___flmul@bexp,0
  6446  036A  2B6C               	goto	u4711
  6447  036B  2B6D               	goto	u4710
  6448  036C                     u4711:
  6449  036C  2B6E               	goto	l3184
  6450  036D                     u4710:
  6451  036D                     l3182:
  6452  036D  17BC               	bsf	___flmul@prod+2,7
  6453  036E                     l3184:
  6454  036E  0839               	movf	___flmul@bexp,w
  6455  036F  00AE               	movwf	??___flmul
  6456  0370  1003               	clrc
  6457  0371  0C2E               	rrf	??___flmul,w
  6458  0372  00AF               	movwf	??___flmul+1
  6459  0373  082F               	movf	??___flmul+1,w
  6460  0374  00BD               	movwf	___flmul@prod+3
  6461  0375                     l706:
  6462  0375  0833               	movf	___flmul@sign,w
  6463  0376  00AE               	movwf	??___flmul
  6464  0377  082E               	movf	??___flmul,w
  6465  0378  04BD               	iorwf	___flmul@prod+3,f
  6466  0379                     l3186:
  6467  0379  083D               	movf	___flmul@prod+3,w
  6468  037A  00A9               	movwf	?___flmul+3
  6469  037B  083C               	movf	___flmul@prod+2,w
  6470  037C  00A8               	movwf	?___flmul+2
  6471  037D  083B               	movf	___flmul@prod+1,w
  6472  037E  00A7               	movwf	?___flmul+1
  6473  037F  083A               	movf	___flmul@prod,w
  6474  0380  00A6               	movwf	?___flmul
  6475  0381                     l694:
  6476  0381  0008               	return
  6477  0382                     __end_of___flmul:
  6478                           
  6479                           	psect	text21
  6480  13D4                     __ptext21:	
  6481 ;; *************** function __Umul8_16 *****************
  6482 ;; Defined at:
  6483 ;;		line 4 in file "C:\Program Files\Microchip\xc8\v2.31\pic\sources\c90\common\Umul8_16.c"
  6484 ;; Parameters:    Size  Location     Type
  6485 ;;  multiplier      1    wreg     unsigned char 
  6486 ;;  multiplicand    1    2[COMMON] unsigned char 
  6487 ;; Auto vars:     Size  Location     Type
  6488 ;;  multiplier      1    4[BANK0 ] unsigned char 
  6489 ;;  word_mpld       2    2[BANK0 ] unsigned int 
  6490 ;;  product         2    0[BANK0 ] unsigned int 
  6491 ;; Return value:  Size  Location     Type
  6492 ;;                  2    2[COMMON] unsigned int 
  6493 ;; Registers used:
  6494 ;;		wreg, status,2, status,0
  6495 ;; Tracked objects:
  6496 ;;		On entry : 0/0
  6497 ;;		On exit  : 0/0
  6498 ;;		Unchanged: 0/0
  6499 ;; Data sizes:     COMMON   BANK0   BANK1   BANK3   BANK2
  6500 ;;      Params:         2       0       0       0       0
  6501 ;;      Locals:         0       5       0       0       0
  6502 ;;      Temps:          2       0       0       0       0
  6503 ;;      Totals:         4       5       0       0       0
  6504 ;;Total ram usage:        9 bytes
  6505 ;; Hardware stack levels used:    1
  6506 ;; Hardware stack levels required when called:    1
  6507 ;; This function calls:
  6508 ;;		Nothing
  6509 ;; This function is called by:
  6510 ;;		___flmul
  6511 ;; This function uses a non-reentrant model
  6512 ;;
  6513                           
  6514                           
  6515                           ;psect for function __Umul8_16
  6516  13D4                     __Umul8_16:
  6517                           
  6518                           ;incstack = 0
  6519                           ; Regs used in __Umul8_16: [wreg+status,2+status,0]
  6520                           ;__Umul8_16@multiplier stored from wreg
  6521  13D4  1283               	bcf	3,5	;RP0=0, select bank0
  6522  13D5  1303               	bcf	3,6	;RP1=0, select bank0
  6523  13D6  00A4               	movwf	__Umul8_16@multiplier
  6524  13D7                     l3032:
  6525  13D7  01A0               	clrf	__Umul8_16@product
  6526  13D8  01A1               	clrf	__Umul8_16@product+1
  6527  13D9                     l3034:
  6528  13D9  0872               	movf	__Umul8_16@multiplicand,w
  6529  13DA  00F4               	movwf	??__Umul8_16
  6530  13DB  01F5               	clrf	??__Umul8_16+1
  6531  13DC  0874               	movf	??__Umul8_16,w
  6532  13DD  00A2               	movwf	__Umul8_16@word_mpld
  6533  13DE  0875               	movf	??__Umul8_16+1,w
  6534  13DF  00A3               	movwf	__Umul8_16@word_mpld+1
  6535  13E0                     l3036:
  6536  13E0  1C24               	btfss	__Umul8_16@multiplier,0
  6537  13E1  2BE3               	goto	u4311
  6538  13E2  2BE4               	goto	u4310
  6539  13E3                     u4311:
  6540  13E3  2BEA               	goto	l713
  6541  13E4                     u4310:
  6542  13E4                     l3038:
  6543  13E4  0822               	movf	__Umul8_16@word_mpld,w
  6544  13E5  07A0               	addwf	__Umul8_16@product,f
  6545  13E6  1803               	skipnc
  6546  13E7  0AA1               	incf	__Umul8_16@product+1,f
  6547  13E8  0823               	movf	__Umul8_16@word_mpld+1,w
  6548  13E9  07A1               	addwf	__Umul8_16@product+1,f
  6549  13EA                     l713:
  6550  13EA  3001               	movlw	1
  6551  13EB                     u4325:
  6552  13EB  1003               	clrc
  6553  13EC  0DA2               	rlf	__Umul8_16@word_mpld,f
  6554  13ED  0DA3               	rlf	__Umul8_16@word_mpld+1,f
  6555  13EE  3EFF               	addlw	-1
  6556  13EF  1D03               	skipz
  6557  13F0  2BEB               	goto	u4325
  6558  13F1  1003               	clrc
  6559  13F2  0CA4               	rrf	__Umul8_16@multiplier,f
  6560  13F3                     l3040:
  6561  13F3  0824               	movf	__Umul8_16@multiplier,w
  6562  13F4  1D03               	btfss	3,2
  6563  13F5  2BF7               	goto	u4331
  6564  13F6  2BF8               	goto	u4330
  6565  13F7                     u4331:
  6566  13F7  2BE0               	goto	l3036
  6567  13F8                     u4330:
  6568  13F8                     l3042:
  6569  13F8  0821               	movf	__Umul8_16@product+1,w
  6570  13F9  00F3               	movwf	?__Umul8_16+1
  6571  13FA  0820               	movf	__Umul8_16@product,w
  6572  13FB  00F2               	movwf	?__Umul8_16
  6573  13FC                     l715:
  6574  13FC  0008               	return
  6575  13FD                     __end_of__Umul8_16:
  6576                           
  6577                           	psect	text22
  6578  094F                     __ptext22:	
  6579 ;; *************** function ___fldiv *****************
  6580 ;; Defined at:
  6581 ;;		line 8 in file "C:\Program Files\Microchip\xc8\v2.31\pic\sources\c90\common\sprcdiv.c"
  6582 ;; Parameters:    Size  Location     Type
  6583 ;;  a               4    6[BANK0 ] unsigned int 
  6584 ;;  b               4   10[BANK0 ] unsigned int 
  6585 ;; Auto vars:     Size  Location     Type
  6586 ;;  grs             4   26[BANK0 ] unsigned long 
  6587 ;;  rem             4   19[BANK0 ] unsigned long 
  6588 ;;  new_exp         2   24[BANK0 ] int 
  6589 ;;  aexp            1   31[BANK0 ] unsigned char 
  6590 ;;  bexp            1   30[BANK0 ] unsigned char 
  6591 ;;  sign            1   23[BANK0 ] unsigned char 
  6592 ;; Return value:  Size  Location     Type
  6593 ;;                  4    6[BANK0 ] unsigned char 
  6594 ;; Registers used:
  6595 ;;		wreg, status,2, status,0, btemp+1
  6596 ;; Tracked objects:
  6597 ;;		On entry : 0/0
  6598 ;;		On exit  : 0/0
  6599 ;;		Unchanged: 0/0
  6600 ;; Data sizes:     COMMON   BANK0   BANK1   BANK3   BANK2
  6601 ;;      Params:         0       8       0       0       0
  6602 ;;      Locals:         0      13       0       0       0
  6603 ;;      Temps:          0       5       0       0       0
  6604 ;;      Totals:         0      26       0       0       0
  6605 ;;Total ram usage:       26 bytes
  6606 ;; Hardware stack levels used:    1
  6607 ;; Hardware stack levels required when called:    1
  6608 ;; This function calls:
  6609 ;;		Nothing
  6610 ;; This function is called by:
  6611 ;;		_GY_Read
  6612 ;; This function uses a non-reentrant model
  6613 ;;
  6614                           
  6615                           
  6616                           ;psect for function ___fldiv
  6617  094F                     ___fldiv:
  6618  094F                     l2346:	
  6619                           ;incstack = 0
  6620                           ; Regs used in ___fldiv: [wreg+status,2+status,0+btemp+1]
  6621                           
  6622  094F  1283               	bcf	3,5	;RP0=0, select bank0
  6623  0950  1303               	bcf	3,6	;RP1=0, select bank0
  6624  0951  082D               	movf	___fldiv@b+3,w
  6625  0952  3980               	andlw	128
  6626  0953  00AE               	movwf	??___fldiv
  6627  0954  082E               	movf	??___fldiv,w
  6628  0955  00B7               	movwf	___fldiv@sign
  6629  0956                     l2348:
  6630  0956  082D               	movf	___fldiv@b+3,w
  6631  0957  00AE               	movwf	??___fldiv
  6632  0958  072E               	addwf	??___fldiv,w
  6633  0959  00AF               	movwf	??___fldiv+1
  6634  095A  082F               	movf	??___fldiv+1,w
  6635  095B  00BE               	movwf	___fldiv@bexp
  6636  095C                     l2350:
  6637  095C  1FAC               	btfss	___fldiv@b+2,7
  6638  095D  295F               	goto	u3071
  6639  095E  2960               	goto	u3070
  6640  095F                     u3071:
  6641  095F  2961               	goto	l2354
  6642  0960                     u3070:
  6643  0960                     l2352:
  6644  0960  143E               	bsf	___fldiv@bexp,0
  6645  0961                     l2354:
  6646  0961  083E               	movf	___fldiv@bexp,w
  6647  0962  1903               	btfsc	3,2
  6648  0963  2965               	goto	u3081
  6649  0964  2966               	goto	u3080
  6650  0965                     u3081:
  6651  0965  2976               	goto	l2364
  6652  0966                     u3080:
  6653  0966                     l2356:
  6654  0966  0A3E               	incf	___fldiv@bexp,w
  6655  0967  1D03               	btfss	3,2
  6656  0968  296A               	goto	u3091
  6657  0969  296B               	goto	u3090
  6658  096A                     u3091:
  6659  096A  2973               	goto	l2360
  6660  096B                     u3090:
  6661  096B                     l2358:
  6662  096B  3000               	movlw	0
  6663  096C  00AD               	movwf	___fldiv@b+3
  6664  096D  3000               	movlw	0
  6665  096E  00AC               	movwf	___fldiv@b+2
  6666  096F  3000               	movlw	0
  6667  0970  00AB               	movwf	___fldiv@b+1
  6668  0971  3000               	movlw	0
  6669  0972  00AA               	movwf	___fldiv@b
  6670  0973                     l2360:
  6671  0973  17AC               	bsf	___fldiv@b+2,7
  6672  0974                     l2362:
  6673  0974  01AD               	clrf	___fldiv@b+3
  6674  0975  297E               	goto	l2366
  6675  0976                     l2364:
  6676  0976  3000               	movlw	0
  6677  0977  00AD               	movwf	___fldiv@b+3
  6678  0978  3000               	movlw	0
  6679  0979  00AC               	movwf	___fldiv@b+2
  6680  097A  3000               	movlw	0
  6681  097B  00AB               	movwf	___fldiv@b+1
  6682  097C  3000               	movlw	0
  6683  097D  00AA               	movwf	___fldiv@b
  6684  097E                     l2366:
  6685  097E  0829               	movf	___fldiv@a+3,w
  6686  097F  3980               	andlw	128
  6687  0980  00AE               	movwf	??___fldiv
  6688  0981  082E               	movf	??___fldiv,w
  6689  0982  06B7               	xorwf	___fldiv@sign,f
  6690  0983                     l2368:
  6691  0983  0829               	movf	___fldiv@a+3,w
  6692  0984  00AE               	movwf	??___fldiv
  6693  0985  072E               	addwf	??___fldiv,w
  6694  0986  00AF               	movwf	??___fldiv+1
  6695  0987  082F               	movf	??___fldiv+1,w
  6696  0988  00BF               	movwf	___fldiv@aexp
  6697  0989                     l2370:
  6698  0989  1FA8               	btfss	___fldiv@a+2,7
  6699  098A  298C               	goto	u3101
  6700  098B  298D               	goto	u3100
  6701  098C                     u3101:
  6702  098C  298E               	goto	l2374
  6703  098D                     u3100:
  6704  098D                     l2372:
  6705  098D  143F               	bsf	___fldiv@aexp,0
  6706  098E                     l2374:
  6707  098E  083F               	movf	___fldiv@aexp,w
  6708  098F  1903               	btfsc	3,2
  6709  0990  2992               	goto	u3111
  6710  0991  2993               	goto	u3110
  6711  0992                     u3111:
  6712  0992  29A3               	goto	l2384
  6713  0993                     u3110:
  6714  0993                     l2376:
  6715  0993  0A3F               	incf	___fldiv@aexp,w
  6716  0994  1D03               	btfss	3,2
  6717  0995  2997               	goto	u3121
  6718  0996  2998               	goto	u3120
  6719  0997                     u3121:
  6720  0997  29A0               	goto	l2380
  6721  0998                     u3120:
  6722  0998                     l2378:
  6723  0998  3000               	movlw	0
  6724  0999  00A9               	movwf	___fldiv@a+3
  6725  099A  3000               	movlw	0
  6726  099B  00A8               	movwf	___fldiv@a+2
  6727  099C  3000               	movlw	0
  6728  099D  00A7               	movwf	___fldiv@a+1
  6729  099E  3000               	movlw	0
  6730  099F  00A6               	movwf	___fldiv@a
  6731  09A0                     l2380:
  6732  09A0  17A8               	bsf	___fldiv@a+2,7
  6733  09A1                     l2382:
  6734  09A1  01A9               	clrf	___fldiv@a+3
  6735  09A2  29AB               	goto	l654
  6736  09A3                     l2384:
  6737  09A3  3000               	movlw	0
  6738  09A4  00A9               	movwf	___fldiv@a+3
  6739  09A5  3000               	movlw	0
  6740  09A6  00A8               	movwf	___fldiv@a+2
  6741  09A7  3000               	movlw	0
  6742  09A8  00A7               	movwf	___fldiv@a+1
  6743  09A9  3000               	movlw	0
  6744  09AA  00A6               	movwf	___fldiv@a
  6745  09AB                     l654:
  6746  09AB  0829               	movf	___fldiv@a+3,w
  6747  09AC  0428               	iorwf	___fldiv@a+2,w
  6748  09AD  0427               	iorwf	___fldiv@a+1,w
  6749  09AE  0426               	iorwf	___fldiv@a,w
  6750  09AF  1D03               	skipz
  6751  09B0  29B2               	goto	u3131
  6752  09B1  29B3               	goto	u3130
  6753  09B2                     u3131:
  6754  09B2  29CC               	goto	l2394
  6755  09B3                     u3130:
  6756  09B3                     l2386:
  6757  09B3  3000               	movlw	0
  6758  09B4  00AD               	movwf	___fldiv@b+3
  6759  09B5  3000               	movlw	0
  6760  09B6  00AC               	movwf	___fldiv@b+2
  6761  09B7  3000               	movlw	0
  6762  09B8  00AB               	movwf	___fldiv@b+1
  6763  09B9  3000               	movlw	0
  6764  09BA  00AA               	movwf	___fldiv@b
  6765  09BB  3080               	movlw	128
  6766  09BC  04AC               	iorwf	___fldiv@b+2,f
  6767  09BD  307F               	movlw	127
  6768  09BE  04AD               	iorwf	___fldiv@b+3,f
  6769  09BF                     l2388:
  6770  09BF  0837               	movf	___fldiv@sign,w
  6771  09C0  00AE               	movwf	??___fldiv
  6772  09C1  082E               	movf	??___fldiv,w
  6773  09C2  04AD               	iorwf	___fldiv@b+3,f
  6774  09C3                     l2390:
  6775  09C3  082D               	movf	___fldiv@b+3,w
  6776  09C4  00A9               	movwf	?___fldiv+3
  6777  09C5  082C               	movf	___fldiv@b+2,w
  6778  09C6  00A8               	movwf	?___fldiv+2
  6779  09C7  082B               	movf	___fldiv@b+1,w
  6780  09C8  00A7               	movwf	?___fldiv+1
  6781  09C9  082A               	movf	___fldiv@b,w
  6782  09CA  00A6               	movwf	?___fldiv
  6783  09CB  2B2B               	goto	l656
  6784  09CC                     l2394:
  6785  09CC  083E               	movf	___fldiv@bexp,w
  6786  09CD  1D03               	btfss	3,2
  6787  09CE  29D0               	goto	u3141
  6788  09CF  29D1               	goto	u3140
  6789  09D0                     u3141:
  6790  09D0  29DA               	goto	l2400
  6791  09D1                     u3140:
  6792  09D1                     l2396:
  6793  09D1  3000               	movlw	0
  6794  09D2  00A9               	movwf	?___fldiv+3
  6795  09D3  3000               	movlw	0
  6796  09D4  00A8               	movwf	?___fldiv+2
  6797  09D5  3000               	movlw	0
  6798  09D6  00A7               	movwf	?___fldiv+1
  6799  09D7  3000               	movlw	0
  6800  09D8  00A6               	movwf	?___fldiv
  6801  09D9  2B2B               	goto	l656
  6802  09DA                     l2400:
  6803  09DA  083E               	movf	___fldiv@bexp,w
  6804  09DB  00AE               	movwf	??___fldiv
  6805  09DC  01AF               	clrf	??___fldiv+1
  6806  09DD  082F               	movf	??___fldiv+1,w
  6807  09DE  00B1               	movwf	??___fldiv+3
  6808  09DF  083F               	movf	___fldiv@aexp,w
  6809  09E0  022E               	subwf	??___fldiv,w
  6810  09E1  00B0               	movwf	??___fldiv+2
  6811  09E2  1C03               	skipc
  6812  09E3  03B1               	decf	??___fldiv+3,f
  6813  09E4  0830               	movf	??___fldiv+2,w
  6814  09E5  3E7F               	addlw	127
  6815  09E6  00B8               	movwf	___fldiv@new_exp
  6816  09E7  0831               	movf	??___fldiv+3,w
  6817  09E8  1803               	skipnc
  6818  09E9  3E01               	addlw	1
  6819  09EA  3E00               	addlw	0
  6820  09EB  00B9               	movwf	___fldiv@new_exp+1
  6821  09EC                     l2402:
  6822  09EC  082D               	movf	___fldiv@b+3,w
  6823  09ED  00B6               	movwf	___fldiv@rem+3
  6824  09EE  082C               	movf	___fldiv@b+2,w
  6825  09EF  00B5               	movwf	___fldiv@rem+2
  6826  09F0  082B               	movf	___fldiv@b+1,w
  6827  09F1  00B4               	movwf	___fldiv@rem+1
  6828  09F2  082A               	movf	___fldiv@b,w
  6829  09F3  00B3               	movwf	___fldiv@rem
  6830  09F4                     l2404:
  6831  09F4  3000               	movlw	0
  6832  09F5  00AD               	movwf	___fldiv@b+3
  6833  09F6  3000               	movlw	0
  6834  09F7  00AC               	movwf	___fldiv@b+2
  6835  09F8  3000               	movlw	0
  6836  09F9  00AB               	movwf	___fldiv@b+1
  6837  09FA  3000               	movlw	0
  6838  09FB  00AA               	movwf	___fldiv@b
  6839  09FC                     l2406:
  6840  09FC  3000               	movlw	0
  6841  09FD  00BD               	movwf	___fldiv@grs+3
  6842  09FE  3000               	movlw	0
  6843  09FF  00BC               	movwf	___fldiv@grs+2
  6844  0A00  3000               	movlw	0
  6845  0A01  00BB               	movwf	___fldiv@grs+1
  6846  0A02  3000               	movlw	0
  6847  0A03  00BA               	movwf	___fldiv@grs
  6848  0A04                     l2408:
  6849  0A04  01BF               	clrf	___fldiv@aexp
  6850  0A05  2A50               	goto	l2428
  6851  0A06                     l2410:
  6852  0A06  083F               	movf	___fldiv@aexp,w
  6853  0A07  1903               	btfsc	3,2
  6854  0A08  2A0A               	goto	u3151
  6855  0A09  2A0B               	goto	u3150
  6856  0A0A                     u3151:
  6857  0A0A  2A2B               	goto	l2420
  6858  0A0B                     u3150:
  6859  0A0B                     l2412:
  6860  0A0B  3001               	movlw	1
  6861  0A0C  00AE               	movwf	??___fldiv
  6862  0A0D                     u3165:
  6863  0A0D  1003               	clrc
  6864  0A0E  0DB3               	rlf	___fldiv@rem,f
  6865  0A0F  0DB4               	rlf	___fldiv@rem+1,f
  6866  0A10  0DB5               	rlf	___fldiv@rem+2,f
  6867  0A11  0DB6               	rlf	___fldiv@rem+3,f
  6868  0A12  0BAE               	decfsz	??___fldiv,f
  6869  0A13  2A0D               	goto	u3165
  6870  0A14  3001               	movlw	1
  6871  0A15  00AE               	movwf	??___fldiv
  6872  0A16                     u3175:
  6873  0A16  1003               	clrc
  6874  0A17  0DAA               	rlf	___fldiv@b,f
  6875  0A18  0DAB               	rlf	___fldiv@b+1,f
  6876  0A19  0DAC               	rlf	___fldiv@b+2,f
  6877  0A1A  0DAD               	rlf	___fldiv@b+3,f
  6878  0A1B  0BAE               	decfsz	??___fldiv,f
  6879  0A1C  2A16               	goto	u3175
  6880  0A1D                     l2414:
  6881  0A1D  1FBD               	btfss	___fldiv@grs+3,7
  6882  0A1E  2A20               	goto	u3181
  6883  0A1F  2A21               	goto	u3180
  6884  0A20                     u3181:
  6885  0A20  2A22               	goto	l2418
  6886  0A21                     u3180:
  6887  0A21                     l2416:
  6888  0A21  142A               	bsf	___fldiv@b,0
  6889  0A22                     l2418:
  6890  0A22  3001               	movlw	1
  6891  0A23  00AE               	movwf	??___fldiv
  6892  0A24                     u3195:
  6893  0A24  1003               	clrc
  6894  0A25  0DBA               	rlf	___fldiv@grs,f
  6895  0A26  0DBB               	rlf	___fldiv@grs+1,f
  6896  0A27  0DBC               	rlf	___fldiv@grs+2,f
  6897  0A28  0DBD               	rlf	___fldiv@grs+3,f
  6898  0A29  0BAE               	decfsz	??___fldiv,f
  6899  0A2A  2A24               	goto	u3195
  6900  0A2B                     l2420:
  6901  0A2B  0829               	movf	___fldiv@a+3,w
  6902  0A2C  0236               	subwf	___fldiv@rem+3,w
  6903  0A2D  1D03               	skipz
  6904  0A2E  2A39               	goto	u3205
  6905  0A2F  0828               	movf	___fldiv@a+2,w
  6906  0A30  0235               	subwf	___fldiv@rem+2,w
  6907  0A31  1D03               	skipz
  6908  0A32  2A39               	goto	u3205
  6909  0A33  0827               	movf	___fldiv@a+1,w
  6910  0A34  0234               	subwf	___fldiv@rem+1,w
  6911  0A35  1D03               	skipz
  6912  0A36  2A39               	goto	u3205
  6913  0A37  0826               	movf	___fldiv@a,w
  6914  0A38  0233               	subwf	___fldiv@rem,w
  6915  0A39                     u3205:
  6916  0A39  1C03               	skipc
  6917  0A3A  2A3C               	goto	u3201
  6918  0A3B  2A3D               	goto	u3200
  6919  0A3C                     u3201:
  6920  0A3C  2A4C               	goto	l2426
  6921  0A3D                     u3200:
  6922  0A3D                     l2422:
  6923  0A3D  173D               	bsf	___fldiv@grs+3,6
  6924  0A3E                     l2424:
  6925  0A3E  0826               	movf	___fldiv@a,w
  6926  0A3F  02B3               	subwf	___fldiv@rem,f
  6927  0A40  0827               	movf	___fldiv@a+1,w
  6928  0A41  1C03               	skipc
  6929  0A42  0F27               	incfsz	___fldiv@a+1,w
  6930  0A43  02B4               	subwf	___fldiv@rem+1,f
  6931  0A44  0828               	movf	___fldiv@a+2,w
  6932  0A45  1C03               	skipc
  6933  0A46  0F28               	incfsz	___fldiv@a+2,w
  6934  0A47  02B5               	subwf	___fldiv@rem+2,f
  6935  0A48  0829               	movf	___fldiv@a+3,w
  6936  0A49  1C03               	skipc
  6937  0A4A  0F29               	incfsz	___fldiv@a+3,w
  6938  0A4B  02B6               	subwf	___fldiv@rem+3,f
  6939  0A4C                     l2426:
  6940  0A4C  3001               	movlw	1
  6941  0A4D  00AE               	movwf	??___fldiv
  6942  0A4E  082E               	movf	??___fldiv,w
  6943  0A4F  07BF               	addwf	___fldiv@aexp,f
  6944  0A50                     l2428:
  6945  0A50  301A               	movlw	26
  6946  0A51  023F               	subwf	___fldiv@aexp,w
  6947  0A52  1C03               	skipc
  6948  0A53  2A55               	goto	u3211
  6949  0A54  2A56               	goto	u3210
  6950  0A55                     u3211:
  6951  0A55  2A06               	goto	l2410
  6952  0A56                     u3210:
  6953  0A56                     l2430:
  6954  0A56  0836               	movf	___fldiv@rem+3,w
  6955  0A57  0435               	iorwf	___fldiv@rem+2,w
  6956  0A58  0434               	iorwf	___fldiv@rem+1,w
  6957  0A59  0433               	iorwf	___fldiv@rem,w
  6958  0A5A  1903               	skipnz
  6959  0A5B  2A5D               	goto	u3221
  6960  0A5C  2A5E               	goto	u3220
  6961  0A5D                     u3221:
  6962  0A5D  2A7D               	goto	l2444
  6963  0A5E                     u3220:
  6964  0A5E                     l2432:
  6965  0A5E  143A               	bsf	___fldiv@grs,0
  6966  0A5F  2A7D               	goto	l2444
  6967  0A60                     l2434:
  6968  0A60  3001               	movlw	1
  6969  0A61  00AE               	movwf	??___fldiv
  6970  0A62                     u3235:
  6971  0A62  1003               	clrc
  6972  0A63  0DAA               	rlf	___fldiv@b,f
  6973  0A64  0DAB               	rlf	___fldiv@b+1,f
  6974  0A65  0DAC               	rlf	___fldiv@b+2,f
  6975  0A66  0DAD               	rlf	___fldiv@b+3,f
  6976  0A67  0BAE               	decfsz	??___fldiv,f
  6977  0A68  2A62               	goto	u3235
  6978  0A69                     l2436:
  6979  0A69  1FBD               	btfss	___fldiv@grs+3,7
  6980  0A6A  2A6C               	goto	u3241
  6981  0A6B  2A6D               	goto	u3240
  6982  0A6C                     u3241:
  6983  0A6C  2A6E               	goto	l2440
  6984  0A6D                     u3240:
  6985  0A6D                     l2438:
  6986  0A6D  142A               	bsf	___fldiv@b,0
  6987  0A6E                     l2440:
  6988  0A6E  3001               	movlw	1
  6989  0A6F  00AE               	movwf	??___fldiv
  6990  0A70                     u3255:
  6991  0A70  1003               	clrc
  6992  0A71  0DBA               	rlf	___fldiv@grs,f
  6993  0A72  0DBB               	rlf	___fldiv@grs+1,f
  6994  0A73  0DBC               	rlf	___fldiv@grs+2,f
  6995  0A74  0DBD               	rlf	___fldiv@grs+3,f
  6996  0A75  0BAE               	decfsz	??___fldiv,f
  6997  0A76  2A70               	goto	u3255
  6998  0A77                     l2442:
  6999  0A77  30FF               	movlw	255
  7000  0A78  07B8               	addwf	___fldiv@new_exp,f
  7001  0A79  1803               	skipnc
  7002  0A7A  0AB9               	incf	___fldiv@new_exp+1,f
  7003  0A7B  30FF               	movlw	255
  7004  0A7C  07B9               	addwf	___fldiv@new_exp+1,f
  7005  0A7D                     l2444:
  7006  0A7D  1FAC               	btfss	___fldiv@b+2,7
  7007  0A7E  2A80               	goto	u3261
  7008  0A7F  2A81               	goto	u3260
  7009  0A80                     u3261:
  7010  0A80  2A60               	goto	l2434
  7011  0A81                     u3260:
  7012  0A81                     l2446:
  7013  0A81  01BF               	clrf	___fldiv@aexp
  7014  0A82                     l2448:
  7015  0A82  1FBD               	btfss	___fldiv@grs+3,7
  7016  0A83  2A85               	goto	u3271
  7017  0A84  2A86               	goto	u3270
  7018  0A85                     u3271:
  7019  0A85  2AA2               	goto	l2456
  7020  0A86                     u3270:
  7021  0A86                     l2450:
  7022  0A86  30FF               	movlw	255
  7023  0A87  053A               	andwf	___fldiv@grs,w
  7024  0A88  00AE               	movwf	??___fldiv
  7025  0A89  30FF               	movlw	255
  7026  0A8A  053B               	andwf	___fldiv@grs+1,w
  7027  0A8B  00AF               	movwf	??___fldiv+1
  7028  0A8C  30FF               	movlw	255
  7029  0A8D  053C               	andwf	___fldiv@grs+2,w
  7030  0A8E  00B0               	movwf	??___fldiv+2
  7031  0A8F  307F               	movlw	127
  7032  0A90  053D               	andwf	___fldiv@grs+3,w
  7033  0A91  00B1               	movwf	??___fldiv+3
  7034  0A92  0831               	movf	??___fldiv+3,w
  7035  0A93  0430               	iorwf	??___fldiv+2,w
  7036  0A94  042F               	iorwf	??___fldiv+1,w
  7037  0A95  042E               	iorwf	??___fldiv,w
  7038  0A96  1903               	skipnz
  7039  0A97  2A99               	goto	u3281
  7040  0A98  2A9A               	goto	u3280
  7041  0A99                     u3281:
  7042  0A99  2A9D               	goto	l670
  7043  0A9A                     u3280:
  7044  0A9A                     l2452:
  7045  0A9A  01BF               	clrf	___fldiv@aexp
  7046  0A9B  0ABF               	incf	___fldiv@aexp,f
  7047  0A9C  2AA2               	goto	l2456
  7048  0A9D                     l670:
  7049  0A9D  1C2A               	btfss	___fldiv@b,0
  7050  0A9E  2AA0               	goto	u3291
  7051  0A9F  2AA1               	goto	u3290
  7052  0AA0                     u3291:
  7053  0AA0  2AA2               	goto	l2456
  7054  0AA1                     u3290:
  7055  0AA1  2A9A               	goto	l2452
  7056  0AA2                     l2456:
  7057  0AA2  083F               	movf	___fldiv@aexp,w
  7058  0AA3  1903               	btfsc	3,2
  7059  0AA4  2AA6               	goto	u3301
  7060  0AA5  2AA7               	goto	u3300
  7061  0AA6                     u3301:
  7062  0AA6  2AD8               	goto	l2466
  7063  0AA7                     u3300:
  7064  0AA7                     l2458:
  7065  0AA7  3001               	movlw	1
  7066  0AA8  07AA               	addwf	___fldiv@b,f
  7067  0AA9  3000               	movlw	0
  7068  0AAA  1803               	skipnc
  7069  0AAB  3001               	movlw	1
  7070  0AAC  07AB               	addwf	___fldiv@b+1,f
  7071  0AAD  3000               	movlw	0
  7072  0AAE  1803               	skipnc
  7073  0AAF  3001               	movlw	1
  7074  0AB0  07AC               	addwf	___fldiv@b+2,f
  7075  0AB1  3000               	movlw	0
  7076  0AB2  1803               	skipnc
  7077  0AB3  3001               	movlw	1
  7078  0AB4  07AD               	addwf	___fldiv@b+3,f
  7079  0AB5                     l2460:
  7080  0AB5  1C2D               	btfss	___fldiv@b+3,0
  7081  0AB6  2AB8               	goto	u3311
  7082  0AB7  2AB9               	goto	u3310
  7083  0AB8                     u3311:
  7084  0AB8  2AD8               	goto	l2466
  7085  0AB9                     u3310:
  7086  0AB9                     l2462:
  7087  0AB9  082A               	movf	___fldiv@b,w
  7088  0ABA  00AE               	movwf	??___fldiv
  7089  0ABB  082B               	movf	___fldiv@b+1,w
  7090  0ABC  00AF               	movwf	??___fldiv+1
  7091  0ABD  082C               	movf	___fldiv@b+2,w
  7092  0ABE  00B0               	movwf	??___fldiv+2
  7093  0ABF  082D               	movf	___fldiv@b+3,w
  7094  0AC0  00B1               	movwf	??___fldiv+3
  7095  0AC1  3001               	movlw	1
  7096  0AC2  00B2               	movwf	??___fldiv+4
  7097  0AC3                     u3325:
  7098  0AC3  0D31               	rlf	??___fldiv+3,w
  7099  0AC4  0CB1               	rrf	??___fldiv+3,f
  7100  0AC5  0CB0               	rrf	??___fldiv+2,f
  7101  0AC6  0CAF               	rrf	??___fldiv+1,f
  7102  0AC7  0CAE               	rrf	??___fldiv,f
  7103  0AC8                     u3320:
  7104  0AC8  0BB2               	decfsz	??___fldiv+4,f
  7105  0AC9  2AC3               	goto	u3325
  7106  0ACA  0831               	movf	??___fldiv+3,w
  7107  0ACB  00AD               	movwf	___fldiv@b+3
  7108  0ACC  0830               	movf	??___fldiv+2,w
  7109  0ACD  00AC               	movwf	___fldiv@b+2
  7110  0ACE  082F               	movf	??___fldiv+1,w
  7111  0ACF  00AB               	movwf	___fldiv@b+1
  7112  0AD0  082E               	movf	??___fldiv,w
  7113  0AD1  00AA               	movwf	___fldiv@b
  7114  0AD2                     l2464:
  7115  0AD2  3001               	movlw	1
  7116  0AD3  07B8               	addwf	___fldiv@new_exp,f
  7117  0AD4  1803               	skipnc
  7118  0AD5  0AB9               	incf	___fldiv@new_exp+1,f
  7119  0AD6  3000               	movlw	0
  7120  0AD7  07B9               	addwf	___fldiv@new_exp+1,f
  7121  0AD8                     l2466:
  7122  0AD8  0839               	movf	___fldiv@new_exp+1,w
  7123  0AD9  3A80               	xorlw	128
  7124  0ADA  00FF               	movwf	btemp+1
  7125  0ADB  3080               	movlw	128
  7126  0ADC  027F               	subwf	btemp+1,w
  7127  0ADD  1D03               	skipz
  7128  0ADE  2AE1               	goto	u3335
  7129  0ADF  30FF               	movlw	255
  7130  0AE0  0238               	subwf	___fldiv@new_exp,w
  7131  0AE1                     u3335:
  7132  0AE1  1C03               	skipc
  7133  0AE2  2AE4               	goto	u3331
  7134  0AE3  2AE5               	goto	u3330
  7135  0AE4                     u3331:
  7136  0AE4  2AF3               	goto	l2470
  7137  0AE5                     u3330:
  7138  0AE5                     l2468:
  7139  0AE5  30FF               	movlw	255
  7140  0AE6  1283               	bcf	3,5	;RP0=0, select bank0
  7141  0AE7  1303               	bcf	3,6	;RP1=0, select bank0
  7142  0AE8  00B8               	movwf	___fldiv@new_exp
  7143  0AE9  3000               	movlw	0
  7144  0AEA  00B9               	movwf	___fldiv@new_exp+1
  7145  0AEB  3000               	movlw	0
  7146  0AEC  00AD               	movwf	___fldiv@b+3
  7147  0AED  3000               	movlw	0
  7148  0AEE  00AC               	movwf	___fldiv@b+2
  7149  0AEF  3000               	movlw	0
  7150  0AF0  00AB               	movwf	___fldiv@b+1
  7151  0AF1  3000               	movlw	0
  7152  0AF2  00AA               	movwf	___fldiv@b
  7153  0AF3                     l2470:
  7154  0AF3  1283               	bcf	3,5	;RP0=0, select bank0
  7155  0AF4  1303               	bcf	3,6	;RP1=0, select bank0
  7156  0AF5  0839               	movf	___fldiv@new_exp+1,w
  7157  0AF6  3A80               	xorlw	128
  7158  0AF7  00FF               	movwf	btemp+1
  7159  0AF8  3080               	movlw	128
  7160  0AF9  027F               	subwf	btemp+1,w
  7161  0AFA  1D03               	skipz
  7162  0AFB  2AFE               	goto	u3345
  7163  0AFC  3001               	movlw	1
  7164  0AFD  0238               	subwf	___fldiv@new_exp,w
  7165  0AFE                     u3345:
  7166  0AFE  1803               	skipnc
  7167  0AFF  2B01               	goto	u3341
  7168  0B00  2B02               	goto	u3340
  7169  0B01                     u3341:
  7170  0B01  2B0F               	goto	l676
  7171  0B02                     u3340:
  7172  0B02                     l2472:
  7173  0B02  1283               	bcf	3,5	;RP0=0, select bank0
  7174  0B03  1303               	bcf	3,6	;RP1=0, select bank0
  7175  0B04  01B8               	clrf	___fldiv@new_exp
  7176  0B05  01B9               	clrf	___fldiv@new_exp+1
  7177  0B06                     l2474:
  7178  0B06  3000               	movlw	0
  7179  0B07  00AD               	movwf	___fldiv@b+3
  7180  0B08  3000               	movlw	0
  7181  0B09  00AC               	movwf	___fldiv@b+2
  7182  0B0A  3000               	movlw	0
  7183  0B0B  00AB               	movwf	___fldiv@b+1
  7184  0B0C  3000               	movlw	0
  7185  0B0D  00AA               	movwf	___fldiv@b
  7186  0B0E                     l2476:
  7187  0B0E  01B7               	clrf	___fldiv@sign
  7188  0B0F                     l676:
  7189  0B0F  1283               	bcf	3,5	;RP0=0, select bank0
  7190  0B10  1303               	bcf	3,6	;RP1=0, select bank0
  7191  0B11  0838               	movf	___fldiv@new_exp,w
  7192  0B12  00AE               	movwf	??___fldiv
  7193  0B13  082E               	movf	??___fldiv,w
  7194  0B14  00BE               	movwf	___fldiv@bexp
  7195  0B15                     l2478:
  7196  0B15  1C3E               	btfss	___fldiv@bexp,0
  7197  0B16  2B18               	goto	u3351
  7198  0B17  2B19               	goto	u3350
  7199  0B18                     u3351:
  7200  0B18  2B1B               	goto	l2482
  7201  0B19                     u3350:
  7202  0B19                     l2480:
  7203  0B19  17AC               	bsf	___fldiv@b+2,7
  7204  0B1A  2B1F               	goto	l678
  7205  0B1B                     l2482:
  7206  0B1B  307F               	movlw	127
  7207  0B1C  00AE               	movwf	??___fldiv
  7208  0B1D  082E               	movf	??___fldiv,w
  7209  0B1E  05AC               	andwf	___fldiv@b+2,f
  7210  0B1F                     l678:
  7211  0B1F  083E               	movf	___fldiv@bexp,w
  7212  0B20  00AE               	movwf	??___fldiv
  7213  0B21  1003               	clrc
  7214  0B22  0C2E               	rrf	??___fldiv,w
  7215  0B23  00AF               	movwf	??___fldiv+1
  7216  0B24  082F               	movf	??___fldiv+1,w
  7217  0B25  00AD               	movwf	___fldiv@b+3
  7218  0B26  0837               	movf	___fldiv@sign,w
  7219  0B27  00AE               	movwf	??___fldiv
  7220  0B28  082E               	movf	??___fldiv,w
  7221  0B29  04AD               	iorwf	___fldiv@b+3,f
  7222  0B2A  29C3               	goto	l2390
  7223  0B2B                     l656:
  7224  0B2B  0008               	return
  7225  0B2C                     __end_of___fldiv:
  7226                           
  7227                           	psect	text23
  7228  0D78                     __ptext23:	
  7229 ;; *************** function ___fladd *****************
  7230 ;; Defined at:
  7231 ;;		line 10 in file "C:\Program Files\Microchip\xc8\v2.31\pic\sources\c90\common\sprcadd.c"
  7232 ;; Parameters:    Size  Location     Type
  7233 ;;  b               4   32[BANK0 ] unsigned char 
  7234 ;;  a               4   36[BANK0 ] unsigned char 
  7235 ;; Auto vars:     Size  Location     Type
  7236 ;;  grs             1   51[BANK0 ] unsigned char 
  7237 ;;  bexp            1   50[BANK0 ] unsigned char 
  7238 ;;  aexp            1   49[BANK0 ] unsigned char 
  7239 ;;  signs           1   48[BANK0 ] unsigned char 
  7240 ;; Return value:  Size  Location     Type
  7241 ;;                  4   32[BANK0 ] unsigned char 
  7242 ;; Registers used:
  7243 ;;		wreg, status,2, status,0, btemp+1
  7244 ;; Tracked objects:
  7245 ;;		On entry : 0/0
  7246 ;;		On exit  : 0/0
  7247 ;;		Unchanged: 0/0
  7248 ;; Data sizes:     COMMON   BANK0   BANK1   BANK3   BANK2
  7249 ;;      Params:         0       8       0       0       0
  7250 ;;      Locals:         0       4       0       0       0
  7251 ;;      Temps:          0       8       0       0       0
  7252 ;;      Totals:         0      20       0       0       0
  7253 ;;Total ram usage:       20 bytes
  7254 ;; Hardware stack levels used:    1
  7255 ;; Hardware stack levels required when called:    1
  7256 ;; This function calls:
  7257 ;;		Nothing
  7258 ;; This function is called by:
  7259 ;;		_GY_Read
  7260 ;;		___flsub
  7261 ;; This function uses a non-reentrant model
  7262 ;;
  7263                           
  7264                           
  7265                           ;psect for function ___fladd
  7266  0D78                     ___fladd:
  7267  0D78                     l2022:	
  7268                           ;incstack = 0
  7269                           ; Regs used in ___fladd: [wreg+status,2+status,0+btemp+1]
  7270                           
  7271  0D78  1283               	bcf	3,5	;RP0=0, select bank0
  7272  0D79  1303               	bcf	3,6	;RP1=0, select bank0
  7273  0D7A  0843               	movf	___fladd@b+3,w
  7274  0D7B  3980               	andlw	128
  7275  0D7C  00C8               	movwf	??___fladd
  7276  0D7D  0848               	movf	??___fladd,w
  7277  0D7E  00D0               	movwf	___fladd@signs
  7278  0D7F                     l2024:
  7279  0D7F  0843               	movf	___fladd@b+3,w
  7280  0D80  00C8               	movwf	??___fladd
  7281  0D81  0748               	addwf	??___fladd,w
  7282  0D82  00C9               	movwf	??___fladd+1
  7283  0D83  0849               	movf	??___fladd+1,w
  7284  0D84  00D2               	movwf	___fladd@bexp
  7285  0D85                     l2026:
  7286  0D85  1FC2               	btfss	___fladd@b+2,7
  7287  0D86  2D88               	goto	u2341
  7288  0D87  2D89               	goto	u2340
  7289  0D88                     u2341:
  7290  0D88  2D8A               	goto	l2030
  7291  0D89                     u2340:
  7292  0D89                     l2028:
  7293  0D89  1452               	bsf	___fladd@bexp,0
  7294  0D8A                     l2030:
  7295  0D8A  0852               	movf	___fladd@bexp,w
  7296  0D8B  1903               	btfsc	3,2
  7297  0D8C  2D8E               	goto	u2351
  7298  0D8D  2D8F               	goto	u2350
  7299  0D8E                     u2351:
  7300  0D8E  2D9F               	goto	l2040
  7301  0D8F                     u2350:
  7302  0D8F                     l2032:
  7303  0D8F  0A52               	incf	___fladd@bexp,w
  7304  0D90  1D03               	btfss	3,2
  7305  0D91  2D93               	goto	u2361
  7306  0D92  2D94               	goto	u2360
  7307  0D93                     u2361:
  7308  0D93  2D9C               	goto	l2036
  7309  0D94                     u2360:
  7310  0D94                     l2034:
  7311  0D94  3000               	movlw	0
  7312  0D95  00C3               	movwf	___fladd@b+3
  7313  0D96  3000               	movlw	0
  7314  0D97  00C2               	movwf	___fladd@b+2
  7315  0D98  3000               	movlw	0
  7316  0D99  00C1               	movwf	___fladd@b+1
  7317  0D9A  3000               	movlw	0
  7318  0D9B  00C0               	movwf	___fladd@b
  7319  0D9C                     l2036:
  7320  0D9C  17C2               	bsf	___fladd@b+2,7
  7321  0D9D                     l2038:
  7322  0D9D  01C3               	clrf	___fladd@b+3
  7323  0D9E  2DA7               	goto	l2042
  7324  0D9F                     l2040:
  7325  0D9F  3000               	movlw	0
  7326  0DA0  00C3               	movwf	___fladd@b+3
  7327  0DA1  3000               	movlw	0
  7328  0DA2  00C2               	movwf	___fladd@b+2
  7329  0DA3  3000               	movlw	0
  7330  0DA4  00C1               	movwf	___fladd@b+1
  7331  0DA5  3000               	movlw	0
  7332  0DA6  00C0               	movwf	___fladd@b
  7333  0DA7                     l2042:
  7334  0DA7  0847               	movf	___fladd@a+3,w
  7335  0DA8  3980               	andlw	128
  7336  0DA9  00C8               	movwf	??___fladd
  7337  0DAA  0848               	movf	??___fladd,w
  7338  0DAB  00D1               	movwf	___fladd@aexp
  7339  0DAC                     l2044:
  7340  0DAC  0851               	movf	___fladd@aexp,w
  7341  0DAD  0650               	xorwf	___fladd@signs,w
  7342  0DAE  1903               	skipnz
  7343  0DAF  2DB1               	goto	u2371
  7344  0DB0  2DB2               	goto	u2370
  7345  0DB1                     u2371:
  7346  0DB1  2DB3               	goto	l2048
  7347  0DB2                     u2370:
  7348  0DB2                     l2046:
  7349  0DB2  1750               	bsf	___fladd@signs,6
  7350  0DB3                     l2048:
  7351  0DB3  0847               	movf	___fladd@a+3,w
  7352  0DB4  00C8               	movwf	??___fladd
  7353  0DB5  0748               	addwf	??___fladd,w
  7354  0DB6  00C9               	movwf	??___fladd+1
  7355  0DB7  0849               	movf	??___fladd+1,w
  7356  0DB8  00D1               	movwf	___fladd@aexp
  7357  0DB9                     l2050:
  7358  0DB9  1FC6               	btfss	___fladd@a+2,7
  7359  0DBA  2DBC               	goto	u2381
  7360  0DBB  2DBD               	goto	u2380
  7361  0DBC                     u2381:
  7362  0DBC  2DBE               	goto	l2054
  7363  0DBD                     u2380:
  7364  0DBD                     l2052:
  7365  0DBD  1451               	bsf	___fladd@aexp,0
  7366  0DBE                     l2054:
  7367  0DBE  0851               	movf	___fladd@aexp,w
  7368  0DBF  1903               	btfsc	3,2
  7369  0DC0  2DC2               	goto	u2391
  7370  0DC1  2DC3               	goto	u2390
  7371  0DC2                     u2391:
  7372  0DC2  2DD3               	goto	l2064
  7373  0DC3                     u2390:
  7374  0DC3                     l2056:
  7375  0DC3  0A51               	incf	___fladd@aexp,w
  7376  0DC4  1D03               	btfss	3,2
  7377  0DC5  2DC7               	goto	u2401
  7378  0DC6  2DC8               	goto	u2400
  7379  0DC7                     u2401:
  7380  0DC7  2DD0               	goto	l2060
  7381  0DC8                     u2400:
  7382  0DC8                     l2058:
  7383  0DC8  3000               	movlw	0
  7384  0DC9  00C7               	movwf	___fladd@a+3
  7385  0DCA  3000               	movlw	0
  7386  0DCB  00C6               	movwf	___fladd@a+2
  7387  0DCC  3000               	movlw	0
  7388  0DCD  00C5               	movwf	___fladd@a+1
  7389  0DCE  3000               	movlw	0
  7390  0DCF  00C4               	movwf	___fladd@a
  7391  0DD0                     l2060:
  7392  0DD0  17C6               	bsf	___fladd@a+2,7
  7393  0DD1                     l2062:
  7394  0DD1  01C7               	clrf	___fladd@a+3
  7395  0DD2  2DDB               	goto	l598
  7396  0DD3                     l2064:
  7397  0DD3  3000               	movlw	0
  7398  0DD4  00C7               	movwf	___fladd@a+3
  7399  0DD5  3000               	movlw	0
  7400  0DD6  00C6               	movwf	___fladd@a+2
  7401  0DD7  3000               	movlw	0
  7402  0DD8  00C5               	movwf	___fladd@a+1
  7403  0DD9  3000               	movlw	0
  7404  0DDA  00C4               	movwf	___fladd@a
  7405  0DDB                     l598:
  7406  0DDB  0852               	movf	___fladd@bexp,w
  7407  0DDC  0251               	subwf	___fladd@aexp,w
  7408  0DDD  1803               	skipnc
  7409  0DDE  2DE0               	goto	u2411
  7410  0DDF  2DE1               	goto	u2410
  7411  0DE0                     u2411:
  7412  0DE0  2E25               	goto	l2100
  7413  0DE1                     u2410:
  7414  0DE1                     l2066:
  7415  0DE1  1F50               	btfss	___fladd@signs,6
  7416  0DE2  2DE4               	goto	u2421
  7417  0DE3  2DE5               	goto	u2420
  7418  0DE4                     u2421:
  7419  0DE4  2DE9               	goto	l2070
  7420  0DE5                     u2420:
  7421  0DE5                     l2068:
  7422  0DE5  3080               	movlw	128
  7423  0DE6  00C8               	movwf	??___fladd
  7424  0DE7  0848               	movf	??___fladd,w
  7425  0DE8  06D0               	xorwf	___fladd@signs,f
  7426  0DE9                     l2070:
  7427  0DE9  0852               	movf	___fladd@bexp,w
  7428  0DEA  00C8               	movwf	??___fladd
  7429  0DEB  0848               	movf	??___fladd,w
  7430  0DEC  00D3               	movwf	___fladd@grs
  7431  0DED                     l2072:
  7432  0DED  0851               	movf	___fladd@aexp,w
  7433  0DEE  00C8               	movwf	??___fladd
  7434  0DEF  0848               	movf	??___fladd,w
  7435  0DF0  00D2               	movwf	___fladd@bexp
  7436  0DF1                     l2074:
  7437  0DF1  0853               	movf	___fladd@grs,w
  7438  0DF2  00C8               	movwf	??___fladd
  7439  0DF3  0848               	movf	??___fladd,w
  7440  0DF4  00D1               	movwf	___fladd@aexp
  7441  0DF5                     l2076:
  7442  0DF5  0840               	movf	___fladd@b,w
  7443  0DF6  00C8               	movwf	??___fladd
  7444  0DF7  0848               	movf	??___fladd,w
  7445  0DF8  00D3               	movwf	___fladd@grs
  7446  0DF9                     l2078:
  7447  0DF9  0844               	movf	___fladd@a,w
  7448  0DFA  00C8               	movwf	??___fladd
  7449  0DFB  0848               	movf	??___fladd,w
  7450  0DFC  00C0               	movwf	___fladd@b
  7451  0DFD                     l2080:
  7452  0DFD  0853               	movf	___fladd@grs,w
  7453  0DFE  00C8               	movwf	??___fladd
  7454  0DFF  0848               	movf	??___fladd,w
  7455  0E00  00C4               	movwf	___fladd@a
  7456  0E01                     l2082:
  7457  0E01  0841               	movf	___fladd@b+1,w
  7458  0E02  00C8               	movwf	??___fladd
  7459  0E03  0848               	movf	??___fladd,w
  7460  0E04  00D3               	movwf	___fladd@grs
  7461  0E05                     l2084:
  7462  0E05  0845               	movf	___fladd@a+1,w
  7463  0E06  00C8               	movwf	??___fladd
  7464  0E07  0848               	movf	??___fladd,w
  7465  0E08  00C1               	movwf	___fladd@b+1
  7466  0E09                     l2086:
  7467  0E09  0853               	movf	___fladd@grs,w
  7468  0E0A  00C8               	movwf	??___fladd
  7469  0E0B  0848               	movf	??___fladd,w
  7470  0E0C  00C5               	movwf	___fladd@a+1
  7471  0E0D                     l2088:
  7472  0E0D  0842               	movf	___fladd@b+2,w
  7473  0E0E  00C8               	movwf	??___fladd
  7474  0E0F  0848               	movf	??___fladd,w
  7475  0E10  00D3               	movwf	___fladd@grs
  7476  0E11                     l2090:
  7477  0E11  0846               	movf	___fladd@a+2,w
  7478  0E12  00C8               	movwf	??___fladd
  7479  0E13  0848               	movf	??___fladd,w
  7480  0E14  00C2               	movwf	___fladd@b+2
  7481  0E15                     l2092:
  7482  0E15  0853               	movf	___fladd@grs,w
  7483  0E16  00C8               	movwf	??___fladd
  7484  0E17  0848               	movf	??___fladd,w
  7485  0E18  00C6               	movwf	___fladd@a+2
  7486  0E19                     l2094:
  7487  0E19  0843               	movf	___fladd@b+3,w
  7488  0E1A  00C8               	movwf	??___fladd
  7489  0E1B  0848               	movf	??___fladd,w
  7490  0E1C  00D3               	movwf	___fladd@grs
  7491  0E1D                     l2096:
  7492  0E1D  0847               	movf	___fladd@a+3,w
  7493  0E1E  00C8               	movwf	??___fladd
  7494  0E1F  0848               	movf	??___fladd,w
  7495  0E20  00C3               	movwf	___fladd@b+3
  7496  0E21                     l2098:
  7497  0E21  0853               	movf	___fladd@grs,w
  7498  0E22  00C8               	movwf	??___fladd
  7499  0E23  0848               	movf	??___fladd,w
  7500  0E24  00C7               	movwf	___fladd@a+3
  7501  0E25                     l2100:
  7502  0E25  01D3               	clrf	___fladd@grs
  7503  0E26                     l2102:
  7504  0E26  0851               	movf	___fladd@aexp,w
  7505  0E27  00C8               	movwf	??___fladd
  7506  0E28  01C9               	clrf	??___fladd+1
  7507  0E29  0849               	movf	??___fladd+1,w
  7508  0E2A  00CB               	movwf	??___fladd+3
  7509  0E2B  0852               	movf	___fladd@bexp,w
  7510  0E2C  0248               	subwf	??___fladd,w
  7511  0E2D  00CA               	movwf	??___fladd+2
  7512  0E2E  1C03               	skipc
  7513  0E2F  03CB               	decf	??___fladd+3,f
  7514  0E30  084B               	movf	??___fladd+3,w
  7515  0E31  3A80               	xorlw	128
  7516  0E32  00FF               	movwf	btemp+1
  7517  0E33  3080               	movlw	128
  7518  0E34  027F               	subwf	btemp+1,w
  7519  0E35  1D03               	skipz
  7520  0E36  2E39               	goto	u2435
  7521  0E37  301A               	movlw	26
  7522  0E38  024A               	subwf	??___fladd+2,w
  7523  0E39                     u2435:
  7524  0E39  1C03               	skipc
  7525  0E3A  2E3C               	goto	u2431
  7526  0E3B  2E3D               	goto	u2430
  7527  0E3C                     u2431:
  7528  0E3C  2E7A               	goto	l2118
  7529  0E3D                     u2430:
  7530  0E3D                     l2104:
  7531  0E3D  1283               	bcf	3,5	;RP0=0, select bank0
  7532  0E3E  1303               	bcf	3,6	;RP1=0, select bank0
  7533  0E3F  0843               	movf	___fladd@b+3,w
  7534  0E40  0442               	iorwf	___fladd@b+2,w
  7535  0E41  0441               	iorwf	___fladd@b+1,w
  7536  0E42  0440               	iorwf	___fladd@b,w
  7537  0E43  1D03               	skipz
  7538  0E44  2E46               	goto	u2441
  7539  0E45  2E48               	goto	u2440
  7540  0E46                     u2441:
  7541  0E46  3001               	movlw	1
  7542  0E47  2E49               	goto	u2450
  7543  0E48                     u2440:
  7544  0E48  3000               	movlw	0
  7545  0E49                     u2450:
  7546  0E49  00C8               	movwf	??___fladd
  7547  0E4A  0848               	movf	??___fladd,w
  7548  0E4B  00D3               	movwf	___fladd@grs
  7549  0E4C  3000               	movlw	0
  7550  0E4D  00C3               	movwf	___fladd@b+3
  7551  0E4E  3000               	movlw	0
  7552  0E4F  00C2               	movwf	___fladd@b+2
  7553  0E50  3000               	movlw	0
  7554  0E51  00C1               	movwf	___fladd@b+1
  7555  0E52  3000               	movlw	0
  7556  0E53  00C0               	movwf	___fladd@b
  7557  0E54  0851               	movf	___fladd@aexp,w
  7558  0E55  00C8               	movwf	??___fladd
  7559  0E56  0848               	movf	??___fladd,w
  7560  0E57  00D2               	movwf	___fladd@bexp
  7561  0E58  2E82               	goto	l602
  7562  0E59                     l604:
  7563  0E59  1C53               	btfss	___fladd@grs,0
  7564  0E5A  2E5C               	goto	u2461
  7565  0E5B  2E5D               	goto	u2460
  7566  0E5C                     u2461:
  7567  0E5C  2E66               	goto	l2108
  7568  0E5D                     u2460:
  7569  0E5D                     l2106:
  7570  0E5D  0853               	movf	___fladd@grs,w
  7571  0E5E  00C8               	movwf	??___fladd
  7572  0E5F  1003               	clrc
  7573  0E60  0C48               	rrf	??___fladd,w
  7574  0E61  3801               	iorlw	1
  7575  0E62  00C9               	movwf	??___fladd+1
  7576  0E63  0849               	movf	??___fladd+1,w
  7577  0E64  00D3               	movwf	___fladd@grs
  7578  0E65  2E68               	goto	l2110
  7579  0E66                     l2108:
  7580  0E66  1003               	clrc
  7581  0E67  0CD3               	rrf	___fladd@grs,f
  7582  0E68                     l2110:
  7583  0E68  1C40               	btfss	___fladd@b,0
  7584  0E69  2E6B               	goto	u2471
  7585  0E6A  2E6C               	goto	u2470
  7586  0E6B                     u2471:
  7587  0E6B  2E6D               	goto	l2114
  7588  0E6C                     u2470:
  7589  0E6C                     l2112:
  7590  0E6C  17D3               	bsf	___fladd@grs,7
  7591  0E6D                     l2114:
  7592  0E6D  3001               	movlw	1
  7593  0E6E  00C8               	movwf	??___fladd
  7594  0E6F                     u2485:
  7595  0E6F  0D43               	rlf	___fladd@b+3,w
  7596  0E70  0CC3               	rrf	___fladd@b+3,f
  7597  0E71  0CC2               	rrf	___fladd@b+2,f
  7598  0E72  0CC1               	rrf	___fladd@b+1,f
  7599  0E73  0CC0               	rrf	___fladd@b,f
  7600  0E74  0BC8               	decfsz	??___fladd& (0+127),f
  7601  0E75  2E6F               	goto	u2485
  7602  0E76                     l2116:
  7603  0E76  3001               	movlw	1
  7604  0E77  00C8               	movwf	??___fladd
  7605  0E78  0848               	movf	??___fladd,w
  7606  0E79  07D2               	addwf	___fladd@bexp,f
  7607  0E7A                     l2118:
  7608  0E7A  1283               	bcf	3,5	;RP0=0, select bank0
  7609  0E7B  1303               	bcf	3,6	;RP1=0, select bank0
  7610  0E7C  0851               	movf	___fladd@aexp,w
  7611  0E7D  0252               	subwf	___fladd@bexp,w
  7612  0E7E  1C03               	skipc
  7613  0E7F  2E81               	goto	u2491
  7614  0E80  2E82               	goto	u2490
  7615  0E81                     u2491:
  7616  0E81  2E59               	goto	l604
  7617  0E82                     u2490:
  7618  0E82                     l602:
  7619  0E82  1B50               	btfsc	___fladd@signs,6
  7620  0E83  2E85               	goto	u2501
  7621  0E84  2E86               	goto	u2500
  7622  0E85                     u2501:
  7623  0E85  2ED1               	goto	l2144
  7624  0E86                     u2500:
  7625  0E86                     l2120:
  7626  0E86  0852               	movf	___fladd@bexp,w
  7627  0E87  1D03               	btfss	3,2
  7628  0E88  2E8A               	goto	u2511
  7629  0E89  2E8B               	goto	u2510
  7630  0E8A                     u2511:
  7631  0E8A  2E94               	goto	l2126
  7632  0E8B                     u2510:
  7633  0E8B                     l2122:
  7634  0E8B  3000               	movlw	0
  7635  0E8C  00C3               	movwf	?___fladd+3
  7636  0E8D  3000               	movlw	0
  7637  0E8E  00C2               	movwf	?___fladd+2
  7638  0E8F  3000               	movlw	0
  7639  0E90  00C1               	movwf	?___fladd+1
  7640  0E91  3000               	movlw	0
  7641  0E92  00C0               	movwf	?___fladd
  7642  0E93  2FFF               	goto	l611
  7643  0E94                     l2126:
  7644  0E94  0844               	movf	___fladd@a,w
  7645  0E95  07C0               	addwf	___fladd@b,f
  7646  0E96  0845               	movf	___fladd@a+1,w
  7647  0E97  1103               	clrz
  7648  0E98  1803               	skipnc
  7649  0E99  3E01               	addlw	1
  7650  0E9A  1903               	skipnz
  7651  0E9B  2E9D               	goto	u2521
  7652  0E9C  07C1               	addwf	___fladd@b+1,f
  7653  0E9D                     u2521:
  7654  0E9D  0846               	movf	___fladd@a+2,w
  7655  0E9E  1103               	clrz
  7656  0E9F  1803               	skipnc
  7657  0EA0  3E01               	addlw	1
  7658  0EA1  1903               	skipnz
  7659  0EA2  2EA4               	goto	u2522
  7660  0EA3  07C2               	addwf	___fladd@b+2,f
  7661  0EA4                     u2522:
  7662  0EA4  0847               	movf	___fladd@a+3,w
  7663  0EA5  1103               	clrz
  7664  0EA6  1803               	skipnc
  7665  0EA7  3E01               	addlw	1
  7666  0EA8  1903               	skipnz
  7667  0EA9  2EAB               	goto	u2523
  7668  0EAA  07C3               	addwf	___fladd@b+3,f
  7669  0EAB                     u2523:
  7670  0EAB                     l2128:
  7671  0EAB  1C43               	btfss	___fladd@b+3,0
  7672  0EAC  2EAE               	goto	u2531
  7673  0EAD  2EAF               	goto	u2530
  7674  0EAE                     u2531:
  7675  0EAE  2F85               	goto	l2178
  7676  0EAF                     u2530:
  7677  0EAF                     l2130:
  7678  0EAF  1C53               	btfss	___fladd@grs,0
  7679  0EB0  2EB2               	goto	u2541
  7680  0EB1  2EB3               	goto	u2540
  7681  0EB2                     u2541:
  7682  0EB2  2EBC               	goto	l2134
  7683  0EB3                     u2540:
  7684  0EB3                     l2132:
  7685  0EB3  0853               	movf	___fladd@grs,w
  7686  0EB4  00C8               	movwf	??___fladd
  7687  0EB5  1003               	clrc
  7688  0EB6  0C48               	rrf	??___fladd,w
  7689  0EB7  3801               	iorlw	1
  7690  0EB8  00C9               	movwf	??___fladd+1
  7691  0EB9  0849               	movf	??___fladd+1,w
  7692  0EBA  00D3               	movwf	___fladd@grs
  7693  0EBB  2EBE               	goto	l2136
  7694  0EBC                     l2134:
  7695  0EBC  1003               	clrc
  7696  0EBD  0CD3               	rrf	___fladd@grs,f
  7697  0EBE                     l2136:
  7698  0EBE  1C40               	btfss	___fladd@b,0
  7699  0EBF  2EC1               	goto	u2551
  7700  0EC0  2EC2               	goto	u2550
  7701  0EC1                     u2551:
  7702  0EC1  2EC3               	goto	l2140
  7703  0EC2                     u2550:
  7704  0EC2                     l2138:
  7705  0EC2  17D3               	bsf	___fladd@grs,7
  7706  0EC3                     l2140:
  7707  0EC3  3001               	movlw	1
  7708  0EC4  00C8               	movwf	??___fladd
  7709  0EC5                     u2565:
  7710  0EC5  0D43               	rlf	___fladd@b+3,w
  7711  0EC6  0CC3               	rrf	___fladd@b+3,f
  7712  0EC7  0CC2               	rrf	___fladd@b+2,f
  7713  0EC8  0CC1               	rrf	___fladd@b+1,f
  7714  0EC9  0CC0               	rrf	___fladd@b,f
  7715  0ECA  0BC8               	decfsz	??___fladd& (0+127),f
  7716  0ECB  2EC5               	goto	u2565
  7717  0ECC                     l2142:
  7718  0ECC  3001               	movlw	1
  7719  0ECD  00C8               	movwf	??___fladd
  7720  0ECE  0848               	movf	??___fladd,w
  7721  0ECF  07D2               	addwf	___fladd@bexp,f
  7722  0ED0  2F85               	goto	l2178
  7723  0ED1                     l2144:
  7724  0ED1  0843               	movf	___fladd@b+3,w
  7725  0ED2  3A80               	xorlw	128
  7726  0ED3  00FF               	movwf	btemp+1
  7727  0ED4  0847               	movf	___fladd@a+3,w
  7728  0ED5  3A80               	xorlw	128
  7729  0ED6  027F               	subwf	btemp+1,w
  7730  0ED7  1D03               	skipz
  7731  0ED8  2EE3               	goto	u2573
  7732  0ED9  0846               	movf	___fladd@a+2,w
  7733  0EDA  0242               	subwf	___fladd@b+2,w
  7734  0EDB  1D03               	skipz
  7735  0EDC  2EE3               	goto	u2573
  7736  0EDD  0845               	movf	___fladd@a+1,w
  7737  0EDE  0241               	subwf	___fladd@b+1,w
  7738  0EDF  1D03               	skipz
  7739  0EE0  2EE3               	goto	u2573
  7740  0EE1  0844               	movf	___fladd@a,w
  7741  0EE2  0240               	subwf	___fladd@b,w
  7742  0EE3                     u2573:
  7743  0EE3  1803               	skipnc
  7744  0EE4  2EE6               	goto	u2571
  7745  0EE5  2EE7               	goto	u2570
  7746  0EE6                     u2571:
  7747  0EE6  2F3F               	goto	l2154
  7748  0EE7                     u2570:
  7749  0EE7                     l2146:
  7750  0EE7  30FF               	movlw	255
  7751  0EE8  00C8               	movwf	??___fladd
  7752  0EE9  30FF               	movlw	255
  7753  0EEA  00C9               	movwf	??___fladd+1
  7754  0EEB  30FF               	movlw	255
  7755  0EEC  00CA               	movwf	??___fladd+2
  7756  0EED  30FF               	movlw	255
  7757  0EEE  00CB               	movwf	??___fladd+3
  7758  0EEF  0844               	movf	___fladd@a,w
  7759  0EF0  00CC               	movwf	??___fladd+4
  7760  0EF1  0845               	movf	___fladd@a+1,w
  7761  0EF2  00CD               	movwf	??___fladd+5
  7762  0EF3  0846               	movf	___fladd@a+2,w
  7763  0EF4  00CE               	movwf	??___fladd+6
  7764  0EF5  0847               	movf	___fladd@a+3,w
  7765  0EF6  00CF               	movwf	??___fladd+7
  7766  0EF7  0840               	movf	___fladd@b,w
  7767  0EF8  02CC               	subwf	??___fladd+4,f
  7768  0EF9  0841               	movf	___fladd@b+1,w
  7769  0EFA  1C03               	skipc
  7770  0EFB  0F41               	incfsz	___fladd@b+1,w
  7771  0EFC  2EFE               	goto	u2581
  7772  0EFD  2EFF               	goto	u2582
  7773  0EFE                     u2581:
  7774  0EFE  02CD               	subwf	??___fladd+5,f
  7775  0EFF                     u2582:
  7776  0EFF  0842               	movf	___fladd@b+2,w
  7777  0F00  1C03               	skipc
  7778  0F01  0F42               	incfsz	___fladd@b+2,w
  7779  0F02  2F04               	goto	u2583
  7780  0F03  2F05               	goto	u2584
  7781  0F04                     u2583:
  7782  0F04  02CE               	subwf	??___fladd+6,f
  7783  0F05                     u2584:
  7784  0F05  0843               	movf	___fladd@b+3,w
  7785  0F06  1C03               	skipc
  7786  0F07  0F43               	incfsz	___fladd@b+3,w
  7787  0F08  2F0A               	goto	u2585
  7788  0F09  2F0B               	goto	u2586
  7789  0F0A                     u2585:
  7790  0F0A  02CF               	subwf	??___fladd+7,f
  7791  0F0B                     u2586:
  7792  0F0B  084C               	movf	??___fladd+4,w
  7793  0F0C  07C8               	addwf	??___fladd,f
  7794  0F0D  084D               	movf	??___fladd+5,w
  7795  0F0E  1803               	skipnc
  7796  0F0F  0F4D               	incfsz	??___fladd+5,w
  7797  0F10  2F12               	goto	u2590
  7798  0F11  2F13               	goto	u2591
  7799  0F12                     u2590:
  7800  0F12  07C9               	addwf	??___fladd+1,f
  7801  0F13                     u2591:
  7802  0F13  084E               	movf	??___fladd+6,w
  7803  0F14  1803               	skipnc
  7804  0F15  0F4E               	incfsz	??___fladd+6,w
  7805  0F16  2F18               	goto	u2592
  7806  0F17  2F19               	goto	u2593
  7807  0F18                     u2592:
  7808  0F18  07CA               	addwf	??___fladd+2,f
  7809  0F19                     u2593:
  7810  0F19  084F               	movf	??___fladd+7,w
  7811  0F1A  1803               	skipnc
  7812  0F1B  0A4F               	incf	??___fladd+7,w
  7813  0F1C  07CB               	addwf	??___fladd+3,f
  7814  0F1D  084B               	movf	??___fladd+3,w
  7815  0F1E  00C3               	movwf	___fladd@b+3
  7816  0F1F  084A               	movf	??___fladd+2,w
  7817  0F20  00C2               	movwf	___fladd@b+2
  7818  0F21  0849               	movf	??___fladd+1,w
  7819  0F22  00C1               	movwf	___fladd@b+1
  7820  0F23  0848               	movf	??___fladd,w
  7821  0F24  00C0               	movwf	___fladd@b
  7822  0F25                     l2148:
  7823  0F25  3080               	movlw	128
  7824  0F26  00C8               	movwf	??___fladd
  7825  0F27  0848               	movf	??___fladd,w
  7826  0F28  06D0               	xorwf	___fladd@signs,f
  7827  0F29  09D3               	comf	___fladd@grs,f
  7828  0F2A  0AD3               	incf	___fladd@grs,f
  7829  0F2B                     l2150:
  7830  0F2B  0853               	movf	___fladd@grs,w
  7831  0F2C  1D03               	btfss	3,2
  7832  0F2D  2F2F               	goto	u2601
  7833  0F2E  2F30               	goto	u2600
  7834  0F2F                     u2601:
  7835  0F2F  2F4D               	goto	l619
  7836  0F30                     u2600:
  7837  0F30                     l2152:
  7838  0F30  3001               	movlw	1
  7839  0F31  07C0               	addwf	___fladd@b,f
  7840  0F32  3000               	movlw	0
  7841  0F33  1803               	skipnc
  7842  0F34  3001               	movlw	1
  7843  0F35  07C1               	addwf	___fladd@b+1,f
  7844  0F36  3000               	movlw	0
  7845  0F37  1803               	skipnc
  7846  0F38  3001               	movlw	1
  7847  0F39  07C2               	addwf	___fladd@b+2,f
  7848  0F3A  3000               	movlw	0
  7849  0F3B  1803               	skipnc
  7850  0F3C  3001               	movlw	1
  7851  0F3D  07C3               	addwf	___fladd@b+3,f
  7852  0F3E  2F4D               	goto	l619
  7853  0F3F                     l2154:
  7854  0F3F  0844               	movf	___fladd@a,w
  7855  0F40  02C0               	subwf	___fladd@b,f
  7856  0F41  0845               	movf	___fladd@a+1,w
  7857  0F42  1C03               	skipc
  7858  0F43  0F45               	incfsz	___fladd@a+1,w
  7859  0F44  02C1               	subwf	___fladd@b+1,f
  7860  0F45  0846               	movf	___fladd@a+2,w
  7861  0F46  1C03               	skipc
  7862  0F47  0F46               	incfsz	___fladd@a+2,w
  7863  0F48  02C2               	subwf	___fladd@b+2,f
  7864  0F49  0847               	movf	___fladd@a+3,w
  7865  0F4A  1C03               	skipc
  7866  0F4B  0F47               	incfsz	___fladd@a+3,w
  7867  0F4C  02C3               	subwf	___fladd@b+3,f
  7868  0F4D                     l619:
  7869  0F4D  0843               	movf	___fladd@b+3,w
  7870  0F4E  0442               	iorwf	___fladd@b+2,w
  7871  0F4F  0441               	iorwf	___fladd@b+1,w
  7872  0F50  0440               	iorwf	___fladd@b,w
  7873  0F51  1D03               	skipz
  7874  0F52  2F54               	goto	u2611
  7875  0F53  2F55               	goto	u2610
  7876  0F54                     u2611:
  7877  0F54  2F81               	goto	l2176
  7878  0F55                     u2610:
  7879  0F55                     l2156:
  7880  0F55  0853               	movf	___fladd@grs,w
  7881  0F56  1D03               	btfss	3,2
  7882  0F57  2F59               	goto	u2621
  7883  0F58  2F5A               	goto	u2620
  7884  0F59                     u2621:
  7885  0F59  2F81               	goto	l2176
  7886  0F5A                     u2620:
  7887  0F5A                     l2158:
  7888  0F5A  3000               	movlw	0
  7889  0F5B  00C3               	movwf	?___fladd+3
  7890  0F5C  3000               	movlw	0
  7891  0F5D  00C2               	movwf	?___fladd+2
  7892  0F5E  3000               	movlw	0
  7893  0F5F  00C1               	movwf	?___fladd+1
  7894  0F60  3000               	movlw	0
  7895  0F61  00C0               	movwf	?___fladd
  7896  0F62  2FFF               	goto	l611
  7897  0F63                     l2162:
  7898  0F63  3001               	movlw	1
  7899  0F64  00C8               	movwf	??___fladd
  7900  0F65                     u2635:
  7901  0F65  1003               	clrc
  7902  0F66  0DC0               	rlf	___fladd@b,f
  7903  0F67  0DC1               	rlf	___fladd@b+1,f
  7904  0F68  0DC2               	rlf	___fladd@b+2,f
  7905  0F69  0DC3               	rlf	___fladd@b+3,f
  7906  0F6A  0BC8               	decfsz	??___fladd,f
  7907  0F6B  2F65               	goto	u2635
  7908  0F6C                     l2164:
  7909  0F6C  1FD3               	btfss	___fladd@grs,7
  7910  0F6D  2F6F               	goto	u2641
  7911  0F6E  2F70               	goto	u2640
  7912  0F6F                     u2641:
  7913  0F6F  2F71               	goto	l623
  7914  0F70                     u2640:
  7915  0F70                     l2166:
  7916  0F70  1440               	bsf	___fladd@b,0
  7917  0F71                     l623:
  7918  0F71  1C53               	btfss	___fladd@grs,0
  7919  0F72  2F74               	goto	u2651
  7920  0F73  2F75               	goto	u2650
  7921  0F74                     u2651:
  7922  0F74  2F78               	goto	l2170
  7923  0F75                     u2650:
  7924  0F75                     l2168:
  7925  0F75  1403               	setc
  7926  0F76  0DD3               	rlf	___fladd@grs,f
  7927  0F77  2F7A               	goto	l2172
  7928  0F78                     l2170:
  7929  0F78  1003               	clrc
  7930  0F79  0DD3               	rlf	___fladd@grs,f
  7931  0F7A                     l2172:
  7932  0F7A  0852               	movf	___fladd@bexp,w
  7933  0F7B  1903               	btfsc	3,2
  7934  0F7C  2F7E               	goto	u2661
  7935  0F7D  2F7F               	goto	u2660
  7936  0F7E                     u2661:
  7937  0F7E  2F81               	goto	l2176
  7938  0F7F                     u2660:
  7939  0F7F                     l2174:
  7940  0F7F  3001               	movlw	1
  7941  0F80  02D2               	subwf	___fladd@bexp,f
  7942  0F81                     l2176:
  7943  0F81  1FC2               	btfss	___fladd@b+2,7
  7944  0F82  2F84               	goto	u2671
  7945  0F83  2F85               	goto	u2670
  7946  0F84                     u2671:
  7947  0F84  2F63               	goto	l2162
  7948  0F85                     u2670:
  7949  0F85                     l2178:
  7950  0F85  01D1               	clrf	___fladd@aexp
  7951  0F86                     l2180:
  7952  0F86  1FD3               	btfss	___fladd@grs,7
  7953  0F87  2F89               	goto	u2681
  7954  0F88  2F8A               	goto	u2680
  7955  0F89                     u2681:
  7956  0F89  2F98               	goto	l2188
  7957  0F8A                     u2680:
  7958  0F8A                     l2182:
  7959  0F8A  0853               	movf	___fladd@grs,w
  7960  0F8B  397F               	andlw	127
  7961  0F8C  1903               	btfsc	3,2
  7962  0F8D  2F8F               	goto	u2691
  7963  0F8E  2F90               	goto	u2690
  7964  0F8F                     u2691:
  7965  0F8F  2F93               	goto	l629
  7966  0F90                     u2690:
  7967  0F90                     l2184:
  7968  0F90  01D1               	clrf	___fladd@aexp
  7969  0F91  0AD1               	incf	___fladd@aexp,f
  7970  0F92  2F98               	goto	l2188
  7971  0F93                     l629:
  7972  0F93  1C40               	btfss	___fladd@b,0
  7973  0F94  2F96               	goto	u2701
  7974  0F95  2F97               	goto	u2700
  7975  0F96                     u2701:
  7976  0F96  2F98               	goto	l2188
  7977  0F97                     u2700:
  7978  0F97  2F90               	goto	l2184
  7979  0F98                     l2188:
  7980  0F98  0851               	movf	___fladd@aexp,w
  7981  0F99  1903               	btfsc	3,2
  7982  0F9A  2F9C               	goto	u2711
  7983  0F9B  2F9D               	goto	u2710
  7984  0F9C                     u2711:
  7985  0F9C  2FD1               	goto	l632
  7986  0F9D                     u2710:
  7987  0F9D                     l2190:
  7988  0F9D  3001               	movlw	1
  7989  0F9E  07C0               	addwf	___fladd@b,f
  7990  0F9F  3000               	movlw	0
  7991  0FA0  1803               	skipnc
  7992  0FA1  3001               	movlw	1
  7993  0FA2  07C1               	addwf	___fladd@b+1,f
  7994  0FA3  3000               	movlw	0
  7995  0FA4  1803               	skipnc
  7996  0FA5  3001               	movlw	1
  7997  0FA6  07C2               	addwf	___fladd@b+2,f
  7998  0FA7  3000               	movlw	0
  7999  0FA8  1803               	skipnc
  8000  0FA9  3001               	movlw	1
  8001  0FAA  07C3               	addwf	___fladd@b+3,f
  8002  0FAB                     l2192:
  8003  0FAB  1C43               	btfss	___fladd@b+3,0
  8004  0FAC  2FAE               	goto	u2721
  8005  0FAD  2FAF               	goto	u2720
  8006  0FAE                     u2721:
  8007  0FAE  2FD1               	goto	l632
  8008  0FAF                     u2720:
  8009  0FAF                     l2194:
  8010  0FAF  0840               	movf	___fladd@b,w
  8011  0FB0  00C8               	movwf	??___fladd
  8012  0FB1  0841               	movf	___fladd@b+1,w
  8013  0FB2  00C9               	movwf	??___fladd+1
  8014  0FB3  0842               	movf	___fladd@b+2,w
  8015  0FB4  00CA               	movwf	??___fladd+2
  8016  0FB5  0843               	movf	___fladd@b+3,w
  8017  0FB6  00CB               	movwf	??___fladd+3
  8018  0FB7  3001               	movlw	1
  8019  0FB8  00CC               	movwf	??___fladd+4
  8020  0FB9                     u2735:
  8021  0FB9  0D4B               	rlf	??___fladd+3,w
  8022  0FBA  0CCB               	rrf	??___fladd+3,f
  8023  0FBB  0CCA               	rrf	??___fladd+2,f
  8024  0FBC  0CC9               	rrf	??___fladd+1,f
  8025  0FBD  0CC8               	rrf	??___fladd,f
  8026  0FBE                     u2730:
  8027  0FBE  0BCC               	decfsz	??___fladd+4,f
  8028  0FBF  2FB9               	goto	u2735
  8029  0FC0  084B               	movf	??___fladd+3,w
  8030  0FC1  00C3               	movwf	___fladd@b+3
  8031  0FC2  084A               	movf	??___fladd+2,w
  8032  0FC3  00C2               	movwf	___fladd@b+2
  8033  0FC4  0849               	movf	??___fladd+1,w
  8034  0FC5  00C1               	movwf	___fladd@b+1
  8035  0FC6  0848               	movf	??___fladd,w
  8036  0FC7  00C0               	movwf	___fladd@b
  8037  0FC8  0A52               	incf	___fladd@bexp,w
  8038  0FC9  1903               	btfsc	3,2
  8039  0FCA  2FCC               	goto	u2741
  8040  0FCB  2FCD               	goto	u2740
  8041  0FCC                     u2741:
  8042  0FCC  2FD1               	goto	l632
  8043  0FCD                     u2740:
  8044  0FCD                     l2196:
  8045  0FCD  3001               	movlw	1
  8046  0FCE  00C8               	movwf	??___fladd
  8047  0FCF  0848               	movf	??___fladd,w
  8048  0FD0  07D2               	addwf	___fladd@bexp,f
  8049  0FD1                     l632:
  8050  0FD1  0A52               	incf	___fladd@bexp,w
  8051  0FD2  1903               	btfsc	3,2
  8052  0FD3  2FD5               	goto	u2751
  8053  0FD4  2FD6               	goto	u2750
  8054  0FD5                     u2751:
  8055  0FD5  2FDB               	goto	l2200
  8056  0FD6                     u2750:
  8057  0FD6                     l2198:
  8058  0FD6  0852               	movf	___fladd@bexp,w
  8059  0FD7  1D03               	btfss	3,2
  8060  0FD8  2FDA               	goto	u2761
  8061  0FD9  2FDB               	goto	u2760
  8062  0FDA                     u2761:
  8063  0FDA  2FE9               	goto	l2206
  8064  0FDB                     u2760:
  8065  0FDB                     l2200:
  8066  0FDB  3000               	movlw	0
  8067  0FDC  00C3               	movwf	___fladd@b+3
  8068  0FDD  3000               	movlw	0
  8069  0FDE  00C2               	movwf	___fladd@b+2
  8070  0FDF  3000               	movlw	0
  8071  0FE0  00C1               	movwf	___fladd@b+1
  8072  0FE1  3000               	movlw	0
  8073  0FE2  00C0               	movwf	___fladd@b
  8074  0FE3                     l2202:
  8075  0FE3  0852               	movf	___fladd@bexp,w
  8076  0FE4  1D03               	btfss	3,2
  8077  0FE5  2FE7               	goto	u2771
  8078  0FE6  2FE8               	goto	u2770
  8079  0FE7                     u2771:
  8080  0FE7  2FE9               	goto	l2206
  8081  0FE8                     u2770:
  8082  0FE8                     l2204:
  8083  0FE8  01D0               	clrf	___fladd@signs
  8084  0FE9                     l2206:
  8085  0FE9  1C52               	btfss	___fladd@bexp,0
  8086  0FEA  2FEC               	goto	u2781
  8087  0FEB  2FED               	goto	u2780
  8088  0FEC                     u2781:
  8089  0FEC  2FEF               	goto	l2210
  8090  0FED                     u2780:
  8091  0FED                     l2208:
  8092  0FED  17C2               	bsf	___fladd@b+2,7
  8093  0FEE  2FF3               	goto	l640
  8094  0FEF                     l2210:
  8095  0FEF  307F               	movlw	127
  8096  0FF0  00C8               	movwf	??___fladd
  8097  0FF1  0848               	movf	??___fladd,w
  8098  0FF2  05C2               	andwf	___fladd@b+2,f
  8099  0FF3                     l640:
  8100  0FF3  0852               	movf	___fladd@bexp,w
  8101  0FF4  00C8               	movwf	??___fladd
  8102  0FF5  1003               	clrc
  8103  0FF6  0C48               	rrf	??___fladd,w
  8104  0FF7  00C9               	movwf	??___fladd+1
  8105  0FF8  0849               	movf	??___fladd+1,w
  8106  0FF9  00C3               	movwf	___fladd@b+3
  8107  0FFA                     l2212:
  8108  0FFA  1FD0               	btfss	___fladd@signs,7
  8109  0FFB  2FFD               	goto	u2791
  8110  0FFC  2FFE               	goto	u2790
  8111  0FFD                     u2791:
  8112  0FFD  2FFF               	goto	l641
  8113  0FFE                     u2790:
  8114  0FFE                     l2214:
  8115  0FFE  17C3               	bsf	___fladd@b+3,7
  8116  0FFF                     l641:
  8117  0FFF                     l611:
  8118  0FFF  0008               	return
  8119  1000                     __end_of___fladd:
  8120                           
  8121                           	psect	text24
  8122  07EF                     __ptext24:	
  8123 ;; *************** function _I2C_Start *****************
  8124 ;; Defined at:
  8125 ;;		line 30 in file "I2C.c"
  8126 ;; Parameters:    Size  Location     Type
  8127 ;;  add             1    wreg     unsigned char 
  8128 ;; Auto vars:     Size  Location     Type
  8129 ;;  add             1    3[COMMON] unsigned char 
  8130 ;; Return value:  Size  Location     Type
  8131 ;;                  1    wreg      void 
  8132 ;; Registers used:
  8133 ;;		wreg, status,2, status,0, pclath, cstack
  8134 ;; Tracked objects:
  8135 ;;		On entry : 0/0
  8136 ;;		On exit  : 0/0
  8137 ;;		Unchanged: 0/0
  8138 ;; Data sizes:     COMMON   BANK0   BANK1   BANK3   BANK2
  8139 ;;      Params:         0       0       0       0       0
  8140 ;;      Locals:         1       0       0       0       0
  8141 ;;      Temps:          0       0       0       0       0
  8142 ;;      Totals:         1       0       0       0       0
  8143 ;;Total ram usage:        1 bytes
  8144 ;; Hardware stack levels used:    1
  8145 ;; Hardware stack levels required when called:    3
  8146 ;; This function calls:
  8147 ;;		_I2C_Master_Wait
  8148 ;;		_I2C_Master_Write
  8149 ;; This function is called by:
  8150 ;;		_GY_Read
  8151 ;; This function uses a non-reentrant model
  8152 ;;
  8153                           
  8154                           
  8155                           ;psect for function _I2C_Start
  8156  07EF                     _I2C_Start:
  8157                           
  8158                           ;incstack = 0
  8159                           ; Regs used in _I2C_Start: [wreg+status,2+status,0+pclath+cstack]
  8160                           ;I2C_Start@add stored from wreg
  8161  07EF  00F3               	movwf	I2C_Start@add
  8162  07F0                     l2250:
  8163                           
  8164                           ;I2C.c: 30: void I2C_Start(char add);I2C.c: 31: {;I2C.c: 32:     I2C_Master_Wait();
  8165  07F0  160A  118A  233A  120A  118A  	fcall	_I2C_Master_Wait
  8166  07F5                     l2252:
  8167                           
  8168                           ;I2C.c: 33:     SEN = 1;
  8169  07F5  1683               	bsf	3,5	;RP0=1, select bank1
  8170  07F6  1303               	bcf	3,6	;RP1=0, select bank1
  8171  07F7  1411               	bsf	17,0	;volatile
  8172                           
  8173                           ;I2C.c: 34:     I2C_Master_Write(add);
  8174  07F8  0873               	movf	I2C_Start@add,w
  8175  07F9  160A  118A  2354  120A  118A  	fcall	_I2C_Master_Write
  8176  07FE                     l99:
  8177  07FE  0008               	return
  8178  07FF                     __end_of_I2C_Start:
  8179                           
  8180                           	psect	text25
  8181  1354                     __ptext25:	
  8182 ;; *************** function _I2C_Master_Write *****************
  8183 ;; Defined at:
  8184 ;;		line 63 in file "I2C.c"
  8185 ;; Parameters:    Size  Location     Type
  8186 ;;  data            1    wreg     unsigned char 
  8187 ;; Auto vars:     Size  Location     Type
  8188 ;;  data            1    2[COMMON] unsigned char 
  8189 ;; Return value:  Size  Location     Type
  8190 ;;                  1    wreg      unsigned char 
  8191 ;; Registers used:
  8192 ;;		wreg, status,2, status,0, pclath, cstack
  8193 ;; Tracked objects:
  8194 ;;		On entry : 0/0
  8195 ;;		On exit  : 0/0
  8196 ;;		Unchanged: 0/0
  8197 ;; Data sizes:     COMMON   BANK0   BANK1   BANK3   BANK2
  8198 ;;      Params:         0       0       0       0       0
  8199 ;;      Locals:         1       0       0       0       0
  8200 ;;      Temps:          0       0       0       0       0
  8201 ;;      Totals:         1       0       0       0       0
  8202 ;;Total ram usage:        1 bytes
  8203 ;; Hardware stack levels used:    1
  8204 ;; Hardware stack levels required when called:    2
  8205 ;; This function calls:
  8206 ;;		_I2C_Master_Wait
  8207 ;; This function is called by:
  8208 ;;		_I2C_Start
  8209 ;;		_GY_init
  8210 ;;		_GY_Read
  8211 ;; This function uses a non-reentrant model
  8212 ;;
  8213                           
  8214                           
  8215                           ;psect for function _I2C_Master_Write
  8216  1354                     _I2C_Master_Write:
  8217                           
  8218                           ;incstack = 0
  8219                           ; Regs used in _I2C_Master_Write: [wreg+status,2+status,0+pclath+cstack]
  8220                           ;I2C_Master_Write@data stored from wreg
  8221  1354  00F2               	movwf	I2C_Master_Write@data
  8222  1355                     l1956:
  8223                           
  8224                           ;I2C.c: 63: unsigned char I2C_Master_Write(unsigned char data);I2C.c: 64: {;I2C.c: 65:  
      +                             I2C_Master_Wait();
  8225  1355  160A  118A  233A  160A  118A  	fcall	_I2C_Master_Wait
  8226  135A                     l1958:
  8227                           
  8228                           ;I2C.c: 66:     SSPBUF = data;
  8229  135A  0872               	movf	I2C_Master_Write@data,w
  8230  135B  1283               	bcf	3,5	;RP0=0, select bank0
  8231  135C  1303               	bcf	3,6	;RP1=0, select bank0
  8232  135D  0093               	movwf	19	;volatile
  8233  135E                     l120:	
  8234                           ;I2C.c: 67:     while(!SSPIF);
  8235                           
  8236  135E  1D8C               	btfss	12,3	;volatile
  8237  135F  2B61               	goto	u2141
  8238  1360  2B62               	goto	u2140
  8239  1361                     u2141:
  8240  1361  2B5E               	goto	l120
  8241  1362                     u2140:
  8242  1362                     l122:
  8243                           
  8244                           ;I2C.c: 68:  SSPIF = 0;
  8245  1362  118C               	bcf	12,3	;volatile
  8246  1363                     l123:	
  8247                           ;I2C.c: 69:     return ACKSTAT;;	Return value of _I2C_Master_Write is never used
  8248                           
  8249  1363  0008               	return
  8250  1364                     __end_of_I2C_Master_Write:
  8251                           
  8252                           	psect	text26
  8253  13AD                     __ptext26:	
  8254 ;; *************** function _I2C_Read *****************
  8255 ;; Defined at:
  8256 ;;		line 83 in file "I2C.c"
  8257 ;; Parameters:    Size  Location     Type
  8258 ;;  ACK_NACK        1    wreg     unsigned char 
  8259 ;; Auto vars:     Size  Location     Type
  8260 ;;  ACK_NACK        1    3[COMMON] unsigned char 
  8261 ;;  Data            1    4[COMMON] unsigned char 
  8262 ;; Return value:  Size  Location     Type
  8263 ;;                  1    wreg      unsigned char 
  8264 ;; Registers used:
  8265 ;;		wreg, status,2, status,0, pclath, cstack
  8266 ;; Tracked objects:
  8267 ;;		On entry : 0/0
  8268 ;;		On exit  : 0/0
  8269 ;;		Unchanged: 0/0
  8270 ;; Data sizes:     COMMON   BANK0   BANK1   BANK3   BANK2
  8271 ;;      Params:         0       0       0       0       0
  8272 ;;      Locals:         2       0       0       0       0
  8273 ;;      Temps:          1       0       0       0       0
  8274 ;;      Totals:         3       0       0       0       0
  8275 ;;Total ram usage:        3 bytes
  8276 ;; Hardware stack levels used:    1
  8277 ;; Hardware stack levels required when called:    2
  8278 ;; This function calls:
  8279 ;;		_I2C_ACK
  8280 ;;		_I2C_NACK
  8281 ;; This function is called by:
  8282 ;;		_GY_Read
  8283 ;; This function uses a non-reentrant model
  8284 ;;
  8285                           
  8286                           
  8287                           ;psect for function _I2C_Read
  8288  13AD                     _I2C_Read:
  8289                           
  8290                           ;incstack = 0
  8291                           ; Regs used in _I2C_Read: [wreg+status,2+status,0+pclath+cstack]
  8292                           ;I2C_Read@ACK_NACK stored from wreg
  8293  13AD  00F3               	movwf	I2C_Read@ACK_NACK
  8294  13AE                     l2262:
  8295                           
  8296                           ;I2C.c: 83: unsigned char I2C_Read(unsigned char ACK_NACK);I2C.c: 84: {;I2C.c: 86:     u
      +                          nsigned char Data;;I2C.c: 87:     RCEN = 1;
  8297  13AE  1683               	bsf	3,5	;RP0=1, select bank1
  8298  13AF  1303               	bcf	3,6	;RP1=0, select bank1
  8299  13B0  1591               	bsf	17,3	;volatile
  8300  13B1                     l132:	
  8301                           ;I2C.c: 88:     while(!BF);
  8302                           
  8303  13B1  1C14               	btfss	20,0	;volatile
  8304  13B2  2BB4               	goto	u2861
  8305  13B3  2BB5               	goto	u2860
  8306  13B4                     u2861:
  8307  13B4  2BB1               	goto	l132
  8308  13B5                     u2860:
  8309  13B5                     l2264:
  8310                           
  8311                           ;I2C.c: 89:     Data = SSPBUF;
  8312  13B5  1283               	bcf	3,5	;RP0=0, select bank0
  8313  13B6  1303               	bcf	3,6	;RP1=0, select bank0
  8314  13B7  0813               	movf	19,w	;volatile
  8315  13B8  00F2               	movwf	??_I2C_Read
  8316  13B9  0872               	movf	??_I2C_Read,w
  8317  13BA  00F4               	movwf	I2C_Read@Data
  8318  13BB                     l2266:
  8319                           
  8320                           ;I2C.c: 90:     if(ACK_NACK==0)
  8321  13BB  0873               	movf	I2C_Read@ACK_NACK,w
  8322  13BC  1D03               	btfss	3,2
  8323  13BD  2BBF               	goto	u2871
  8324  13BE  2BC0               	goto	u2870
  8325  13BF                     u2871:
  8326  13BF  2BC6               	goto	l2270
  8327  13C0                     u2870:
  8328  13C0                     l2268:
  8329                           
  8330                           ;I2C.c: 91:         I2C_ACK();
  8331  13C0  160A  118A  22FC  160A  118A  	fcall	_I2C_ACK
  8332  13C5  2BCB               	goto	l137
  8333  13C6                     l2270:
  8334                           
  8335                           ;I2C.c: 93:         I2C_NACK();
  8336  13C6  160A  118A  2305  160A  118A  	fcall	_I2C_NACK
  8337  13CB                     l137:
  8338  13CB  1283               	bcf	3,5	;RP0=0, select bank0
  8339  13CC  1303               	bcf	3,6	;RP1=0, select bank0
  8340  13CD  1D8C               	btfss	12,3	;volatile
  8341  13CE  2BD0               	goto	u2881
  8342  13CF  2BD1               	goto	u2880
  8343  13D0                     u2881:
  8344  13D0  2BCB               	goto	l137
  8345  13D1                     u2880:
  8346  13D1                     l139:
  8347                           
  8348                           ;I2C.c: 95:     SSPIF=0;
  8349  13D1  118C               	bcf	12,3	;volatile
  8350  13D2                     l2272:
  8351                           
  8352                           ;I2C.c: 96:     return Data;
  8353  13D2  0874               	movf	I2C_Read@Data,w
  8354  13D3                     l140:
  8355  13D3  0008               	return
  8356  13D4                     __end_of_I2C_Read:
  8357                           
  8358                           	psect	text27
  8359  1305                     __ptext27:	
  8360 ;; *************** function _I2C_NACK *****************
  8361 ;; Defined at:
  8362 ;;		line 56 in file "I2C.c"
  8363 ;; Parameters:    Size  Location     Type
  8364 ;;		None
  8365 ;; Auto vars:     Size  Location     Type
  8366 ;;		None
  8367 ;; Return value:  Size  Location     Type
  8368 ;;                  1    wreg      void 
  8369 ;; Registers used:
  8370 ;;		None
  8371 ;; Tracked objects:
  8372 ;;		On entry : 0/0
  8373 ;;		On exit  : 0/0
  8374 ;;		Unchanged: 0/0
  8375 ;; Data sizes:     COMMON   BANK0   BANK1   BANK3   BANK2
  8376 ;;      Params:         0       0       0       0       0
  8377 ;;      Locals:         0       0       0       0       0
  8378 ;;      Temps:          0       0       0       0       0
  8379 ;;      Totals:         0       0       0       0       0
  8380 ;;Total ram usage:        0 bytes
  8381 ;; Hardware stack levels used:    1
  8382 ;; Hardware stack levels required when called:    1
  8383 ;; This function calls:
  8384 ;;		Nothing
  8385 ;; This function is called by:
  8386 ;;		_I2C_Read
  8387 ;; This function uses a non-reentrant model
  8388 ;;
  8389                           
  8390                           
  8391                           ;psect for function _I2C_NACK
  8392  1305                     _I2C_NACK:
  8393  1305                     l1962:	
  8394                           ;incstack = 0
  8395                           ; Regs used in _I2C_NACK: []
  8396                           
  8397                           
  8398                           ;I2C.c: 58:  ACKDT = 1;
  8399  1305  1683               	bsf	3,5	;RP0=1, select bank1
  8400  1306  1303               	bcf	3,6	;RP1=0, select bank1
  8401  1307  1691               	bsf	17,5	;volatile
  8402                           
  8403                           ;I2C.c: 59:  ACKEN = 1;
  8404  1308  1611               	bsf	17,4	;volatile
  8405  1309                     l114:	
  8406                           ;I2C.c: 60:     while(ACKEN);
  8407                           
  8408  1309  1A11               	btfsc	17,4	;volatile
  8409  130A  2B0C               	goto	u2161
  8410  130B  2B0D               	goto	u2160
  8411  130C                     u2161:
  8412  130C  2B09               	goto	l114
  8413  130D                     u2160:
  8414  130D                     l117:
  8415  130D  0008               	return
  8416  130E                     __end_of_I2C_NACK:
  8417                           
  8418                           	psect	text28
  8419  12FC                     __ptext28:	
  8420 ;; *************** function _I2C_ACK *****************
  8421 ;; Defined at:
  8422 ;;		line 49 in file "I2C.c"
  8423 ;; Parameters:    Size  Location     Type
  8424 ;;		None
  8425 ;; Auto vars:     Size  Location     Type
  8426 ;;		None
  8427 ;; Return value:  Size  Location     Type
  8428 ;;                  1    wreg      void 
  8429 ;; Registers used:
  8430 ;;		None
  8431 ;; Tracked objects:
  8432 ;;		On entry : 0/0
  8433 ;;		On exit  : 0/0
  8434 ;;		Unchanged: 0/0
  8435 ;; Data sizes:     COMMON   BANK0   BANK1   BANK3   BANK2
  8436 ;;      Params:         0       0       0       0       0
  8437 ;;      Locals:         0       0       0       0       0
  8438 ;;      Temps:          0       0       0       0       0
  8439 ;;      Totals:         0       0       0       0       0
  8440 ;;Total ram usage:        0 bytes
  8441 ;; Hardware stack levels used:    1
  8442 ;; Hardware stack levels required when called:    1
  8443 ;; This function calls:
  8444 ;;		Nothing
  8445 ;; This function is called by:
  8446 ;;		_I2C_Read
  8447 ;; This function uses a non-reentrant model
  8448 ;;
  8449                           
  8450                           
  8451                           ;psect for function _I2C_ACK
  8452  12FC                     _I2C_ACK:
  8453  12FC                     l1960:	
  8454                           ;incstack = 0
  8455                           ; Regs used in _I2C_ACK: []
  8456                           
  8457                           
  8458                           ;I2C.c: 51:  ACKDT = 0;
  8459  12FC  1683               	bsf	3,5	;RP0=1, select bank1
  8460  12FD  1303               	bcf	3,6	;RP1=0, select bank1
  8461  12FE  1291               	bcf	17,5	;volatile
  8462                           
  8463                           ;I2C.c: 52:     ACKEN = 1;
  8464  12FF  1611               	bsf	17,4	;volatile
  8465  1300                     l108:	
  8466                           ;I2C.c: 53:     while(ACKEN);
  8467                           
  8468  1300  1A11               	btfsc	17,4	;volatile
  8469  1301  2B03               	goto	u2151
  8470  1302  2B04               	goto	u2150
  8471  1303                     u2151:
  8472  1303  2B00               	goto	l108
  8473  1304                     u2150:
  8474  1304                     l111:
  8475  1304  0008               	return
  8476  1305                     __end_of_I2C_ACK:
  8477                           
  8478                           	psect	text29
  8479  12F3                     __ptext29:	
  8480 ;; *************** function _I2C_Master_Stop *****************
  8481 ;; Defined at:
  8482 ;;		line 43 in file "I2C.c"
  8483 ;; Parameters:    Size  Location     Type
  8484 ;;		None
  8485 ;; Auto vars:     Size  Location     Type
  8486 ;;		None
  8487 ;; Return value:  Size  Location     Type
  8488 ;;                  1    wreg      void 
  8489 ;; Registers used:
  8490 ;;		wreg, status,2, status,0, pclath, cstack
  8491 ;; Tracked objects:
  8492 ;;		On entry : 0/0
  8493 ;;		On exit  : 0/0
  8494 ;;		Unchanged: 0/0
  8495 ;; Data sizes:     COMMON   BANK0   BANK1   BANK3   BANK2
  8496 ;;      Params:         0       0       0       0       0
  8497 ;;      Locals:         0       0       0       0       0
  8498 ;;      Temps:          0       0       0       0       0
  8499 ;;      Totals:         0       0       0       0       0
  8500 ;;Total ram usage:        0 bytes
  8501 ;; Hardware stack levels used:    1
  8502 ;; Hardware stack levels required when called:    2
  8503 ;; This function calls:
  8504 ;;		_I2C_Master_Wait
  8505 ;; This function is called by:
  8506 ;;		_GY_init
  8507 ;;		_GY_Read
  8508 ;; This function uses a non-reentrant model
  8509 ;;
  8510                           
  8511                           
  8512                           ;psect for function _I2C_Master_Stop
  8513  12F3                     _I2C_Master_Stop:
  8514  12F3                     l2258:	
  8515                           ;incstack = 0
  8516                           ; Regs used in _I2C_Master_Stop: [wreg+status,2+status,0+pclath+cstack]
  8517                           
  8518                           
  8519                           ;I2C.c: 45:     I2C_Master_Wait();
  8520  12F3  160A  118A  233A  160A  118A  	fcall	_I2C_Master_Wait
  8521  12F8                     l2260:
  8522                           
  8523                           ;I2C.c: 46:     PEN = 1;
  8524  12F8  1683               	bsf	3,5	;RP0=1, select bank1
  8525  12F9  1303               	bcf	3,6	;RP1=0, select bank1
  8526  12FA  1511               	bsf	17,2	;volatile
  8527  12FB                     l105:
  8528  12FB  0008               	return
  8529  12FC                     __end_of_I2C_Master_Stop:
  8530                           
  8531                           	psect	text30
  8532  12EA                     __ptext30:	
  8533 ;; *************** function _I2C_Master_RepeatedStart *****************
  8534 ;; Defined at:
  8535 ;;		line 37 in file "I2C.c"
  8536 ;; Parameters:    Size  Location     Type
  8537 ;;		None
  8538 ;; Auto vars:     Size  Location     Type
  8539 ;;		None
  8540 ;; Return value:  Size  Location     Type
  8541 ;;                  1    wreg      void 
  8542 ;; Registers used:
  8543 ;;		wreg, status,2, status,0, pclath, cstack
  8544 ;; Tracked objects:
  8545 ;;		On entry : 0/0
  8546 ;;		On exit  : 0/0
  8547 ;;		Unchanged: 0/0
  8548 ;; Data sizes:     COMMON   BANK0   BANK1   BANK3   BANK2
  8549 ;;      Params:         0       0       0       0       0
  8550 ;;      Locals:         0       0       0       0       0
  8551 ;;      Temps:          0       0       0       0       0
  8552 ;;      Totals:         0       0       0       0       0
  8553 ;;Total ram usage:        0 bytes
  8554 ;; Hardware stack levels used:    1
  8555 ;; Hardware stack levels required when called:    2
  8556 ;; This function calls:
  8557 ;;		_I2C_Master_Wait
  8558 ;; This function is called by:
  8559 ;;		_GY_Read
  8560 ;; This function uses a non-reentrant model
  8561 ;;
  8562                           
  8563                           
  8564                           ;psect for function _I2C_Master_RepeatedStart
  8565  12EA                     _I2C_Master_RepeatedStart:
  8566  12EA                     l2254:	
  8567                           ;incstack = 0
  8568                           ; Regs used in _I2C_Master_RepeatedStart: [wreg+status,2+status,0+pclath+cstack]
  8569                           
  8570                           
  8571                           ;I2C.c: 39:     I2C_Master_Wait();
  8572  12EA  160A  118A  233A  160A  118A  	fcall	_I2C_Master_Wait
  8573  12EF                     l2256:
  8574                           
  8575                           ;I2C.c: 40:     RSEN = 1;
  8576  12EF  1683               	bsf	3,5	;RP0=1, select bank1
  8577  12F0  1303               	bcf	3,6	;RP1=0, select bank1
  8578  12F1  1491               	bsf	17,1	;volatile
  8579  12F2                     l102:
  8580  12F2  0008               	return
  8581  12F3                     __end_of_I2C_Master_RepeatedStart:
  8582                           
  8583                           	psect	text31
  8584  133A                     __ptext31:	
  8585 ;; *************** function _I2C_Master_Wait *****************
  8586 ;; Defined at:
  8587 ;;		line 19 in file "I2C.c"
  8588 ;; Parameters:    Size  Location     Type
  8589 ;;		None
  8590 ;; Auto vars:     Size  Location     Type
  8591 ;;		None
  8592 ;; Return value:  Size  Location     Type
  8593 ;;                  1    wreg      void 
  8594 ;; Registers used:
  8595 ;;		wreg, status,2
  8596 ;; Tracked objects:
  8597 ;;		On entry : 0/0
  8598 ;;		On exit  : 0/0
  8599 ;;		Unchanged: 0/0
  8600 ;; Data sizes:     COMMON   BANK0   BANK1   BANK3   BANK2
  8601 ;;      Params:         0       0       0       0       0
  8602 ;;      Locals:         0       0       0       0       0
  8603 ;;      Temps:          0       0       0       0       0
  8604 ;;      Totals:         0       0       0       0       0
  8605 ;;Total ram usage:        0 bytes
  8606 ;; Hardware stack levels used:    1
  8607 ;; Hardware stack levels required when called:    1
  8608 ;; This function calls:
  8609 ;;		Nothing
  8610 ;; This function is called by:
  8611 ;;		_I2C_Master_Start
  8612 ;;		_I2C_Start
  8613 ;;		_I2C_Master_RepeatedStart
  8614 ;;		_I2C_Master_Stop
  8615 ;;		_I2C_Master_Write
  8616 ;;		_I2C_Read_Byte
  8617 ;; This function uses a non-reentrant model
  8618 ;;
  8619                           
  8620                           
  8621                           ;psect for function _I2C_Master_Wait
  8622  133A                     _I2C_Master_Wait:
  8623  133A                     l1952:	
  8624                           ;incstack = 0
  8625                           ; Regs used in _I2C_Master_Wait: [wreg+status,2]
  8626                           
  8627  133A                     l90:	
  8628                           ;I2C.c: 21:     while ((SSPSTAT & 0x04) || (SSPCON2 & 0x1F));
  8629                           
  8630  133A  1683               	bsf	3,5	;RP0=1, select bank1
  8631  133B  1303               	bcf	3,6	;RP1=0, select bank1
  8632  133C  1914               	btfsc	20,2	;volatile
  8633  133D  2B3F               	goto	u2121
  8634  133E  2B40               	goto	u2120
  8635  133F                     u2121:
  8636  133F  2B3A               	goto	l90
  8637  1340                     u2120:
  8638  1340                     l1954:
  8639  1340  0811               	movf	17,w	;volatile
  8640  1341  391F               	andlw	31
  8641  1342  1D03               	btfss	3,2
  8642  1343  2B45               	goto	u2131
  8643  1344  2B46               	goto	u2130
  8644  1345                     u2131:
  8645  1345  2B3A               	goto	l90
  8646  1346                     u2130:
  8647  1346                     l93:
  8648  1346  0008               	return
  8649  1347                     __end_of_I2C_Master_Wait:
  8650                           
  8651                           	psect	text32
  8652  12DB                     __ptext32:	
  8653 ;; *************** function _ISR *****************
  8654 ;; Defined at:
  8655 ;;		line 48 in file "main.c"
  8656 ;; Parameters:    Size  Location     Type
  8657 ;;		None
  8658 ;; Auto vars:     Size  Location     Type
  8659 ;;		None
  8660 ;; Return value:  Size  Location     Type
  8661 ;;                  1    wreg      void 
  8662 ;; Registers used:
  8663 ;;		None
  8664 ;; Tracked objects:
  8665 ;;		On entry : 0/0
  8666 ;;		On exit  : 0/0
  8667 ;;		Unchanged: 0/0
  8668 ;; Data sizes:     COMMON   BANK0   BANK1   BANK3   BANK2
  8669 ;;      Params:         0       0       0       0       0
  8670 ;;      Locals:         0       0       0       0       0
  8671 ;;      Temps:          2       0       0       0       0
  8672 ;;      Totals:         2       0       0       0       0
  8673 ;;Total ram usage:        2 bytes
  8674 ;; Hardware stack levels used:    1
  8675 ;; This function calls:
  8676 ;;		Nothing
  8677 ;; This function is called by:
  8678 ;;		Interrupt level 1
  8679 ;; This function uses a non-reentrant model
  8680 ;;
  8681                           
  8682                           
  8683                           ;psect for function _ISR
  8684  12DB                     _ISR:
  8685  12DB                     i1l39:
  8686  12DB  0871               	movf	??_ISR+1,w
  8687  12DC  008A               	movwf	10
  8688  12DD  0E70               	swapf	??_ISR,w
  8689  12DE  0083               	movwf	3
  8690  12DF  0EFE               	swapf	btemp,f
  8691  12E0  0E7E               	swapf	btemp,w
  8692  12E1  0009               	retfie
  8693  12E2                     __end_of_ISR:
  8694  007E                     btemp	set	126	;btemp
  8695  007E                     wtemp0	set	126
  8696                           
  8697                           	psect	intentry
  8698  0004                     __pintentry:	
  8699                           ;incstack = 0
  8700                           ; Regs used in _ISR: []
  8701                           
  8702  0004                     interrupt_function:
  8703  007E                     saved_w	set	btemp
  8704  0004  00FE               	movwf	btemp
  8705  0005  0E03               	swapf	3,w
  8706  0006  00F0               	movwf	??_ISR
  8707  0007  080A               	movf	10,w
  8708  0008  00F1               	movwf	??_ISR+1
  8709  0009  160A  118A  2ADB   	ljmp	_ISR
  8710                           
  8711                           	psect	config
  8712                           
  8713                           ;Config register CONFIG1 @ 0x2007
  8714                           ;	Oscillator Selection bits
  8715                           ;	FOSC = INTRC_NOCLKOUT, INTOSCIO oscillator: I/O function on RA6/OSC2/CLKOUT pin, I/O f
      +                          unction on RA7/OSC1/CLKIN
  8716                           ;	Watchdog Timer Enable bit
  8717                           ;	WDTE = OFF, WDT disabled and can be enabled by SWDTEN bit of the WDTCON register
  8718                           ;	Power-up Timer Enable bit
  8719                           ;	PWRTE = OFF, PWRT disabled
  8720                           ;	RE3/MCLR pin function select bit
  8721                           ;	MCLRE = OFF, RE3/MCLR pin function is digital input, MCLR internally tied to VDD
  8722                           ;	Code Protection bit
  8723                           ;	CP = OFF, Program memory code protection is disabled
  8724                           ;	Data Code Protection bit
  8725                           ;	CPD = OFF, Data memory code protection is disabled
  8726                           ;	Brown Out Reset Selection bits
  8727                           ;	BOREN = OFF, BOR disabled
  8728                           ;	Internal External Switchover bit
  8729                           ;	IESO = OFF, Internal/External Switchover mode is disabled
  8730                           ;	Fail-Safe Clock Monitor Enabled bit
  8731                           ;	FCMEN = OFF, Fail-Safe Clock Monitor is disabled
  8732                           ;	Low Voltage Programming Enable bit
  8733                           ;	LVP = OFF, RB3 pin has digital I/O, HV on MCLR must be used for programming
  8734                           ;	In-Circuit Debugger Mode bit
  8735                           ;	DEBUG = 0x1, unprogrammed default
  8736  2007                     	org	8199
  8737  2007  20D4               	dw	8404
  8738                           
  8739                           ;Config register CONFIG2 @ 0x2008
  8740                           ;	Brown-out Reset Selection bit
  8741                           ;	BOR4V = BOR40V, Brown-out Reset set to 4.0V
  8742                           ;	Flash Program Memory Self Write Enable bits
  8743                           ;	WRT = OFF, Write protection off
  8744  2008                     	org	8200
  8745  2008  3FFF               	dw	16383

Data Sizes:
    Strings     13
    Constant    40
    Data        0
    BSS         48
    Persistent  0
    Stack       0

Auto Spaces:
    Space          Size  Autos    Used
    COMMON           14     10      12
    BANK0            80     79      80
    BANK1            80     31      76
    BANK3            96      0       0
    BANK2            96      0       0

Pointer List with Targets:

    ftoa@status	PTR int  size(2) Largest target is 512
		 -> NULL(NULL[0]), RAM(DATA[512]), 

    sprintf@f	PTR const unsigned char  size(1) Largest target is 11
		 -> STR_7(CODE[11]), 

    sprintf@sp	PTR unsigned char  size(1) Largest target is 17
		 -> ftoa@buf(BANK1[17]), 

    sprintf@ap	PTR void [1] size(1) Largest target is 2
		 -> ?_sprintf(BANK0[2]), 

    ftoa@cp	PTR unsigned char  size(1) Largest target is 17
		 -> ftoa@buf(BANK1[17]), 

    GY_Read@datos	PTR float  size(1) Largest target is 28
		 -> datos(BANK1[28]), 

    UARTSendString@str	PTR const unsigned char  size(2) Largest target is 17
		 -> NULL(NULL[0]), ftoa@buf(BANK1[17]), STR_6(CODE[2]), STR_5(CODE[2]), 
		 -> STR_4(CODE[2]), STR_3(CODE[2]), STR_2(CODE[2]), STR_1(CODE[2]), 

    sp__ftoa	PTR unsigned char  size(1) Largest target is 17
		 -> ftoa@buf(BANK1[17]), 

    buffer	PTR unsigned char  size(1) Largest target is 17
		 -> NULL(NULL[0]), ftoa@buf(BANK1[17]), 


Critical Paths under _main in COMMON

    _ftoa->___flge
    _ftoa->___xxtofl
    _sprintf->___lldiv
    ___llmod->___lldiv
    ___flsub->___xxtofl
    _UARTSendString->_UARTSendChar
    _UARTInit->___lldiv
    _GY_init->_I2C_Master_Write
    _GY_Read->___xxtofl
    ___flmul->___xxtofl
    ___fldiv->___xxtofl
    ___fladd->___xxtofl
    _I2C_Start->_I2C_Master_Write

Critical Paths under _ISR in COMMON

    None.

Critical Paths under _main in BANK0

    _main->_ftoa
    _ftoa->___flsub
    _sprintf->___llmod
    ___llmod->___lldiv
    ___fltol->___flmul
    ___flsub->___fladd
    _UARTInit->___lldiv
    _GY_Read->___fladd
    ___flmul->___xxtofl
    ___fldiv->___xxtofl
    ___fladd->___fldiv

Critical Paths under _ISR in BANK0

    None.

Critical Paths under _main in BANK1

    _main->_GY_Read

Critical Paths under _ISR in BANK1

    None.

Critical Paths under _main in BANK3

    None.

Critical Paths under _ISR in BANK3

    None.

Critical Paths under _main in BANK2

    None.

Critical Paths under _ISR in BANK2

    None.

Call Graph Tables:

 ---------------------------------------------------------------------------------
 (Depth) Function   	        Calls       Base Space   Used Autos Params    Refs
 ---------------------------------------------------------------------------------
 (0) _main                                                 3     3      0   27458
                                             76 BANK0      3     3      0
                            _GY_Read
                            _GY_init
                    _I2C_Master_Init
                              _Setup
                           _UARTInit
                       _UARTSendChar
                     _UARTSendString
                               _ftoa
 ---------------------------------------------------------------------------------
 (1) _ftoa                                                16    10      6   13391
                                             60 BANK0     16    10      6
                             ___flge
                            ___flmul
                            ___flneg
                            ___flsub
                            ___fltol
                           ___xxtofl
                            _sprintf
 ---------------------------------------------------------------------------------
 (2) _sprintf                                             34    25      9    3119
                                             16 BANK0     26    17      9
                            ___lldiv
                            ___llmod
                             ___wmul
                            _isdigit
 ---------------------------------------------------------------------------------
 (3) _isdigit                                              2     2      0      68
                                              2 COMMON     2     2      0
 ---------------------------------------------------------------------------------
 (3) ___wmul                                               6     2      4     396
                                              2 COMMON     6     2      4
 ---------------------------------------------------------------------------------
 (3) ___llmod                                             10     2      8     412
                                              6 BANK0     10     2      8
                            ___lldiv (ARG)
 ---------------------------------------------------------------------------------
 (2) ___fltol                                             11     7      4     381
                                             32 BANK0     11     7      4
                            ___flmul (ARG)
 ---------------------------------------------------------------------------------
 (2) ___flsub                                              8     0      8    2485
                                             52 BANK0      8     0      8
                            ___fladd
                           ___xxtofl (ARG)
 ---------------------------------------------------------------------------------
 (2) ___flneg                                              4     0      4     121
                                              2 COMMON     4     0      4
 ---------------------------------------------------------------------------------
 (2) ___flge                                              12     4      8     334
                                              2 COMMON     8     0      8
                                              0 BANK0      4     4      0
 ---------------------------------------------------------------------------------
 (1) _UARTSendString                                       8     5      3    2566
                                              3 COMMON     6     3      3
                                              0 BANK0      2     2      0
                       _UARTSendChar
 ---------------------------------------------------------------------------------
 (2) _UARTSendChar                                         1     1      0      31
                                              2 COMMON     1     1      0
 ---------------------------------------------------------------------------------
 (1) _UARTInit                                             9     4      5    1054
                                              6 BANK0      9     4      5
                            ___lldiv
 ---------------------------------------------------------------------------------
 (3) ___lldiv                                             14     6      8     781
                                              2 COMMON     8     0      8
                                              0 BANK0      6     6      0
 ---------------------------------------------------------------------------------
 (1) _Setup                                                0     0      0       0
 ---------------------------------------------------------------------------------
 (1) _I2C_Master_Init                                      4     0      4       0
                                              2 COMMON     4     0      4
 ---------------------------------------------------------------------------------
 (1) _GY_init                                              0     0      0      22
                   _I2C_Master_Start
                    _I2C_Master_Stop
                   _I2C_Master_Write
 ---------------------------------------------------------------------------------
 (2) _I2C_Master_Start                                     0     0      0       0
                    _I2C_Master_Wait
 ---------------------------------------------------------------------------------
 (1) _GY_Read                                             35    35      0   10394
                                             52 BANK0      4     4      0
                                              0 BANK1     31    31      0
           _I2C_Master_RepeatedStart
                    _I2C_Master_Stop
                   _I2C_Master_Write
                           _I2C_Read
                          _I2C_Start
                            ___fladd
                            ___fldiv
                            ___flmul
                           ___xxtofl
 ---------------------------------------------------------------------------------
 (2) ___xxtofl                                            14    10      4     930
                                              2 COMMON     8     4      4
                                              0 BANK0      6     6      0
 ---------------------------------------------------------------------------------
 (2) ___flmul                                             26    18      8    4433
                                              6 BANK0     26    18      8
                          __Umul8_16
                           ___xxtofl (ARG)
 ---------------------------------------------------------------------------------
 (3) __Umul8_16                                            9     7      2     980
                                              2 COMMON     4     2      2
                                              0 BANK0      5     5      0
 ---------------------------------------------------------------------------------
 (2) ___fldiv                                             26    18      8    1273
                                              6 BANK0     26    18      8
                           ___xxtofl (ARG)
 ---------------------------------------------------------------------------------
 (3) ___fladd                                             20    12      8    2288
                                             32 BANK0     20    12      8
                            ___fldiv (ARG)
                           ___xxtofl (ARG)
 ---------------------------------------------------------------------------------
 (2) _I2C_Start                                            1     1      0      44
                                              3 COMMON     1     1      0
                    _I2C_Master_Wait
                   _I2C_Master_Write
 ---------------------------------------------------------------------------------
 (2) _I2C_Master_Write                                     1     1      0      22
                                              2 COMMON     1     1      0
                    _I2C_Master_Wait
 ---------------------------------------------------------------------------------
 (2) _I2C_Read                                             3     3      0      45
                                              2 COMMON     3     3      0
                            _I2C_ACK
                           _I2C_NACK
 ---------------------------------------------------------------------------------
 (3) _I2C_NACK                                             0     0      0       0
 ---------------------------------------------------------------------------------
 (3) _I2C_ACK                                              0     0      0       0
 ---------------------------------------------------------------------------------
 (2) _I2C_Master_Stop                                      0     0      0       0
                    _I2C_Master_Wait
 ---------------------------------------------------------------------------------
 (2) _I2C_Master_RepeatedStart                             0     0      0       0
                    _I2C_Master_Wait
 ---------------------------------------------------------------------------------
 (3) _I2C_Master_Wait                                      0     0      0       0
 ---------------------------------------------------------------------------------
 Estimated maximum stack depth 3
 ---------------------------------------------------------------------------------
 (Depth) Function   	        Calls       Base Space   Used Autos Params    Refs
 ---------------------------------------------------------------------------------
 (5) _ISR                                                  2     2      0       0
                                              0 COMMON     2     2      0
 ---------------------------------------------------------------------------------
 Estimated maximum stack depth 5
 ---------------------------------------------------------------------------------

 Call Graph Graphs:

 _main (ROOT)
   _GY_Read
     _I2C_Master_RepeatedStart
       _I2C_Master_Wait
     _I2C_Master_Stop
       _I2C_Master_Wait
     _I2C_Master_Write
       _I2C_Master_Wait
     _I2C_Read
       _I2C_ACK
       _I2C_NACK
     _I2C_Start
       _I2C_Master_Wait
       _I2C_Master_Write
         _I2C_Master_Wait
     ___fladd
       ___fldiv (ARG)
         ___xxtofl (ARG)
       ___xxtofl (ARG)
     ___fldiv
       ___xxtofl (ARG)
     ___flmul
       __Umul8_16
       ___xxtofl (ARG)
     ___xxtofl
   _GY_init
     _I2C_Master_Start
       _I2C_Master_Wait
     _I2C_Master_Stop
       _I2C_Master_Wait
     _I2C_Master_Write
       _I2C_Master_Wait
   _I2C_Master_Init
   _Setup
   _UARTInit
     ___lldiv
   _UARTSendChar
   _UARTSendString
     _UARTSendChar
   _ftoa
     ___flge
     ___flmul
       __Umul8_16
       ___xxtofl (ARG)
     ___flneg
     ___flsub
       ___fladd
         ___fldiv (ARG)
           ___xxtofl (ARG)
         ___xxtofl (ARG)
       ___xxtofl (ARG)
     ___fltol
       ___flmul (ARG)
         __Umul8_16
         ___xxtofl (ARG)
     ___xxtofl
     _sprintf
       ___lldiv
       ___llmod
         ___lldiv (ARG)
       ___wmul
       _isdigit

 _ISR (ROOT)

 Address spaces:
Name               Size   Autos  Total    Cost      Usage
BITCOMMON            E      0       0       0        0.0%
EEDATA             100      0       0       0        0.0%
NULL                 0      0       0       0        0.0%
CODE                 0      0       0       0        0.0%
COMMON               E      A       C       1       85.7%
BITSFR0              0      0       0       1        0.0%
SFR0                 0      0       0       1        0.0%
BITSFR1              0      0       0       2        0.0%
SFR1                 0      0       0       2        0.0%
STACK                0      0       0       2        0.0%
ABS                  0      0      A8       3        0.0%
BITBANK0            50      0       0       4        0.0%
BITSFR3              0      0       0       4        0.0%
SFR3                 0      0       0       4        0.0%
BANK0               50     4F      50       5      100.0%
BITSFR2              0      0       0       5        0.0%
SFR2                 0      0       0       5        0.0%
BITBANK1            50      0       0       6        0.0%
BANK1               50     1F      4C       7       95.0%
BITBANK3            60      0       0       8        0.0%
BANK3               60      0       0       9        0.0%
BITBANK2            60      0       0      10        0.0%
BANK2               60      0       0      11        0.0%
DATA                 0      0      A8      12        0.0%


Microchip Technology PIC Macro Assembler V2.31 build 20201012212115 
Symbol Table                                                                                   Thu Mar 04 18:54:20 2021

                UARTInit@baud_rate 0026                       ___fldiv@aexp 003F  
                     ___fldiv@bexp 003E                                  pc 0002  
                     ___fldiv@sign 0037                 __size_of_I2C_Start 0010  
                               _BF 04A0                                 l50 132D  
                               l90 133A                                 l93 1346  
                               l87 1353                                 l96 1316  
                               l99 07FE                                 fsr 0004  
              ___wmul@multiplicand 0074                __Umul8_16@word_mpld 0022  
                              l102 12F2                                l111 1304  
                              l120 135E                                l105 12FB  
                              l114 1309                                l122 1362  
                              l123 1363                                l211 038B  
                              l108 1300                                l140 13D3  
                              l132 13B1                                l117 130D  
                              l214 0397                                l208 07EE  
                              l137 13CB                                l305 1394  
                              l162 132F                                l139 13D1  
                              l219 065A                                l307 13AC  
                              l341 1511                                l165 1339  
                              l173 14A9                                l501 0892  
                              l159 1580                                l602 0E82  
                              l611 0FFF                                l604 0E59  
                              l700 02ED                                l623 0F71  
                              l527 1452                                l640 0FF3  
                              l632 0FD1                                l641 0FFF  
                              l713 13EA                                l706 0375  
                              l482 160B                                l619 0F4D  
                              l715 13FC                                l483 1624  
                              l491 0892                                l740 094E  
                              l644 1387                                l629 0F93  
                              l670 0A9D                                l654 09AB  
                              l814 0816                                l751 0918  
                              l479 159F                                l487 1321  
                              l656 0B2B                                l752 0924  
                              l744 08FC                                l809 0D77  
                              l761 072F                                l738 08B7  
                              l498 087D                                l676 0B0F  
                              l598 0DDB                                l678 0B1F  
                              l694 0381                                l790 0C14  
                              l787 0BEE                                l798 0CBE  
                              _PEN 048A                                _ISR 12DB  
                              _SEN 0488                    __end_of_I2C_ACK 1305  
                              fsr0 0004                                indf 0000  
                     ___flmul@aexp 0034                       ___flmul@bexp 0039  
                     ___flmul@sign 0033                       ___flmul@temp 003E  
                     ___flmul@prod 003A                               ?_ISR 0070  
                     ___fltol@exp1 004A                               l2100 0E25  
                             l2110 0E68                               l2102 0E26  
                             l2030 0D8A                               l2022 0D78  
                             l2200 0FDB                               l2120 0E86  
                             l2112 0E6C                               l2104 0E3D  
                             l2032 0D8F                               l2040 0D9F  
                             l2024 0D7F                               l3000 14EB  
                             l2210 0FEF                               l2202 0FE3  
                             l2130 0EAF                               l2122 0E8B  
                             l2114 0E6D                               l2106 0E5D  
                             l2050 0DB9                               l2042 0DA7  
                             l2034 0D94                               l2026 0D85  
                             l3002 14F9                               l2212 0FFA  
                             l2204 0FE8                               l2140 0EC3  
                             l2132 0EB3                               l2116 0E76  
                             l2108 0E66                               l2060 0DD0  
                             l2052 0DBD                               l2044 0DAC  
                             l2036 0D9C                               l2028 0D89  
                             l3100 00C8                               l3004 14FA  
                             l2300 1321                               l3020 141B  
                             l3012 13FD                               l2214 0FFE  
                             l2206 0FE9                               l2150 0F2B  
                             l2142 0ECC                               l2134 0EBC  
                             l2126 0E94                               l2118 0E7A  
                             l2070 0DE9                               l2062 0DD1  
                             l2054 0DBE                               l2046 0DB2  
                             l2038 0D9D                               l3110 0151  
                             l3102 00E4                               l3006 1503  
                             l2310 082D                               l3022 142D  
                             l3014 1407                               l2230 0806  
                             l2208 0FED                               l2152 0F30  
                             l2136 0EBE                               l2128 0EAB  
                             l2144 0ED1                               l2080 0DFD  
                             l2072 0DED                               l2056 0DC3  
                             l2064 0DD3                               l2048 0DB3  
                             l2400 09DA                               l3040 13F3  
                             l3032 13D7                               l3120 01C4  
                             l3112 0161                               l3104 0110  
                             l3008 1509                               l2320 0851  
                             l2312 0842                               l2304 0817  
                             l3024 143B                               l3016 140A  
                             l2232 0807                               l3200 0B49  
                             l2250 07F0                               l2170 0F78  
                             l2162 0F63                               l2146 0EE7  
                             l2154 0F3F                               l2138 0EC2  
                             l2090 0E11                               l2082 0E01  
                             l2074 0DF1                               l2066 0DE1  
                             l2058 0DC8                               l2410 0A06  
                             l2402 09EC                               l3042 13F8  
                             l3034 13D9                               l3130 0271  
                             l3122 01E1                               l3114 017E  
                             l3106 012C                               l3050 0021  
                             l2314 0843                               l2306 0824  
                             l3026 1444                               l3018 1417  
                             l2234 080D                               l3210 0B89  
                             l3202 0B59                               l2260 12F8  
                             l2252 07F5                               l2180 0F86  
                             l2172 0F7A                               l2164 0F6C  
                             l2156 0F55                               l2148 0F25  
                             l2092 0E15                               l2084 0E05  
                             l2076 0DF5                               l2068 0DE5  
                             l2412 0A0B                               l2420 0A2B  
                             l2404 09F4                               l3036 13E0  
                             l3140 02BD                               l3132 0299  
                             l3124 020E                               l3116 018E  
                             l3108 0148                               l3060 0038  
                             l3052 0028                               l3300 1519  
                             l2340 1364                               l2316 084B  
                             l3028 144A                               l2236 0813  
                             l3220 0BC3                               l3204 0B5D  
                             l3212 0B99                               l2254 12EA  
                             l2270 13C6                               l2262 13AE  
                             l2190 0F9D                               l2182 0F8A  
                             l2174 0F7F                               l2166 0F70  
                             l2158 0F5A                               l2094 0E19  
                             l2086 0E09                               l2078 0DF9  
                             l2430 0A56                               l2422 0A3D  
                             l2414 0A1D                               l2406 09FC  
                             l2350 095C                               l3038 13E4  
                             l3150 02D2                               l3142 02BE  
                             l3134 02A2                               l3126 021E  
                             l3118 01AB                               l3070 0054  
                             l3062 003D                               l3054 002E  
                             l2246 130E                               l3310 1573  
                             l3302 1544                               l3046 132F  
                             l2342 1368                               l2334 0872  
                             l2326 0859                               l2318 084D  
                             l2238 0815                               l3222 0BD6  
                             l3214 0BA7                               l3206 0B72  
                             l2256 12EF                               l2272 13D2  
                             l2264 13B5                               l2192 0FAB  
                             l2184 0F90                               l2168 0F75  
                             l2176 0F81                               l2096 0E1D  
                             l2088 0E0D                               l2440 0A6E  
                             l2432 0A5E                               l2424 0A3E  
                             l2416 0A21                               l2408 0A04  
                             l2360 0973                               l2352 0960  
                             l3160 02F7                               l3152 02D6  
                             l3144 02C7                               l3136 02B0  
                             l3128 024B                               l3080 0069  
                             l3072 005A                               l3064 0045  
                             l3056 0032                               l2248 1313  
                             l3320 157A                               l3312 1574  
                             l3304 1546                               l3048 1335  
                             l3400 1453                               l2280 15B3  
                             l2336 0882                               l2328 086B  
                             l3240 0C39                               l3232 0BF5  
                             l3224 0BDA                               l3216 0BAB  
                             l3208 0B85                               l2258 12F3  
                             l2266 13BB                               l2194 0FAF  
                             l2178 0F85                               l2098 0E21  
                             l2450 0A86                               l2442 0A77  
                             l2434 0A60                               l2426 0A4C  
                             l2418 0A22                               l2370 0989  
                             l2362 0974                               l2354 0961  
                             l2346 094F                               l3170 0335  
                             l3162 0305                               l3154 02EA  
                             l3138 02B9                               l3146 02CD  
                             l3090 0085                               l3082 0071  
                             l3074 005E                               l3066 0047  
                             l3058 0033                               l3330 0391  
                             l3322 157B                               l3314 1575  
                             l3306 1571                               l3402 145A  
                             l2290 1621                               l2282 15BB  
                             l2338 0887                               l3242 0C3D  
                             l3234 0C18                               l3218 0BAE  
                             l3226 0BEB                               l3410 1625  
                             l2268 13C0                               l2196 0FCD  
                             l2188 0F98                               l2460 0AB5  
                             l2452 0A9A                               l2436 0A69  
                             l2444 0A7D                               l2428 0A50  
                             l2380 09A0                               l2372 098D  
                             l2356 0966                               l2364 0976  
                             l2348 0956                               l3180 0369  
                             l3172 0340                               l3164 0309  
                             l3148 02D1                               l3084 0073  
                             l3076 005F                               l3068 004F  
                             l3340 03AC                               l3332 039D  
                             l3324 157C                               l3316 1578  
                             l3308 1572                               l3404 1476  
                             l2292 1623                               l2284 15BF  
                             l2276 1581                               l3260 0C94  
                             l3244 0C43                               l3236 0C26  
                             l3228 0BF0                               l3420 1694  
                             l3412 162A                               l2198 0FD6  
                             l2470 0AF3                               l2462 0AB9  
                             l2446 0A81                               l2438 0A6D  
                             l2390 09C3                               l2382 09A1  
                             l2374 098E                               l2366 097E  
                             l2358 096B                               l3182 036D  
                             l3174 034F                               l3166 0322  
                             l3158 02F2                               l3094 008E  
                             l3086 007B                               l3078 0064  
                             l2630 089B                               l3350 0403  
                             l3342 03BF                               l3334 03A8  
                             l3326 157F                               l3318 1579  
                             l3406 147E                               l2286 15E3  
                             l2278 1597                               l3270 0CD7  
                             l3262 0C9F                               l3254 0C53  
                             l3246 0C4B                               l3238 0C2B  
                             l3190 0B2F                               l3430 16FB  
                             l3422 16B3                               l3414 165B  
                             l2480 0B19                               l2472 0B02  
                             l2464 0AD2                               l2456 0AA2  
                             l2448 0A82                               l2376 0993  
                             l2384 09A3                               l2368 0983  
                             l3184 036E                               l3176 0359  
                             l3168 0328                               l3096 009E  
                             l3088 0080                               l2640 08C8  
                             l2632 089F                               l3360 048A  
                             l3352 041E                               l3344 03C7  
                             l3328 0385                               l3408 148B  
                             l2288 15E7                               l2296 1317  
                             l3280 0CF9                               l3272 0CDB  
                             l3264 0CA6                               l3248 0C51  
                             l3192 0B34                               l3440 1764  
                             l3432 170A                               l3424 16C0  
                             l3416 1661                               l2482 0B1B  
                             l2474 0B06                               l2458 0AA7  
                             l2466 0AD8                               l2386 09B3  
                             l2394 09CC                               l2378 0998  
                             l3186 0379                               l3178 035B  
                             l3098 00AB                               l2650 08F3  
                             l2642 08CD                               l2634 08AF  
                             l3370 05A9                               l3362 04A5  
                             l3354 0439                               l3346 03D4  
                             l2298 131F                               l3282 0D48  
                             l3274 0CE1                               l3266 0CB5  
                             l3258 0C8A                               l3290 0D73  
                             l3194 0B3A                               l3450 17BB  
                             l3442 1771                               l3434 1729  
                             l3426 16CF                               l3418 1687  
                             l2476 0B0E                               l2468 0AE5  
                             l2396 09D1                               l2388 09BF  
                             l2660 0926                               l2652 0903  
                             l2644 08DA                               l2636 08BF  
                             l2628 0896                               l3372 05E4  
                             l3364 04E1                               l3356 0454  
                             l3348 03E6                               l3284 0D4F  
                             l3276 0CE8                               l3268 0CCB  
                             l3196 0B41                               l3380 0661  
                             l3452 17DA                               l3444 1780  
                             l3436 1736                               l3428 16EE  
                             l2478 0B15                               l2662 093C  
                             l2654 090E                               l2646 08E1  
                             l3374 061F                               l3366 051C  
                             l3358 046F                               l3278 0CEC  
                             l3286 0D53                               l3198 0B46  
                             l3390 06B7                               l3382 067A  
                             l3454 17E7                               l3446 179F  
                             l3438 1745                               l1952 133A  
                             l1960 12FC                               l2664 0941  
                             l2656 0912                               l2648 08E5  
                             l3368 0557                               l2824 0730  
                             l3288 0D61                               l3392 06E6  
                             l3384 0683                               l3456 17F6  
                             l3448 17AC                               l1954 1340  
                             l1962 1305                               l2666 0945  
                             l2658 091C                               l3298 1512  
                             l1970 139B                               l3394 0714  
                             l3386 0687                               l3378 065B  
                             l1956 1355                               l2668 0946  
                             l2780 1322                               l1972 13A2  
                             l1964 1388                               l3396 072E  
                             l3388 069E                               l1958 135A  
                             l2790 1351                               l1974 13A8  
                             l1966 138A                               l3478 0C09  
                             l2792 1352                               l2784 1347  
                             l1968 138E                               l2786 134B  
                             l2788 134E                               l2990 14BC  
                             l2992 14BF                               l2994 14CC  
                             l2996 14D0                               l2988 14AA  
                             l2998 14D9                               STR_1 1043  
                             STR_2 1043                               STR_3 1043  
                             STR_4 1043                               STR_5 1043  
                             STR_6 1043                               STR_7 1038  
                             u2120 1340                               u3000 0858  
                             u2200 13A8                               u2121 133F  
                             u3001 0857                               u2201 13A7  
                             u2130 1346                               u2131 1345  
                             u2140 1362                               u3100 098D  
                             u3020 086A                               u2141 1361  
                             u3101 098C                               u3021 0869  
                             u2150 1304                               u3110 0993  
                             u3030 0871                               u2151 1303  
                             u3111 0992                               u3031 0870  
                             u3015 085A                               u2160 130D  
                             u2400 0DC8                               u3200 0A3D  
                             u3120 0998                               u2161 130C  
                             u2401 0DC7                               u3201 0A3C  
                             u3121 0997                               u2410 0DE1  
                             u3210 0A56                               u3130 09B3  
                             u3050 0882                               u2170 138E  
                             u2411 0DE0                               u3211 0A55  
                             u3131 09B2                               u3051 0881  
                             u2171 138D                               u2500 0E86  
                             u2420 0DE5                               u2340 0D89  
                             u3300 0AA7                               u3220 0A5E  
                             u3140 09D1                               u3060 0887  
                             u2501 0E85                               u2421 0DE4  
                             u2341 0D88                               u3301 0AA6  
                             u3221 0A5D                               u3205 0A39  
                             u3141 09D0                               u3061 0886  
                             u3045 0874                               u2510 0E8B  
                             u2430 0E3D                               u2350 0D8F  
                             u3310 0AB9                               u3150 0A0B  
                             u3070 0960                               u2511 0E8A  
                             u2431 0E3C                               u2351 0D8E  
                             u3311 0AB8                               u3151 0A0A  
                             u3071 095F                               u2600 0F30  
                             u2440 0E48                               u2360 0D94  
                             u3320 0AC8                               u3240 0A6D  
                             u3080 0966                               u4200 14D0  
                             u5000 1497                               u2601 0F2F  
                             u2521 0E9D                               u2441 0E46  
                             u2361 0D93                               u3241 0A6C  
                             u3081 0965                               u4201 14CF  
                             u2185 1395                               u2610 0F55  
                             u2530 0EAF                               u2522 0EA4  
                             u2450 0E49                               u2370 0DB2  
                             u3330 0AE5                               u3090 096B  
                             u5010 14A9                               u2611 0F54  
                             u2531 0EAE                               u2523 0EAB  
                             u2435 0E39                               u2371 0DB1  
                             u3331 0AE4                               u3235 0A62  
                             u3091 096A                               u5011 14A8  
                             u2195 139C                               u2700 0F97  
                             u2620 0F5A                               u2540 0EB3  
                             u2460 0E5D                               u2380 0DBD  
                             u3340 0B02                               u3260 0A81  
                             u3180 0A21                               u4220 14EB  
                             u4300 144A                               u2701 0F96  
                             u2621 0F59                               u2541 0EB2  
                             u2461 0E5C                               u2381 0DBC  
                             u3341 0B01                               u3325 0AC3  
                             u3261 0A80                               u3181 0A20  
                             u3165 0A0D                               u4221 14EA  
                             u4301 1449                               u2710 0F9D  
                             u2550 0EC2                               u2470 0E6C  
                             u2390 0DC3                               u3350 0B19  
                             u3270 0A86                               u4310 13E4  
                             u2711 0F9C                               u2551 0EC1  
                             u2471 0E6B                               u2391 0DC2  
                             u3351 0B18                               u3335 0AE1  
                             u3271 0A85                               u3255 0A70  
                             u3175 0A16                               u4311 13E3  
                             u4215 14D2                               u2720 0FAF  
                             u2640 0F70                               u3280 0A9A  
                             u4400 0069                               u4240 1509  
                             u2721 0FAE                               u2641 0F6F  
                             u3345 0AFE                               u3281 0A99  
                             u4401 0068                               u4241 1508  
                             u4225 14E7                               u2730 0FBE  
                             u2650 0F75                               u2570 0EE7  
                             u2490 0E82                               u3290 0AA1  
                             u4330 13F8                               u4410 0080  
                             u4250 1407                               u2651 0F74  
                             u2635 0F65                               u2571 0EE6  
                             u2491 0E81                               u3291 0AA0  
                             u3195 0A24                               u4331 13F7  
                             u4411 007F                               u4235 14FB  
                             u4251 1406                               u5027 1632  
                             u2740 0FCD                               u2660 0F7F  
                             u4420 0085                               u4180 14BC  
                             u4340 1335                               u2900 15B3  
                             u2741 0FCC                               u2661 0F7E  
                             u2581 0EFE                               u2573 0EE3  
                             u2565 0EC5                               u2485 0E6F  
                             u4325 13EB                               u4421 0084  
                             u4181 14BB                               u4341 1334  
                             u2901 15B2                               u2750 0FD6  
                             u2670 0F85                               u2590 0F12  
                             u2582 0EFF                               u4350 0032  
                             u2910 15BF                               u4270 141B  
                             u2830 080D                               u2751 0FD5  
                             u2735 0FB9                               u2671 0F84  
                             u2591 0F13                               u2583 0F04  
                             u4511 01D3                               u4431 00D6  
                             u4351 0031                               u2911 15BE  
                             u4271 141A                               u2831 080C  
                             u2760 0FDB                               u2680 0F8A  
                             u2592 0F18                               u2584 0F05  
                             u4600 02BD                               u4512 01DA  
                             u4432 00DD                               u4360 0038  
                             u4280 142D                               u2840 0813  
                             u2761 0FDA                               u2681 0F89  
                             u2593 0F19                               u2585 0F0A  
                             u4601 02BC                               u4521 0200  
                             u4513 01E1                               u4505 01AD  
                             u4441 00F2                               u4433 00E4  
                             u4361 0037                               u2921 15CE  
                             u4281 142C                               u4265 140C  
                             u2841 0812                               u2770 0FE8  
                             u2690 0F90                               u2586 0F0B  
                             u4522 0207                               u4442 00F9  
                             u4370 003D                               u3810 0912  
                             u3730 089B                               u2930 15E7  
                             u2922 15CF                               u2771 0FE7  
                             u2691 0F8F                               u4531 022D  
                             u4523 020E                               u4451 011E  
                             u4443 0100                               u4371 003C  
                             u3811 0911                               u3731 089A  
                             u4195 14C1                               u2931 15E6  
                             u2923 15D4                               u2860 13B5  
                             u2780 0FED                               u4700 034F  
                             u4620 02D1                               u4540 0257  
                             u4532 0234                               u4452 0125  
                             u4380 005E                               u3820 0918  
                             u3740 089F                               u2924 15D5  
                             u2861 13B4                               u2781 0FEC  
                             u4701 034E                               u4621 02D0  
                             u4533 023B                               u4461 013A  
                             u4453 012C                               u4381 005D  
                             u3821 0917                               u3805 0907  
                             u3741 089E                               u2941 15F6  
                             u2925 15DA                               u4285 1429  
                             u2870 13C0                               u2790 0FFE  
                             u4710 036D                               u4630 02D6  
                             u4462 0141                               u4390 0064  
                             u3830 091C                               u3750 08BF  
                             u2950 1621                               u2942 15F7  
                             u2926 15DB                               u2871 13BF  
                             u2791 0FFD                               u4711 036C  
                             u4631 02D5                               u4615 02C0  
                             u4551 0263                               u4463 0148  
                             u4391 0063                               u3831 091B  
                             u3751 08BE                               u2951 1620  
                             u2943 15FC                               u4295 143C  
                             u2880 13D1                               u4640 02EA  
                             u4560 027F                               u4552 026A  
                             u3840 0931                               u2944 15FD  
                             u2960 131F                               u4720 0B3A  
                             u2881 13D0                               u4705 034B  
                             u4641 02E9                               u4553 0271  
                             u4545 0252                               u4481 0170  
                             u2945 1602                               u2961 131E  
                             u4721 0B39                               u4650 02F1  
                             u4482 0177                               u3850 0941  
                             u3770 08E0                               u2946 1603  
                             u2890 1597                               u2970 0824  
                             u4810 0C89                               u4730 0B59  
                             u4651 02F0                               u4571 028B  
                             u4491 019D                               u4483 017E  
                             u4475 014A                               u3851 0940  
                             u3771 08DF                               u2955 161D  
                             u2891 1596                               u2971 0823  
                             u4811 0C88                               u4731 0B58  
                             u4660 02F7                               u4572 0292  
                             u4492 01A4                               u3860 0945  
                             u2980 083B                               u4900 0D73  
                             u4820 0C94                               u4740 0B99  
                             _RCEN 048B                               u4661 02F6  
                             u4573 0299                               u4565 027A  
                             u4493 01AB                               u3861 0944  
                             u3845 092C                               u3765 08D2  
                             u4901 0D72                               u4821 0C93  
                             u4805 0C56                               u4741 0B98  
                             u4670 0309                               u3790 0902  
                             u4910 1519                               u2990 0851  
                             u4830 0C9F                               u4750 0BA7  
                             i1l39 12DB                               u4671 0308  
                             u3791 0901                               u4911 1518  
                             u2991 0850                               u4831 0C9E  
                             u4815 0C85                               u4751 0BA6  
                             u4680 0318                               u4920 1527  
                             u4840 0CB5                               u4760 0BEA  
                             u4585 029B                               u3785 08F4  
                             u2985 0836                               u4841 0CB4  
                             u4761 0BE9                               u4690 0335  
                             u4930 1554                               u4850 0CCB  
                             u4770 0C18                               u4691 0334  
                             u4595 02B2                               u4851 0CCA  
                             u4835 0C9B                               u4771 0C17  
                             u4940 0391                               u4860 0CE1  
                             u4780 0C43                               u4685 0313  
                             u4941 0390                               u4925 1522  
                             u4861 0CE0                               u4845 0CB1  
                             u4781 0C42                               u4950 039D  
                             u4870 0CF8                               u4790 0C4B  
                             u4695 0331                               u4951 039C  
                             u4935 154F                               u4871 0CF7  
                             u4855 0CC7                               u4791 0C4A  
                             u4960 03D4                               u4961 03D3  
                             u4890 0D61                               u4970 067A  
                             u4891 0D60                               u4971 0679  
                             u4980 1464                               u4965 03D0  
                             u4885 0D04                               u4990 148B  
                             u4991 148A                               u4995 1487  
                             _RSEN 0489                   __end_of_I2C_NACK 130E  
                  __end_of_GY_Read 065B   __end_of_I2C_Master_RepeatedStart 12F3  
                             _main 1625                               _ftoa 065B  
                 __end_of_I2C_Read 13D4                               btemp 007E  
                  __end_of_GY_init 07EF                               start 000C  
                  ___fldiv@new_exp 0038                              ??_ISR 0070  
                 ?_I2C_Master_Init 0072                   ?_I2C_Master_Wait 0070  
                 ?_I2C_Master_Stop 0070                      ___fltol@sign1 0049  
                  __end_of___fladd 1000                              ?_main 0070  
                            _ACKEN 048C                              ?_ftoa 005C  
                            _ACKDT 048D                    __end_of___fldiv 0B2C  
                  __end_of___flneg 1322                    __end_of___flmul 0382  
                  __end_of___flsub 1388                    __end_of___fltol 0893  
                            _ANSEL 0188                    __end_of___lldiv 1512  
                  __end_of___llmod 1453                              _RCREG 001A  
                            _SPBRG 0099                              _PORTA 0005  
                            _PORTC 0007                              _TRISA 0085  
                            _SSPIF 0063                              _TXREG 0019  
                 __end_of_UARTInit 1581                              _Setup 1322  
                            _datos 00A0                    __end_of_dpowers 1038  
                  __end_of_isdigit 0817                              ftoa@f 005C  
                            ftoa@l 0067                  __end_of_I2C_Start 07FF  
                            pclath 000A                              status 0003  
                            wtemp0 007E                    __end_of_sprintf 0D78  
                  __initialization 000F                       __end_of_main 1800  
                     __end_of_ftoa 0730                          ??_I2C_ACK 0072  
                           ??_main 006C                             ??_ftoa 0062  
                ?_I2C_Master_Start 0070                  ?_I2C_Master_Write 0070  
                           ?_Setup 0070                 ??_I2C_Master_Start 0072  
               ??_I2C_Master_Write 0072                          ??_GY_Read 0054  
                 ___llmod@dividend 002A                          ??_GY_init 0073  
                           _ANSELH 0189                             _SSPADD 0093  
                           _TRISC3 043B                             _TRISC4 043C  
                           _SSPCON 0014                             _SSPBUF 0013  
                 __end_of___xxtofl 094F           _I2C_Master_RepeatedStart 12EA  
                           ___flge 1581                   I2C_Read@ACK_NACK 0073  
                        ??___fladd 0048                             ___wmul 1388  
                        ??___fldiv 002E                          ??___flneg 0076  
                        ??___flmul 002E                          ??___flsub 007A  
                        ??___fltol 0044                          ??___lldiv 0020  
                        ??___llmod 002E                             _buffer 006F  
          __size_of_UARTSendString 0057                             _status 007A  
                           ftoa@cp 006B                          ?_I2C_NACK 0070  
                        ??_isdigit 0072                          ?_I2C_Read 0070  
               __size_of__Umul8_16 0029                             saved_w 007E  
                        ??_sprintf 0039                         ___flge@ff1 0072  
                       ___flge@ff2 0076                       ___xxtofl@arg 0022  
                     ___xxtofl@exp 0021                       ___xxtofl@val 0072  
          __end_of__initialization 001D                         ___flneg@f1 0072  
                       ___fltol@f1 0040                     __pcstackCOMMON 0070  
                    __end_of_Setup 132E                          ?_UARTInit 0026  
                       ??_I2C_NACK 0072                         ??_I2C_Read 0072  
         UARTSendString@max_length 0075                            ??_Setup 0072  
                     sprintf@width 0045                         __pbssBANK0 006F  
                       __pbssBANK1 00A0                       I2C_Read@Data 0074  
                __end_of__Umul8_16 13FD                         __pmaintext 1625  
                          ?___flge 0072                            ?___wmul 0072  
                       ??_UARTInit 002B                         __pintentry 0004  
                          _I2C_ACK 12FC                            _ACKSTAT 048E  
                        ?___xxtofl 0072                            _GY_Read 0382  
                          _SSPCON2 0091                            _SSPSTAT 0094  
                          _GY_init 0730                         __stringtab 1000  
                    ?_UARTSendChar 0070                       I2C_Start@add 0073  
                        _I2C_Start 07EF                    __size_of___flge 00A4  
                          ___fladd 0D78                            ___fldiv 094F  
                          ___flneg 1317                            ___flmul 0021  
                          ___flsub 1364                            ___fltol 0817  
                          ___lldiv 14AA                    __size_of___wmul 0025  
                          ___llmod 13FD                     _UARTSendString 1453  
                          __ptext1 065B                            __ptext2 0B2C  
                          __ptext3 0805                            __ptext4 1388  
                          __ptext5 13FD                            __ptext6 0817  
                          __ptext7 1364                            __ptext8 1317  
                          __ptext9 1581                       __size_of_ISR 0007  
                          _dpowers 1010                            _isdigit 0805  
                       ??___xxtofl 0076           __size_of_I2C_Master_Init 000D  
         __size_of_I2C_Master_Wait 000D           __size_of_I2C_Master_Stop 0009  
                          _sprintf 0B2C                            clrloop0 12E3  
             end_of_initialization 001D                     ??_UARTSendChar 0072  
                          ftoa@buf 00BC                            ftoa@rem 0063  
       ??_I2C_Master_RepeatedStart 0072                         ?_I2C_Start 0070  
        __size_of_I2C_Master_Start 0009          __size_of_I2C_Master_Write 0010  
                  ___lldiv@divisor 0072                    ___lldiv@counter 0025  
                        _RCSTAbits 0018             __end_of_UARTSendString 14AA  
                      ___fladd@grs 0053                      ___xxtofl@sign 0020  
                __size_of_I2C_NACK 0009                          _TRISCbits 0087  
                __size_of_I2C_Read 0027                        ___fldiv@grs 003A  
                      ___fldiv@rem 0033                        ___flmul@grs 0035  
                        _TXSTAbits 0098                    ?_UARTSendString 0073  
                   __end_of___flge 1625                     __end_of___wmul 13AD  
                __size_of_UARTInit 006F                start_initialization 000F  
                      __end_of_ISR 12E2                         ftoa@status 0060  
                ??_I2C_Master_Init 0076                  ??_I2C_Master_Wait 0072  
                ??_I2C_Master_Stop 0072                    ___llmod@divisor 0026  
                      ??_I2C_Start 0073                    ___llmod@counter 002F  
                         ??___flge 0020                           ??___wmul 0076  
                        __Umul8_16 13D4                           ?_I2C_ACK 0070  
             __end_of_UARTSendChar 133A                          ___fladd@a 0044  
                        ___fladd@b 0040                          ___fldiv@a 0026  
                        ___fldiv@b 002A                          ___flmul@a 002A  
                        ___flmul@b 0026                        __pbssCOMMON 007A  
                        ___flsub@a 0054                          ___flsub@b 0058  
                        ___latbits 0002                      __pcstackBANK0 0020  
                    __pcstackBANK1 00CD                  __size_of___xxtofl 00BC  
                         ?_GY_Read 0070                           ?_GY_init 0070  
                      sprintf@flag 003E                        sprintf@prec 0047  
                 _I2C_Master_Start 130E                   _I2C_Master_Write 1354  
                    UARTSendChar@c 0072                           ?___fladd 0040  
                         ?___fldiv 0026                           ?___flneg 0072  
                         ?___flmul 0026                           ?___flsub 0054  
                         ?___fltol 0040                           ?___lldiv 0072  
                         ?___llmod 0026                         ?__Umul8_16 0072  
             I2C_Master_Write@data 0072                           GY_Read@i 00E9  
                        __pstrings 1000                           _I2C_NACK 1305  
                         ?_isdigit 0070                           _I2C_Read 13AD  
                   __size_of_Setup 000C                           ?_sprintf 0030  
                interrupt_function 0004                     ___wmul@product 0076  
                        clear_ram0 12E2                    UARTSendString@i 0020  
                         _PIR1bits 000C                           _UARTInit 1512  
                 __size_of_I2C_ACK 0009                        __stringbase 100F  
                ___wmul@multiplier 0072                   __size_of_GY_Read 02D9  
                 __size_of_GY_init 00BF                   ??_UARTSendString 0076  
            __size_of_UARTSendChar 000C                     GY_Read@guardar 00DB  
                     UARTInit@BRGH 002A                        ??__Umul8_16 0074  
__size_of_I2C_Master_RepeatedStart 0009                   __size_of___fladd 0288  
                 __size_of___fldiv 01DD                   __size_of___flneg 000B  
                 __size_of___flmul 0361          ?_I2C_Master_RepeatedStart 0070  
                 __size_of___flsub 0024                   __size_of___fltol 007C  
                 __size_of___lldiv 0068                   __size_of___llmod 0056  
                   GY_Read@valores 00CD                 __end_of__stringtab 1010  
                      _isdigit$841 0072                         sprintf@val 0040  
                  _I2C_Master_Init 1347                           ___xxtofl 0893  
                  _I2C_Master_Wait 133A                    _I2C_Master_Stop 12F3  
                 __size_of_isdigit 0012                           __ptext10 1453  
                         __ptext11 132E                           __ptext20 0021  
                         __ptext12 1512                           __ptext21 13D4  
                         __ptext13 14AA                           __ptext30 12EA  
                         __ptext22 094F                           __ptext14 1322  
                         __ptext31 133A                           __ptext23 0D78  
                         __ptext15 1347                           __ptext32 12DB  
                         __ptext24 07EF                           __ptext16 0730  
                         __ptext25 1354                           __ptext17 130E  
                         __ptext26 13AD                           __ptext18 0382  
                         __ptext27 1305                           __ptext19 0893  
                         __ptext28 12FC                           __ptext29 12F3  
                 __size_of_sprintf 024C                       _UARTSendChar 132E  
                    __size_of_main 01DB                      __size_of_ftoa 00D5  
         __end_of_I2C_Master_Start 1317           __end_of_I2C_Master_Write 1364  
                         isdigit@c 0073                  UARTSendString@str 0073  
                         intlevel1 0000                          sprintf@ap 003F  
                        sprintf@sp 0044                   ___lldiv@dividend 0076  
                        stringcode 100A            __end_of_I2C_Master_Init 1354  
          __end_of_I2C_Master_Wait 1347            __end_of_I2C_Master_Stop 12FC  
                     GY_Read@datos 00EB             __Umul8_16@multiplicand 0072  
                         sprintf@c 0049                           sprintf@f 0030  
                 ___lldiv@quotient 0021                           stringdir 100A  
                         stringtab 1000                        _SSPCON2bits 0091  
                    ___fladd@signs 0050                       ___fladd@aexp 0051  
                     ___fladd@bexp 0052               __Umul8_16@multiplier 0024  
                __Umul8_16@product 0020  
