

Microchip MPLAB XC8 Assembler V2.31 build 20201012212115 
                                                                                               Mon Mar 01 11:33:17 2021

Microchip MPLAB XC8 C Compiler v2.31 (Free license) build 20201012212115 Og1 
     1                           	processor	16F887
     2                           	pagewidth 120
     3                           	opt	flic
     4                           	psect	strings,global,class=STRING,delta=2,noexec
     5                           	psect	cinit,global,class=CODE,merge=1,delta=2
     6                           	psect	bssCOMMON,global,class=COMMON,space=1,delta=1,noexec
     7                           	psect	bssBANK0,global,class=BANK0,space=1,delta=1,noexec
     8                           	psect	cstackCOMMON,global,class=COMMON,space=1,delta=1,noexec
     9                           	psect	cstackBANK0,global,class=BANK0,space=1,delta=1,noexec
    10                           	psect	maintext,global,class=CODE,split=1,delta=2
    11                           	psect	text1,local,class=CODE,merge=1,delta=2
    12                           	psect	text2,local,class=CODE,merge=1,delta=2
    13                           	psect	text3,local,class=CODE,merge=1,delta=2
    14                           	psect	text4,local,class=CODE,merge=1,delta=2
    15                           	psect	text5,local,class=CODE,merge=1,delta=2
    16                           	psect	text6,local,class=CODE,merge=1,delta=2,group=1
    17                           	psect	text7,local,class=CODE,merge=1,delta=2
    18                           	psect	text8,local,class=CODE,merge=1,delta=2
    19                           	psect	text9,local,class=CODE,merge=1,delta=2
    20                           	psect	text10,local,class=CODE,merge=1,delta=2
    21                           	psect	text11,local,class=CODE,merge=1,delta=2
    22                           	psect	intentry,global,class=CODE,delta=2
    23                           	psect	config,global,abs,ovrld,class=CONFIG,space=4,delta=2,noexec
    24                           	dabs	1,0x7E,2
    25  0000                     
    26                           ; Version 2.20
    27                           ; Generated 12/02/2020 GMT
    28                           ; 
    29                           ; Copyright © 2020, Microchip Technology Inc. and its subsidiaries ("Microchip")
    30                           ; All rights reserved.
    31                           ; 
    32                           ; This software is developed by Microchip Technology Inc. and its subsidiaries ("Microch
      +                          ip").
    33                           ; 
    34                           ; Redistribution and use in source and binary forms, with or without modification, are
    35                           ; permitted provided that the following conditions are met:
    36                           ; 
    37                           ;     1. Redistributions of source code must retain the above copyright notice, this lis
      +                          t of
    38                           ;        conditions and the following disclaimer.
    39                           ; 
    40                           ;     2. Redistributions in binary form must reproduce the above copyright notice, this 
      +                          list
    41                           ;        of conditions and the following disclaimer in the documentation and/or other
    42                           ;        materials provided with the distribution.
    43                           ; 
    44                           ;     3. Microchip's name may not be used to endorse or promote products derived from th
      +                          is
    45                           ;        software without specific prior written permission.
    46                           ; 
    47                           ; THIS SOFTWARE IS PROVIDED BY MICROCHIP "AS IS" AND ANY EXPRESS OR IMPLIED WARRANTIES,
    48                           ; INCLUDING, BUT NOT LIMITED TO, THE IMPLIED WARRANTIES OF MERCHANTABILITY AND FITNESS F
      +                          OR
    49                           ; PURPOSE ARE DISCLAIMED.  IN NO EVENT SHALL MICROCHIP BE LIABLE FOR ANY DIRECT, INDIREC
      +                          T,
    50                           ; INCIDENTAL, SPECIAL, EXEMPLARY, OR CONSEQUENTIAL DAMAGES (INCLUDING BUT NOT LIMITED TO
    51                           ; PROCUREMENT OF SUBSTITUTE GOODS OR SERVICES; LOSS OF USE, DATA OR PROFITS; OR BUSINESS
    52                           ; INTERRUPTION) HOWSOEVER CAUSED AND ON ANY THEORY OF LIABILITY, WHETHER IN CONTRACT, ST
      +                          RICT
    53                           ; LIABILITY, OR TORT (INCLUDING NEGLIGENCE OR OTHERWISE) ARISING IN ANY WAY OUT OF THE U
      +                          SE OF
    54                           ; THIS SOFTWARE, EVEN IF ADVISED OF THE POSSIBILITY OF SUCH DAMAGE.
    55                           ; 
    56                           ; 
    57                           ; Code-generator required, PIC16F887 Definitions
    58                           ; 
    59                           ; SFR Addresses
    60  0000                     	;# 
    61  0001                     	;# 
    62  0002                     	;# 
    63  0003                     	;# 
    64  0004                     	;# 
    65  0005                     	;# 
    66  0006                     	;# 
    67  0007                     	;# 
    68  0008                     	;# 
    69  0009                     	;# 
    70  000A                     	;# 
    71  000B                     	;# 
    72  000C                     	;# 
    73  000D                     	;# 
    74  000E                     	;# 
    75  000E                     	;# 
    76  000F                     	;# 
    77  0010                     	;# 
    78  0011                     	;# 
    79  0012                     	;# 
    80  0013                     	;# 
    81  0014                     	;# 
    82  0015                     	;# 
    83  0015                     	;# 
    84  0016                     	;# 
    85  0017                     	;# 
    86  0018                     	;# 
    87  0019                     	;# 
    88  001A                     	;# 
    89  001B                     	;# 
    90  001B                     	;# 
    91  001C                     	;# 
    92  001D                     	;# 
    93  001E                     	;# 
    94  001F                     	;# 
    95  0081                     	;# 
    96  0085                     	;# 
    97  0086                     	;# 
    98  0087                     	;# 
    99  0088                     	;# 
   100  0089                     	;# 
   101  008C                     	;# 
   102  008D                     	;# 
   103  008E                     	;# 
   104  008F                     	;# 
   105  0090                     	;# 
   106  0091                     	;# 
   107  0092                     	;# 
   108  0093                     	;# 
   109  0093                     	;# 
   110  0093                     	;# 
   111  0094                     	;# 
   112  0095                     	;# 
   113  0096                     	;# 
   114  0097                     	;# 
   115  0098                     	;# 
   116  0099                     	;# 
   117  009A                     	;# 
   118  009B                     	;# 
   119  009C                     	;# 
   120  009D                     	;# 
   121  009E                     	;# 
   122  009F                     	;# 
   123  0105                     	;# 
   124  0107                     	;# 
   125  0108                     	;# 
   126  0109                     	;# 
   127  010C                     	;# 
   128  010C                     	;# 
   129  010D                     	;# 
   130  010E                     	;# 
   131  010F                     	;# 
   132  0185                     	;# 
   133  0187                     	;# 
   134  0188                     	;# 
   135  0189                     	;# 
   136  018C                     	;# 
   137  018D                     	;# 
   138  0000                     	;# 
   139  0001                     	;# 
   140  0002                     	;# 
   141  0003                     	;# 
   142  0004                     	;# 
   143  0005                     	;# 
   144  0006                     	;# 
   145  0007                     	;# 
   146  0008                     	;# 
   147  0009                     	;# 
   148  000A                     	;# 
   149  000B                     	;# 
   150  000C                     	;# 
   151  000D                     	;# 
   152  000E                     	;# 
   153  000E                     	;# 
   154  000F                     	;# 
   155  0010                     	;# 
   156  0011                     	;# 
   157  0012                     	;# 
   158  0013                     	;# 
   159  0014                     	;# 
   160  0015                     	;# 
   161  0015                     	;# 
   162  0016                     	;# 
   163  0017                     	;# 
   164  0018                     	;# 
   165  0019                     	;# 
   166  001A                     	;# 
   167  001B                     	;# 
   168  001B                     	;# 
   169  001C                     	;# 
   170  001D                     	;# 
   171  001E                     	;# 
   172  001F                     	;# 
   173  0081                     	;# 
   174  0085                     	;# 
   175  0086                     	;# 
   176  0087                     	;# 
   177  0088                     	;# 
   178  0089                     	;# 
   179  008C                     	;# 
   180  008D                     	;# 
   181  008E                     	;# 
   182  008F                     	;# 
   183  0090                     	;# 
   184  0091                     	;# 
   185  0092                     	;# 
   186  0093                     	;# 
   187  0093                     	;# 
   188  0093                     	;# 
   189  0094                     	;# 
   190  0095                     	;# 
   191  0096                     	;# 
   192  0097                     	;# 
   193  0098                     	;# 
   194  0099                     	;# 
   195  009A                     	;# 
   196  009B                     	;# 
   197  009C                     	;# 
   198  009D                     	;# 
   199  009E                     	;# 
   200  009F                     	;# 
   201  0105                     	;# 
   202  0107                     	;# 
   203  0108                     	;# 
   204  0109                     	;# 
   205  010C                     	;# 
   206  010C                     	;# 
   207  010D                     	;# 
   208  010E                     	;# 
   209  010F                     	;# 
   210  0185                     	;# 
   211  0187                     	;# 
   212  0188                     	;# 
   213  0189                     	;# 
   214  018C                     	;# 
   215  018D                     	;# 
   216  0000                     	;# 
   217  0001                     	;# 
   218  0002                     	;# 
   219  0003                     	;# 
   220  0004                     	;# 
   221  0005                     	;# 
   222  0006                     	;# 
   223  0007                     	;# 
   224  0008                     	;# 
   225  0009                     	;# 
   226  000A                     	;# 
   227  000B                     	;# 
   228  000C                     	;# 
   229  000D                     	;# 
   230  000E                     	;# 
   231  000E                     	;# 
   232  000F                     	;# 
   233  0010                     	;# 
   234  0011                     	;# 
   235  0012                     	;# 
   236  0013                     	;# 
   237  0014                     	;# 
   238  0015                     	;# 
   239  0015                     	;# 
   240  0016                     	;# 
   241  0017                     	;# 
   242  0018                     	;# 
   243  0019                     	;# 
   244  001A                     	;# 
   245  001B                     	;# 
   246  001B                     	;# 
   247  001C                     	;# 
   248  001D                     	;# 
   249  001E                     	;# 
   250  001F                     	;# 
   251  0081                     	;# 
   252  0085                     	;# 
   253  0086                     	;# 
   254  0087                     	;# 
   255  0088                     	;# 
   256  0089                     	;# 
   257  008C                     	;# 
   258  008D                     	;# 
   259  008E                     	;# 
   260  008F                     	;# 
   261  0090                     	;# 
   262  0091                     	;# 
   263  0092                     	;# 
   264  0093                     	;# 
   265  0093                     	;# 
   266  0093                     	;# 
   267  0094                     	;# 
   268  0095                     	;# 
   269  0096                     	;# 
   270  0097                     	;# 
   271  0098                     	;# 
   272  0099                     	;# 
   273  009A                     	;# 
   274  009B                     	;# 
   275  009C                     	;# 
   276  009D                     	;# 
   277  009E                     	;# 
   278  009F                     	;# 
   279  0105                     	;# 
   280  0107                     	;# 
   281  0108                     	;# 
   282  0109                     	;# 
   283  010C                     	;# 
   284  010C                     	;# 
   285  010D                     	;# 
   286  010E                     	;# 
   287  010F                     	;# 
   288  0185                     	;# 
   289  0187                     	;# 
   290  0188                     	;# 
   291  0189                     	;# 
   292  018C                     	;# 
   293  018D                     	;# 
   294  0000                     	;# 
   295  0001                     	;# 
   296  0002                     	;# 
   297  0003                     	;# 
   298  0004                     	;# 
   299  0005                     	;# 
   300  0006                     	;# 
   301  0007                     	;# 
   302  0008                     	;# 
   303  0009                     	;# 
   304  000A                     	;# 
   305  000B                     	;# 
   306  000C                     	;# 
   307  000D                     	;# 
   308  000E                     	;# 
   309  000E                     	;# 
   310  000F                     	;# 
   311  0010                     	;# 
   312  0011                     	;# 
   313  0012                     	;# 
   314  0013                     	;# 
   315  0014                     	;# 
   316  0015                     	;# 
   317  0015                     	;# 
   318  0016                     	;# 
   319  0017                     	;# 
   320  0018                     	;# 
   321  0019                     	;# 
   322  001A                     	;# 
   323  001B                     	;# 
   324  001B                     	;# 
   325  001C                     	;# 
   326  001D                     	;# 
   327  001E                     	;# 
   328  001F                     	;# 
   329  0081                     	;# 
   330  0085                     	;# 
   331  0086                     	;# 
   332  0087                     	;# 
   333  0088                     	;# 
   334  0089                     	;# 
   335  008C                     	;# 
   336  008D                     	;# 
   337  008E                     	;# 
   338  008F                     	;# 
   339  0090                     	;# 
   340  0091                     	;# 
   341  0092                     	;# 
   342  0093                     	;# 
   343  0093                     	;# 
   344  0093                     	;# 
   345  0094                     	;# 
   346  0095                     	;# 
   347  0096                     	;# 
   348  0097                     	;# 
   349  0098                     	;# 
   350  0099                     	;# 
   351  009A                     	;# 
   352  009B                     	;# 
   353  009C                     	;# 
   354  009D                     	;# 
   355  009E                     	;# 
   356  009F                     	;# 
   357  0105                     	;# 
   358  0107                     	;# 
   359  0108                     	;# 
   360  0109                     	;# 
   361  010C                     	;# 
   362  010C                     	;# 
   363  010D                     	;# 
   364  010E                     	;# 
   365  010F                     	;# 
   366  0185                     	;# 
   367  0187                     	;# 
   368  0188                     	;# 
   369  0189                     	;# 
   370  018C                     	;# 
   371  018D                     	;# 
   372  0000                     	;# 
   373  0001                     	;# 
   374  0002                     	;# 
   375  0003                     	;# 
   376  0004                     	;# 
   377  0005                     	;# 
   378  0006                     	;# 
   379  0007                     	;# 
   380  0008                     	;# 
   381  0009                     	;# 
   382  000A                     	;# 
   383  000B                     	;# 
   384  000C                     	;# 
   385  000D                     	;# 
   386  000E                     	;# 
   387  000E                     	;# 
   388  000F                     	;# 
   389  0010                     	;# 
   390  0011                     	;# 
   391  0012                     	;# 
   392  0013                     	;# 
   393  0014                     	;# 
   394  0015                     	;# 
   395  0015                     	;# 
   396  0016                     	;# 
   397  0017                     	;# 
   398  0018                     	;# 
   399  0019                     	;# 
   400  001A                     	;# 
   401  001B                     	;# 
   402  001B                     	;# 
   403  001C                     	;# 
   404  001D                     	;# 
   405  001E                     	;# 
   406  001F                     	;# 
   407  0081                     	;# 
   408  0085                     	;# 
   409  0086                     	;# 
   410  0087                     	;# 
   411  0088                     	;# 
   412  0089                     	;# 
   413  008C                     	;# 
   414  008D                     	;# 
   415  008E                     	;# 
   416  008F                     	;# 
   417  0090                     	;# 
   418  0091                     	;# 
   419  0092                     	;# 
   420  0093                     	;# 
   421  0093                     	;# 
   422  0093                     	;# 
   423  0094                     	;# 
   424  0095                     	;# 
   425  0096                     	;# 
   426  0097                     	;# 
   427  0098                     	;# 
   428  0099                     	;# 
   429  009A                     	;# 
   430  009B                     	;# 
   431  009C                     	;# 
   432  009D                     	;# 
   433  009E                     	;# 
   434  009F                     	;# 
   435  0105                     	;# 
   436  0107                     	;# 
   437  0108                     	;# 
   438  0109                     	;# 
   439  010C                     	;# 
   440  010C                     	;# 
   441  010D                     	;# 
   442  010E                     	;# 
   443  010F                     	;# 
   444  0185                     	;# 
   445  0187                     	;# 
   446  0188                     	;# 
   447  0189                     	;# 
   448  018C                     	;# 
   449  018D                     	;# 
   450  001A                     _RCREG	set	26
   451  000C                     _PIR1bits	set	12
   452  0019                     _TXREG	set	25
   453  0018                     _RCSTAbits	set	24
   454  0013                     _SSPBUF	set	19
   455  0014                     _SSPCON	set	20
   456  0005                     _PORTA	set	5
   457  0005                     _PORTAbits	set	5
   458  0063                     _SSPIF	set	99
   459  005E                     _PEIE	set	94
   460  005F                     _GIE	set	95
   461  0098                     _TXSTAbits	set	152
   462  0099                     _SPBRG	set	153
   463  0091                     _SSPCON2bits	set	145
   464  0087                     _TRISCbits	set	135
   465  0094                     _SSPSTAT	set	148
   466  0093                     _SSPADD	set	147
   467  0091                     _SSPCON2	set	145
   468  0085                     _TRISA	set	133
   469  0488                     _SEN	set	1160
   470  0463                     _SSPIE	set	1123
   471  043C                     _TRISC4	set	1084
   472  043B                     _TRISC3	set	1083
   473  0189                     _ANSELH	set	393
   474  0188                     _ANSEL	set	392
   475                           
   476                           	psect	strings
   477  0272                     __pstrings:
   478  0272                     stringtab:
   479  0272                     __stringtab:
   480  0272                     stringcode:	
   481                           ;	String table - string pointers are 1 byte each
   482                           
   483  0272                     stringdir:
   484  0272  3002               	movlw	high stringdir
   485  0273  008A               	movwf	10
   486  0274  0804               	movf	4,w
   487  0275  0A84               	incf	4,f
   488  0276  0782               	addwf	2,f
   489  0277                     __stringbase:
   490  0277  3400               	retlw	0
   491  0278                     __end_of__stringtab:
   492  0278                     STR_1:
   493  0278  3468               	retlw	104	;'h'
   494  0279  346F               	retlw	111	;'o'
   495  027A  346C               	retlw	108	;'l'
   496  027B  3461               	retlw	97	;'a'
   497  027C  3400               	retlw	0
   498                           
   499                           	psect	cinit
   500  000F                     start_initialization:	
   501                           ; #config settings
   502                           
   503  000F                     __initialization:
   504                           
   505                           ; Clear objects allocated to COMMON
   506  000F  01F8               	clrf	__pbssCOMMON& (0+127)
   507  0010  01F9               	clrf	(__pbssCOMMON+1)& (0+127)
   508  0011  01FA               	clrf	(__pbssCOMMON+2)& (0+127)
   509                           
   510                           ; Clear objects allocated to BANK0
   511  0012  1283               	bcf	3,5	;RP0=0, select bank0
   512  0013  1303               	bcf	3,6	;RP1=0, select bank0
   513  0014  01B3               	clrf	__pbssBANK0& (0+127)
   514  0015  01B4               	clrf	(__pbssBANK0+1)& (0+127)
   515  0016  01B5               	clrf	(__pbssBANK0+2)& (0+127)
   516  0017  01B6               	clrf	(__pbssBANK0+3)& (0+127)
   517  0018  01B7               	clrf	(__pbssBANK0+4)& (0+127)
   518  0019  01B8               	clrf	(__pbssBANK0+5)& (0+127)
   519  001A  01B9               	clrf	(__pbssBANK0+6)& (0+127)
   520  001B  01BA               	clrf	(__pbssBANK0+7)& (0+127)
   521  001C  01BB               	clrf	(__pbssBANK0+8)& (0+127)
   522  001D  01BC               	clrf	(__pbssBANK0+9)& (0+127)
   523  001E  01BD               	clrf	(__pbssBANK0+10)& (0+127)
   524  001F  01BE               	clrf	(__pbssBANK0+11)& (0+127)
   525  0020  01BF               	clrf	(__pbssBANK0+12)& (0+127)
   526  0021  01C0               	clrf	(__pbssBANK0+13)& (0+127)
   527  0022                     end_of_initialization:	
   528                           ;End of C runtime variable initialization code
   529                           
   530  0022                     __end_of__initialization:
   531  0022  0183               	clrf	3
   532  0023  120A  118A  2826   	ljmp	_main	;jump to C main() function
   533                           
   534                           	psect	bssCOMMON
   535  0078                     __pbssCOMMON:
   536  0078                     _Ax:
   537  0078                     	ds	2
   538  007A                     _bandera:
   539  007A                     	ds	1
   540                           
   541                           	psect	bssBANK0
   542  0033                     __pbssBANK0:
   543  0033                     _Tenvio:
   544  0033                     	ds	2
   545  0035                     _Gzenvio:
   546  0035                     	ds	2
   547  0037                     _Gyenvio:
   548  0037                     	ds	2
   549  0039                     _Gxenvio:
   550  0039                     	ds	2
   551  003B                     _Azenvio:
   552  003B                     	ds	2
   553  003D                     _Ayenvio:
   554  003D                     	ds	2
   555  003F                     _Axenvio:
   556  003F                     	ds	2
   557                           
   558                           	psect	cstackCOMMON
   559  0070                     __pcstackCOMMON:
   560  0070                     ?_Setup:
   561  0070                     ?_I2C_Start:	
   562                           ; 1 bytes @ 0x0
   563                           
   564  0070                     ?_I2C_Master_Stop:	
   565                           ; 1 bytes @ 0x0
   566                           
   567  0070                     ?_UARTSendString:	
   568                           ; 1 bytes @ 0x0
   569                           
   570  0070                     ?_ISR:	
   571                           ; 1 bytes @ 0x0
   572                           
   573  0070                     ??_ISR:	
   574                           ; 1 bytes @ 0x0
   575                           
   576  0070                     ?_main:	
   577                           ; 1 bytes @ 0x0
   578                           
   579  0070                     ?_I2C_Master_Wait:	
   580                           ; 1 bytes @ 0x0
   581                           
   582  0070                     ?_UARTSendChar:	
   583                           ; 1 bytes @ 0x0
   584                           
   585                           
   586                           ; 1 bytes @ 0x0
   587  0070                     	ds	2
   588  0072                     ?_I2C_Master_Write:
   589  0072                     ??_I2C_Master_Stop:	
   590                           ; 1 bytes @ 0x2
   591                           
   592  0072                     ??_I2C_Master_Wait:	
   593                           ; 1 bytes @ 0x2
   594                           
   595  0072                     ??_UARTSendChar:	
   596                           ; 1 bytes @ 0x2
   597                           
   598  0072                     ??___lldiv:	
   599                           ; 1 bytes @ 0x2
   600                           
   601  0072                     UARTSendChar@c:	
   602                           ; 1 bytes @ 0x2
   603                           
   604  0072                     I2C_Master_Write@d:	
   605                           ; 1 bytes @ 0x2
   606                           
   607                           
   608                           ; 2 bytes @ 0x2
   609  0072                     	ds	1
   610  0073                     ??_UARTSendString:
   611  0073                     UARTSendString@i:	
   612                           ; 1 bytes @ 0x3
   613                           
   614  0073                     ___lldiv@quotient:	
   615                           ; 2 bytes @ 0x3
   616                           
   617                           
   618                           ; 4 bytes @ 0x3
   619  0073                     	ds	1
   620  0074                     ??_I2C_Start:
   621  0074                     ??_I2C_Master_Write:	
   622                           ; 1 bytes @ 0x4
   623                           
   624                           
   625                           ; 1 bytes @ 0x4
   626  0074                     	ds	1
   627  0075                     UARTSendString@str:
   628                           
   629                           ; 1 bytes @ 0x5
   630  0075                     	ds	1
   631  0076                     I2C_Start@add:
   632                           
   633                           ; 1 bytes @ 0x6
   634  0076                     	ds	1
   635  0077                     ___lldiv@counter:
   636                           
   637                           ; 1 bytes @ 0x7
   638  0077                     	ds	1
   639  0078                     ??_Setup:
   640                           
   641                           	psect	cstackBANK0
   642  0020                     __pcstackBANK0:	
   643                           ; 1 bytes @ 0x8
   644                           
   645  0020                     ?___lldiv:
   646  0020                     ___lldiv@divisor:	
   647                           ; 4 bytes @ 0x0
   648                           
   649                           
   650                           ; 4 bytes @ 0x0
   651  0020                     	ds	4
   652  0024                     ___lldiv@dividend:
   653                           
   654                           ; 4 bytes @ 0x4
   655  0024                     	ds	4
   656  0028                     ?_I2C_Master_Init:
   657  0028                     ?_UARTInit:	
   658                           ; 1 bytes @ 0x8
   659                           
   660  0028                     I2C_Master_Init@c:	
   661                           ; 1 bytes @ 0x8
   662                           
   663  0028                     UARTInit@baud_rate:	
   664                           ; 4 bytes @ 0x8
   665                           
   666                           
   667                           ; 4 bytes @ 0x8
   668  0028                     	ds	4
   669  002C                     ??_I2C_Master_Init:
   670  002C                     UARTInit@BRGH:	
   671                           ; 1 bytes @ 0xC
   672                           
   673                           
   674                           ; 1 bytes @ 0xC
   675  002C                     	ds	1
   676  002D                     ??_UARTInit:
   677                           
   678                           ; 1 bytes @ 0xD
   679  002D                     	ds	4
   680  0031                     ??_main:
   681                           
   682                           ; 1 bytes @ 0x11
   683  0031                     	ds	2
   684                           
   685                           	psect	maintext
   686  0026                     __pmaintext:	
   687 ;;
   688 ;;Main: autosize = 0, tempsize = 2, incstack = 0, save=0
   689 ;;
   690 ;; *************** function _main *****************
   691 ;; Defined at:
   692 ;;		line 53 in file "main.c"
   693 ;; Parameters:    Size  Location     Type
   694 ;;		None
   695 ;; Auto vars:     Size  Location     Type
   696 ;;		None
   697 ;; Return value:  Size  Location     Type
   698 ;;                  1    wreg      void 
   699 ;; Registers used:
   700 ;;		wreg, fsr0l, fsr0h, status,2, status,0, pclath, cstack
   701 ;; Tracked objects:
   702 ;;		On entry : B00/0
   703 ;;		On exit  : 0/0
   704 ;;		Unchanged: 0/0
   705 ;; Data sizes:     COMMON   BANK0   BANK1   BANK3   BANK2
   706 ;;      Params:         0       0       0       0       0
   707 ;;      Locals:         0       0       0       0       0
   708 ;;      Temps:          0       2       0       0       0
   709 ;;      Totals:         0       2       0       0       0
   710 ;;Total ram usage:        2 bytes
   711 ;; Hardware stack levels required when called:    4
   712 ;; This function calls:
   713 ;;		_I2C_Master_Stop
   714 ;;		_I2C_Master_Write
   715 ;;		_I2C_Start
   716 ;;		_Setup
   717 ;;		_UARTSendString
   718 ;; This function is called by:
   719 ;;		Startup code after reset
   720 ;; This function uses a non-reentrant model
   721 ;;
   722                           
   723                           
   724                           ;psect for function _main
   725  0026                     _main:
   726  0026                     l1139:	
   727                           ;incstack = 0
   728                           ; Regs used in _main: [wreg-fsr0h+status,2+status,0+pclath+cstack]
   729                           
   730                           
   731                           ;main.c: 54:     I2C_Start(0xD0);
   732  0026  120A  118A  21F3  120A  118A  	fcall	_Setup
   733                           
   734                           ;main.c: 61: 
   735  002B  30D0               	movlw	208
   736  002C  120A  118A  2243  120A  118A  	fcall	_I2C_Start
   737                           
   738                           ;main.c: 62:         PORTAbits.RA0 = ~PORTAbits.RA0;
   739  0031  3019               	movlw	25
   740  0032  00F2               	movwf	I2C_Master_Write@d
   741  0033  3000               	movlw	0
   742  0034  00F3               	movwf	I2C_Master_Write@d+1
   743  0035  120A  118A  227D  120A  118A  	fcall	_I2C_Master_Write
   744                           
   745                           ;main.c: 63: 
   746  003A  3007               	movlw	7
   747  003B  00F2               	movwf	I2C_Master_Write@d
   748  003C  3000               	movlw	0
   749  003D  00F3               	movwf	I2C_Master_Write@d+1
   750  003E  120A  118A  227D  120A  118A  	fcall	_I2C_Master_Write
   751                           
   752                           ;main.c: 64:         _delay((unsigned long)((50)*(4000000/4000.0)));
   753  0043  120A  118A  2287  120A  118A  	fcall	_I2C_Master_Stop
   754  0048  30D0               	movlw	208
   755  0049  120A  118A  2243  120A  118A  	fcall	_I2C_Start
   756  004E  306B               	movlw	107
   757  004F  00F2               	movwf	I2C_Master_Write@d
   758  0050  3000               	movlw	0
   759  0051  00F3               	movwf	I2C_Master_Write@d+1
   760  0052  120A  118A  227D  120A  118A  	fcall	_I2C_Master_Write
   761  0057  3001               	movlw	1
   762  0058  00F2               	movwf	I2C_Master_Write@d
   763  0059  3000               	movlw	0
   764  005A  00F3               	movwf	I2C_Master_Write@d+1
   765  005B  120A  118A  227D  120A  118A  	fcall	_I2C_Master_Write
   766  0060  120A  118A  2287  120A  118A  	fcall	_I2C_Master_Stop
   767  0065  30D0               	movlw	208
   768  0066  120A  118A  2243  120A  118A  	fcall	_I2C_Start
   769  006B  301A               	movlw	26
   770  006C  00F2               	movwf	I2C_Master_Write@d
   771  006D  3000               	movlw	0
   772  006E  00F3               	movwf	I2C_Master_Write@d+1
   773  006F  120A  118A  227D  120A  118A  	fcall	_I2C_Master_Write
   774  0074  3000               	movlw	0
   775  0075  00F2               	movwf	I2C_Master_Write@d
   776  0076  00F3               	movwf	I2C_Master_Write@d+1
   777  0077  120A  118A  227D  120A  118A  	fcall	_I2C_Master_Write
   778  007C  120A  118A  2287  120A  118A  	fcall	_I2C_Master_Stop
   779  0081  30D0               	movlw	208
   780  0082  120A  118A  2243  120A  118A  	fcall	_I2C_Start
   781  0087  301C               	movlw	28
   782  0088  00F2               	movwf	I2C_Master_Write@d
   783  0089  3000               	movlw	0
   784  008A  00F3               	movwf	I2C_Master_Write@d+1
   785  008B  120A  118A  227D  120A  118A  	fcall	_I2C_Master_Write
   786  0090  3000               	movlw	0
   787  0091  00F2               	movwf	I2C_Master_Write@d
   788  0092  00F3               	movwf	I2C_Master_Write@d+1
   789  0093  120A  118A  227D  120A  118A  	fcall	_I2C_Master_Write
   790  0098  120A  118A  2287  120A  118A  	fcall	_I2C_Master_Stop
   791  009D  30D0               	movlw	208
   792  009E  120A  118A  2243  120A  118A  	fcall	_I2C_Start
   793  00A3  301B               	movlw	27
   794  00A4  00F2               	movwf	I2C_Master_Write@d
   795  00A5  3000               	movlw	0
   796  00A6  00F3               	movwf	I2C_Master_Write@d+1
   797  00A7  120A  118A  227D  120A  118A  	fcall	_I2C_Master_Write
   798  00AC  3018               	movlw	24
   799  00AD  00F2               	movwf	I2C_Master_Write@d
   800  00AE  3000               	movlw	0
   801  00AF  00F3               	movwf	I2C_Master_Write@d+1
   802  00B0  120A  118A  227D  120A  118A  	fcall	_I2C_Master_Write
   803  00B5  120A  118A  2287  120A  118A  	fcall	_I2C_Master_Stop
   804  00BA                     l1141:
   805  00BA  1003               	clrc
   806  00BB  1283               	bcf	3,5	;RP0=0, select bank0
   807  00BC  1303               	bcf	3,6	;RP1=0, select bank0
   808  00BD  1C05               	btfss	5,0	;volatile
   809  00BE  1403               	setc
   810  00BF  1803               	btfsc	3,0
   811  00C0  28C2               	goto	u491
   812  00C1  28C6               	goto	u490
   813  00C2                     u491:
   814  00C2  1283               	bcf	3,5	;RP0=0, select bank0
   815  00C3  1303               	bcf	3,6	;RP1=0, select bank0
   816  00C4  1405               	bsf	5,0	;volatile
   817  00C5  28C9               	goto	u504
   818  00C6                     u490:
   819  00C6  1283               	bcf	3,5	;RP0=0, select bank0
   820  00C7  1303               	bcf	3,6	;RP1=0, select bank0
   821  00C8  1005               	bcf	5,0	;volatile
   822  00C9                     u504:
   823  00C9                     l1143:
   824  00C9  3041               	movlw	65
   825  00CA  1283               	bcf	3,5	;RP0=0, select bank0
   826  00CB  1303               	bcf	3,6	;RP1=0, select bank0
   827  00CC  00B2               	movwf	??_main+1
   828  00CD  30ED               	movlw	237
   829  00CE  00B1               	movwf	??_main
   830  00CF                     u517:
   831  00CF  0BB1               	decfsz	??_main,f
   832  00D0  28CF               	goto	u517
   833  00D1  0BB2               	decfsz	??_main+1,f
   834  00D2  28CF               	goto	u517
   835  00D3  28D4               	nop2
   836  00D4                     l1145:
   837                           
   838                           ;main.c: 118:        UARTSendString("hola");
   839  00D4  3001               	movlw	(low ((STR_1-__stringbase)| (0+32768)))& (0+255)
   840  00D5  120A  118A  221E  120A  118A  	fcall	_UARTSendString
   841  00DA  28BA               	goto	l1141
   842  00DB  120A  118A  280C   	ljmp	start
   843  00DE                     __end_of_main:
   844                           
   845                           	psect	text1
   846  021E                     __ptext1:	
   847 ;; *************** function _UARTSendString *****************
   848 ;; Defined at:
   849 ;;		line 50 in file "UART.c"
   850 ;; Parameters:    Size  Location     Type
   851 ;;  str             1    wreg     PTR const unsigned char 
   852 ;;		 -> STR_1(5), 
   853 ;; Auto vars:     Size  Location     Type
   854 ;;  str             1    5[COMMON] PTR const unsigned char 
   855 ;;		 -> STR_1(5), 
   856 ;;  i               2    3[COMMON] int 
   857 ;; Return value:  Size  Location     Type
   858 ;;                  1    wreg      void 
   859 ;; Registers used:
   860 ;;		wreg, fsr0l, fsr0h, status,2, status,0, pclath, cstack
   861 ;; Tracked objects:
   862 ;;		On entry : 0/0
   863 ;;		On exit  : 0/0
   864 ;;		Unchanged: 0/0
   865 ;; Data sizes:     COMMON   BANK0   BANK1   BANK3   BANK2
   866 ;;      Params:         0       0       0       0       0
   867 ;;      Locals:         3       0       0       0       0
   868 ;;      Temps:          0       0       0       0       0
   869 ;;      Totals:         3       0       0       0       0
   870 ;;Total ram usage:        3 bytes
   871 ;; Hardware stack levels used:    1
   872 ;; Hardware stack levels required when called:    2
   873 ;; This function calls:
   874 ;;		_UARTSendChar
   875 ;; This function is called by:
   876 ;;		_main
   877 ;; This function uses a non-reentrant model
   878 ;;
   879                           
   880                           
   881                           ;psect for function _UARTSendString
   882  021E                     _UARTSendString:
   883                           
   884                           ;incstack = 0
   885                           ; Regs used in _UARTSendString: [wreg-fsr0h+status,2+status,0+pclath+cstack]
   886                           ;UARTSendString@str stored from wreg
   887  021E  00F5               	movwf	UARTSendString@str
   888  021F                     l1045:
   889                           
   890                           ;UART.c: 51:     int i = 0;
   891  021F  01F3               	clrf	UARTSendString@i
   892  0220  01F4               	clrf	UARTSendString@i+1
   893                           
   894                           ;UART.c: 55:         while(str[i] != '\0'){
   895  0221  2A35               	goto	l1051
   896  0222                     l1047:
   897                           
   898                           ;UART.c: 56:         UARTSendChar(str[i++]);
   899  0222  0873               	movf	UARTSendString@i,w
   900  0223  0775               	addwf	UARTSendString@str,w
   901  0224  0084               	movwf	4
   902  0225  120A  118A  2272  120A  118A  	fcall	stringdir
   903  022A  120A  118A  2266  120A  118A  	fcall	_UARTSendChar
   904  022F                     l1049:
   905  022F  3001               	movlw	1
   906  0230  07F3               	addwf	UARTSendString@i,f
   907  0231  1803               	skipnc
   908  0232  0AF4               	incf	UARTSendString@i+1,f
   909  0233  3000               	movlw	0
   910  0234  07F4               	addwf	UARTSendString@i+1,f
   911  0235                     l1051:
   912                           
   913                           ;UART.c: 55:         while(str[i] != '\0'){
   914  0235  0873               	movf	UARTSendString@i,w
   915  0236  0775               	addwf	UARTSendString@str,w
   916  0237  0084               	movwf	4
   917  0238  120A  118A  2272  120A  118A  	fcall	stringdir
   918  023D  3A00               	xorlw	0
   919  023E  1D03               	skipz
   920  023F  2A41               	goto	u351
   921  0240  2A42               	goto	u350
   922  0241                     u351:
   923  0241  2A22               	goto	l1047
   924  0242                     u350:
   925  0242                     l154:
   926  0242  0008               	return
   927  0243                     __end_of_UARTSendString:
   928                           
   929                           	psect	text2
   930  0266                     __ptext2:	
   931 ;; *************** function _UARTSendChar *****************
   932 ;; Defined at:
   933 ;;		line 40 in file "UART.c"
   934 ;; Parameters:    Size  Location     Type
   935 ;;  c               1    wreg     const unsigned char 
   936 ;; Auto vars:     Size  Location     Type
   937 ;;  c               1    2[COMMON] const unsigned char 
   938 ;; Return value:  Size  Location     Type
   939 ;;                  1    wreg      void 
   940 ;; Registers used:
   941 ;;		wreg
   942 ;; Tracked objects:
   943 ;;		On entry : 0/0
   944 ;;		On exit  : 0/0
   945 ;;		Unchanged: 0/0
   946 ;; Data sizes:     COMMON   BANK0   BANK1   BANK3   BANK2
   947 ;;      Params:         0       0       0       0       0
   948 ;;      Locals:         1       0       0       0       0
   949 ;;      Temps:          0       0       0       0       0
   950 ;;      Totals:         1       0       0       0       0
   951 ;;Total ram usage:        1 bytes
   952 ;; Hardware stack levels used:    1
   953 ;; Hardware stack levels required when called:    1
   954 ;; This function calls:
   955 ;;		Nothing
   956 ;; This function is called by:
   957 ;;		_UARTSendString
   958 ;; This function uses a non-reentrant model
   959 ;;
   960                           
   961                           
   962                           ;psect for function _UARTSendChar
   963  0266                     _UARTSendChar:
   964                           
   965                           ;incstack = 0
   966                           ; Regs used in _UARTSendChar: [wreg]
   967                           ;UARTSendChar@c stored from wreg
   968  0266  00F2               	movwf	UARTSendChar@c
   969  0267                     l841:
   970  0267                     l145:	
   971                           ;UART.c: 41:     while (TXSTAbits.TRMT == 0);
   972                           
   973  0267  1683               	bsf	3,5	;RP0=1, select bank1
   974  0268  1303               	bcf	3,6	;RP1=0, select bank1
   975  0269  1C98               	btfss	24,1	;volatile
   976  026A  2A6C               	goto	u141
   977  026B  2A6D               	goto	u140
   978  026C                     u141:
   979  026C  2A67               	goto	l145
   980  026D                     u140:
   981  026D                     l843:
   982                           
   983                           ;UART.c: 42:     TXREG = c;
   984  026D  0872               	movf	UARTSendChar@c,w
   985  026E  1283               	bcf	3,5	;RP0=0, select bank0
   986  026F  1303               	bcf	3,6	;RP1=0, select bank0
   987  0270  0099               	movwf	25	;volatile
   988  0271                     l148:
   989  0271  0008               	return
   990  0272                     __end_of_UARTSendChar:
   991                           
   992                           	psect	text3
   993  01F3                     __ptext3:	
   994 ;; *************** function _Setup *****************
   995 ;; Defined at:
   996 ;;		line 132 in file "main.c"
   997 ;; Parameters:    Size  Location     Type
   998 ;;		None
   999 ;; Auto vars:     Size  Location     Type
  1000 ;;		None
  1001 ;; Return value:  Size  Location     Type
  1002 ;;                  1    wreg      void 
  1003 ;; Registers used:
  1004 ;;		wreg, status,2, status,0, pclath, cstack
  1005 ;; Tracked objects:
  1006 ;;		On entry : 0/0
  1007 ;;		On exit  : 0/0
  1008 ;;		Unchanged: 0/0
  1009 ;; Data sizes:     COMMON   BANK0   BANK1   BANK3   BANK2
  1010 ;;      Params:         0       0       0       0       0
  1011 ;;      Locals:         0       0       0       0       0
  1012 ;;      Temps:          0       0       0       0       0
  1013 ;;      Totals:         0       0       0       0       0
  1014 ;;Total ram usage:        0 bytes
  1015 ;; Hardware stack levels used:    1
  1016 ;; Hardware stack levels required when called:    3
  1017 ;; This function calls:
  1018 ;;		_I2C_Master_Init
  1019 ;;		_UARTInit
  1020 ;; This function is called by:
  1021 ;;		_main
  1022 ;; This function uses a non-reentrant model
  1023 ;;
  1024                           
  1025                           
  1026                           ;psect for function _Setup
  1027  01F3                     _Setup:
  1028  01F3                     l1127:	
  1029                           ;incstack = 0
  1030                           ; Regs used in _Setup: [wreg+status,2+status,0+pclath+cstack]
  1031                           
  1032                           
  1033                           ;main.c: 134:     I2C_Master_Init(100000);
  1034  01F3  3000               	movlw	0
  1035  01F4  1283               	bcf	3,5	;RP0=0, select bank0
  1036  01F5  1303               	bcf	3,6	;RP1=0, select bank0
  1037  01F6  00AB               	movwf	I2C_Master_Init@c+3
  1038  01F7  3001               	movlw	1
  1039  01F8  00AA               	movwf	I2C_Master_Init@c+2
  1040  01F9  3086               	movlw	134
  1041  01FA  00A9               	movwf	I2C_Master_Init@c+1
  1042  01FB  30A0               	movlw	160
  1043  01FC  00A8               	movwf	I2C_Master_Init@c
  1044  01FD  120A  118A  21B9  120A  118A  	fcall	_I2C_Master_Init
  1045                           
  1046                           ;main.c: 135:     UARTInit(9600, 1);
  1047  0202  3000               	movlw	0
  1048  0203  1283               	bcf	3,5	;RP0=0, select bank0
  1049  0204  1303               	bcf	3,6	;RP1=0, select bank0
  1050  0205  00AB               	movwf	UARTInit@baud_rate+3
  1051  0206  3000               	movlw	0
  1052  0207  00AA               	movwf	UARTInit@baud_rate+2
  1053  0208  3025               	movlw	37
  1054  0209  00A9               	movwf	UARTInit@baud_rate+1
  1055  020A  3080               	movlw	128
  1056  020B  00A8               	movwf	UARTInit@baud_rate
  1057  020C  01AC               	clrf	UARTInit@BRGH
  1058  020D  0AAC               	incf	UARTInit@BRGH,f
  1059  020E  120A  118A  20DE  120A  118A  	fcall	_UARTInit
  1060  0213                     l1129:
  1061                           
  1062                           ;main.c: 136:     TRISA = 0;
  1063  0213  1683               	bsf	3,5	;RP0=1, select bank1
  1064  0214  1303               	bcf	3,6	;RP1=0, select bank1
  1065  0215  0185               	clrf	5	;volatile
  1066  0216                     l1131:
  1067                           
  1068                           ;main.c: 137:     PORTA = 0;
  1069  0216  1283               	bcf	3,5	;RP0=0, select bank0
  1070  0217  1303               	bcf	3,6	;RP1=0, select bank0
  1071  0218  0185               	clrf	5	;volatile
  1072  0219                     l1133:
  1073                           
  1074                           ;main.c: 138:     ANSEL = 0;
  1075  0219  1683               	bsf	3,5	;RP0=1, select bank3
  1076  021A  1703               	bsf	3,6	;RP1=1, select bank3
  1077  021B  0188               	clrf	8	;volatile
  1078  021C                     l1135:
  1079                           
  1080                           ;main.c: 139:     ANSELH = 0;
  1081  021C  0189               	clrf	9	;volatile
  1082  021D                     l60:
  1083  021D  0008               	return
  1084  021E                     __end_of_Setup:
  1085                           
  1086                           	psect	text4
  1087  00DE                     __ptext4:	
  1088 ;; *************** function _UARTInit *****************
  1089 ;; Defined at:
  1090 ;;		line 9 in file "UART.c"
  1091 ;; Parameters:    Size  Location     Type
  1092 ;;  baud_rate       4    8[BANK0 ] const unsigned long 
  1093 ;;  BRGH            1   12[BANK0 ] const unsigned char 
  1094 ;; Auto vars:     Size  Location     Type
  1095 ;;		None
  1096 ;; Return value:  Size  Location     Type
  1097 ;;                  1    wreg      void 
  1098 ;; Registers used:
  1099 ;;		wreg, status,2, status,0, pclath, cstack
  1100 ;; Tracked objects:
  1101 ;;		On entry : 0/0
  1102 ;;		On exit  : 0/0
  1103 ;;		Unchanged: 0/0
  1104 ;; Data sizes:     COMMON   BANK0   BANK1   BANK3   BANK2
  1105 ;;      Params:         0       5       0       0       0
  1106 ;;      Locals:         0       0       0       0       0
  1107 ;;      Temps:          0       4       0       0       0
  1108 ;;      Totals:         0       9       0       0       0
  1109 ;;Total ram usage:        9 bytes
  1110 ;; Hardware stack levels used:    1
  1111 ;; Hardware stack levels required when called:    2
  1112 ;; This function calls:
  1113 ;;		___lldiv
  1114 ;; This function is called by:
  1115 ;;		_Setup
  1116 ;; This function uses a non-reentrant model
  1117 ;;
  1118                           
  1119                           
  1120                           ;psect for function _UARTInit
  1121  00DE                     _UARTInit:
  1122  00DE                     l1097:	
  1123                           ;incstack = 0
  1124                           ; Regs used in _UARTInit: [wreg+status,2+status,0+pclath+cstack]
  1125                           
  1126                           
  1127                           ;UART.c: 11:     if (BRGH == 0) {
  1128  00DE  1283               	bcf	3,5	;RP0=0, select bank0
  1129  00DF  1303               	bcf	3,6	;RP1=0, select bank0
  1130  00E0  082C               	movf	UARTInit@BRGH,w
  1131  00E1  1D03               	btfss	3,2
  1132  00E2  28E4               	goto	u461
  1133  00E3  28E5               	goto	u460
  1134  00E4                     u461:
  1135  00E4  2914               	goto	l1103
  1136  00E5                     u460:
  1137  00E5                     l1099:
  1138                           
  1139                           ;UART.c: 12:         SPBRG = 4000000/(64*baud_rate) - 1;
  1140  00E5  0828               	movf	UARTInit@baud_rate,w
  1141  00E6  00AD               	movwf	??_UARTInit
  1142  00E7  0829               	movf	UARTInit@baud_rate+1,w
  1143  00E8  00AE               	movwf	??_UARTInit+1
  1144  00E9  082A               	movf	UARTInit@baud_rate+2,w
  1145  00EA  00AF               	movwf	??_UARTInit+2
  1146  00EB  082B               	movf	UARTInit@baud_rate+3,w
  1147  00EC  00B0               	movwf	??_UARTInit+3
  1148  00ED  3006               	movlw	6
  1149  00EE                     u475:
  1150  00EE  1003               	clrc
  1151  00EF  0DAD               	rlf	??_UARTInit,f
  1152  00F0  0DAE               	rlf	??_UARTInit+1,f
  1153  00F1  0DAF               	rlf	??_UARTInit+2,f
  1154  00F2  0DB0               	rlf	??_UARTInit+3,f
  1155  00F3                     u470:
  1156  00F3  3EFF               	addlw	-1
  1157  00F4  1D03               	skipz
  1158  00F5  28EE               	goto	u475
  1159  00F6  0830               	movf	??_UARTInit+3,w
  1160  00F7  00A3               	movwf	___lldiv@divisor+3
  1161  00F8  082F               	movf	??_UARTInit+2,w
  1162  00F9  00A2               	movwf	___lldiv@divisor+2
  1163  00FA  082E               	movf	??_UARTInit+1,w
  1164  00FB  00A1               	movwf	___lldiv@divisor+1
  1165  00FC  082D               	movf	??_UARTInit,w
  1166  00FD  00A0               	movwf	___lldiv@divisor
  1167  00FE  3000               	movlw	0
  1168  00FF  00A7               	movwf	___lldiv@dividend+3
  1169  0100  303D               	movlw	61
  1170  0101  00A6               	movwf	___lldiv@dividend+2
  1171  0102  3009               	movlw	9
  1172  0103  00A5               	movwf	___lldiv@dividend+1
  1173  0104  3000               	movlw	0
  1174  0105  00A4               	movwf	___lldiv@dividend
  1175  0106  120A  118A  2151  120A  118A  	fcall	___lldiv
  1176  010B  1283               	bcf	3,5	;RP0=0, select bank0
  1177  010C  1303               	bcf	3,6	;RP1=0, select bank0
  1178  010D  0820               	movf	?___lldiv,w
  1179  010E  3EFF               	addlw	255
  1180  010F  1683               	bsf	3,5	;RP0=1, select bank1
  1181  0110  1303               	bcf	3,6	;RP1=0, select bank1
  1182  0111  0099               	movwf	25	;volatile
  1183  0112                     l1101:
  1184                           
  1185                           ;UART.c: 13:         TXSTAbits.BRGH = 0;
  1186  0112  1118               	bcf	24,2	;volatile
  1187                           
  1188                           ;UART.c: 14:     } else {
  1189  0113  2942               	goto	l1107
  1190  0114                     l1103:
  1191                           
  1192                           ;UART.c: 15:         SPBRG = 4000000/(16*baud_rate) - 1;
  1193  0114  0828               	movf	UARTInit@baud_rate,w
  1194  0115  00AD               	movwf	??_UARTInit
  1195  0116  0829               	movf	UARTInit@baud_rate+1,w
  1196  0117  00AE               	movwf	??_UARTInit+1
  1197  0118  082A               	movf	UARTInit@baud_rate+2,w
  1198  0119  00AF               	movwf	??_UARTInit+2
  1199  011A  082B               	movf	UARTInit@baud_rate+3,w
  1200  011B  00B0               	movwf	??_UARTInit+3
  1201  011C  3004               	movlw	4
  1202  011D                     u485:
  1203  011D  1003               	clrc
  1204  011E  0DAD               	rlf	??_UARTInit,f
  1205  011F  0DAE               	rlf	??_UARTInit+1,f
  1206  0120  0DAF               	rlf	??_UARTInit+2,f
  1207  0121  0DB0               	rlf	??_UARTInit+3,f
  1208  0122                     u480:
  1209  0122  3EFF               	addlw	-1
  1210  0123  1D03               	skipz
  1211  0124  291D               	goto	u485
  1212  0125  0830               	movf	??_UARTInit+3,w
  1213  0126  00A3               	movwf	___lldiv@divisor+3
  1214  0127  082F               	movf	??_UARTInit+2,w
  1215  0128  00A2               	movwf	___lldiv@divisor+2
  1216  0129  082E               	movf	??_UARTInit+1,w
  1217  012A  00A1               	movwf	___lldiv@divisor+1
  1218  012B  082D               	movf	??_UARTInit,w
  1219  012C  00A0               	movwf	___lldiv@divisor
  1220  012D  3000               	movlw	0
  1221  012E  00A7               	movwf	___lldiv@dividend+3
  1222  012F  303D               	movlw	61
  1223  0130  00A6               	movwf	___lldiv@dividend+2
  1224  0131  3009               	movlw	9
  1225  0132  00A5               	movwf	___lldiv@dividend+1
  1226  0133  3000               	movlw	0
  1227  0134  00A4               	movwf	___lldiv@dividend
  1228  0135  120A  118A  2151  120A  118A  	fcall	___lldiv
  1229  013A  1283               	bcf	3,5	;RP0=0, select bank0
  1230  013B  1303               	bcf	3,6	;RP1=0, select bank0
  1231  013C  0820               	movf	?___lldiv,w
  1232  013D  3EFF               	addlw	255
  1233  013E  1683               	bsf	3,5	;RP0=1, select bank1
  1234  013F  1303               	bcf	3,6	;RP1=0, select bank1
  1235  0140  0099               	movwf	25	;volatile
  1236  0141                     l1105:
  1237                           
  1238                           ;UART.c: 16:         TXSTAbits.BRGH = 1;
  1239  0141  1518               	bsf	24,2	;volatile
  1240  0142                     l1107:
  1241                           
  1242                           ;UART.c: 20:     TXSTAbits.TX9 = 0;
  1243  0142  1318               	bcf	24,6	;volatile
  1244  0143                     l1109:
  1245                           
  1246                           ;UART.c: 21:     TXSTAbits.TXEN = 1;
  1247  0143  1698               	bsf	24,5	;volatile
  1248  0144                     l1111:
  1249                           
  1250                           ;UART.c: 22:     TXSTAbits.SYNC = 0;
  1251  0144  1218               	bcf	24,4	;volatile
  1252  0145                     l1113:
  1253                           
  1254                           ;UART.c: 25:     RCSTAbits.SPEN = 1;
  1255  0145  1283               	bcf	3,5	;RP0=0, select bank0
  1256  0146  1303               	bcf	3,6	;RP1=0, select bank0
  1257  0147  1798               	bsf	24,7	;volatile
  1258  0148                     l1115:
  1259                           
  1260                           ;UART.c: 26:     RCSTAbits.RX9 = 0;
  1261  0148  1318               	bcf	24,6	;volatile
  1262  0149                     l1117:
  1263                           
  1264                           ;UART.c: 27:     RCSTAbits.CREN = 1;
  1265  0149  1618               	bsf	24,4	;volatile
  1266  014A                     l1119:
  1267                           
  1268                           ;UART.c: 28:     RCSTAbits.FERR = 0;
  1269  014A  1118               	bcf	24,2	;volatile
  1270  014B                     l1121:
  1271                           
  1272                           ;UART.c: 29:     RCSTAbits.OERR = 0;
  1273  014B  1098               	bcf	24,1	;volatile
  1274  014C                     l1123:
  1275                           
  1276                           ;UART.c: 32:     TRISCbits.TRISC7 = 1;
  1277  014C  1683               	bsf	3,5	;RP0=1, select bank1
  1278  014D  1303               	bcf	3,6	;RP1=0, select bank1
  1279  014E  1787               	bsf	7,7	;volatile
  1280  014F                     l1125:
  1281                           
  1282                           ;UART.c: 33:     TRISCbits.TRISC6 = 0;
  1283  014F  1307               	bcf	7,6	;volatile
  1284  0150                     l142:
  1285  0150  0008               	return
  1286  0151                     __end_of_UARTInit:
  1287                           
  1288                           	psect	text5
  1289  01B9                     __ptext5:	
  1290 ;; *************** function _I2C_Master_Init *****************
  1291 ;; Defined at:
  1292 ;;		line 16 in file "I2C.c"
  1293 ;; Parameters:    Size  Location     Type
  1294 ;;  c               4    8[BANK0 ] const unsigned long 
  1295 ;; Auto vars:     Size  Location     Type
  1296 ;;		None
  1297 ;; Return value:  Size  Location     Type
  1298 ;;                  1    wreg      void 
  1299 ;; Registers used:
  1300 ;;		wreg, status,2, status,0, pclath, cstack
  1301 ;; Tracked objects:
  1302 ;;		On entry : 0/0
  1303 ;;		On exit  : 0/0
  1304 ;;		Unchanged: 0/0
  1305 ;; Data sizes:     COMMON   BANK0   BANK1   BANK3   BANK2
  1306 ;;      Params:         0       4       0       0       0
  1307 ;;      Locals:         0       0       0       0       0
  1308 ;;      Temps:          0       4       0       0       0
  1309 ;;      Totals:         0       8       0       0       0
  1310 ;;Total ram usage:        8 bytes
  1311 ;; Hardware stack levels used:    1
  1312 ;; Hardware stack levels required when called:    2
  1313 ;; This function calls:
  1314 ;;		___lldiv
  1315 ;; This function is called by:
  1316 ;;		_Setup
  1317 ;; This function uses a non-reentrant model
  1318 ;;
  1319                           
  1320                           
  1321                           ;psect for function _I2C_Master_Init
  1322  01B9                     _I2C_Master_Init:
  1323  01B9                     l1085:	
  1324                           ;incstack = 0
  1325                           ; Regs used in _I2C_Master_Init: [wreg+status,2+status,0+pclath+cstack]
  1326                           
  1327                           
  1328                           ;I2C.c: 16: void I2C_Master_Init(const unsigned long c);I2C.c: 17: {;I2C.c: 18:     SSPC
      +                          ON = 0b00101000;
  1329  01B9  3028               	movlw	40
  1330  01BA  1283               	bcf	3,5	;RP0=0, select bank0
  1331  01BB  1303               	bcf	3,6	;RP1=0, select bank0
  1332  01BC  0094               	movwf	20	;volatile
  1333  01BD                     l1087:
  1334                           
  1335                           ;I2C.c: 19:     SSPCON2 = 0;
  1336  01BD  1683               	bsf	3,5	;RP0=1, select bank1
  1337  01BE  1303               	bcf	3,6	;RP1=0, select bank1
  1338  01BF  0191               	clrf	17	;volatile
  1339  01C0                     l1089:
  1340                           
  1341                           ;I2C.c: 20:     SSPADD = (4000000/(4*c))-1;
  1342  01C0  1283               	bcf	3,5	;RP0=0, select bank0
  1343  01C1  1303               	bcf	3,6	;RP1=0, select bank0
  1344  01C2  0828               	movf	I2C_Master_Init@c,w
  1345  01C3  00AC               	movwf	??_I2C_Master_Init
  1346  01C4  0829               	movf	I2C_Master_Init@c+1,w
  1347  01C5  00AD               	movwf	??_I2C_Master_Init+1
  1348  01C6  082A               	movf	I2C_Master_Init@c+2,w
  1349  01C7  00AE               	movwf	??_I2C_Master_Init+2
  1350  01C8  082B               	movf	I2C_Master_Init@c+3,w
  1351  01C9  00AF               	movwf	??_I2C_Master_Init+3
  1352  01CA  3002               	movlw	2
  1353  01CB                     u455:
  1354  01CB  1003               	clrc
  1355  01CC  0DAC               	rlf	??_I2C_Master_Init,f
  1356  01CD  0DAD               	rlf	??_I2C_Master_Init+1,f
  1357  01CE  0DAE               	rlf	??_I2C_Master_Init+2,f
  1358  01CF  0DAF               	rlf	??_I2C_Master_Init+3,f
  1359  01D0                     u450:
  1360  01D0  3EFF               	addlw	-1
  1361  01D1  1D03               	skipz
  1362  01D2  29CB               	goto	u455
  1363  01D3  082F               	movf	??_I2C_Master_Init+3,w
  1364  01D4  00A3               	movwf	___lldiv@divisor+3
  1365  01D5  082E               	movf	??_I2C_Master_Init+2,w
  1366  01D6  00A2               	movwf	___lldiv@divisor+2
  1367  01D7  082D               	movf	??_I2C_Master_Init+1,w
  1368  01D8  00A1               	movwf	___lldiv@divisor+1
  1369  01D9  082C               	movf	??_I2C_Master_Init,w
  1370  01DA  00A0               	movwf	___lldiv@divisor
  1371  01DB  3000               	movlw	0
  1372  01DC  00A7               	movwf	___lldiv@dividend+3
  1373  01DD  303D               	movlw	61
  1374  01DE  00A6               	movwf	___lldiv@dividend+2
  1375  01DF  3009               	movlw	9
  1376  01E0  00A5               	movwf	___lldiv@dividend+1
  1377  01E1  3000               	movlw	0
  1378  01E2  00A4               	movwf	___lldiv@dividend
  1379  01E3  120A  118A  2151  120A  118A  	fcall	___lldiv
  1380  01E8  1283               	bcf	3,5	;RP0=0, select bank0
  1381  01E9  1303               	bcf	3,6	;RP1=0, select bank0
  1382  01EA  0820               	movf	?___lldiv,w
  1383  01EB  3EFF               	addlw	255
  1384  01EC  1683               	bsf	3,5	;RP0=1, select bank1
  1385  01ED  1303               	bcf	3,6	;RP1=0, select bank1
  1386  01EE  0093               	movwf	19	;volatile
  1387  01EF                     l1091:
  1388                           
  1389                           ;I2C.c: 21:     SSPSTAT = 0;
  1390  01EF  0194               	clrf	20	;volatile
  1391  01F0                     l1093:
  1392                           
  1393                           ;I2C.c: 22:     TRISCbits.TRISC3 = 1;
  1394  01F0  1587               	bsf	7,3	;volatile
  1395  01F1                     l1095:
  1396                           
  1397                           ;I2C.c: 23:     TRISCbits.TRISC4 = 1;
  1398  01F1  1607               	bsf	7,4	;volatile
  1399  01F2                     l94:
  1400  01F2  0008               	return
  1401  01F3                     __end_of_I2C_Master_Init:
  1402                           
  1403                           	psect	text6
  1404  0151                     __ptext6:	
  1405 ;; *************** function ___lldiv *****************
  1406 ;; Defined at:
  1407 ;;		line 5 in file "C:\Program Files\Microchip\xc8\v2.31\pic\sources\c90\common\__lldiv.c"
  1408 ;; Parameters:    Size  Location     Type
  1409 ;;  divisor         4    0[BANK0 ] unsigned long 
  1410 ;;  dividend        4    4[BANK0 ] unsigned long 
  1411 ;; Auto vars:     Size  Location     Type
  1412 ;;  quotient        4    3[COMMON] unsigned long 
  1413 ;;  counter         1    7[COMMON] unsigned char 
  1414 ;; Return value:  Size  Location     Type
  1415 ;;                  4    0[BANK0 ] unsigned long 
  1416 ;; Registers used:
  1417 ;;		wreg, status,2, status,0
  1418 ;; Tracked objects:
  1419 ;;		On entry : 0/0
  1420 ;;		On exit  : 0/0
  1421 ;;		Unchanged: 0/0
  1422 ;; Data sizes:     COMMON   BANK0   BANK1   BANK3   BANK2
  1423 ;;      Params:         0       8       0       0       0
  1424 ;;      Locals:         5       0       0       0       0
  1425 ;;      Temps:          1       0       0       0       0
  1426 ;;      Totals:         6       8       0       0       0
  1427 ;;Total ram usage:       14 bytes
  1428 ;; Hardware stack levels used:    1
  1429 ;; Hardware stack levels required when called:    1
  1430 ;; This function calls:
  1431 ;;		Nothing
  1432 ;; This function is called by:
  1433 ;;		_I2C_Master_Init
  1434 ;;		_UARTInit
  1435 ;; This function uses a non-reentrant model
  1436 ;;
  1437                           
  1438                           
  1439                           ;psect for function ___lldiv
  1440  0151                     ___lldiv:
  1441  0151                     l1061:	
  1442                           ;incstack = 0
  1443                           ; Regs used in ___lldiv: [wreg+status,2+status,0]
  1444                           
  1445  0151  3000               	movlw	0
  1446  0152  00F6               	movwf	___lldiv@quotient+3
  1447  0153  3000               	movlw	0
  1448  0154  00F5               	movwf	___lldiv@quotient+2
  1449  0155  3000               	movlw	0
  1450  0156  00F4               	movwf	___lldiv@quotient+1
  1451  0157  3000               	movlw	0
  1452  0158  00F3               	movwf	___lldiv@quotient
  1453  0159  1283               	bcf	3,5	;RP0=0, select bank0
  1454  015A  1303               	bcf	3,6	;RP1=0, select bank0
  1455  015B  0823               	movf	___lldiv@divisor+3,w
  1456  015C  0422               	iorwf	___lldiv@divisor+2,w
  1457  015D  0421               	iorwf	___lldiv@divisor+1,w
  1458  015E  0420               	iorwf	___lldiv@divisor,w
  1459  015F  1903               	skipnz
  1460  0160  2962               	goto	u381
  1461  0161  2963               	goto	u380
  1462  0162                     u381:
  1463  0162  29B0               	goto	l1081
  1464  0163                     u380:
  1465  0163                     l1063:
  1466  0163  01F7               	clrf	___lldiv@counter
  1467  0164  0AF7               	incf	___lldiv@counter,f
  1468  0165  2973               	goto	l1067
  1469  0166                     l1065:
  1470  0166  3001               	movlw	1
  1471  0167  00F2               	movwf	??___lldiv
  1472  0168                     u395:
  1473  0168  1003               	clrc
  1474  0169  0DA0               	rlf	___lldiv@divisor,f
  1475  016A  0DA1               	rlf	___lldiv@divisor+1,f
  1476  016B  0DA2               	rlf	___lldiv@divisor+2,f
  1477  016C  0DA3               	rlf	___lldiv@divisor+3,f
  1478  016D  0BF2               	decfsz	??___lldiv,f
  1479  016E  2968               	goto	u395
  1480  016F  3001               	movlw	1
  1481  0170  00F2               	movwf	??___lldiv
  1482  0171  0872               	movf	??___lldiv,w
  1483  0172  07F7               	addwf	___lldiv@counter,f
  1484  0173                     l1067:
  1485  0173  1FA3               	btfss	___lldiv@divisor+3,7
  1486  0174  2976               	goto	u401
  1487  0175  2977               	goto	u400
  1488  0176                     u401:
  1489  0176  2966               	goto	l1065
  1490  0177                     u400:
  1491  0177                     l1069:
  1492  0177  3001               	movlw	1
  1493  0178  00F2               	movwf	??___lldiv
  1494  0179                     u415:
  1495  0179  1003               	clrc
  1496  017A  0DF3               	rlf	___lldiv@quotient,f
  1497  017B  0DF4               	rlf	___lldiv@quotient+1,f
  1498  017C  0DF5               	rlf	___lldiv@quotient+2,f
  1499  017D  0DF6               	rlf	___lldiv@quotient+3,f
  1500  017E  0BF2               	decfsz	??___lldiv,f
  1501  017F  2979               	goto	u415
  1502  0180                     l1071:
  1503  0180  0823               	movf	___lldiv@divisor+3,w
  1504  0181  0227               	subwf	___lldiv@dividend+3,w
  1505  0182  1D03               	skipz
  1506  0183  298E               	goto	u425
  1507  0184  0822               	movf	___lldiv@divisor+2,w
  1508  0185  0226               	subwf	___lldiv@dividend+2,w
  1509  0186  1D03               	skipz
  1510  0187  298E               	goto	u425
  1511  0188  0821               	movf	___lldiv@divisor+1,w
  1512  0189  0225               	subwf	___lldiv@dividend+1,w
  1513  018A  1D03               	skipz
  1514  018B  298E               	goto	u425
  1515  018C  0820               	movf	___lldiv@divisor,w
  1516  018D  0224               	subwf	___lldiv@dividend,w
  1517  018E                     u425:
  1518  018E  1C03               	skipc
  1519  018F  2991               	goto	u421
  1520  0190  2992               	goto	u420
  1521  0191                     u421:
  1522  0191  29A1               	goto	l1077
  1523  0192                     u420:
  1524  0192                     l1073:
  1525  0192  0820               	movf	___lldiv@divisor,w
  1526  0193  02A4               	subwf	___lldiv@dividend,f
  1527  0194  0821               	movf	___lldiv@divisor+1,w
  1528  0195  1C03               	skipc
  1529  0196  0F21               	incfsz	___lldiv@divisor+1,w
  1530  0197  02A5               	subwf	___lldiv@dividend+1,f
  1531  0198  0822               	movf	___lldiv@divisor+2,w
  1532  0199  1C03               	skipc
  1533  019A  0F22               	incfsz	___lldiv@divisor+2,w
  1534  019B  02A6               	subwf	___lldiv@dividend+2,f
  1535  019C  0823               	movf	___lldiv@divisor+3,w
  1536  019D  1C03               	skipc
  1537  019E  0F23               	incfsz	___lldiv@divisor+3,w
  1538  019F  02A7               	subwf	___lldiv@dividend+3,f
  1539  01A0                     l1075:
  1540  01A0  1473               	bsf	___lldiv@quotient,0
  1541  01A1                     l1077:
  1542  01A1  3001               	movlw	1
  1543  01A2                     u435:
  1544  01A2  1003               	clrc
  1545  01A3  0CA3               	rrf	___lldiv@divisor+3,f
  1546  01A4  0CA2               	rrf	___lldiv@divisor+2,f
  1547  01A5  0CA1               	rrf	___lldiv@divisor+1,f
  1548  01A6  0CA0               	rrf	___lldiv@divisor,f
  1549  01A7  3EFF               	addlw	-1
  1550  01A8  1D03               	skipz
  1551  01A9  29A2               	goto	u435
  1552  01AA                     l1079:
  1553  01AA  3001               	movlw	1
  1554  01AB  02F7               	subwf	___lldiv@counter,f
  1555  01AC  1D03               	btfss	3,2
  1556  01AD  29AF               	goto	u441
  1557  01AE  29B0               	goto	u440
  1558  01AF                     u441:
  1559  01AF  2977               	goto	l1069
  1560  01B0                     u440:
  1561  01B0                     l1081:
  1562  01B0  0876               	movf	___lldiv@quotient+3,w
  1563  01B1  00A3               	movwf	?___lldiv+3
  1564  01B2  0875               	movf	___lldiv@quotient+2,w
  1565  01B3  00A2               	movwf	?___lldiv+2
  1566  01B4  0874               	movf	___lldiv@quotient+1,w
  1567  01B5  00A1               	movwf	?___lldiv+1
  1568  01B6  0873               	movf	___lldiv@quotient,w
  1569  01B7  00A0               	movwf	?___lldiv
  1570  01B8                     l297:
  1571  01B8  0008               	return
  1572  01B9                     __end_of___lldiv:
  1573                           
  1574                           	psect	text7
  1575  0243                     __ptext7:	
  1576 ;; *************** function _I2C_Start *****************
  1577 ;; Defined at:
  1578 ;;		line 107 in file "I2C.c"
  1579 ;; Parameters:    Size  Location     Type
  1580 ;;  add             1    wreg     unsigned char 
  1581 ;; Auto vars:     Size  Location     Type
  1582 ;;  add             1    6[COMMON] unsigned char 
  1583 ;; Return value:  Size  Location     Type
  1584 ;;                  1    wreg      void 
  1585 ;; Registers used:
  1586 ;;		wreg, status,2, status,0, pclath, cstack
  1587 ;; Tracked objects:
  1588 ;;		On entry : 0/0
  1589 ;;		On exit  : 0/0
  1590 ;;		Unchanged: 0/0
  1591 ;; Data sizes:     COMMON   BANK0   BANK1   BANK3   BANK2
  1592 ;;      Params:         0       0       0       0       0
  1593 ;;      Locals:         1       0       0       0       0
  1594 ;;      Temps:          2       0       0       0       0
  1595 ;;      Totals:         3       0       0       0       0
  1596 ;;Total ram usage:        3 bytes
  1597 ;; Hardware stack levels used:    1
  1598 ;; Hardware stack levels required when called:    3
  1599 ;; This function calls:
  1600 ;;		_I2C_Master_Wait
  1601 ;;		_I2C_Master_Write
  1602 ;; This function is called by:
  1603 ;;		_main
  1604 ;; This function uses a non-reentrant model
  1605 ;;
  1606                           
  1607                           
  1608                           ;psect for function _I2C_Start
  1609  0243                     _I2C_Start:
  1610                           
  1611                           ;incstack = 0
  1612                           ; Regs used in _I2C_Start: [wreg+status,2+status,0+pclath+cstack]
  1613                           ;I2C_Start@add stored from wreg
  1614  0243  00F6               	movwf	I2C_Start@add
  1615  0244                     l1041:
  1616                           
  1617                           ;I2C.c: 107: void I2C_Start(char add);I2C.c: 108: {;I2C.c: 109:     I2C_Master_Wait();
  1618  0244  120A  118A  2259  120A  118A  	fcall	_I2C_Master_Wait
  1619  0249                     l1043:
  1620                           
  1621                           ;I2C.c: 110:     SEN = 1;
  1622  0249  1683               	bsf	3,5	;RP0=1, select bank1
  1623  024A  1303               	bcf	3,6	;RP1=0, select bank1
  1624  024B  1411               	bsf	17,0	;volatile
  1625                           
  1626                           ;I2C.c: 111:     I2C_Master_Write(add);
  1627  024C  0876               	movf	I2C_Start@add,w
  1628  024D  00F4               	movwf	??_I2C_Start
  1629  024E  01F5               	clrf	??_I2C_Start+1
  1630  024F  0874               	movf	??_I2C_Start,w
  1631  0250  00F2               	movwf	I2C_Master_Write@d
  1632  0251  0875               	movf	??_I2C_Start+1,w
  1633  0252  00F3               	movwf	I2C_Master_Write@d+1
  1634  0253  120A  118A  227D  120A  118A  	fcall	_I2C_Master_Write
  1635  0258                     l123:
  1636  0258  0008               	return
  1637  0259                     __end_of_I2C_Start:
  1638                           
  1639                           	psect	text8
  1640  027D                     __ptext8:	
  1641 ;; *************** function _I2C_Master_Write *****************
  1642 ;; Defined at:
  1643 ;;		line 65 in file "I2C.c"
  1644 ;; Parameters:    Size  Location     Type
  1645 ;;  d               2    2[COMMON] unsigned int 
  1646 ;; Auto vars:     Size  Location     Type
  1647 ;;		None
  1648 ;; Return value:  Size  Location     Type
  1649 ;;                  1    wreg      void 
  1650 ;; Registers used:
  1651 ;;		wreg, status,2, status,0, pclath, cstack
  1652 ;; Tracked objects:
  1653 ;;		On entry : 0/0
  1654 ;;		On exit  : 0/0
  1655 ;;		Unchanged: 0/0
  1656 ;; Data sizes:     COMMON   BANK0   BANK1   BANK3   BANK2
  1657 ;;      Params:         2       0       0       0       0
  1658 ;;      Locals:         0       0       0       0       0
  1659 ;;      Temps:          0       0       0       0       0
  1660 ;;      Totals:         2       0       0       0       0
  1661 ;;Total ram usage:        2 bytes
  1662 ;; Hardware stack levels used:    1
  1663 ;; Hardware stack levels required when called:    2
  1664 ;; This function calls:
  1665 ;;		_I2C_Master_Wait
  1666 ;; This function is called by:
  1667 ;;		_main
  1668 ;;		_I2C_Start
  1669 ;; This function uses a non-reentrant model
  1670 ;;
  1671                           
  1672                           
  1673                           ;psect for function _I2C_Master_Write
  1674  027D                     _I2C_Master_Write:
  1675  027D                     l983:	
  1676                           ;incstack = 0
  1677                           ; Regs used in _I2C_Master_Write: [wreg+status,2+status,0+pclath+cstack]
  1678                           
  1679                           
  1680                           ;I2C.c: 65: void I2C_Master_Write(unsigned d);I2C.c: 66: {;I2C.c: 67:     I2C_Master_Wai
      +                          t();
  1681  027D  120A  118A  2259  120A  118A  	fcall	_I2C_Master_Wait
  1682  0282                     l985:
  1683                           
  1684                           ;I2C.c: 68:     SSPBUF = d;
  1685  0282  0872               	movf	I2C_Master_Write@d,w
  1686  0283  1283               	bcf	3,5	;RP0=0, select bank0
  1687  0284  1303               	bcf	3,6	;RP1=0, select bank0
  1688  0285  0093               	movwf	19	;volatile
  1689  0286                     l112:
  1690  0286  0008               	return
  1691  0287                     __end_of_I2C_Master_Write:
  1692                           
  1693                           	psect	text9
  1694  0287                     __ptext9:	
  1695 ;; *************** function _I2C_Master_Stop *****************
  1696 ;; Defined at:
  1697 ;;		line 55 in file "I2C.c"
  1698 ;; Parameters:    Size  Location     Type
  1699 ;;		None
  1700 ;; Auto vars:     Size  Location     Type
  1701 ;;		None
  1702 ;; Return value:  Size  Location     Type
  1703 ;;                  1    wreg      void 
  1704 ;; Registers used:
  1705 ;;		wreg, status,2, status,0, pclath, cstack
  1706 ;; Tracked objects:
  1707 ;;		On entry : 0/0
  1708 ;;		On exit  : 0/0
  1709 ;;		Unchanged: 0/0
  1710 ;; Data sizes:     COMMON   BANK0   BANK1   BANK3   BANK2
  1711 ;;      Params:         0       0       0       0       0
  1712 ;;      Locals:         0       0       0       0       0
  1713 ;;      Temps:          0       0       0       0       0
  1714 ;;      Totals:         0       0       0       0       0
  1715 ;;Total ram usage:        0 bytes
  1716 ;; Hardware stack levels used:    1
  1717 ;; Hardware stack levels required when called:    2
  1718 ;; This function calls:
  1719 ;;		_I2C_Master_Wait
  1720 ;; This function is called by:
  1721 ;;		_main
  1722 ;; This function uses a non-reentrant model
  1723 ;;
  1724                           
  1725                           
  1726                           ;psect for function _I2C_Master_Stop
  1727  0287                     _I2C_Master_Stop:
  1728  0287                     l865:	
  1729                           ;incstack = 0
  1730                           ; Regs used in _I2C_Master_Stop: [wreg+status,2+status,0+pclath+cstack]
  1731                           
  1732                           
  1733                           ;I2C.c: 57:     I2C_Master_Wait();
  1734  0287  120A  118A  2259  120A  118A  	fcall	_I2C_Master_Wait
  1735  028C                     l867:
  1736                           
  1737                           ;I2C.c: 58:     SSPCON2bits.PEN = 1;
  1738  028C  1683               	bsf	3,5	;RP0=1, select bank1
  1739  028D  1303               	bcf	3,6	;RP1=0, select bank1
  1740  028E  1511               	bsf	17,2	;volatile
  1741  028F                     l109:
  1742  028F  0008               	return
  1743  0290                     __end_of_I2C_Master_Stop:
  1744                           
  1745                           	psect	text10
  1746  0259                     __ptext10:	
  1747 ;; *************** function _I2C_Master_Wait *****************
  1748 ;; Defined at:
  1749 ;;		line 32 in file "I2C.c"
  1750 ;; Parameters:    Size  Location     Type
  1751 ;;		None
  1752 ;; Auto vars:     Size  Location     Type
  1753 ;;		None
  1754 ;; Return value:  Size  Location     Type
  1755 ;;                  1    wreg      void 
  1756 ;; Registers used:
  1757 ;;		wreg, status,2
  1758 ;; Tracked objects:
  1759 ;;		On entry : 0/0
  1760 ;;		On exit  : 0/0
  1761 ;;		Unchanged: 0/0
  1762 ;; Data sizes:     COMMON   BANK0   BANK1   BANK3   BANK2
  1763 ;;      Params:         0       0       0       0       0
  1764 ;;      Locals:         0       0       0       0       0
  1765 ;;      Temps:          0       0       0       0       0
  1766 ;;      Totals:         0       0       0       0       0
  1767 ;;Total ram usage:        0 bytes
  1768 ;; Hardware stack levels used:    1
  1769 ;; Hardware stack levels required when called:    1
  1770 ;; This function calls:
  1771 ;;		Nothing
  1772 ;; This function is called by:
  1773 ;;		_I2C_Master_Stop
  1774 ;;		_I2C_Master_Write
  1775 ;;		_I2C_Start
  1776 ;;		_I2C_Master_Start
  1777 ;;		_I2C_Master_RepeatedStart
  1778 ;;		_I2C_Master_Read
  1779 ;; This function uses a non-reentrant model
  1780 ;;
  1781                           
  1782                           
  1783                           ;psect for function _I2C_Master_Wait
  1784  0259                     _I2C_Master_Wait:
  1785  0259                     l767:	
  1786                           ;incstack = 0
  1787                           ; Regs used in _I2C_Master_Wait: [wreg+status,2]
  1788                           
  1789  0259                     l97:	
  1790                           ;I2C.c: 34:     while ((SSPSTAT & 0x04) || (SSPCON2 & 0x1F));
  1791                           
  1792  0259  1683               	bsf	3,5	;RP0=1, select bank1
  1793  025A  1303               	bcf	3,6	;RP1=0, select bank1
  1794  025B  1914               	btfsc	20,2	;volatile
  1795  025C  2A5E               	goto	u11
  1796  025D  2A5F               	goto	u10
  1797  025E                     u11:
  1798  025E  2A59               	goto	l97
  1799  025F                     u10:
  1800  025F                     l769:
  1801  025F  0811               	movf	17,w	;volatile
  1802  0260  391F               	andlw	31
  1803  0261  1D03               	btfss	3,2
  1804  0262  2A64               	goto	u21
  1805  0263  2A65               	goto	u20
  1806  0264                     u21:
  1807  0264  2A59               	goto	l97
  1808  0265                     u20:
  1809  0265                     l100:
  1810  0265  0008               	return
  1811  0266                     __end_of_I2C_Master_Wait:
  1812                           
  1813                           	psect	text11
  1814  0290                     __ptext11:	
  1815 ;; *************** function _ISR *****************
  1816 ;; Defined at:
  1817 ;;		line 48 in file "main.c"
  1818 ;; Parameters:    Size  Location     Type
  1819 ;;		None
  1820 ;; Auto vars:     Size  Location     Type
  1821 ;;		None
  1822 ;; Return value:  Size  Location     Type
  1823 ;;                  1    wreg      void 
  1824 ;; Registers used:
  1825 ;;		None
  1826 ;; Tracked objects:
  1827 ;;		On entry : 0/0
  1828 ;;		On exit  : 0/0
  1829 ;;		Unchanged: 0/0
  1830 ;; Data sizes:     COMMON   BANK0   BANK1   BANK3   BANK2
  1831 ;;      Params:         0       0       0       0       0
  1832 ;;      Locals:         0       0       0       0       0
  1833 ;;      Temps:          2       0       0       0       0
  1834 ;;      Totals:         2       0       0       0       0
  1835 ;;Total ram usage:        2 bytes
  1836 ;; Hardware stack levels used:    1
  1837 ;; This function calls:
  1838 ;;		Nothing
  1839 ;; This function is called by:
  1840 ;;		Interrupt level 1
  1841 ;; This function uses a non-reentrant model
  1842 ;;
  1843                           
  1844                           
  1845                           ;psect for function _ISR
  1846  0290                     _ISR:
  1847  0290                     i1l49:
  1848  0290  0871               	movf	??_ISR+1,w
  1849  0291  008A               	movwf	10
  1850  0292  0E70               	swapf	??_ISR,w
  1851  0293  0083               	movwf	3
  1852  0294  0EFE               	swapf	btemp,f
  1853  0295  0E7E               	swapf	btemp,w
  1854  0296  0009               	retfie
  1855  0297                     __end_of_ISR:
  1856  007E                     btemp	set	126	;btemp
  1857  007E                     wtemp0	set	126
  1858                           
  1859                           	psect	intentry
  1860  0004                     __pintentry:	
  1861                           ;incstack = 0
  1862                           ; Regs used in _ISR: []
  1863                           
  1864  0004                     interrupt_function:
  1865  007E                     saved_w	set	btemp
  1866  0004  00FE               	movwf	btemp
  1867  0005  0E03               	swapf	3,w
  1868  0006  00F0               	movwf	??_ISR
  1869  0007  080A               	movf	10,w
  1870  0008  00F1               	movwf	??_ISR+1
  1871  0009  120A  118A  2A90   	ljmp	_ISR
  1872                           
  1873                           	psect	config
  1874                           
  1875                           ;Config register CONFIG1 @ 0x2007
  1876                           ;	Oscillator Selection bits
  1877                           ;	FOSC = INTRC_NOCLKOUT, INTOSCIO oscillator: I/O function on RA6/OSC2/CLKOUT pin, I/O f
      +                          unction on RA7/OSC1/CLKIN
  1878                           ;	Watchdog Timer Enable bit
  1879                           ;	WDTE = OFF, WDT disabled and can be enabled by SWDTEN bit of the WDTCON register
  1880                           ;	Power-up Timer Enable bit
  1881                           ;	PWRTE = OFF, PWRT disabled
  1882                           ;	RE3/MCLR pin function select bit
  1883                           ;	MCLRE = OFF, RE3/MCLR pin function is digital input, MCLR internally tied to VDD
  1884                           ;	Code Protection bit
  1885                           ;	CP = OFF, Program memory code protection is disabled
  1886                           ;	Data Code Protection bit
  1887                           ;	CPD = OFF, Data memory code protection is disabled
  1888                           ;	Brown Out Reset Selection bits
  1889                           ;	BOREN = OFF, BOR disabled
  1890                           ;	Internal External Switchover bit
  1891                           ;	IESO = OFF, Internal/External Switchover mode is disabled
  1892                           ;	Fail-Safe Clock Monitor Enabled bit
  1893                           ;	FCMEN = OFF, Fail-Safe Clock Monitor is disabled
  1894                           ;	Low Voltage Programming Enable bit
  1895                           ;	LVP = OFF, RB3 pin has digital I/O, HV on MCLR must be used for programming
  1896                           ;	In-Circuit Debugger Mode bit
  1897                           ;	DEBUG = 0x1, unprogrammed default
  1898  2007                     	org	8199
  1899  2007  20D4               	dw	8404
  1900                           
  1901                           ;Config register CONFIG2 @ 0x2008
  1902                           ;	Brown-out Reset Selection bit
  1903                           ;	BOR4V = BOR40V, Brown-out Reset set to 4.0V
  1904                           ;	Flash Program Memory Self Write Enable bits
  1905                           ;	WRT = OFF, Write protection off
  1906  2008                     	org	8200
  1907  2008  3FFF               	dw	16383

Data Sizes:
    Strings     5
    Constant    0
    Data        0
    BSS         17
    Persistent  0
    Stack       0

Auto Spaces:
    Space          Size  Autos    Used
    COMMON           14      8      11
    BANK0            80     19      33
    BANK1            80      0       0
    BANK3            96      0       0
    BANK2            96      0       0

Pointer List with Targets:

    UARTSendString@str	PTR const unsigned char  size(1) Largest target is 5
		 -> STR_1(CODE[5]), 

    sp__intToString	PTR unsigned char  size(1) Largest target is 4
		 -> intToString@valor(COMMON[4]), 


Critical Paths under _main in COMMON

    _UARTSendString->_UARTSendChar
    _UARTInit->___lldiv
    _I2C_Master_Init->___lldiv
    _I2C_Start->_I2C_Master_Write

Critical Paths under _ISR in COMMON

    None.

Critical Paths under _main in BANK0

    _Setup->_UARTInit
    _UARTInit->___lldiv
    _I2C_Master_Init->___lldiv

Critical Paths under _ISR in BANK0

    None.

Critical Paths under _main in BANK1

    None.

Critical Paths under _ISR in BANK1

    None.

Critical Paths under _main in BANK3

    None.

Critical Paths under _ISR in BANK3

    None.

Critical Paths under _main in BANK2

    None.

Critical Paths under _ISR in BANK2

    None.

Call Graph Tables:

 ---------------------------------------------------------------------------------
 (Depth) Function   	        Calls       Base Space   Used Autos Params    Refs
 ---------------------------------------------------------------------------------
 (0) _main                                                 2     2      0    3832
                                             17 BANK0      2     2      0
                    _I2C_Master_Stop
                   _I2C_Master_Write
                          _I2C_Start
                              _Setup
                     _UARTSendString
 ---------------------------------------------------------------------------------
 (1) _UARTSendString                                       3     3      0     138
                                              3 COMMON     3     3      0
                       _UARTSendChar
 ---------------------------------------------------------------------------------
 (2) _UARTSendChar                                         1     1      0      15
                                              2 COMMON     1     1      0
 ---------------------------------------------------------------------------------
 (1) _Setup                                                0     0      0    1956
                    _I2C_Master_Init
                           _UARTInit
 ---------------------------------------------------------------------------------
 (2) _UARTInit                                             9     4      5    1054
                                              8 BANK0      9     4      5
                            ___lldiv
 ---------------------------------------------------------------------------------
 (2) _I2C_Master_Init                                      8     4      4     902
                                              8 BANK0      8     4      4
                            ___lldiv
 ---------------------------------------------------------------------------------
 (3) ___lldiv                                             14     6      8     781
                                              2 COMMON     6     6      0
                                              0 BANK0      8     0      8
 ---------------------------------------------------------------------------------
 (1) _I2C_Start                                            3     3      0     880
                                              4 COMMON     3     3      0
                    _I2C_Master_Wait
                   _I2C_Master_Write
 ---------------------------------------------------------------------------------
 (2) _I2C_Master_Write                                     2     0      2     858
                                              2 COMMON     2     0      2
                    _I2C_Master_Wait
 ---------------------------------------------------------------------------------
 (1) _I2C_Master_Stop                                      0     0      0       0
                    _I2C_Master_Wait
 ---------------------------------------------------------------------------------
 (3) _I2C_Master_Wait                                      0     0      0       0
 ---------------------------------------------------------------------------------
 Estimated maximum stack depth 3
 ---------------------------------------------------------------------------------
 (Depth) Function   	        Calls       Base Space   Used Autos Params    Refs
 ---------------------------------------------------------------------------------
 (4) _ISR                                                  2     2      0       0
                                              0 COMMON     2     2      0
 ---------------------------------------------------------------------------------
 Estimated maximum stack depth 4
 ---------------------------------------------------------------------------------

 Call Graph Graphs:

 _main (ROOT)
   _I2C_Master_Stop
     _I2C_Master_Wait
   _I2C_Master_Write
     _I2C_Master_Wait
   _I2C_Start
     _I2C_Master_Wait
     _I2C_Master_Write
       _I2C_Master_Wait
   _Setup
     _I2C_Master_Init
       ___lldiv
     _UARTInit
       ___lldiv
   _UARTSendString
     _UARTSendChar

 _ISR (ROOT)

 Address spaces:
Name               Size   Autos  Total    Cost      Usage
BITCOMMON            E      0       0       0        0.0%
EEDATA             100      0       0       0        0.0%
NULL                 0      0       0       0        0.0%
CODE                 0      0       0       0        0.0%
COMMON               E      8       B       1       78.6%
BITSFR0              0      0       0       1        0.0%
SFR0                 0      0       0       1        0.0%
BITSFR1              0      0       0       2        0.0%
SFR1                 0      0       0       2        0.0%
STACK                0      0       0       2        0.0%
ABS                  0      0      2C       3        0.0%
BITBANK0            50      0       0       4        0.0%
BITSFR3              0      0       0       4        0.0%
SFR3                 0      0       0       4        0.0%
BANK0               50     13      21       5       41.2%
BITSFR2              0      0       0       5        0.0%
SFR2                 0      0       0       5        0.0%
BITBANK1            50      0       0       6        0.0%
BANK1               50      0       0       7        0.0%
BITBANK3            60      0       0       8        0.0%
BANK3               60      0       0       9        0.0%
BITBANK2            60      0       0      10        0.0%
BANK2               60      0       0      11        0.0%
DATA                 0      0      2C      12        0.0%


Microchip Technology PIC Macro Assembler V2.31 build 20201012212115 
Symbol Table                                                                                   Mon Mar 01 11:33:17 2021

        UARTInit@baud_rate 0028                          pc 0002         __size_of_I2C_Start 0016  
                       l60 021D                         l94 01F2                         l97 0259  
                       u10 025F                         u11 025E                         u20 0265  
                       u21 0264                         _Ax 0078                         fsr 0004  
                      l100 0265                        l112 0286                        l123 0258  
                      l109 028F                        l142 0150                        l145 0267  
                      l154 0242                        l148 0271                        l297 01B8  
                      l841 0267                        l843 026D                        l767 0259  
                      l769 025F                        l865 0287                        l867 028C  
                      l983 027D                        l985 0282                        _GIE 005F  
                      u140 026D                        u141 026C                        u400 0177  
                      u401 0176                        u420 0192                        u421 0191  
                      u350 0242                        u415 0179                        u351 0241  
                      u440 01B0                        u504 00C9                        u441 01AF  
                      u425 018E                        u450 01D0                        u435 01A2  
                      u380 0163                        u460 00E5                        _ISR 0290  
                      u381 0162                        u461 00E4                        u517 00CF  
                      u470 00F3                        u455 01CB                        u480 0122  
                      u490 00C6                        u395 0168                        u475 00EE  
                      u491 00C2                        _SEN 0488                        u485 011D  
                      fsr0 0004                       ?_ISR 0070                       l1101 0112  
                     l1111 0144                       l1103 0114                       l1041 0244  
                     l1121 014B                       l1113 0145                       l1105 0141  
                     l1043 0249                       l1123 014C                       l1115 0148  
                     l1107 0142                       l1131 0216                       l1051 0235  
                     l1061 0151                       l1125 014F                       l1117 0149  
                     l1109 0143                       l1133 0219                       l1045 021F  
                     l1141 00BA                       l1071 0180                       l1063 0163  
                     l1119 014A                       l1135 021C                       l1127 01F3  
                     l1047 0222                       l1143 00C9                       l1073 0192  
                     l1065 0166                       l1081 01B0                       l1129 0213  
                     l1049 022F                       l1145 00D4                       l1075 01A0  
                     l1067 0173                       l1091 01EF                       l1139 0026  
                     l1077 01A1                       l1069 0177                       l1093 01F0  
                     l1085 01B9                       l1079 01AA                       l1095 01F1  
                     l1087 01BD                       l1089 01C0                       l1097 00DE  
                     l1099 00E5                       STR_1 0278                       _PEIE 005E  
                     i1l49 0290                       _main 0026                       btemp 007E  
                     start 000C                      ??_ISR 0070           ?_I2C_Master_Init 0028  
         ?_I2C_Master_Wait 0070           ?_I2C_Master_Stop 0070                      ?_main 0070  
                    _ANSEL 0188            __end_of___lldiv 01B9                      _RCREG 001A  
                    _SPBRG 0099                      _PORTA 0005                      _TRISA 0085  
                    _SSPIE 0463                      _SSPIF 0063                      _TXREG 0019  
         __end_of_UARTInit 0151                      _Setup 01F3          __end_of_I2C_Start 0259  
                    pclath 000A                      status 0003                      wtemp0 007E  
          __initialization 000F               __end_of_main 00DE                     ??_main 0031  
        ?_I2C_Master_Write 0072                     ?_Setup 0070         ??_I2C_Master_Write 0074  
                   _ANSELH 0189                     _SSPADD 0093                     _TRISC3 043B  
                   _TRISC4 043C                     _SSPCON 0014                     _SSPBUF 0013  
                   _Tenvio 0033                  ??___lldiv 0072    __size_of_UARTSendString 0025  
                   saved_w 007E    __end_of__initialization 0022             __pcstackCOMMON 0070  
            __end_of_Setup 021E                  ?_UARTInit 0028                    ??_Setup 0078  
               __pbssBANK0 0033                 __pmaintext 0026                 ??_UARTInit 002D  
               __pintentry 0004                    _SSPCON2 0091                    _SSPSTAT 0094  
               __stringtab 0272              ?_UARTSendChar 0070               I2C_Start@add 0076  
                  _Axenvio 003F                    _Ayenvio 003D                    _Azenvio 003B  
                _I2C_Start 0243                    _Gxenvio 0039                    _Gyenvio 0037  
                  _Gzenvio 0035                    ___lldiv 0151             _UARTSendString 021E  
                  _bandera 007A                    __ptext1 021E                    __ptext2 0266  
                  __ptext3 01F3                    __ptext4 00DE                    __ptext5 01B9  
                  __ptext6 0151                    __ptext7 0243                    __ptext8 027D  
                  __ptext9 0287               __size_of_ISR 0007   __size_of_I2C_Master_Init 003A  
 __size_of_I2C_Master_Wait 000D   __size_of_I2C_Master_Stop 0009       end_of_initialization 0022  
           ??_UARTSendChar 0072                 ?_I2C_Start 0070  __size_of_I2C_Master_Write 000A  
          ___lldiv@divisor 0020            ___lldiv@counter 0077                  _RCSTAbits 0018  
   __end_of_UARTSendString 0243           I2C_Master_Init@c 0028                  _PORTAbits 0005  
                _TRISCbits 0087                  _TXSTAbits 0098            ?_UARTSendString 0070  
        __size_of_UARTInit 0073        start_initialization 000F                __end_of_ISR 0297  
        ??_I2C_Master_Init 002C          ??_I2C_Master_Wait 0072          ??_I2C_Master_Stop 0072  
              ??_I2C_Start 0074       __end_of_UARTSendChar 0272                __pbssCOMMON 0078  
                ___latbits 0002              __pcstackBANK0 0020           _I2C_Master_Write 027D  
            UARTSendChar@c 0072                   ?___lldiv 0020                  __pstrings 0272  
           __size_of_Setup 002B          interrupt_function 0004            UARTSendString@i 0073  
                 _PIR1bits 000C                   _UARTInit 00DE                __stringbase 0277  
         ??_UARTSendString 0073      __size_of_UARTSendChar 000C               UARTInit@BRGH 002C  
         __size_of___lldiv 0068         __end_of__stringtab 0278            _I2C_Master_Init 01B9  
          _I2C_Master_Wait 0259            _I2C_Master_Stop 0287                   __ptext10 0259  
                 __ptext11 0290               _UARTSendChar 0266              __size_of_main 00B8  
 __end_of_I2C_Master_Write 0287          UARTSendString@str 0075                   intlevel1 0000  
         ___lldiv@dividend 0024                  stringcode 0272    __end_of_I2C_Master_Init 01F3  
  __end_of_I2C_Master_Wait 0266    __end_of_I2C_Master_Stop 0290           ___lldiv@quotient 0073  
        I2C_Master_Write@d 0072                   stringdir 0272                   stringtab 0272  
              _SSPCON2bits 0091  
