

Microchip MPLAB XC8 Assembler V2.31 build 20201012212115 
                                                                                               Sat Mar 06 09:51:14 2021

Microchip MPLAB XC8 C Compiler v2.31 (Free license) build 20201012212115 Og1 
     1                           	processor	16F887
     2                           	pagewidth 120
     3                           	opt	flic
     4                           	psect	strings,global,class=STRING,delta=2,noexec
     5                           	psect	cinit,global,class=CODE,merge=1,delta=2
     6                           	psect	bssCOMMON,global,class=COMMON,space=1,delta=1,noexec
     7                           	psect	bssBANK3,global,class=BANK3,space=1,delta=1,noexec
     8                           	psect	clrtext,global,class=CODE,delta=2
     9                           	psect	cstackBANK1,global,class=BANK1,space=1,delta=1,noexec
    10                           	psect	cstackCOMMON,global,class=COMMON,space=1,delta=1,noexec
    11                           	psect	cstackBANK0,global,class=BANK0,space=1,delta=1,noexec
    12                           	psect	maintext,global,class=CODE,split=1,delta=2
    13                           	psect	text1,local,class=CODE,merge=1,delta=2
    14                           	psect	text2,local,class=CODE,merge=1,delta=2
    15                           	psect	text3,local,class=CODE,merge=1,delta=2,group=3
    16                           	psect	text4,local,class=CODE,merge=1,delta=2,group=1
    17                           	psect	text5,local,class=CODE,merge=1,delta=2,group=3
    18                           	psect	text6,local,class=CODE,merge=1,delta=2,group=2
    19                           	psect	text7,local,class=CODE,merge=1,delta=2,group=2
    20                           	psect	text8,local,class=CODE,merge=1,delta=2,group=2
    21                           	psect	text9,local,class=CODE,merge=1,delta=2,group=2
    22                           	psect	text10,local,class=CODE,merge=1,delta=2,group=2
    23                           	psect	text11,local,class=CODE,merge=1,delta=2,group=2
    24                           	psect	text12,local,class=CODE,merge=1,delta=2,group=2
    25                           	psect	text13,local,class=CODE,merge=1,delta=2,group=2
    26                           	psect	text14,local,class=CODE,merge=1,delta=2,group=2
    27                           	psect	text15,local,class=CODE,merge=1,delta=2,group=2
    28                           	psect	text16,local,class=CODE,merge=1,delta=2,group=2
    29                           	psect	text17,local,class=CODE,merge=1,delta=2
    30                           	psect	text18,local,class=CODE,merge=1,delta=2
    31                           	psect	text19,local,class=CODE,merge=1,delta=2
    32                           	psect	text20,local,class=CODE,merge=1,delta=2
    33                           	psect	text21,local,class=CODE,merge=1,delta=2
    34                           	psect	text22,local,class=CODE,merge=1,delta=2
    35                           	psect	text23,local,class=CODE,merge=1,delta=2
    36                           	psect	text24,local,class=CODE,merge=1,delta=2
    37                           	psect	text25,local,class=CODE,merge=1,delta=2
    38                           	psect	text26,local,class=CODE,merge=1,delta=2,group=2
    39                           	psect	text27,local,class=CODE,merge=1,delta=2
    40                           	psect	text28,local,class=CODE,merge=1,delta=2
    41                           	psect	text29,local,class=CODE,merge=1,delta=2
    42                           	psect	text30,local,class=CODE,merge=1,delta=2
    43                           	psect	text31,local,class=CODE,merge=1,delta=2
    44                           	psect	text32,local,class=CODE,merge=1,delta=2
    45                           	psect	intentry,global,class=CODE,delta=2
    46                           	psect	config,global,abs,ovrld,class=CONFIG,space=4,delta=2,noexec
    47                           	dabs	1,0x7E,2
    48  0000                     
    49                           ; Version 2.20
    50                           ; Generated 12/02/2020 GMT
    51                           ; 
    52                           ; Copyright © 2020, Microchip Technology Inc. and its subsidiaries ("Microchip")
    53                           ; All rights reserved.
    54                           ; 
    55                           ; This software is developed by Microchip Technology Inc. and its subsidiaries ("Microch
      +                          ip").
    56                           ; 
    57                           ; Redistribution and use in source and binary forms, with or without modification, are
    58                           ; permitted provided that the following conditions are met:
    59                           ; 
    60                           ;     1. Redistributions of source code must retain the above copyright notice, this lis
      +                          t of
    61                           ;        conditions and the following disclaimer.
    62                           ; 
    63                           ;     2. Redistributions in binary form must reproduce the above copyright notice, this 
      +                          list
    64                           ;        of conditions and the following disclaimer in the documentation and/or other
    65                           ;        materials provided with the distribution.
    66                           ; 
    67                           ;     3. Microchip's name may not be used to endorse or promote products derived from th
      +                          is
    68                           ;        software without specific prior written permission.
    69                           ; 
    70                           ; THIS SOFTWARE IS PROVIDED BY MICROCHIP "AS IS" AND ANY EXPRESS OR IMPLIED WARRANTIES,
    71                           ; INCLUDING, BUT NOT LIMITED TO, THE IMPLIED WARRANTIES OF MERCHANTABILITY AND FITNESS F
      +                          OR
    72                           ; PURPOSE ARE DISCLAIMED.  IN NO EVENT SHALL MICROCHIP BE LIABLE FOR ANY DIRECT, INDIREC
      +                          T,
    73                           ; INCIDENTAL, SPECIAL, EXEMPLARY, OR CONSEQUENTIAL DAMAGES (INCLUDING BUT NOT LIMITED TO
    74                           ; PROCUREMENT OF SUBSTITUTE GOODS OR SERVICES; LOSS OF USE, DATA OR PROFITS; OR BUSINESS
    75                           ; INTERRUPTION) HOWSOEVER CAUSED AND ON ANY THEORY OF LIABILITY, WHETHER IN CONTRACT, ST
      +                          RICT
    76                           ; LIABILITY, OR TORT (INCLUDING NEGLIGENCE OR OTHERWISE) ARISING IN ANY WAY OUT OF THE U
      +                          SE OF
    77                           ; THIS SOFTWARE, EVEN IF ADVISED OF THE POSSIBILITY OF SUCH DAMAGE.
    78                           ; 
    79                           ; 
    80                           ; Code-generator required, PIC16F887 Definitions
    81                           ; 
    82                           ; SFR Addresses
    83  0000                     	;# 
    84  0001                     	;# 
    85  0002                     	;# 
    86  0003                     	;# 
    87  0004                     	;# 
    88  0005                     	;# 
    89  0006                     	;# 
    90  0007                     	;# 
    91  0008                     	;# 
    92  0009                     	;# 
    93  000A                     	;# 
    94  000B                     	;# 
    95  000C                     	;# 
    96  000D                     	;# 
    97  000E                     	;# 
    98  000E                     	;# 
    99  000F                     	;# 
   100  0010                     	;# 
   101  0011                     	;# 
   102  0012                     	;# 
   103  0013                     	;# 
   104  0014                     	;# 
   105  0015                     	;# 
   106  0015                     	;# 
   107  0016                     	;# 
   108  0017                     	;# 
   109  0018                     	;# 
   110  0019                     	;# 
   111  001A                     	;# 
   112  001B                     	;# 
   113  001B                     	;# 
   114  001C                     	;# 
   115  001D                     	;# 
   116  001E                     	;# 
   117  001F                     	;# 
   118  0081                     	;# 
   119  0085                     	;# 
   120  0086                     	;# 
   121  0087                     	;# 
   122  0088                     	;# 
   123  0089                     	;# 
   124  008C                     	;# 
   125  008D                     	;# 
   126  008E                     	;# 
   127  008F                     	;# 
   128  0090                     	;# 
   129  0091                     	;# 
   130  0092                     	;# 
   131  0093                     	;# 
   132  0093                     	;# 
   133  0093                     	;# 
   134  0094                     	;# 
   135  0095                     	;# 
   136  0096                     	;# 
   137  0097                     	;# 
   138  0098                     	;# 
   139  0099                     	;# 
   140  009A                     	;# 
   141  009B                     	;# 
   142  009C                     	;# 
   143  009D                     	;# 
   144  009E                     	;# 
   145  009F                     	;# 
   146  0105                     	;# 
   147  0107                     	;# 
   148  0108                     	;# 
   149  0109                     	;# 
   150  010C                     	;# 
   151  010C                     	;# 
   152  010D                     	;# 
   153  010E                     	;# 
   154  010F                     	;# 
   155  0185                     	;# 
   156  0187                     	;# 
   157  0188                     	;# 
   158  0189                     	;# 
   159  018C                     	;# 
   160  018D                     	;# 
   161  0000                     	;# 
   162  0001                     	;# 
   163  0002                     	;# 
   164  0003                     	;# 
   165  0004                     	;# 
   166  0005                     	;# 
   167  0006                     	;# 
   168  0007                     	;# 
   169  0008                     	;# 
   170  0009                     	;# 
   171  000A                     	;# 
   172  000B                     	;# 
   173  000C                     	;# 
   174  000D                     	;# 
   175  000E                     	;# 
   176  000E                     	;# 
   177  000F                     	;# 
   178  0010                     	;# 
   179  0011                     	;# 
   180  0012                     	;# 
   181  0013                     	;# 
   182  0014                     	;# 
   183  0015                     	;# 
   184  0015                     	;# 
   185  0016                     	;# 
   186  0017                     	;# 
   187  0018                     	;# 
   188  0019                     	;# 
   189  001A                     	;# 
   190  001B                     	;# 
   191  001B                     	;# 
   192  001C                     	;# 
   193  001D                     	;# 
   194  001E                     	;# 
   195  001F                     	;# 
   196  0081                     	;# 
   197  0085                     	;# 
   198  0086                     	;# 
   199  0087                     	;# 
   200  0088                     	;# 
   201  0089                     	;# 
   202  008C                     	;# 
   203  008D                     	;# 
   204  008E                     	;# 
   205  008F                     	;# 
   206  0090                     	;# 
   207  0091                     	;# 
   208  0092                     	;# 
   209  0093                     	;# 
   210  0093                     	;# 
   211  0093                     	;# 
   212  0094                     	;# 
   213  0095                     	;# 
   214  0096                     	;# 
   215  0097                     	;# 
   216  0098                     	;# 
   217  0099                     	;# 
   218  009A                     	;# 
   219  009B                     	;# 
   220  009C                     	;# 
   221  009D                     	;# 
   222  009E                     	;# 
   223  009F                     	;# 
   224  0105                     	;# 
   225  0107                     	;# 
   226  0108                     	;# 
   227  0109                     	;# 
   228  010C                     	;# 
   229  010C                     	;# 
   230  010D                     	;# 
   231  010E                     	;# 
   232  010F                     	;# 
   233  0185                     	;# 
   234  0187                     	;# 
   235  0188                     	;# 
   236  0189                     	;# 
   237  018C                     	;# 
   238  018D                     	;# 
   239  0000                     	;# 
   240  0001                     	;# 
   241  0002                     	;# 
   242  0003                     	;# 
   243  0004                     	;# 
   244  0005                     	;# 
   245  0006                     	;# 
   246  0007                     	;# 
   247  0008                     	;# 
   248  0009                     	;# 
   249  000A                     	;# 
   250  000B                     	;# 
   251  000C                     	;# 
   252  000D                     	;# 
   253  000E                     	;# 
   254  000E                     	;# 
   255  000F                     	;# 
   256  0010                     	;# 
   257  0011                     	;# 
   258  0012                     	;# 
   259  0013                     	;# 
   260  0014                     	;# 
   261  0015                     	;# 
   262  0015                     	;# 
   263  0016                     	;# 
   264  0017                     	;# 
   265  0018                     	;# 
   266  0019                     	;# 
   267  001A                     	;# 
   268  001B                     	;# 
   269  001B                     	;# 
   270  001C                     	;# 
   271  001D                     	;# 
   272  001E                     	;# 
   273  001F                     	;# 
   274  0081                     	;# 
   275  0085                     	;# 
   276  0086                     	;# 
   277  0087                     	;# 
   278  0088                     	;# 
   279  0089                     	;# 
   280  008C                     	;# 
   281  008D                     	;# 
   282  008E                     	;# 
   283  008F                     	;# 
   284  0090                     	;# 
   285  0091                     	;# 
   286  0092                     	;# 
   287  0093                     	;# 
   288  0093                     	;# 
   289  0093                     	;# 
   290  0094                     	;# 
   291  0095                     	;# 
   292  0096                     	;# 
   293  0097                     	;# 
   294  0098                     	;# 
   295  0099                     	;# 
   296  009A                     	;# 
   297  009B                     	;# 
   298  009C                     	;# 
   299  009D                     	;# 
   300  009E                     	;# 
   301  009F                     	;# 
   302  0105                     	;# 
   303  0107                     	;# 
   304  0108                     	;# 
   305  0109                     	;# 
   306  010C                     	;# 
   307  010C                     	;# 
   308  010D                     	;# 
   309  010E                     	;# 
   310  010F                     	;# 
   311  0185                     	;# 
   312  0187                     	;# 
   313  0188                     	;# 
   314  0189                     	;# 
   315  018C                     	;# 
   316  018D                     	;# 
   317  0000                     	;# 
   318  0001                     	;# 
   319  0002                     	;# 
   320  0003                     	;# 
   321  0004                     	;# 
   322  0005                     	;# 
   323  0006                     	;# 
   324  0007                     	;# 
   325  0008                     	;# 
   326  0009                     	;# 
   327  000A                     	;# 
   328  000B                     	;# 
   329  000C                     	;# 
   330  000D                     	;# 
   331  000E                     	;# 
   332  000E                     	;# 
   333  000F                     	;# 
   334  0010                     	;# 
   335  0011                     	;# 
   336  0012                     	;# 
   337  0013                     	;# 
   338  0014                     	;# 
   339  0015                     	;# 
   340  0015                     	;# 
   341  0016                     	;# 
   342  0017                     	;# 
   343  0018                     	;# 
   344  0019                     	;# 
   345  001A                     	;# 
   346  001B                     	;# 
   347  001B                     	;# 
   348  001C                     	;# 
   349  001D                     	;# 
   350  001E                     	;# 
   351  001F                     	;# 
   352  0081                     	;# 
   353  0085                     	;# 
   354  0086                     	;# 
   355  0087                     	;# 
   356  0088                     	;# 
   357  0089                     	;# 
   358  008C                     	;# 
   359  008D                     	;# 
   360  008E                     	;# 
   361  008F                     	;# 
   362  0090                     	;# 
   363  0091                     	;# 
   364  0092                     	;# 
   365  0093                     	;# 
   366  0093                     	;# 
   367  0093                     	;# 
   368  0094                     	;# 
   369  0095                     	;# 
   370  0096                     	;# 
   371  0097                     	;# 
   372  0098                     	;# 
   373  0099                     	;# 
   374  009A                     	;# 
   375  009B                     	;# 
   376  009C                     	;# 
   377  009D                     	;# 
   378  009E                     	;# 
   379  009F                     	;# 
   380  0105                     	;# 
   381  0107                     	;# 
   382  0108                     	;# 
   383  0109                     	;# 
   384  010C                     	;# 
   385  010C                     	;# 
   386  010D                     	;# 
   387  010E                     	;# 
   388  010F                     	;# 
   389  0185                     	;# 
   390  0187                     	;# 
   391  0188                     	;# 
   392  0189                     	;# 
   393  018C                     	;# 
   394  018D                     	;# 
   395  0000                     	;# 
   396  0001                     	;# 
   397  0002                     	;# 
   398  0003                     	;# 
   399  0004                     	;# 
   400  0005                     	;# 
   401  0006                     	;# 
   402  0007                     	;# 
   403  0008                     	;# 
   404  0009                     	;# 
   405  000A                     	;# 
   406  000B                     	;# 
   407  000C                     	;# 
   408  000D                     	;# 
   409  000E                     	;# 
   410  000E                     	;# 
   411  000F                     	;# 
   412  0010                     	;# 
   413  0011                     	;# 
   414  0012                     	;# 
   415  0013                     	;# 
   416  0014                     	;# 
   417  0015                     	;# 
   418  0015                     	;# 
   419  0016                     	;# 
   420  0017                     	;# 
   421  0018                     	;# 
   422  0019                     	;# 
   423  001A                     	;# 
   424  001B                     	;# 
   425  001B                     	;# 
   426  001C                     	;# 
   427  001D                     	;# 
   428  001E                     	;# 
   429  001F                     	;# 
   430  0081                     	;# 
   431  0085                     	;# 
   432  0086                     	;# 
   433  0087                     	;# 
   434  0088                     	;# 
   435  0089                     	;# 
   436  008C                     	;# 
   437  008D                     	;# 
   438  008E                     	;# 
   439  008F                     	;# 
   440  0090                     	;# 
   441  0091                     	;# 
   442  0092                     	;# 
   443  0093                     	;# 
   444  0093                     	;# 
   445  0093                     	;# 
   446  0094                     	;# 
   447  0095                     	;# 
   448  0096                     	;# 
   449  0097                     	;# 
   450  0098                     	;# 
   451  0099                     	;# 
   452  009A                     	;# 
   453  009B                     	;# 
   454  009C                     	;# 
   455  009D                     	;# 
   456  009E                     	;# 
   457  009F                     	;# 
   458  0105                     	;# 
   459  0107                     	;# 
   460  0108                     	;# 
   461  0109                     	;# 
   462  010C                     	;# 
   463  010C                     	;# 
   464  010D                     	;# 
   465  010E                     	;# 
   466  010F                     	;# 
   467  0185                     	;# 
   468  0187                     	;# 
   469  0188                     	;# 
   470  0189                     	;# 
   471  018C                     	;# 
   472  018D                     	;# 
   473                           
   474                           	psect	strings
   475  1000                     __pstrings:
   476  1000                     stringtab:
   477  1000                     __stringtab:
   478                           
   479                           ;	String table - string pointers are 1 byte each
   480  1000  1BFF               	btfsc	btemp+1,7
   481  1001  280A               	ljmp	stringcode
   482  1002  1383               	bcf	3,7
   483  1003  187F               	btfsc	btemp+1,0
   484  1004  1783               	bsf	3,7
   485  1005  0800               	movf	0,w
   486  1006  0A84               	incf	4,f
   487  1007  1903               	skipnz
   488  1008  0AFF               	incf	btemp+1,f
   489  1009  0008               	return
   490  100A                     stringcode:
   491  100A                     stringdir:
   492  100A  3010               	movlw	high stringdir
   493  100B  008A               	movwf	10
   494  100C  0804               	movf	4,w
   495  100D  0A84               	incf	4,f
   496  100E  0782               	addwf	2,f
   497  100F                     __stringbase:
   498  100F  3400               	retlw	0
   499  1010                     __end_of__stringtab:
   500  1010                     _dpowers:
   501  1010  3401               	retlw	1
   502  1011  3400               	retlw	0
   503  1012  3400               	retlw	0
   504  1013  3400               	retlw	0
   505  1014  340A               	retlw	10
   506  1015  3400               	retlw	0
   507  1016  3400               	retlw	0
   508  1017  3400               	retlw	0
   509  1018  3464               	retlw	100
   510  1019  3400               	retlw	0
   511  101A  3400               	retlw	0
   512  101B  3400               	retlw	0
   513  101C  34E8               	retlw	232
   514  101D  3403               	retlw	3
   515  101E  3400               	retlw	0
   516  101F  3400               	retlw	0
   517  1020  3410               	retlw	16
   518  1021  3427               	retlw	39
   519  1022  3400               	retlw	0
   520  1023  3400               	retlw	0
   521  1024  34A0               	retlw	160
   522  1025  3486               	retlw	134
   523  1026  3401               	retlw	1
   524  1027  3400               	retlw	0
   525  1028  3440               	retlw	64
   526  1029  3442               	retlw	66
   527  102A  340F               	retlw	15
   528  102B  3400               	retlw	0
   529  102C  3480               	retlw	128
   530  102D  3496               	retlw	150
   531  102E  3498               	retlw	152
   532  102F  3400               	retlw	0
   533  1030  3400               	retlw	0
   534  1031  34E1               	retlw	225
   535  1032  34F5               	retlw	245
   536  1033  3405               	retlw	5
   537  1034  3400               	retlw	0
   538  1035  34CA               	retlw	202
   539  1036  349A               	retlw	154
   540  1037  343B               	retlw	59
   541  1038                     __end_of_dpowers:
   542  0019                     _TXREG	set	25
   543  0018                     _RCSTAbits	set	24
   544  0013                     _SSPBUF	set	19
   545  0014                     _SSPCON	set	20
   546  000B                     _INTCONbits	set	11
   547  0005                     _PORTA	set	5
   548  0005                     _PORTAbits	set	5
   549  001A                     _RCREG	set	26
   550  000C                     _PIR1bits	set	12
   551  0063                     _SSPIF	set	99
   552  0091                     _SSPCON2bits	set	145
   553  0087                     _TRISCbits	set	135
   554  0098                     _TXSTAbits	set	152
   555  0099                     _SPBRG	set	153
   556  0093                     _SSPADD	set	147
   557  0094                     _SSPSTAT	set	148
   558  0091                     _SSPCON2	set	145
   559  008C                     _PIE1bits	set	140
   560  0085                     _TRISA	set	133
   561  04A0                     _BF	set	1184
   562  048B                     _RCEN	set	1163
   563  048E                     _ACKSTAT	set	1166
   564  048C                     _ACKEN	set	1164
   565  048D                     _ACKDT	set	1165
   566  048A                     _PEN	set	1162
   567  0489                     _RSEN	set	1161
   568  0488                     _SEN	set	1160
   569  043C                     _TRISC4	set	1084
   570  043B                     _TRISC3	set	1083
   571  0188                     _ANSEL	set	392
   572  1038                     STR_7:
   573  1038  3425               	retlw	37	;'%'
   574  1039  346C               	retlw	108	;'l'
   575  103A  3475               	retlw	117	;'u'
   576  103B  342E               	retlw	46	;'.'
   577  103C  3425               	retlw	37	;'%'
   578  103D  3436               	retlw	54	;'6'
   579  103E  342E               	retlw	46	;'.'
   580  103F  3436               	retlw	54	;'6'
   581  1040  346C               	retlw	108	;'l'
   582  1041  3475               	retlw	117	;'u'
   583  1042  3400               	retlw	0
   584  1043                     STR_1:
   585  1043  3420               	retlw	32	;' '
   586  1044  3400               	retlw	0
   587  1043                     
   588                           	psect	cinit
   589  000F                     start_initialization:	
   590                           ; #config settings
   591                           
   592  000F                     __initialization:
   593                           
   594                           ; Clear objects allocated to COMMON
   595  000F  01FA               	clrf	__pbssCOMMON& (0+127)
   596                           
   597                           ; Clear objects allocated to BANK3
   598  0010  1783               	bsf	3,7	;select IRP bank2
   599  0011  3090               	movlw	low __pbssBANK3
   600  0012  0084               	movwf	4
   601  0013  30A1               	movlw	low (__pbssBANK3+17)
   602  0014  160A  118A  22A7  120A  118A  	fcall	clear_ram0
   603  0019                     end_of_initialization:	
   604                           ;End of C runtime variable initialization code
   605                           
   606  0019                     __end_of__initialization:
   607  0019  0183               	clrf	3
   608  001A  160A  118A  2B4E   	ljmp	_main	;jump to C main() function
   609                           
   610                           	psect	bssCOMMON
   611  007A                     __pbssCOMMON:
   612  007A                     _entrada:
   613  007A                     	ds	1
   614                           
   615                           	psect	bssBANK3
   616  0190                     __pbssBANK3:
   617  0190                     ftoa@buf:
   618  0190                     	ds	17
   619                           
   620                           	psect	clrtext
   621  12A7                     clear_ram0:	
   622                           ;	Called with FSR containing the base address, and
   623                           ;	W with the last address+1
   624                           
   625  12A7  0064               	clrwdt	;clear the watchdog before getting into this loop
   626  12A8                     clrloop0:
   627  12A8  0180               	clrf	0	;clear RAM location pointed to by FSR
   628  12A9  0A84               	incf	4,f	;increment pointer
   629  12AA  0604               	xorwf	4,w	;XOR with final address
   630  12AB  1903               	btfsc	3,2	;have we reached the end yet?
   631  12AC  3400               	retlw	0	;all done for this memory range, return
   632  12AD  0604               	xorwf	4,w	;XOR again to restore value
   633  12AE  2AA8               	goto	clrloop0	;do the next byte
   634                           
   635                           	psect	cstackBANK1
   636  00A0                     __pcstackBANK1:
   637  00A0                     ??_GY_read:
   638                           
   639                           ; 1 bytes @ 0x0
   640  00A0                     	ds	4
   641  00A4                     GY_read@valores:
   642                           
   643                           ; 14 bytes @ 0x4
   644  00A4                     	ds	14
   645  00B2                     GY_read@datos:
   646                           
   647                           ; 28 bytes @ 0x12
   648  00B2                     	ds	28
   649  00CE                     GY_read@guardar:
   650                           
   651                           ; 14 bytes @ 0x2E
   652  00CE                     	ds	14
   653  00DC                     GY_read@i:
   654                           
   655                           ; 2 bytes @ 0x3C
   656  00DC                     	ds	2
   657  00DE                     GY_read@entero:
   658                           
   659                           ; 2 bytes @ 0x3E
   660  00DE                     	ds	2
   661  00E0                     GY_read@buf:
   662                           
   663                           ; 1 bytes @ 0x40
   664  00E0                     	ds	1
   665  00E1                     ??_main:
   666                           
   667                           ; 1 bytes @ 0x41
   668  00E1                     	ds	3
   669                           
   670                           	psect	cstackCOMMON
   671  0070                     __pcstackCOMMON:
   672  0070                     ?_isdigit:
   673  0070                     ?_Setup:	
   674                           ; 1 bit 
   675                           
   676  0070                     ?_GY_init:	
   677                           ; 1 bytes @ 0x0
   678                           
   679  0070                     ?_GY_read:	
   680                           ; 1 bytes @ 0x0
   681                           
   682  0070                     ?_I2C_Master_Write:	
   683                           ; 1 bytes @ 0x0
   684                           
   685  0070                     ?_ISR:	
   686                           ; 1 bytes @ 0x0
   687                           
   688  0070                     ??_ISR:	
   689                           ; 1 bytes @ 0x0
   690                           
   691  0070                     ?_main:	
   692                           ; 1 bytes @ 0x0
   693                           
   694  0070                     ?_I2C_Master_Init:	
   695                           ; 1 bytes @ 0x0
   696                           
   697  0070                     ?_I2C_Master_Wait:	
   698                           ; 1 bytes @ 0x0
   699                           
   700  0070                     ?_I2C_Master_Start:	
   701                           ; 1 bytes @ 0x0
   702                           
   703  0070                     ?_I2C_Start:	
   704                           ; 1 bytes @ 0x0
   705                           
   706  0070                     ?_I2C_Master_RepeatedStart:	
   707                           ; 1 bytes @ 0x0
   708                           
   709  0070                     ?_I2C_Master_Stop:	
   710                           ; 1 bytes @ 0x0
   711                           
   712  0070                     ?_I2C_ACK:	
   713                           ; 1 bytes @ 0x0
   714                           
   715  0070                     ?_I2C_NACK:	
   716                           ; 1 bytes @ 0x0
   717                           
   718  0070                     ?_I2C_Read:	
   719                           ; 1 bytes @ 0x0
   720                           
   721  0070                     ?_UARTSendChar:	
   722                           ; 1 bytes @ 0x0
   723                           
   724                           
   725                           ; 1 bytes @ 0x0
   726  0070                     	ds	3
   727  0073                     ??_Setup:
   728  0073                     ??_I2C_Master_Write:	
   729                           ; 1 bytes @ 0x3
   730                           
   731  0073                     ??_isdigit:	
   732                           ; 1 bytes @ 0x3
   733                           
   734  0073                     ??_I2C_Master_Init:	
   735                           ; 1 bytes @ 0x3
   736                           
   737  0073                     ??_I2C_Master_Wait:	
   738                           ; 1 bytes @ 0x3
   739                           
   740  0073                     ??_I2C_Master_Start:	
   741                           ; 1 bytes @ 0x3
   742                           
   743  0073                     ??_I2C_Master_RepeatedStart:	
   744                           ; 1 bytes @ 0x3
   745                           
   746  0073                     ??_I2C_Master_Stop:	
   747                           ; 1 bytes @ 0x3
   748                           
   749  0073                     ??_I2C_ACK:	
   750                           ; 1 bytes @ 0x3
   751                           
   752  0073                     ??_I2C_NACK:	
   753                           ; 1 bytes @ 0x3
   754                           
   755  0073                     ??_I2C_Read:	
   756                           ; 1 bytes @ 0x3
   757                           
   758  0073                     ??_UARTSendChar:	
   759                           ; 1 bytes @ 0x3
   760                           
   761  0073                     ??___lldiv:	
   762                           ; 1 bytes @ 0x3
   763                           
   764  0073                     ??___flge:	
   765                           ; 1 bytes @ 0x3
   766                           
   767  0073                     ?__Umul8_16:	
   768                           ; 1 bytes @ 0x3
   769                           
   770  0073                     ?___wmul:	
   771                           ; 2 bytes @ 0x3
   772                           
   773  0073                     ?___flneg:	
   774                           ; 2 bytes @ 0x3
   775                           
   776  0073                     ?___xxtofl:	
   777                           ; 4 bytes @ 0x3
   778                           
   779  0073                     I2C_Master_Write@data:	
   780                           ; 4 bytes @ 0x3
   781                           
   782  0073                     UARTSendChar@c:	
   783                           ; 1 bytes @ 0x3
   784                           
   785  0073                     __Umul8_16@multiplicand:	
   786                           ; 1 bytes @ 0x3
   787                           
   788  0073                     _isdigit$910:	
   789                           ; 1 bytes @ 0x3
   790                           
   791  0073                     ___wmul@multiplier:	
   792                           ; 1 bytes @ 0x3
   793                           
   794  0073                     ___flneg@f1:	
   795                           ; 2 bytes @ 0x3
   796                           
   797  0073                     ___xxtofl@val:	
   798                           ; 4 bytes @ 0x3
   799                           
   800                           
   801                           ; 4 bytes @ 0x3
   802  0073                     	ds	1
   803  0074                     ??_I2C_Start:
   804  0074                     ?_UARTSendString:	
   805                           ; 1 bytes @ 0x4
   806                           
   807  0074                     I2C_Start@add:	
   808                           ; 1 bytes @ 0x4
   809                           
   810  0074                     I2C_Read@ACK_NACK:	
   811                           ; 1 bytes @ 0x4
   812                           
   813  0074                     isdigit@c:	
   814                           ; 1 bytes @ 0x4
   815                           
   816  0074                     UARTSendString@str:	
   817                           ; 1 bytes @ 0x4
   818                           
   819  0074                     ___lldiv@quotient:	
   820                           ; 2 bytes @ 0x4
   821                           
   822                           
   823                           ; 4 bytes @ 0x4
   824  0074                     	ds	1
   825  0075                     ??__Umul8_16:
   826  0075                     I2C_Read@Data:	
   827                           ; 1 bytes @ 0x5
   828                           
   829  0075                     ___wmul@multiplicand:	
   830                           ; 1 bytes @ 0x5
   831                           
   832                           
   833                           ; 2 bytes @ 0x5
   834  0075                     	ds	1
   835  0076                     UARTSendString@max_length:
   836                           
   837                           ; 1 bytes @ 0x6
   838  0076                     	ds	1
   839  0077                     ??_UARTSendString:
   840  0077                     ??___wmul:	
   841                           ; 1 bytes @ 0x7
   842                           
   843  0077                     ??___flneg:	
   844                           ; 1 bytes @ 0x7
   845                           
   846  0077                     ??___flsub:	
   847                           ; 1 bytes @ 0x7
   848                           
   849  0077                     ___fltol@sign1:	
   850                           ; 1 bytes @ 0x7
   851                           
   852  0077                     ___wmul@product:	
   853                           ; 1 bytes @ 0x7
   854                           
   855                           
   856                           ; 2 bytes @ 0x7
   857  0077                     	ds	1
   858  0078                     ___lldiv@counter:
   859  0078                     ___fltol@exp1:	
   860                           ; 1 bytes @ 0x8
   861                           
   862                           
   863                           ; 1 bytes @ 0x8
   864  0078                     	ds	1
   865  0079                     ??_GY_init:
   866  0079                     ??___llmod:	
   867                           ; 1 bytes @ 0x9
   868                           
   869                           
   870                           ; 1 bytes @ 0x9
   871  0079                     	ds	1
   872                           
   873                           	psect	cstackBANK0
   874  0020                     __pcstackBANK0:
   875  0020                     ?___flge:
   876  0020                     ??___xxtofl:	
   877                           ; 1 bit 
   878                           
   879  0020                     ?___lldiv:	
   880                           ; 1 bytes @ 0x0
   881                           
   882  0020                     UARTSendString@i:	
   883                           ; 4 bytes @ 0x0
   884                           
   885  0020                     __Umul8_16@product:	
   886                           ; 2 bytes @ 0x0
   887                           
   888  0020                     ___lldiv@divisor:	
   889                           ; 2 bytes @ 0x0
   890                           
   891  0020                     ___flge@ff1:	
   892                           ; 4 bytes @ 0x0
   893                           
   894                           
   895                           ; 4 bytes @ 0x0
   896  0020                     	ds	2
   897  0022                     __Umul8_16@word_mpld:
   898                           
   899                           ; 2 bytes @ 0x2
   900  0022                     	ds	2
   901  0024                     __Umul8_16@multiplier:
   902  0024                     ___xxtofl@sign:	
   903                           ; 1 bytes @ 0x4
   904                           
   905  0024                     ___lldiv@dividend:	
   906                           ; 1 bytes @ 0x4
   907                           
   908  0024                     ___flge@ff2:	
   909                           ; 4 bytes @ 0x4
   910                           
   911                           
   912                           ; 4 bytes @ 0x4
   913  0024                     	ds	1
   914  0025                     ___xxtofl@exp:
   915                           
   916                           ; 1 bytes @ 0x5
   917  0025                     	ds	1
   918  0026                     ___xxtofl@arg:
   919                           
   920                           ; 4 bytes @ 0x6
   921  0026                     	ds	2
   922  0028                     ?_UARTInit:
   923  0028                     ?___llmod:	
   924                           ; 1 bytes @ 0x8
   925                           
   926  0028                     UARTInit@baud_rate:	
   927                           ; 4 bytes @ 0x8
   928                           
   929  0028                     ___llmod@divisor:	
   930                           ; 4 bytes @ 0x8
   931                           
   932                           
   933                           ; 4 bytes @ 0x8
   934  0028                     	ds	2
   935  002A                     ?___fldiv:
   936  002A                     ?___flmul:	
   937                           ; 4 bytes @ 0xA
   938                           
   939  002A                     ___fldiv@a:	
   940                           ; 4 bytes @ 0xA
   941                           
   942  002A                     ___flmul@b:	
   943                           ; 4 bytes @ 0xA
   944                           
   945                           
   946                           ; 4 bytes @ 0xA
   947  002A                     	ds	2
   948  002C                     UARTInit@BRGH:
   949  002C                     ___llmod@dividend:	
   950                           ; 1 bytes @ 0xC
   951                           
   952                           
   953                           ; 4 bytes @ 0xC
   954  002C                     	ds	1
   955  002D                     ??_UARTInit:
   956                           
   957                           ; 1 bytes @ 0xD
   958  002D                     	ds	1
   959  002E                     ___fldiv@b:
   960  002E                     ___flmul@a:	
   961                           ; 4 bytes @ 0xE
   962                           
   963                           
   964                           ; 4 bytes @ 0xE
   965  002E                     	ds	2
   966  0030                     ___llmod@counter:
   967                           
   968                           ; 1 bytes @ 0x10
   969  0030                     	ds	1
   970  0031                     ?_sprintf:
   971  0031                     sprintf@f:	
   972                           ; 2 bytes @ 0x11
   973                           
   974                           
   975                           ; 1 bytes @ 0x11
   976  0031                     	ds	1
   977  0032                     ??___fldiv:
   978  0032                     ??___flmul:	
   979                           ; 1 bytes @ 0x12
   980                           
   981                           
   982                           ; 1 bytes @ 0x12
   983  0032                     	ds	5
   984  0037                     ___flmul@sign:
   985  0037                     ___fldiv@rem:	
   986                           ; 1 bytes @ 0x17
   987                           
   988                           
   989                           ; 4 bytes @ 0x17
   990  0037                     	ds	1
   991  0038                     ___flmul@grs:
   992                           
   993                           ; 4 bytes @ 0x18
   994  0038                     	ds	2
   995  003A                     ??_sprintf:
   996                           
   997                           ; 1 bytes @ 0x1A
   998  003A                     	ds	1
   999  003B                     ___fldiv@sign:
  1000                           
  1001                           ; 1 bytes @ 0x1B
  1002  003B                     	ds	1
  1003  003C                     ___flmul@aexp:
  1004  003C                     ___fldiv@new_exp:	
  1005                           ; 1 bytes @ 0x1C
  1006                           
  1007                           
  1008                           ; 2 bytes @ 0x1C
  1009  003C                     	ds	1
  1010  003D                     ___flmul@bexp:
  1011                           
  1012                           ; 1 bytes @ 0x1D
  1013  003D                     	ds	1
  1014  003E                     ___fldiv@grs:
  1015  003E                     ___flmul@prod:	
  1016                           ; 4 bytes @ 0x1E
  1017                           
  1018                           
  1019                           ; 4 bytes @ 0x1E
  1020  003E                     	ds	1
  1021  003F                     sprintf@flag:
  1022                           
  1023                           ; 1 bytes @ 0x1F
  1024  003F                     	ds	1
  1025  0040                     sprintf@ap:
  1026                           
  1027                           ; 1 bytes @ 0x20
  1028  0040                     	ds	1
  1029  0041                     sprintf@val:
  1030                           
  1031                           ; 4 bytes @ 0x21
  1032  0041                     	ds	1
  1033  0042                     ___fldiv@bexp:
  1034  0042                     ___flmul@temp:	
  1035                           ; 1 bytes @ 0x22
  1036                           
  1037                           
  1038                           ; 2 bytes @ 0x22
  1039  0042                     	ds	1
  1040  0043                     ___fldiv@aexp:
  1041                           
  1042                           ; 1 bytes @ 0x23
  1043  0043                     	ds	1
  1044  0044                     ?___fltol:
  1045  0044                     ?___fladd:	
  1046                           ; 4 bytes @ 0x24
  1047                           
  1048  0044                     ___fltol@f1:	
  1049                           ; 4 bytes @ 0x24
  1050                           
  1051  0044                     ___fladd@b:	
  1052                           ; 4 bytes @ 0x24
  1053                           
  1054                           
  1055                           ; 4 bytes @ 0x24
  1056  0044                     	ds	1
  1057  0045                     sprintf@sp:
  1058                           
  1059                           ; 1 bytes @ 0x25
  1060  0045                     	ds	1
  1061  0046                     sprintf@width:
  1062                           
  1063                           ; 2 bytes @ 0x26
  1064  0046                     	ds	2
  1065  0048                     ??___fltol:
  1066  0048                     sprintf@prec:	
  1067                           ; 1 bytes @ 0x28
  1068                           
  1069  0048                     ___fladd@a:	
  1070                           ; 2 bytes @ 0x28
  1071                           
  1072                           
  1073                           ; 4 bytes @ 0x28
  1074  0048                     	ds	2
  1075  004A                     sprintf@c:
  1076                           
  1077                           ; 1 bytes @ 0x2A
  1078  004A                     	ds	2
  1079  004C                     ??___fladd:
  1080                           
  1081                           ; 1 bytes @ 0x2C
  1082  004C                     	ds	8
  1083  0054                     ___fladd@signs:
  1084                           
  1085                           ; 1 bytes @ 0x34
  1086  0054                     	ds	1
  1087  0055                     ___fladd@aexp:
  1088                           
  1089                           ; 1 bytes @ 0x35
  1090  0055                     	ds	1
  1091  0056                     ___fladd@bexp:
  1092                           
  1093                           ; 1 bytes @ 0x36
  1094  0056                     	ds	1
  1095  0057                     ___fladd@grs:
  1096                           
  1097                           ; 1 bytes @ 0x37
  1098  0057                     	ds	1
  1099  0058                     ?___flsub:
  1100  0058                     ___flsub@a:	
  1101                           ; 4 bytes @ 0x38
  1102                           
  1103                           
  1104                           ; 4 bytes @ 0x38
  1105  0058                     	ds	4
  1106  005C                     ___flsub@b:
  1107                           
  1108                           ; 4 bytes @ 0x3C
  1109  005C                     	ds	4
  1110  0060                     ?_ftoa:
  1111  0060                     ftoa@f:	
  1112                           ; 1 bytes @ 0x40
  1113                           
  1114                           
  1115                           ; 4 bytes @ 0x40
  1116  0060                     	ds	4
  1117  0064                     ftoa@status:
  1118                           
  1119                           ; 2 bytes @ 0x44
  1120  0064                     	ds	2
  1121  0066                     ??_ftoa:
  1122                           
  1123                           ; 1 bytes @ 0x46
  1124  0066                     	ds	1
  1125  0067                     ftoa@rem:
  1126                           
  1127                           ; 4 bytes @ 0x47
  1128  0067                     	ds	4
  1129  006B                     ftoa@l:
  1130                           
  1131                           ; 4 bytes @ 0x4B
  1132  006B                     	ds	4
  1133  006F                     ftoa@cp:
  1134                           
  1135                           ; 1 bytes @ 0x4F
  1136  006F                     	ds	1
  1137                           
  1138                           	psect	maintext
  1139  134E                     __pmaintext:	
  1140 ;;
  1141 ;;Main: autosize = 0, tempsize = 3, incstack = 0, save=0
  1142 ;;
  1143 ;; *************** function _main *****************
  1144 ;; Defined at:
  1145 ;;		line 69 in file "main.c"
  1146 ;; Parameters:    Size  Location     Type
  1147 ;;		None
  1148 ;; Auto vars:     Size  Location     Type
  1149 ;;		None
  1150 ;; Return value:  Size  Location     Type
  1151 ;;                  1    wreg      void 
  1152 ;; Registers used:
  1153 ;;		wreg, fsr0l, fsr0h, status,2, status,0, btemp+1, pclath, cstack
  1154 ;; Tracked objects:
  1155 ;;		On entry : B00/0
  1156 ;;		On exit  : 0/0
  1157 ;;		Unchanged: 0/0
  1158 ;; Data sizes:     COMMON   BANK0   BANK1   BANK3   BANK2
  1159 ;;      Params:         0       0       0       0       0
  1160 ;;      Locals:         0       0       0       0       0
  1161 ;;      Temps:          0       0       3       0       0
  1162 ;;      Totals:         0       0       3       0       0
  1163 ;;Total ram usage:        3 bytes
  1164 ;; Hardware stack levels required when called:    5
  1165 ;; This function calls:
  1166 ;;		_GY_init
  1167 ;;		_GY_read
  1168 ;;		_Setup
  1169 ;; This function is called by:
  1170 ;;		Startup code after reset
  1171 ;; This function uses a non-reentrant model
  1172 ;;
  1173                           
  1174                           
  1175                           ;psect for function _main
  1176  134E                     _main:
  1177  134E                     l3422:	
  1178                           ;incstack = 0
  1179                           ; Regs used in _main: [wreg-fsr0h+status,2+status,0+btemp+1+pclath+cstack]
  1180                           
  1181                           
  1182                           ;main.c: 70:     _delay((unsigned long)((1000)*(4000000/4000.0)));
  1183  134E  3006               	movlw	6
  1184  134F  1683               	bsf	3,5	;RP0=1, select bank1
  1185  1350  1303               	bcf	3,6	;RP1=0, select bank1
  1186  1351  00E3               	movwf	(??_main^(0+128)+2)
  1187  1352  3013               	movlw	19
  1188  1353  00E2               	movwf	(??_main^(0+128)+1)
  1189  1354  30AD               	movlw	173
  1190  1355  00E1               	movwf	??_main^(0+128)
  1191  1356                     u4937:
  1192  1356  0BE1               	decfsz	??_main^(0+128),f
  1193  1357  2B56               	goto	u4937
  1194  1358  0BE2               	decfsz	(??_main^(0+128)+1),f
  1195  1359  2B56               	goto	u4937
  1196  135A  0BE3               	decfsz	(??_main^(0+128)+2),f
  1197  135B  2B56               	goto	u4937
  1198  135C                     l3424:
  1199                           
  1200                           ;main.c: 71:     Setup();
  1201  135C  160A  118A  230D  160A  118A  	fcall	_Setup
  1202                           
  1203                           ;main.c: 73:     GY_init();
  1204  1361  160A  118A  272B  160A  118A  	fcall	_GY_init
  1205  1366                     l3426:
  1206                           
  1207                           ;main.c: 78:         GY_read();
  1208  1366  120A  118A  201D  160A  118A  	fcall	_GY_read
  1209  136B  2B66               	goto	l3426
  1210  136C  120A  118A  280C   	ljmp	start
  1211  136F                     __end_of_main:
  1212                           
  1213                           	psect	text1
  1214  130D                     __ptext1:	
  1215 ;; *************** function _Setup *****************
  1216 ;; Defined at:
  1217 ;;		line 86 in file "main.c"
  1218 ;; Parameters:    Size  Location     Type
  1219 ;;		None
  1220 ;; Auto vars:     Size  Location     Type
  1221 ;;		None
  1222 ;; Return value:  Size  Location     Type
  1223 ;;                  1    wreg      void 
  1224 ;; Registers used:
  1225 ;;		status,2
  1226 ;; Tracked objects:
  1227 ;;		On entry : 0/0
  1228 ;;		On exit  : 0/0
  1229 ;;		Unchanged: 0/0
  1230 ;; Data sizes:     COMMON   BANK0   BANK1   BANK3   BANK2
  1231 ;;      Params:         0       0       0       0       0
  1232 ;;      Locals:         0       0       0       0       0
  1233 ;;      Temps:          0       0       0       0       0
  1234 ;;      Totals:         0       0       0       0       0
  1235 ;;Total ram usage:        0 bytes
  1236 ;; Hardware stack levels used:    1
  1237 ;; Hardware stack levels required when called:    1
  1238 ;; This function calls:
  1239 ;;		Nothing
  1240 ;; This function is called by:
  1241 ;;		_main
  1242 ;; This function uses a non-reentrant model
  1243 ;;
  1244                           
  1245                           
  1246                           ;psect for function _Setup
  1247  130D                     _Setup:
  1248  130D                     l1798:	
  1249                           ;incstack = 0
  1250                           ; Regs used in _Setup: [status,2]
  1251                           
  1252                           
  1253                           ;main.c: 88:     ANSEL = 0;
  1254  130D  1683               	bsf	3,5	;RP0=1, select bank3
  1255  130E  1703               	bsf	3,6	;RP1=1, select bank3
  1256  130F  0188               	clrf	8	;volatile
  1257                           
  1258                           ;main.c: 89:     TRISA = 0;
  1259  1310  1683               	bsf	3,5	;RP0=1, select bank1
  1260  1311  1303               	bcf	3,6	;RP1=0, select bank1
  1261  1312  0185               	clrf	5	;volatile
  1262                           
  1263                           ;main.c: 90:     PORTA = 0;
  1264  1313  1283               	bcf	3,5	;RP0=0, select bank0
  1265  1314  1303               	bcf	3,6	;RP1=0, select bank0
  1266  1315  0185               	clrf	5	;volatile
  1267  1316                     l1800:
  1268                           
  1269                           ;main.c: 93:     INTCONbits.GIE = 1;
  1270  1316  178B               	bsf	11,7	;volatile
  1271  1317                     l1802:
  1272                           
  1273                           ;main.c: 94:     INTCONbits.PEIE = 1;
  1274  1317  170B               	bsf	11,6	;volatile
  1275  1318                     l1804:
  1276                           
  1277                           ;main.c: 95:     PIE1bits.RCIE = 1;
  1278  1318  1683               	bsf	3,5	;RP0=1, select bank1
  1279  1319  1303               	bcf	3,6	;RP1=0, select bank1
  1280  131A  168C               	bsf	12,5	;volatile
  1281  131B                     l47:
  1282  131B  0008               	return
  1283  131C                     __end_of_Setup:
  1284                           
  1285                           	psect	text2
  1286  001D                     __ptext2:	
  1287 ;; *************** function _GY_read *****************
  1288 ;; Defined at:
  1289 ;;		line 72 in file "GY-521.c"
  1290 ;; Parameters:    Size  Location     Type
  1291 ;;		None
  1292 ;; Auto vars:     Size  Location     Type
  1293 ;;  i               2   60[BANK1 ] int 
  1294 ;;  datos          28   18[BANK1 ] float [7]
  1295 ;;  valores        14    4[BANK1 ] unsigned char [14]
  1296 ;;  guardar        14   46[BANK1 ] int [7]
  1297 ;;  entero          2   62[BANK1 ] int 
  1298 ;;  buf             1   64[BANK1 ] PTR unsigned char 
  1299 ;;		 -> ftoa@buf(17), 
  1300 ;; Return value:  Size  Location     Type
  1301 ;;                  1    wreg      void 
  1302 ;; Registers used:
  1303 ;;		wreg, fsr0l, fsr0h, status,2, status,0, btemp+1, pclath, cstack
  1304 ;; Tracked objects:
  1305 ;;		On entry : 0/0
  1306 ;;		On exit  : 0/0
  1307 ;;		Unchanged: 0/0
  1308 ;; Data sizes:     COMMON   BANK0   BANK1   BANK3   BANK2
  1309 ;;      Params:         0       0       0       0       0
  1310 ;;      Locals:         0       0      61       0       0
  1311 ;;      Temps:          0       0       4       0       0
  1312 ;;      Totals:         0       0      65       0       0
  1313 ;;Total ram usage:       65 bytes
  1314 ;; Hardware stack levels used:    1
  1315 ;; Hardware stack levels required when called:    4
  1316 ;; This function calls:
  1317 ;;		_I2C_Master_RepeatedStart
  1318 ;;		_I2C_Master_Stop
  1319 ;;		_I2C_Master_Write
  1320 ;;		_I2C_Read
  1321 ;;		_I2C_Start
  1322 ;;		_UARTSendChar
  1323 ;;		_UARTSendString
  1324 ;;		___fladd
  1325 ;;		___fldiv
  1326 ;;		___flmul
  1327 ;;		___xxtofl
  1328 ;;		_ftoa
  1329 ;; This function is called by:
  1330 ;;		_main
  1331 ;; This function uses a non-reentrant model
  1332 ;;
  1333                           
  1334                           
  1335                           ;psect for function _GY_read
  1336  001D                     _GY_read:
  1337  001D                     l3328:	
  1338                           ;incstack = 0
  1339                           ; Regs used in _GY_read: [wreg-fsr0h+status,2+status,0+btemp+1+pclath+cstack]
  1340                           
  1341                           
  1342                           ;GY-521.c: 73:     float datos[7];;GY-521.c: 74:     char* buf;;GY-521.c: 75:     int en
      +                          tero = 2;
  1343  001D  3002               	movlw	2
  1344  001E  1683               	bsf	3,5	;RP0=1, select bank1
  1345  001F  1303               	bcf	3,6	;RP1=0, select bank1
  1346  0020  00DE               	movwf	GY_read@entero^(0+128)
  1347  0021  3000               	movlw	0
  1348  0022  00DF               	movwf	(GY_read@entero^(0+128)+1)
  1349  0023                     l3330:
  1350                           
  1351                           ;GY-521.c: 76:     char valores[14];;GY-521.c: 77:     int guardar[7];;GY-521.c: 78:    
      +                           I2C_Start(0xD0);
  1352  0023  30D0               	movlw	208
  1353  0024  160A  118A  232C  120A  118A  	fcall	_I2C_Start
  1354  0029                     l218:	
  1355                           ;GY-521.c: 79:     while (SSPCON2bits.ACKSTAT);
  1356                           
  1357  0029  1683               	bsf	3,5	;RP0=1, select bank1
  1358  002A  1303               	bcf	3,6	;RP1=0, select bank1
  1359  002B  1B11               	btfsc	17,6	;volatile
  1360  002C  282E               	goto	u4901
  1361  002D  282F               	goto	u4900
  1362  002E                     u4901:
  1363  002E  2829               	goto	l218
  1364  002F                     u4900:
  1365  002F                     l3332:
  1366                           
  1367                           ;GY-521.c: 80:     I2C_Master_Write(0x3B);
  1368  002F  303B               	movlw	59
  1369  0030  160A  118A  231C  120A  118A  	fcall	_I2C_Master_Write
  1370  0035                     l221:	
  1371                           ;GY-521.c: 81:     while (SSPCON2bits.ACKSTAT);
  1372                           
  1373  0035  1683               	bsf	3,5	;RP0=1, select bank1
  1374  0036  1303               	bcf	3,6	;RP1=0, select bank1
  1375  0037  1B11               	btfsc	17,6	;volatile
  1376  0038  283A               	goto	u4911
  1377  0039  283B               	goto	u4910
  1378  003A                     u4911:
  1379  003A  2835               	goto	l221
  1380  003B                     u4910:
  1381  003B                     l3334:
  1382                           
  1383                           ;GY-521.c: 82:     I2C_Master_RepeatedStart();
  1384  003B  160A  118A  22C1  120A  118A  	fcall	_I2C_Master_RepeatedStart
  1385                           
  1386                           ;GY-521.c: 83:     I2C_Master_Write(0xD1);
  1387  0040  30D1               	movlw	209
  1388  0041  160A  118A  231C  120A  118A  	fcall	_I2C_Master_Write
  1389  0046                     l3336:
  1390                           
  1391                           ;GY-521.c: 85:     for (int i = 0; i < 13; i++) valores[i] = I2C_Read(0);
  1392  0046  1683               	bsf	3,5	;RP0=1, select bank1
  1393  0047  1303               	bcf	3,6	;RP1=0, select bank1
  1394  0048  01DC               	clrf	GY_read@i^(0+128)
  1395  0049  01DD               	clrf	(GY_read@i+1)^(0+128)
  1396  004A                     l3342:
  1397  004A  3000               	movlw	0
  1398  004B  160A  118A  23E1  120A  118A  	fcall	_I2C_Read
  1399  0050  1683               	bsf	3,5	;RP0=1, select bank1
  1400  0051  1303               	bcf	3,6	;RP1=0, select bank1
  1401  0052  00A0               	movwf	??_GY_read^(0+128)
  1402  0053  085C               	movf	GY_read@i^(0+128),w
  1403  0054  3EA4               	addlw	(low (GY_read@valores| 0))& (0+255)
  1404  0055  0084               	movwf	4
  1405  0056  0820               	movf	??_GY_read^(0+128),w
  1406  0057  1383               	bcf	3,7	;select IRP bank1
  1407  0058  0080               	movwf	0
  1408  0059                     l3344:
  1409  0059  3001               	movlw	1
  1410  005A  07DC               	addwf	GY_read@i^(0+128),f
  1411  005B  1803               	skipnc
  1412  005C  0ADD               	incf	(GY_read@i+1)^(0+128),f
  1413  005D  3000               	movlw	0
  1414  005E  07DD               	addwf	(GY_read@i+1)^(0+128),f
  1415  005F                     l3346:
  1416  005F  085D               	movf	(GY_read@i+1)^(0+128),w
  1417  0060  3A80               	xorlw	128
  1418  0061  00FF               	movwf	btemp+1
  1419  0062  3080               	movlw	128
  1420  0063  027F               	subwf	btemp+1,w
  1421  0064  1D03               	skipz
  1422  0065  2868               	goto	u4925
  1423  0066  300D               	movlw	13
  1424  0067  025C               	subwf	GY_read@i^(0+128),w
  1425  0068                     u4925:
  1426  0068  1C03               	skipc
  1427  0069  286B               	goto	u4921
  1428  006A  286C               	goto	u4920
  1429  006B                     u4921:
  1430  006B  284A               	goto	l3342
  1431  006C                     u4920:
  1432  006C                     l3348:
  1433                           
  1434                           ;GY-521.c: 86:     valores[13] = I2C_Read(1);
  1435  006C  3001               	movlw	1
  1436  006D  160A  118A  23E1  120A  118A  	fcall	_I2C_Read
  1437  0072  1683               	bsf	3,5	;RP0=1, select bank1
  1438  0073  1303               	bcf	3,6	;RP1=0, select bank1
  1439  0074  00A0               	movwf	??_GY_read^(0+128)
  1440  0075  0820               	movf	??_GY_read^(0+128),w
  1441  0076  00B1               	movwf	(GY_read@valores^(0+128)+13)
  1442                           
  1443                           ;GY-521.c: 87:     I2C_Master_Stop();
  1444  0077  160A  118A  22B8  120A  118A  	fcall	_I2C_Master_Stop
  1445  007C                     l3350:
  1446                           
  1447                           ;GY-521.c: 89:     guardar[0] = ((int) valores[0] << 8) | ((int) valores[1]);
  1448  007C  1683               	bsf	3,5	;RP0=1, select bank1
  1449  007D  1303               	bcf	3,6	;RP1=0, select bank1
  1450  007E  0825               	movf	(GY_read@valores^(0+128)+1),w
  1451  007F  00A0               	movwf	??_GY_read^(0+128)
  1452  0080  01A1               	clrf	(??_GY_read^(0+128)+1)
  1453  0081  0824               	movf	GY_read@valores^(0+128),w
  1454  0082  00A2               	movwf	(??_GY_read+2)^(0+128)
  1455  0083  01A3               	clrf	((??_GY_read+2)^(0+128)+1)
  1456  0084  0822               	movf	(??_GY_read+2)^(0+128),w
  1457  0085  00A3               	movwf	((??_GY_read+2)^(0+128)+1)
  1458  0086  01A2               	clrf	(??_GY_read+2)^(0+128)
  1459  0087  0820               	movf	??_GY_read^(0+128),w
  1460  0088  0422               	iorwf	(??_GY_read+2)^(0+128),w
  1461  0089  00CE               	movwf	GY_read@guardar^(0+128)
  1462  008A  0821               	movf	(??_GY_read+1)^(0+128),w
  1463  008B  0423               	iorwf	(??_GY_read+3)^(0+128),w
  1464  008C  00CF               	movwf	(GY_read@guardar+1)^(0+128)
  1465  008D                     l3352:
  1466                           
  1467                           ;GY-521.c: 90:     guardar[1] = ((int) valores[2] << 8) | ((int) valores[3]);
  1468  008D  0827               	movf	(GY_read@valores^(0+128)+3),w
  1469  008E  00A0               	movwf	??_GY_read^(0+128)
  1470  008F  01A1               	clrf	(??_GY_read^(0+128)+1)
  1471  0090  0826               	movf	(GY_read@valores^(0+128)+2),w
  1472  0091  00A2               	movwf	(??_GY_read+2)^(0+128)
  1473  0092  01A3               	clrf	((??_GY_read+2)^(0+128)+1)
  1474  0093  0822               	movf	(??_GY_read+2)^(0+128),w
  1475  0094  00A3               	movwf	((??_GY_read+2)^(0+128)+1)
  1476  0095  01A2               	clrf	(??_GY_read+2)^(0+128)
  1477  0096  0820               	movf	??_GY_read^(0+128),w
  1478  0097  0422               	iorwf	(??_GY_read+2)^(0+128),w
  1479  0098  00D0               	movwf	(GY_read@guardar^(0+128)+2)
  1480  0099  0821               	movf	(??_GY_read+1)^(0+128),w
  1481  009A  0423               	iorwf	(??_GY_read+3)^(0+128),w
  1482  009B  00D1               	movwf	((GY_read@guardar+1)^(0+128)+2)
  1483  009C                     l3354:
  1484                           
  1485                           ;GY-521.c: 91:     guardar[2] = ((int) valores[4] << 8) | ((int) valores[5]);
  1486  009C  0829               	movf	(GY_read@valores^(0+128)+5),w
  1487  009D  00A0               	movwf	??_GY_read^(0+128)
  1488  009E  01A1               	clrf	(??_GY_read^(0+128)+1)
  1489  009F  0828               	movf	(GY_read@valores^(0+128)+4),w
  1490  00A0  00A2               	movwf	(??_GY_read+2)^(0+128)
  1491  00A1  01A3               	clrf	((??_GY_read+2)^(0+128)+1)
  1492  00A2  0822               	movf	(??_GY_read+2)^(0+128),w
  1493  00A3  00A3               	movwf	((??_GY_read+2)^(0+128)+1)
  1494  00A4  01A2               	clrf	(??_GY_read+2)^(0+128)
  1495  00A5  0820               	movf	??_GY_read^(0+128),w
  1496  00A6  0422               	iorwf	(??_GY_read+2)^(0+128),w
  1497  00A7  00D2               	movwf	(GY_read@guardar^(0+128)+4)
  1498  00A8  0821               	movf	(??_GY_read+1)^(0+128),w
  1499  00A9  0423               	iorwf	(??_GY_read+3)^(0+128),w
  1500  00AA  00D3               	movwf	((GY_read@guardar+1)^(0+128)+4)
  1501  00AB                     l3356:
  1502                           
  1503                           ;GY-521.c: 92:     guardar[3] = ((int) valores[6] << 8) | ((int) valores[7]);
  1504  00AB  082B               	movf	(GY_read@valores^(0+128)+7),w
  1505  00AC  00A0               	movwf	??_GY_read^(0+128)
  1506  00AD  01A1               	clrf	(??_GY_read^(0+128)+1)
  1507  00AE  082A               	movf	(GY_read@valores^(0+128)+6),w
  1508  00AF  00A2               	movwf	(??_GY_read+2)^(0+128)
  1509  00B0  01A3               	clrf	((??_GY_read+2)^(0+128)+1)
  1510  00B1  0822               	movf	(??_GY_read+2)^(0+128),w
  1511  00B2  00A3               	movwf	((??_GY_read+2)^(0+128)+1)
  1512  00B3  01A2               	clrf	(??_GY_read+2)^(0+128)
  1513  00B4  0820               	movf	??_GY_read^(0+128),w
  1514  00B5  0422               	iorwf	(??_GY_read+2)^(0+128),w
  1515  00B6  00D4               	movwf	(GY_read@guardar^(0+128)+6)
  1516  00B7  0821               	movf	(??_GY_read+1)^(0+128),w
  1517  00B8  0423               	iorwf	(??_GY_read+3)^(0+128),w
  1518  00B9  00D5               	movwf	((GY_read@guardar+1)^(0+128)+6)
  1519  00BA                     l3358:
  1520                           
  1521                           ;GY-521.c: 93:     guardar[4] = ((int) valores[8] << 8) | ((int) valores[9]);
  1522  00BA  082D               	movf	(GY_read@valores^(0+128)+9),w
  1523  00BB  00A0               	movwf	??_GY_read^(0+128)
  1524  00BC  01A1               	clrf	(??_GY_read^(0+128)+1)
  1525  00BD  082C               	movf	(GY_read@valores^(0+128)+8),w
  1526  00BE  00A2               	movwf	(??_GY_read+2)^(0+128)
  1527  00BF  01A3               	clrf	((??_GY_read+2)^(0+128)+1)
  1528  00C0  0822               	movf	(??_GY_read+2)^(0+128),w
  1529  00C1  00A3               	movwf	((??_GY_read+2)^(0+128)+1)
  1530  00C2  01A2               	clrf	(??_GY_read+2)^(0+128)
  1531  00C3  0820               	movf	??_GY_read^(0+128),w
  1532  00C4  0422               	iorwf	(??_GY_read+2)^(0+128),w
  1533  00C5  00D6               	movwf	(GY_read@guardar^(0+128)+8)
  1534  00C6  0821               	movf	(??_GY_read+1)^(0+128),w
  1535  00C7  0423               	iorwf	(??_GY_read+3)^(0+128),w
  1536  00C8  00D7               	movwf	((GY_read@guardar+1)^(0+128)+8)
  1537  00C9                     l3360:
  1538                           
  1539                           ;GY-521.c: 94:     guardar[5] = ((int) valores[10] << 8) | ((int) valores[11]);
  1540  00C9  082F               	movf	(GY_read@valores^(0+128)+11),w
  1541  00CA  00A0               	movwf	??_GY_read^(0+128)
  1542  00CB  01A1               	clrf	(??_GY_read^(0+128)+1)
  1543  00CC  082E               	movf	(GY_read@valores^(0+128)+10),w
  1544  00CD  00A2               	movwf	(??_GY_read+2)^(0+128)
  1545  00CE  01A3               	clrf	((??_GY_read+2)^(0+128)+1)
  1546  00CF  0822               	movf	(??_GY_read+2)^(0+128),w
  1547  00D0  00A3               	movwf	((??_GY_read+2)^(0+128)+1)
  1548  00D1  01A2               	clrf	(??_GY_read+2)^(0+128)
  1549  00D2  0820               	movf	??_GY_read^(0+128),w
  1550  00D3  0422               	iorwf	(??_GY_read+2)^(0+128),w
  1551  00D4  00D8               	movwf	(GY_read@guardar^(0+128)+10)
  1552  00D5  0821               	movf	(??_GY_read+1)^(0+128),w
  1553  00D6  0423               	iorwf	(??_GY_read+3)^(0+128),w
  1554  00D7  00D9               	movwf	((GY_read@guardar+1)^(0+128)+10)
  1555  00D8                     l3362:
  1556                           
  1557                           ;GY-521.c: 95:     guardar[6] = ((int) valores[12] << 8) | ((int) valores[13]);
  1558  00D8  0831               	movf	(GY_read@valores^(0+128)+13),w
  1559  00D9  00A0               	movwf	??_GY_read^(0+128)
  1560  00DA  01A1               	clrf	(??_GY_read^(0+128)+1)
  1561  00DB  0830               	movf	(GY_read@valores^(0+128)+12),w
  1562  00DC  00A2               	movwf	(??_GY_read+2)^(0+128)
  1563  00DD  01A3               	clrf	((??_GY_read+2)^(0+128)+1)
  1564  00DE  0822               	movf	(??_GY_read+2)^(0+128),w
  1565  00DF  00A3               	movwf	((??_GY_read+2)^(0+128)+1)
  1566  00E0  01A2               	clrf	(??_GY_read+2)^(0+128)
  1567  00E1  0820               	movf	??_GY_read^(0+128),w
  1568  00E2  0422               	iorwf	(??_GY_read+2)^(0+128),w
  1569  00E3  00DA               	movwf	(GY_read@guardar^(0+128)+12)
  1570  00E4  0821               	movf	(??_GY_read+1)^(0+128),w
  1571  00E5  0423               	iorwf	(??_GY_read+3)^(0+128),w
  1572  00E6  00DB               	movwf	((GY_read@guardar+1)^(0+128)+12)
  1573  00E7                     l3364:
  1574                           
  1575                           ;GY-521.c: 100:     datos[0] = ((float) guardar[0]) * 0.0005982;
  1576  00E7  303A               	movlw	58
  1577  00E8  1283               	bcf	3,5	;RP0=0, select bank0
  1578  00E9  1303               	bcf	3,6	;RP1=0, select bank0
  1579  00EA  00AD               	movwf	___flmul@b+3
  1580  00EB  301C               	movlw	28
  1581  00EC  00AC               	movwf	___flmul@b+2
  1582  00ED  30D0               	movlw	208
  1583  00EE  00AB               	movwf	___flmul@b+1
  1584  00EF  3086               	movlw	134
  1585  00F0  00AA               	movwf	___flmul@b
  1586  00F1  1683               	bsf	3,5	;RP0=1, select bank1
  1587  00F2  1303               	bcf	3,6	;RP1=0, select bank1
  1588  00F3  084E               	movf	GY_read@guardar^(0+128),w
  1589  00F4  00F3               	movwf	___xxtofl@val
  1590  00F5  084F               	movf	(GY_read@guardar+1)^(0+128),w
  1591  00F6  00F4               	movwf	___xxtofl@val+1
  1592  00F7  3000               	movlw	0
  1593  00F8  1BF4               	btfsc	___xxtofl@val+1,7
  1594  00F9  30FF               	movlw	255
  1595  00FA  00F5               	movwf	___xxtofl@val+2
  1596  00FB  00F6               	movwf	___xxtofl@val+3
  1597  00FC  3001               	movlw	1
  1598  00FD  160A  118A  266F  120A  118A  	fcall	___xxtofl
  1599  0102  0876               	movf	?___xxtofl+3,w
  1600  0103  1283               	bcf	3,5	;RP0=0, select bank0
  1601  0104  1303               	bcf	3,6	;RP1=0, select bank0
  1602  0105  00B1               	movwf	___flmul@a+3
  1603  0106  0875               	movf	?___xxtofl+2,w
  1604  0107  00B0               	movwf	___flmul@a+2
  1605  0108  0874               	movf	?___xxtofl+1,w
  1606  0109  00AF               	movwf	___flmul@a+1
  1607  010A  0873               	movf	?___xxtofl,w
  1608  010B  00AE               	movwf	___flmul@a
  1609  010C  120A  118A  249E  120A  118A  	fcall	___flmul
  1610  0111  1283               	bcf	3,5	;RP0=0, select bank0
  1611  0112  1303               	bcf	3,6	;RP1=0, select bank0
  1612  0113  082D               	movf	?___flmul+3,w
  1613  0114  1683               	bsf	3,5	;RP0=1, select bank1
  1614  0115  1303               	bcf	3,6	;RP1=0, select bank1
  1615  0116  00B5               	movwf	(GY_read@datos+3)^(0+128)
  1616  0117  1283               	bcf	3,5	;RP0=0, select bank0
  1617  0118  1303               	bcf	3,6	;RP1=0, select bank0
  1618  0119  082C               	movf	?___flmul+2,w
  1619  011A  1683               	bsf	3,5	;RP0=1, select bank1
  1620  011B  1303               	bcf	3,6	;RP1=0, select bank1
  1621  011C  00B4               	movwf	(GY_read@datos+2)^(0+128)
  1622  011D  1283               	bcf	3,5	;RP0=0, select bank0
  1623  011E  1303               	bcf	3,6	;RP1=0, select bank0
  1624  011F  082B               	movf	?___flmul+1,w
  1625  0120  1683               	bsf	3,5	;RP0=1, select bank1
  1626  0121  1303               	bcf	3,6	;RP1=0, select bank1
  1627  0122  00B3               	movwf	(GY_read@datos+1)^(0+128)
  1628  0123  1283               	bcf	3,5	;RP0=0, select bank0
  1629  0124  1303               	bcf	3,6	;RP1=0, select bank0
  1630  0125  082A               	movf	?___flmul,w
  1631  0126  1683               	bsf	3,5	;RP0=1, select bank1
  1632  0127  1303               	bcf	3,6	;RP1=0, select bank1
  1633  0128  00B2               	movwf	GY_read@datos^(0+128)
  1634  0129                     l3366:
  1635                           
  1636                           ;GY-521.c: 101:     datos[1] = ((float) guardar[1]) * 0.0005982;
  1637  0129  303A               	movlw	58
  1638  012A  1283               	bcf	3,5	;RP0=0, select bank0
  1639  012B  1303               	bcf	3,6	;RP1=0, select bank0
  1640  012C  00AD               	movwf	___flmul@b+3
  1641  012D  301C               	movlw	28
  1642  012E  00AC               	movwf	___flmul@b+2
  1643  012F  30D0               	movlw	208
  1644  0130  00AB               	movwf	___flmul@b+1
  1645  0131  3086               	movlw	134
  1646  0132  00AA               	movwf	___flmul@b
  1647  0133  1683               	bsf	3,5	;RP0=1, select bank1
  1648  0134  1303               	bcf	3,6	;RP1=0, select bank1
  1649  0135  0850               	movf	(GY_read@guardar^(0+128)+2),w
  1650  0136  00F3               	movwf	___xxtofl@val
  1651  0137  0851               	movf	((GY_read@guardar+1)^(0+128)+2),w
  1652  0138  00F4               	movwf	___xxtofl@val+1
  1653  0139  3000               	movlw	0
  1654  013A  1BF4               	btfsc	___xxtofl@val+1,7
  1655  013B  30FF               	movlw	255
  1656  013C  00F5               	movwf	___xxtofl@val+2
  1657  013D  00F6               	movwf	___xxtofl@val+3
  1658  013E  3001               	movlw	1
  1659  013F  160A  118A  266F  120A  118A  	fcall	___xxtofl
  1660  0144  0876               	movf	?___xxtofl+3,w
  1661  0145  1283               	bcf	3,5	;RP0=0, select bank0
  1662  0146  1303               	bcf	3,6	;RP1=0, select bank0
  1663  0147  00B1               	movwf	___flmul@a+3
  1664  0148  0875               	movf	?___xxtofl+2,w
  1665  0149  00B0               	movwf	___flmul@a+2
  1666  014A  0874               	movf	?___xxtofl+1,w
  1667  014B  00AF               	movwf	___flmul@a+1
  1668  014C  0873               	movf	?___xxtofl,w
  1669  014D  00AE               	movwf	___flmul@a
  1670  014E  120A  118A  249E  120A  118A  	fcall	___flmul
  1671  0153  1283               	bcf	3,5	;RP0=0, select bank0
  1672  0154  1303               	bcf	3,6	;RP1=0, select bank0
  1673  0155  082D               	movf	?___flmul+3,w
  1674  0156  1683               	bsf	3,5	;RP0=1, select bank1
  1675  0157  1303               	bcf	3,6	;RP1=0, select bank1
  1676  0158  00B9               	movwf	((GY_read@datos+3)^(0+128)+4)
  1677  0159  1283               	bcf	3,5	;RP0=0, select bank0
  1678  015A  1303               	bcf	3,6	;RP1=0, select bank0
  1679  015B  082C               	movf	?___flmul+2,w
  1680  015C  1683               	bsf	3,5	;RP0=1, select bank1
  1681  015D  1303               	bcf	3,6	;RP1=0, select bank1
  1682  015E  00B8               	movwf	((GY_read@datos+2)^(0+128)+4)
  1683  015F  1283               	bcf	3,5	;RP0=0, select bank0
  1684  0160  1303               	bcf	3,6	;RP1=0, select bank0
  1685  0161  082B               	movf	?___flmul+1,w
  1686  0162  1683               	bsf	3,5	;RP0=1, select bank1
  1687  0163  1303               	bcf	3,6	;RP1=0, select bank1
  1688  0164  00B7               	movwf	((GY_read@datos+1)^(0+128)+4)
  1689  0165  1283               	bcf	3,5	;RP0=0, select bank0
  1690  0166  1303               	bcf	3,6	;RP1=0, select bank0
  1691  0167  082A               	movf	?___flmul,w
  1692  0168  1683               	bsf	3,5	;RP0=1, select bank1
  1693  0169  1303               	bcf	3,6	;RP1=0, select bank1
  1694  016A  00B6               	movwf	(GY_read@datos^(0+128)+4)
  1695  016B                     l3368:
  1696                           
  1697                           ;GY-521.c: 102:     datos[2] = ((float) guardar[2]) * 0.0005982;
  1698  016B  303A               	movlw	58
  1699  016C  1283               	bcf	3,5	;RP0=0, select bank0
  1700  016D  1303               	bcf	3,6	;RP1=0, select bank0
  1701  016E  00AD               	movwf	___flmul@b+3
  1702  016F  301C               	movlw	28
  1703  0170  00AC               	movwf	___flmul@b+2
  1704  0171  30D0               	movlw	208
  1705  0172  00AB               	movwf	___flmul@b+1
  1706  0173  3086               	movlw	134
  1707  0174  00AA               	movwf	___flmul@b
  1708  0175  1683               	bsf	3,5	;RP0=1, select bank1
  1709  0176  1303               	bcf	3,6	;RP1=0, select bank1
  1710  0177  0852               	movf	(GY_read@guardar^(0+128)+4),w
  1711  0178  00F3               	movwf	___xxtofl@val
  1712  0179  0853               	movf	((GY_read@guardar+1)^(0+128)+4),w
  1713  017A  00F4               	movwf	___xxtofl@val+1
  1714  017B  3000               	movlw	0
  1715  017C  1BF4               	btfsc	___xxtofl@val+1,7
  1716  017D  30FF               	movlw	255
  1717  017E  00F5               	movwf	___xxtofl@val+2
  1718  017F  00F6               	movwf	___xxtofl@val+3
  1719  0180  3001               	movlw	1
  1720  0181  160A  118A  266F  120A  118A  	fcall	___xxtofl
  1721  0186  0876               	movf	?___xxtofl+3,w
  1722  0187  1283               	bcf	3,5	;RP0=0, select bank0
  1723  0188  1303               	bcf	3,6	;RP1=0, select bank0
  1724  0189  00B1               	movwf	___flmul@a+3
  1725  018A  0875               	movf	?___xxtofl+2,w
  1726  018B  00B0               	movwf	___flmul@a+2
  1727  018C  0874               	movf	?___xxtofl+1,w
  1728  018D  00AF               	movwf	___flmul@a+1
  1729  018E  0873               	movf	?___xxtofl,w
  1730  018F  00AE               	movwf	___flmul@a
  1731  0190  120A  118A  249E  120A  118A  	fcall	___flmul
  1732  0195  1283               	bcf	3,5	;RP0=0, select bank0
  1733  0196  1303               	bcf	3,6	;RP1=0, select bank0
  1734  0197  082D               	movf	?___flmul+3,w
  1735  0198  1683               	bsf	3,5	;RP0=1, select bank1
  1736  0199  1303               	bcf	3,6	;RP1=0, select bank1
  1737  019A  00BD               	movwf	((GY_read@datos+3)^(0+128)+8)
  1738  019B  1283               	bcf	3,5	;RP0=0, select bank0
  1739  019C  1303               	bcf	3,6	;RP1=0, select bank0
  1740  019D  082C               	movf	?___flmul+2,w
  1741  019E  1683               	bsf	3,5	;RP0=1, select bank1
  1742  019F  1303               	bcf	3,6	;RP1=0, select bank1
  1743  01A0  00BC               	movwf	((GY_read@datos+2)^(0+128)+8)
  1744  01A1  1283               	bcf	3,5	;RP0=0, select bank0
  1745  01A2  1303               	bcf	3,6	;RP1=0, select bank0
  1746  01A3  082B               	movf	?___flmul+1,w
  1747  01A4  1683               	bsf	3,5	;RP0=1, select bank1
  1748  01A5  1303               	bcf	3,6	;RP1=0, select bank1
  1749  01A6  00BB               	movwf	((GY_read@datos+1)^(0+128)+8)
  1750  01A7  1283               	bcf	3,5	;RP0=0, select bank0
  1751  01A8  1303               	bcf	3,6	;RP1=0, select bank0
  1752  01A9  082A               	movf	?___flmul,w
  1753  01AA  1683               	bsf	3,5	;RP0=1, select bank1
  1754  01AB  1303               	bcf	3,6	;RP1=0, select bank1
  1755  01AC  00BA               	movwf	(GY_read@datos^(0+128)+8)
  1756  01AD                     l3370:
  1757                           
  1758                           ;GY-521.c: 103:     datos[3] = ((float) guardar[3]) / 340 + 36.53;
  1759  01AD  3042               	movlw	66
  1760  01AE  1283               	bcf	3,5	;RP0=0, select bank0
  1761  01AF  1303               	bcf	3,6	;RP1=0, select bank0
  1762  01B0  00C7               	movwf	___fladd@b+3
  1763  01B1  3012               	movlw	18
  1764  01B2  00C6               	movwf	___fladd@b+2
  1765  01B3  301E               	movlw	30
  1766  01B4  00C5               	movwf	___fladd@b+1
  1767  01B5  30B8               	movlw	184
  1768  01B6  00C4               	movwf	___fladd@b
  1769  01B7  3043               	movlw	67
  1770  01B8  00AD               	movwf	___fldiv@a+3
  1771  01B9  30AA               	movlw	170
  1772  01BA  00AC               	movwf	___fldiv@a+2
  1773  01BB  3000               	movlw	0
  1774  01BC  00AB               	movwf	___fldiv@a+1
  1775  01BD  3000               	movlw	0
  1776  01BE  00AA               	movwf	___fldiv@a
  1777  01BF  1683               	bsf	3,5	;RP0=1, select bank1
  1778  01C0  1303               	bcf	3,6	;RP1=0, select bank1
  1779  01C1  0854               	movf	(GY_read@guardar^(0+128)+6),w
  1780  01C2  00F3               	movwf	___xxtofl@val
  1781  01C3  0855               	movf	((GY_read@guardar+1)^(0+128)+6),w
  1782  01C4  00F4               	movwf	___xxtofl@val+1
  1783  01C5  3000               	movlw	0
  1784  01C6  1BF4               	btfsc	___xxtofl@val+1,7
  1785  01C7  30FF               	movlw	255
  1786  01C8  00F5               	movwf	___xxtofl@val+2
  1787  01C9  00F6               	movwf	___xxtofl@val+3
  1788  01CA  3001               	movlw	1
  1789  01CB  160A  118A  266F  120A  118A  	fcall	___xxtofl
  1790  01D0  0876               	movf	?___xxtofl+3,w
  1791  01D1  1283               	bcf	3,5	;RP0=0, select bank0
  1792  01D2  1303               	bcf	3,6	;RP1=0, select bank0
  1793  01D3  00B1               	movwf	___fldiv@b+3
  1794  01D4  0875               	movf	?___xxtofl+2,w
  1795  01D5  00B0               	movwf	___fldiv@b+2
  1796  01D6  0874               	movf	?___xxtofl+1,w
  1797  01D7  00AF               	movwf	___fldiv@b+1
  1798  01D8  0873               	movf	?___xxtofl,w
  1799  01D9  00AE               	movwf	___fldiv@b
  1800  01DA  120A  158A  214F  120A  118A  	fcall	___fldiv
  1801  01DF  1283               	bcf	3,5	;RP0=0, select bank0
  1802  01E0  1303               	bcf	3,6	;RP1=0, select bank0
  1803  01E1  082D               	movf	?___fldiv+3,w
  1804  01E2  00CB               	movwf	___fladd@a+3
  1805  01E3  082C               	movf	?___fldiv+2,w
  1806  01E4  00CA               	movwf	___fladd@a+2
  1807  01E5  082B               	movf	?___fldiv+1,w
  1808  01E6  00C9               	movwf	___fladd@a+1
  1809  01E7  082A               	movf	?___fldiv,w
  1810  01E8  00C8               	movwf	___fladd@a
  1811  01E9  120A  158A  2578  120A  118A  	fcall	___fladd
  1812  01EE  1283               	bcf	3,5	;RP0=0, select bank0
  1813  01EF  1303               	bcf	3,6	;RP1=0, select bank0
  1814  01F0  0847               	movf	?___fladd+3,w
  1815  01F1  1683               	bsf	3,5	;RP0=1, select bank1
  1816  01F2  1303               	bcf	3,6	;RP1=0, select bank1
  1817  01F3  00C1               	movwf	((GY_read@datos+3)^(0+128)+12)
  1818  01F4  1283               	bcf	3,5	;RP0=0, select bank0
  1819  01F5  1303               	bcf	3,6	;RP1=0, select bank0
  1820  01F6  0846               	movf	?___fladd+2,w
  1821  01F7  1683               	bsf	3,5	;RP0=1, select bank1
  1822  01F8  1303               	bcf	3,6	;RP1=0, select bank1
  1823  01F9  00C0               	movwf	((GY_read@datos+2)^(0+128)+12)
  1824  01FA  1283               	bcf	3,5	;RP0=0, select bank0
  1825  01FB  1303               	bcf	3,6	;RP1=0, select bank0
  1826  01FC  0845               	movf	?___fladd+1,w
  1827  01FD  1683               	bsf	3,5	;RP0=1, select bank1
  1828  01FE  1303               	bcf	3,6	;RP1=0, select bank1
  1829  01FF  00BF               	movwf	((GY_read@datos+1)^(0+128)+12)
  1830  0200  1283               	bcf	3,5	;RP0=0, select bank0
  1831  0201  1303               	bcf	3,6	;RP1=0, select bank0
  1832  0202  0844               	movf	?___fladd,w
  1833  0203  1683               	bsf	3,5	;RP0=1, select bank1
  1834  0204  1303               	bcf	3,6	;RP1=0, select bank1
  1835  0205  00BE               	movwf	(GY_read@datos^(0+128)+12)
  1836  0206                     l3372:
  1837                           
  1838                           ;GY-521.c: 104:     datos[4] = ((float) guardar[4]) * 0.00763;
  1839  0206  303B               	movlw	59
  1840  0207  1283               	bcf	3,5	;RP0=0, select bank0
  1841  0208  1303               	bcf	3,6	;RP1=0, select bank0
  1842  0209  00AD               	movwf	___flmul@b+3
  1843  020A  30FA               	movlw	250
  1844  020B  00AC               	movwf	___flmul@b+2
  1845  020C  3005               	movlw	5
  1846  020D  00AB               	movwf	___flmul@b+1
  1847  020E  3014               	movlw	20
  1848  020F  00AA               	movwf	___flmul@b
  1849  0210  1683               	bsf	3,5	;RP0=1, select bank1
  1850  0211  1303               	bcf	3,6	;RP1=0, select bank1
  1851  0212  0856               	movf	(GY_read@guardar^(0+128)+8),w
  1852  0213  00F3               	movwf	___xxtofl@val
  1853  0214  0857               	movf	((GY_read@guardar+1)^(0+128)+8),w
  1854  0215  00F4               	movwf	___xxtofl@val+1
  1855  0216  3000               	movlw	0
  1856  0217  1BF4               	btfsc	___xxtofl@val+1,7
  1857  0218  30FF               	movlw	255
  1858  0219  00F5               	movwf	___xxtofl@val+2
  1859  021A  00F6               	movwf	___xxtofl@val+3
  1860  021B  3001               	movlw	1
  1861  021C  160A  118A  266F  120A  118A  	fcall	___xxtofl
  1862  0221  0876               	movf	?___xxtofl+3,w
  1863  0222  1283               	bcf	3,5	;RP0=0, select bank0
  1864  0223  1303               	bcf	3,6	;RP1=0, select bank0
  1865  0224  00B1               	movwf	___flmul@a+3
  1866  0225  0875               	movf	?___xxtofl+2,w
  1867  0226  00B0               	movwf	___flmul@a+2
  1868  0227  0874               	movf	?___xxtofl+1,w
  1869  0228  00AF               	movwf	___flmul@a+1
  1870  0229  0873               	movf	?___xxtofl,w
  1871  022A  00AE               	movwf	___flmul@a
  1872  022B  120A  118A  249E  120A  118A  	fcall	___flmul
  1873  0230  1283               	bcf	3,5	;RP0=0, select bank0
  1874  0231  1303               	bcf	3,6	;RP1=0, select bank0
  1875  0232  082D               	movf	?___flmul+3,w
  1876  0233  1683               	bsf	3,5	;RP0=1, select bank1
  1877  0234  1303               	bcf	3,6	;RP1=0, select bank1
  1878  0235  00C5               	movwf	((GY_read@datos+3)^(0+128)+16)
  1879  0236  1283               	bcf	3,5	;RP0=0, select bank0
  1880  0237  1303               	bcf	3,6	;RP1=0, select bank0
  1881  0238  082C               	movf	?___flmul+2,w
  1882  0239  1683               	bsf	3,5	;RP0=1, select bank1
  1883  023A  1303               	bcf	3,6	;RP1=0, select bank1
  1884  023B  00C4               	movwf	((GY_read@datos+2)^(0+128)+16)
  1885  023C  1283               	bcf	3,5	;RP0=0, select bank0
  1886  023D  1303               	bcf	3,6	;RP1=0, select bank0
  1887  023E  082B               	movf	?___flmul+1,w
  1888  023F  1683               	bsf	3,5	;RP0=1, select bank1
  1889  0240  1303               	bcf	3,6	;RP1=0, select bank1
  1890  0241  00C3               	movwf	((GY_read@datos+1)^(0+128)+16)
  1891  0242  1283               	bcf	3,5	;RP0=0, select bank0
  1892  0243  1303               	bcf	3,6	;RP1=0, select bank0
  1893  0244  082A               	movf	?___flmul,w
  1894  0245  1683               	bsf	3,5	;RP0=1, select bank1
  1895  0246  1303               	bcf	3,6	;RP1=0, select bank1
  1896  0247  00C2               	movwf	(GY_read@datos^(0+128)+16)
  1897  0248                     l3374:
  1898                           
  1899                           ;GY-521.c: 105:     datos[5] = ((float) guardar[5]) * 0.00763;
  1900  0248  303B               	movlw	59
  1901  0249  1283               	bcf	3,5	;RP0=0, select bank0
  1902  024A  1303               	bcf	3,6	;RP1=0, select bank0
  1903  024B  00AD               	movwf	___flmul@b+3
  1904  024C  30FA               	movlw	250
  1905  024D  00AC               	movwf	___flmul@b+2
  1906  024E  3005               	movlw	5
  1907  024F  00AB               	movwf	___flmul@b+1
  1908  0250  3014               	movlw	20
  1909  0251  00AA               	movwf	___flmul@b
  1910  0252  1683               	bsf	3,5	;RP0=1, select bank1
  1911  0253  1303               	bcf	3,6	;RP1=0, select bank1
  1912  0254  0858               	movf	(GY_read@guardar^(0+128)+10),w
  1913  0255  00F3               	movwf	___xxtofl@val
  1914  0256  0859               	movf	((GY_read@guardar+1)^(0+128)+10),w
  1915  0257  00F4               	movwf	___xxtofl@val+1
  1916  0258  3000               	movlw	0
  1917  0259  1BF4               	btfsc	___xxtofl@val+1,7
  1918  025A  30FF               	movlw	255
  1919  025B  00F5               	movwf	___xxtofl@val+2
  1920  025C  00F6               	movwf	___xxtofl@val+3
  1921  025D  3001               	movlw	1
  1922  025E  160A  118A  266F  120A  118A  	fcall	___xxtofl
  1923  0263  0876               	movf	?___xxtofl+3,w
  1924  0264  1283               	bcf	3,5	;RP0=0, select bank0
  1925  0265  1303               	bcf	3,6	;RP1=0, select bank0
  1926  0266  00B1               	movwf	___flmul@a+3
  1927  0267  0875               	movf	?___xxtofl+2,w
  1928  0268  00B0               	movwf	___flmul@a+2
  1929  0269  0874               	movf	?___xxtofl+1,w
  1930  026A  00AF               	movwf	___flmul@a+1
  1931  026B  0873               	movf	?___xxtofl,w
  1932  026C  00AE               	movwf	___flmul@a
  1933  026D  120A  118A  249E  120A  118A  	fcall	___flmul
  1934  0272  1283               	bcf	3,5	;RP0=0, select bank0
  1935  0273  1303               	bcf	3,6	;RP1=0, select bank0
  1936  0274  082D               	movf	?___flmul+3,w
  1937  0275  1683               	bsf	3,5	;RP0=1, select bank1
  1938  0276  1303               	bcf	3,6	;RP1=0, select bank1
  1939  0277  00C9               	movwf	((GY_read@datos+3)^(0+128)+20)
  1940  0278  1283               	bcf	3,5	;RP0=0, select bank0
  1941  0279  1303               	bcf	3,6	;RP1=0, select bank0
  1942  027A  082C               	movf	?___flmul+2,w
  1943  027B  1683               	bsf	3,5	;RP0=1, select bank1
  1944  027C  1303               	bcf	3,6	;RP1=0, select bank1
  1945  027D  00C8               	movwf	((GY_read@datos+2)^(0+128)+20)
  1946  027E  1283               	bcf	3,5	;RP0=0, select bank0
  1947  027F  1303               	bcf	3,6	;RP1=0, select bank0
  1948  0280  082B               	movf	?___flmul+1,w
  1949  0281  1683               	bsf	3,5	;RP0=1, select bank1
  1950  0282  1303               	bcf	3,6	;RP1=0, select bank1
  1951  0283  00C7               	movwf	((GY_read@datos+1)^(0+128)+20)
  1952  0284  1283               	bcf	3,5	;RP0=0, select bank0
  1953  0285  1303               	bcf	3,6	;RP1=0, select bank0
  1954  0286  082A               	movf	?___flmul,w
  1955  0287  1683               	bsf	3,5	;RP0=1, select bank1
  1956  0288  1303               	bcf	3,6	;RP1=0, select bank1
  1957  0289  00C6               	movwf	(GY_read@datos^(0+128)+20)
  1958  028A                     l3376:
  1959                           
  1960                           ;GY-521.c: 106:     datos[6] = ((float) guardar[6]) * 0.00763;
  1961  028A  303B               	movlw	59
  1962  028B  1283               	bcf	3,5	;RP0=0, select bank0
  1963  028C  1303               	bcf	3,6	;RP1=0, select bank0
  1964  028D  00AD               	movwf	___flmul@b+3
  1965  028E  30FA               	movlw	250
  1966  028F  00AC               	movwf	___flmul@b+2
  1967  0290  3005               	movlw	5
  1968  0291  00AB               	movwf	___flmul@b+1
  1969  0292  3014               	movlw	20
  1970  0293  00AA               	movwf	___flmul@b
  1971  0294  1683               	bsf	3,5	;RP0=1, select bank1
  1972  0295  1303               	bcf	3,6	;RP1=0, select bank1
  1973  0296  085A               	movf	(GY_read@guardar^(0+128)+12),w
  1974  0297  00F3               	movwf	___xxtofl@val
  1975  0298  085B               	movf	((GY_read@guardar+1)^(0+128)+12),w
  1976  0299  00F4               	movwf	___xxtofl@val+1
  1977  029A  3000               	movlw	0
  1978  029B  1BF4               	btfsc	___xxtofl@val+1,7
  1979  029C  30FF               	movlw	255
  1980  029D  00F5               	movwf	___xxtofl@val+2
  1981  029E  00F6               	movwf	___xxtofl@val+3
  1982  029F  3001               	movlw	1
  1983  02A0  160A  118A  266F  120A  118A  	fcall	___xxtofl
  1984  02A5  0876               	movf	?___xxtofl+3,w
  1985  02A6  1283               	bcf	3,5	;RP0=0, select bank0
  1986  02A7  1303               	bcf	3,6	;RP1=0, select bank0
  1987  02A8  00B1               	movwf	___flmul@a+3
  1988  02A9  0875               	movf	?___xxtofl+2,w
  1989  02AA  00B0               	movwf	___flmul@a+2
  1990  02AB  0874               	movf	?___xxtofl+1,w
  1991  02AC  00AF               	movwf	___flmul@a+1
  1992  02AD  0873               	movf	?___xxtofl,w
  1993  02AE  00AE               	movwf	___flmul@a
  1994  02AF  120A  118A  249E  120A  118A  	fcall	___flmul
  1995  02B4  1283               	bcf	3,5	;RP0=0, select bank0
  1996  02B5  1303               	bcf	3,6	;RP1=0, select bank0
  1997  02B6  082D               	movf	?___flmul+3,w
  1998  02B7  1683               	bsf	3,5	;RP0=1, select bank1
  1999  02B8  1303               	bcf	3,6	;RP1=0, select bank1
  2000  02B9  00CD               	movwf	((GY_read@datos+3)^(0+128)+24)
  2001  02BA  1283               	bcf	3,5	;RP0=0, select bank0
  2002  02BB  1303               	bcf	3,6	;RP1=0, select bank0
  2003  02BC  082C               	movf	?___flmul+2,w
  2004  02BD  1683               	bsf	3,5	;RP0=1, select bank1
  2005  02BE  1303               	bcf	3,6	;RP1=0, select bank1
  2006  02BF  00CC               	movwf	((GY_read@datos+2)^(0+128)+24)
  2007  02C0  1283               	bcf	3,5	;RP0=0, select bank0
  2008  02C1  1303               	bcf	3,6	;RP1=0, select bank0
  2009  02C2  082B               	movf	?___flmul+1,w
  2010  02C3  1683               	bsf	3,5	;RP0=1, select bank1
  2011  02C4  1303               	bcf	3,6	;RP1=0, select bank1
  2012  02C5  00CB               	movwf	((GY_read@datos+1)^(0+128)+24)
  2013  02C6  1283               	bcf	3,5	;RP0=0, select bank0
  2014  02C7  1303               	bcf	3,6	;RP1=0, select bank0
  2015  02C8  082A               	movf	?___flmul,w
  2016  02C9  1683               	bsf	3,5	;RP0=1, select bank1
  2017  02CA  1303               	bcf	3,6	;RP1=0, select bank1
  2018  02CB  00CA               	movwf	(GY_read@datos^(0+128)+24)
  2019  02CC                     l3378:
  2020                           
  2021                           ;GY-521.c: 109:     buf = ftoa(datos[0], entero);
  2022  02CC  0835               	movf	(GY_read@datos+3)^(0+128),w
  2023  02CD  1283               	bcf	3,5	;RP0=0, select bank0
  2024  02CE  1303               	bcf	3,6	;RP1=0, select bank0
  2025  02CF  00E3               	movwf	ftoa@f+3
  2026  02D0  1683               	bsf	3,5	;RP0=1, select bank1
  2027  02D1  1303               	bcf	3,6	;RP1=0, select bank1
  2028  02D2  0834               	movf	(GY_read@datos+2)^(0+128),w
  2029  02D3  1283               	bcf	3,5	;RP0=0, select bank0
  2030  02D4  1303               	bcf	3,6	;RP1=0, select bank0
  2031  02D5  00E2               	movwf	ftoa@f+2
  2032  02D6  1683               	bsf	3,5	;RP0=1, select bank1
  2033  02D7  1303               	bcf	3,6	;RP1=0, select bank1
  2034  02D8  0833               	movf	(GY_read@datos+1)^(0+128),w
  2035  02D9  1283               	bcf	3,5	;RP0=0, select bank0
  2036  02DA  1303               	bcf	3,6	;RP1=0, select bank0
  2037  02DB  00E1               	movwf	ftoa@f+1
  2038  02DC  1683               	bsf	3,5	;RP0=1, select bank1
  2039  02DD  1303               	bcf	3,6	;RP1=0, select bank1
  2040  02DE  0832               	movf	GY_read@datos^(0+128),w
  2041  02DF  1283               	bcf	3,5	;RP0=0, select bank0
  2042  02E0  1303               	bcf	3,6	;RP1=0, select bank0
  2043  02E1  00E0               	movwf	ftoa@f
  2044  02E2  1683               	bsf	3,5	;RP0=1, select bank1
  2045  02E3  1303               	bcf	3,6	;RP1=0, select bank1
  2046  02E4  085E               	movf	GY_read@entero^(0+128),w
  2047  02E5  1283               	bcf	3,5	;RP0=0, select bank0
  2048  02E6  1303               	bcf	3,6	;RP1=0, select bank0
  2049  02E7  00E4               	movwf	ftoa@status
  2050  02E8  1683               	bsf	3,5	;RP0=1, select bank1
  2051  02E9  1303               	bcf	3,6	;RP1=0, select bank1
  2052  02EA  085F               	movf	(GY_read@entero+1)^(0+128),w
  2053  02EB  1283               	bcf	3,5	;RP0=0, select bank0
  2054  02EC  1303               	bcf	3,6	;RP1=0, select bank0
  2055  02ED  00E5               	movwf	ftoa@status+1
  2056  02EE  120A  158A  207A  120A  118A  	fcall	_ftoa
  2057  02F3  1683               	bsf	3,5	;RP0=1, select bank1
  2058  02F4  1303               	bcf	3,6	;RP1=0, select bank1
  2059  02F5  00A0               	movwf	??_GY_read^(0+128)
  2060  02F6  0820               	movf	??_GY_read^(0+128),w
  2061  02F7  00E0               	movwf	GY_read@buf^(0+128)
  2062  02F8                     l3380:
  2063                           
  2064                           ;GY-521.c: 110:     UARTSendString(buf, 6);
  2065  02F8  0860               	movf	GY_read@buf^(0+128),w
  2066  02F9  00F4               	movwf	UARTSendString@str
  2067  02FA  3001               	movlw	1
  2068  02FB  00F5               	movwf	UARTSendString@str+1
  2069  02FC  3006               	movlw	6
  2070  02FD  00A0               	movwf	??_GY_read^(0+128)
  2071  02FE  0820               	movf	??_GY_read^(0+128),w
  2072  02FF  00F6               	movwf	UARTSendString@max_length
  2073  0300  160A  118A  2490  120A  118A  	fcall	_UARTSendString
  2074  0305                     l3382:
  2075                           
  2076                           ;GY-521.c: 112:     buf = ftoa(datos[1], entero);
  2077  0305  3004               	movlw	4
  2078  0306  3EB2               	addlw	(low (GY_read@datos| 0))& (0+255)
  2079  0307  0084               	movwf	4
  2080  0308  1383               	bcf	3,7	;select IRP bank1
  2081  0309  0800               	movf	0,w
  2082  030A  1283               	bcf	3,5	;RP0=0, select bank0
  2083  030B  1303               	bcf	3,6	;RP1=0, select bank0
  2084  030C  00E0               	movwf	ftoa@f
  2085  030D  0A84               	incf	4,f
  2086  030E  0800               	movf	0,w
  2087  030F  00E1               	movwf	ftoa@f+1
  2088  0310  0A84               	incf	4,f
  2089  0311  0800               	movf	0,w
  2090  0312  00E2               	movwf	ftoa@f+2
  2091  0313  0A84               	incf	4,f
  2092  0314  0800               	movf	0,w
  2093  0315  00E3               	movwf	ftoa@f+3
  2094  0316  1683               	bsf	3,5	;RP0=1, select bank1
  2095  0317  1303               	bcf	3,6	;RP1=0, select bank1
  2096  0318  085E               	movf	GY_read@entero^(0+128),w
  2097  0319  1283               	bcf	3,5	;RP0=0, select bank0
  2098  031A  1303               	bcf	3,6	;RP1=0, select bank0
  2099  031B  00E4               	movwf	ftoa@status
  2100  031C  1683               	bsf	3,5	;RP0=1, select bank1
  2101  031D  1303               	bcf	3,6	;RP1=0, select bank1
  2102  031E  085F               	movf	(GY_read@entero+1)^(0+128),w
  2103  031F  1283               	bcf	3,5	;RP0=0, select bank0
  2104  0320  1303               	bcf	3,6	;RP1=0, select bank0
  2105  0321  00E5               	movwf	ftoa@status+1
  2106  0322  120A  158A  207A  120A  118A  	fcall	_ftoa
  2107  0327  1683               	bsf	3,5	;RP0=1, select bank1
  2108  0328  1303               	bcf	3,6	;RP1=0, select bank1
  2109  0329  00A0               	movwf	??_GY_read^(0+128)
  2110  032A  0820               	movf	??_GY_read^(0+128),w
  2111  032B  00E0               	movwf	GY_read@buf^(0+128)
  2112  032C                     l3384:
  2113                           
  2114                           ;GY-521.c: 113:     UARTSendString(" ", 10);
  2115  032C  3034               	movlw	(low ((STR_1-__stringbase)| (0+32768)))& (0+255)
  2116  032D  00F4               	movwf	UARTSendString@str
  2117  032E  3080               	movlw	128
  2118  032F  00F5               	movwf	UARTSendString@str+1
  2119  0330  300A               	movlw	10
  2120  0331  00A0               	movwf	??_GY_read^(0+128)
  2121  0332  0820               	movf	??_GY_read^(0+128),w
  2122  0333  00F6               	movwf	UARTSendString@max_length
  2123  0334  160A  118A  2490  120A  118A  	fcall	_UARTSendString
  2124  0339                     l3386:
  2125                           
  2126                           ;GY-521.c: 114:     UARTSendString(buf, 6);
  2127  0339  1683               	bsf	3,5	;RP0=1, select bank1
  2128  033A  1303               	bcf	3,6	;RP1=0, select bank1
  2129  033B  0860               	movf	GY_read@buf^(0+128),w
  2130  033C  00F4               	movwf	UARTSendString@str
  2131  033D  3001               	movlw	1
  2132  033E  00F5               	movwf	UARTSendString@str+1
  2133  033F  3006               	movlw	6
  2134  0340  00A0               	movwf	??_GY_read^(0+128)
  2135  0341  0820               	movf	??_GY_read^(0+128),w
  2136  0342  00F6               	movwf	UARTSendString@max_length
  2137  0343  160A  118A  2490  120A  118A  	fcall	_UARTSendString
  2138  0348                     l3388:
  2139                           
  2140                           ;GY-521.c: 116:     buf = ftoa(datos[2], entero);
  2141  0348  3008               	movlw	8
  2142  0349  3EB2               	addlw	(low (GY_read@datos| 0))& (0+255)
  2143  034A  0084               	movwf	4
  2144  034B  1383               	bcf	3,7	;select IRP bank1
  2145  034C  0800               	movf	0,w
  2146  034D  1283               	bcf	3,5	;RP0=0, select bank0
  2147  034E  1303               	bcf	3,6	;RP1=0, select bank0
  2148  034F  00E0               	movwf	ftoa@f
  2149  0350  0A84               	incf	4,f
  2150  0351  0800               	movf	0,w
  2151  0352  00E1               	movwf	ftoa@f+1
  2152  0353  0A84               	incf	4,f
  2153  0354  0800               	movf	0,w
  2154  0355  00E2               	movwf	ftoa@f+2
  2155  0356  0A84               	incf	4,f
  2156  0357  0800               	movf	0,w
  2157  0358  00E3               	movwf	ftoa@f+3
  2158  0359  1683               	bsf	3,5	;RP0=1, select bank1
  2159  035A  1303               	bcf	3,6	;RP1=0, select bank1
  2160  035B  085E               	movf	GY_read@entero^(0+128),w
  2161  035C  1283               	bcf	3,5	;RP0=0, select bank0
  2162  035D  1303               	bcf	3,6	;RP1=0, select bank0
  2163  035E  00E4               	movwf	ftoa@status
  2164  035F  1683               	bsf	3,5	;RP0=1, select bank1
  2165  0360  1303               	bcf	3,6	;RP1=0, select bank1
  2166  0361  085F               	movf	(GY_read@entero+1)^(0+128),w
  2167  0362  1283               	bcf	3,5	;RP0=0, select bank0
  2168  0363  1303               	bcf	3,6	;RP1=0, select bank0
  2169  0364  00E5               	movwf	ftoa@status+1
  2170  0365  120A  158A  207A  120A  118A  	fcall	_ftoa
  2171  036A  1683               	bsf	3,5	;RP0=1, select bank1
  2172  036B  1303               	bcf	3,6	;RP1=0, select bank1
  2173  036C  00A0               	movwf	??_GY_read^(0+128)
  2174  036D  0820               	movf	??_GY_read^(0+128),w
  2175  036E  00E0               	movwf	GY_read@buf^(0+128)
  2176  036F                     l3390:
  2177                           
  2178                           ;GY-521.c: 117:     UARTSendString(" ", 10);
  2179  036F  3034               	movlw	(low ((STR_1-__stringbase)| (0+32768)))& (0+255)
  2180  0370  00F4               	movwf	UARTSendString@str
  2181  0371  3080               	movlw	128
  2182  0372  00F5               	movwf	UARTSendString@str+1
  2183  0373  300A               	movlw	10
  2184  0374  00A0               	movwf	??_GY_read^(0+128)
  2185  0375  0820               	movf	??_GY_read^(0+128),w
  2186  0376  00F6               	movwf	UARTSendString@max_length
  2187  0377  160A  118A  2490  120A  118A  	fcall	_UARTSendString
  2188  037C                     l3392:
  2189                           
  2190                           ;GY-521.c: 118:     UARTSendString(buf, 6);
  2191  037C  1683               	bsf	3,5	;RP0=1, select bank1
  2192  037D  1303               	bcf	3,6	;RP1=0, select bank1
  2193  037E  0860               	movf	GY_read@buf^(0+128),w
  2194  037F  00F4               	movwf	UARTSendString@str
  2195  0380  3001               	movlw	1
  2196  0381  00F5               	movwf	UARTSendString@str+1
  2197  0382  3006               	movlw	6
  2198  0383  00A0               	movwf	??_GY_read^(0+128)
  2199  0384  0820               	movf	??_GY_read^(0+128),w
  2200  0385  00F6               	movwf	UARTSendString@max_length
  2201  0386  160A  118A  2490  120A  118A  	fcall	_UARTSendString
  2202  038B                     l3394:
  2203                           
  2204                           ;GY-521.c: 120:     buf = ftoa(datos[3], entero);
  2205  038B  300C               	movlw	12
  2206  038C  3EB2               	addlw	(low (GY_read@datos| 0))& (0+255)
  2207  038D  0084               	movwf	4
  2208  038E  1383               	bcf	3,7	;select IRP bank1
  2209  038F  0800               	movf	0,w
  2210  0390  1283               	bcf	3,5	;RP0=0, select bank0
  2211  0391  1303               	bcf	3,6	;RP1=0, select bank0
  2212  0392  00E0               	movwf	ftoa@f
  2213  0393  0A84               	incf	4,f
  2214  0394  0800               	movf	0,w
  2215  0395  00E1               	movwf	ftoa@f+1
  2216  0396  0A84               	incf	4,f
  2217  0397  0800               	movf	0,w
  2218  0398  00E2               	movwf	ftoa@f+2
  2219  0399  0A84               	incf	4,f
  2220  039A  0800               	movf	0,w
  2221  039B  00E3               	movwf	ftoa@f+3
  2222  039C  1683               	bsf	3,5	;RP0=1, select bank1
  2223  039D  1303               	bcf	3,6	;RP1=0, select bank1
  2224  039E  085E               	movf	GY_read@entero^(0+128),w
  2225  039F  1283               	bcf	3,5	;RP0=0, select bank0
  2226  03A0  1303               	bcf	3,6	;RP1=0, select bank0
  2227  03A1  00E4               	movwf	ftoa@status
  2228  03A2  1683               	bsf	3,5	;RP0=1, select bank1
  2229  03A3  1303               	bcf	3,6	;RP1=0, select bank1
  2230  03A4  085F               	movf	(GY_read@entero+1)^(0+128),w
  2231  03A5  1283               	bcf	3,5	;RP0=0, select bank0
  2232  03A6  1303               	bcf	3,6	;RP1=0, select bank0
  2233  03A7  00E5               	movwf	ftoa@status+1
  2234  03A8  120A  158A  207A  120A  118A  	fcall	_ftoa
  2235  03AD  1683               	bsf	3,5	;RP0=1, select bank1
  2236  03AE  1303               	bcf	3,6	;RP1=0, select bank1
  2237  03AF  00A0               	movwf	??_GY_read^(0+128)
  2238  03B0  0820               	movf	??_GY_read^(0+128),w
  2239  03B1  00E0               	movwf	GY_read@buf^(0+128)
  2240  03B2                     l3396:
  2241                           
  2242                           ;GY-521.c: 121:     UARTSendString(" ", 10);
  2243  03B2  3034               	movlw	(low ((STR_1-__stringbase)| (0+32768)))& (0+255)
  2244  03B3  00F4               	movwf	UARTSendString@str
  2245  03B4  3080               	movlw	128
  2246  03B5  00F5               	movwf	UARTSendString@str+1
  2247  03B6  300A               	movlw	10
  2248  03B7  00A0               	movwf	??_GY_read^(0+128)
  2249  03B8  0820               	movf	??_GY_read^(0+128),w
  2250  03B9  00F6               	movwf	UARTSendString@max_length
  2251  03BA  160A  118A  2490  120A  118A  	fcall	_UARTSendString
  2252  03BF                     l3398:
  2253                           
  2254                           ;GY-521.c: 122:     UARTSendString(buf, 6);
  2255  03BF  1683               	bsf	3,5	;RP0=1, select bank1
  2256  03C0  1303               	bcf	3,6	;RP1=0, select bank1
  2257  03C1  0860               	movf	GY_read@buf^(0+128),w
  2258  03C2  00F4               	movwf	UARTSendString@str
  2259  03C3  3001               	movlw	1
  2260  03C4  00F5               	movwf	UARTSendString@str+1
  2261  03C5  3006               	movlw	6
  2262  03C6  00A0               	movwf	??_GY_read^(0+128)
  2263  03C7  0820               	movf	??_GY_read^(0+128),w
  2264  03C8  00F6               	movwf	UARTSendString@max_length
  2265  03C9  160A  118A  2490  120A  118A  	fcall	_UARTSendString
  2266  03CE                     l3400:
  2267                           
  2268                           ;GY-521.c: 124:     buf = ftoa(datos[4], entero);
  2269  03CE  3010               	movlw	16
  2270  03CF  3EB2               	addlw	(low (GY_read@datos| 0))& (0+255)
  2271  03D0  0084               	movwf	4
  2272  03D1  1383               	bcf	3,7	;select IRP bank1
  2273  03D2  0800               	movf	0,w
  2274  03D3  1283               	bcf	3,5	;RP0=0, select bank0
  2275  03D4  1303               	bcf	3,6	;RP1=0, select bank0
  2276  03D5  00E0               	movwf	ftoa@f
  2277  03D6  0A84               	incf	4,f
  2278  03D7  0800               	movf	0,w
  2279  03D8  00E1               	movwf	ftoa@f+1
  2280  03D9  0A84               	incf	4,f
  2281  03DA  0800               	movf	0,w
  2282  03DB  00E2               	movwf	ftoa@f+2
  2283  03DC  0A84               	incf	4,f
  2284  03DD  0800               	movf	0,w
  2285  03DE  00E3               	movwf	ftoa@f+3
  2286  03DF  1683               	bsf	3,5	;RP0=1, select bank1
  2287  03E0  1303               	bcf	3,6	;RP1=0, select bank1
  2288  03E1  085E               	movf	GY_read@entero^(0+128),w
  2289  03E2  1283               	bcf	3,5	;RP0=0, select bank0
  2290  03E3  1303               	bcf	3,6	;RP1=0, select bank0
  2291  03E4  00E4               	movwf	ftoa@status
  2292  03E5  1683               	bsf	3,5	;RP0=1, select bank1
  2293  03E6  1303               	bcf	3,6	;RP1=0, select bank1
  2294  03E7  085F               	movf	(GY_read@entero+1)^(0+128),w
  2295  03E8  1283               	bcf	3,5	;RP0=0, select bank0
  2296  03E9  1303               	bcf	3,6	;RP1=0, select bank0
  2297  03EA  00E5               	movwf	ftoa@status+1
  2298  03EB  120A  158A  207A  120A  118A  	fcall	_ftoa
  2299  03F0  1683               	bsf	3,5	;RP0=1, select bank1
  2300  03F1  1303               	bcf	3,6	;RP1=0, select bank1
  2301  03F2  00A0               	movwf	??_GY_read^(0+128)
  2302  03F3  0820               	movf	??_GY_read^(0+128),w
  2303  03F4  00E0               	movwf	GY_read@buf^(0+128)
  2304  03F5                     l3402:
  2305                           
  2306                           ;GY-521.c: 125:     UARTSendString(" ", 10);
  2307  03F5  3034               	movlw	(low ((STR_1-__stringbase)| (0+32768)))& (0+255)
  2308  03F6  00F4               	movwf	UARTSendString@str
  2309  03F7  3080               	movlw	128
  2310  03F8  00F5               	movwf	UARTSendString@str+1
  2311  03F9  300A               	movlw	10
  2312  03FA  00A0               	movwf	??_GY_read^(0+128)
  2313  03FB  0820               	movf	??_GY_read^(0+128),w
  2314  03FC  00F6               	movwf	UARTSendString@max_length
  2315  03FD  160A  118A  2490  120A  118A  	fcall	_UARTSendString
  2316  0402                     l3404:
  2317                           
  2318                           ;GY-521.c: 126:     UARTSendString(buf, 6);
  2319  0402  1683               	bsf	3,5	;RP0=1, select bank1
  2320  0403  1303               	bcf	3,6	;RP1=0, select bank1
  2321  0404  0860               	movf	GY_read@buf^(0+128),w
  2322  0405  00F4               	movwf	UARTSendString@str
  2323  0406  3001               	movlw	1
  2324  0407  00F5               	movwf	UARTSendString@str+1
  2325  0408  3006               	movlw	6
  2326  0409  00A0               	movwf	??_GY_read^(0+128)
  2327  040A  0820               	movf	??_GY_read^(0+128),w
  2328  040B  00F6               	movwf	UARTSendString@max_length
  2329  040C  160A  118A  2490  120A  118A  	fcall	_UARTSendString
  2330  0411                     l3406:
  2331                           
  2332                           ;GY-521.c: 127:     buf = ftoa(datos[5], entero);
  2333  0411  3014               	movlw	20
  2334  0412  3EB2               	addlw	(low (GY_read@datos| 0))& (0+255)
  2335  0413  0084               	movwf	4
  2336  0414  1383               	bcf	3,7	;select IRP bank1
  2337  0415  0800               	movf	0,w
  2338  0416  1283               	bcf	3,5	;RP0=0, select bank0
  2339  0417  1303               	bcf	3,6	;RP1=0, select bank0
  2340  0418  00E0               	movwf	ftoa@f
  2341  0419  0A84               	incf	4,f
  2342  041A  0800               	movf	0,w
  2343  041B  00E1               	movwf	ftoa@f+1
  2344  041C  0A84               	incf	4,f
  2345  041D  0800               	movf	0,w
  2346  041E  00E2               	movwf	ftoa@f+2
  2347  041F  0A84               	incf	4,f
  2348  0420  0800               	movf	0,w
  2349  0421  00E3               	movwf	ftoa@f+3
  2350  0422  1683               	bsf	3,5	;RP0=1, select bank1
  2351  0423  1303               	bcf	3,6	;RP1=0, select bank1
  2352  0424  085E               	movf	GY_read@entero^(0+128),w
  2353  0425  1283               	bcf	3,5	;RP0=0, select bank0
  2354  0426  1303               	bcf	3,6	;RP1=0, select bank0
  2355  0427  00E4               	movwf	ftoa@status
  2356  0428  1683               	bsf	3,5	;RP0=1, select bank1
  2357  0429  1303               	bcf	3,6	;RP1=0, select bank1
  2358  042A  085F               	movf	(GY_read@entero+1)^(0+128),w
  2359  042B  1283               	bcf	3,5	;RP0=0, select bank0
  2360  042C  1303               	bcf	3,6	;RP1=0, select bank0
  2361  042D  00E5               	movwf	ftoa@status+1
  2362  042E  120A  158A  207A  120A  118A  	fcall	_ftoa
  2363  0433  1683               	bsf	3,5	;RP0=1, select bank1
  2364  0434  1303               	bcf	3,6	;RP1=0, select bank1
  2365  0435  00A0               	movwf	??_GY_read^(0+128)
  2366  0436  0820               	movf	??_GY_read^(0+128),w
  2367  0437  00E0               	movwf	GY_read@buf^(0+128)
  2368  0438                     l3408:
  2369                           
  2370                           ;GY-521.c: 128:     UARTSendString(" ", 10);
  2371  0438  3034               	movlw	(low ((STR_1-__stringbase)| (0+32768)))& (0+255)
  2372  0439  00F4               	movwf	UARTSendString@str
  2373  043A  3080               	movlw	128
  2374  043B  00F5               	movwf	UARTSendString@str+1
  2375  043C  300A               	movlw	10
  2376  043D  00A0               	movwf	??_GY_read^(0+128)
  2377  043E  0820               	movf	??_GY_read^(0+128),w
  2378  043F  00F6               	movwf	UARTSendString@max_length
  2379  0440  160A  118A  2490  120A  118A  	fcall	_UARTSendString
  2380  0445                     l3410:
  2381                           
  2382                           ;GY-521.c: 129:     UARTSendString(buf, 6);
  2383  0445  1683               	bsf	3,5	;RP0=1, select bank1
  2384  0446  1303               	bcf	3,6	;RP1=0, select bank1
  2385  0447  0860               	movf	GY_read@buf^(0+128),w
  2386  0448  00F4               	movwf	UARTSendString@str
  2387  0449  3001               	movlw	1
  2388  044A  00F5               	movwf	UARTSendString@str+1
  2389  044B  3006               	movlw	6
  2390  044C  00A0               	movwf	??_GY_read^(0+128)
  2391  044D  0820               	movf	??_GY_read^(0+128),w
  2392  044E  00F6               	movwf	UARTSendString@max_length
  2393  044F  160A  118A  2490  120A  118A  	fcall	_UARTSendString
  2394  0454                     l3412:
  2395                           
  2396                           ;GY-521.c: 131:     buf = ftoa(datos[6], entero);
  2397  0454  3018               	movlw	24
  2398  0455  3EB2               	addlw	(low (GY_read@datos| 0))& (0+255)
  2399  0456  0084               	movwf	4
  2400  0457  1383               	bcf	3,7	;select IRP bank1
  2401  0458  0800               	movf	0,w
  2402  0459  1283               	bcf	3,5	;RP0=0, select bank0
  2403  045A  1303               	bcf	3,6	;RP1=0, select bank0
  2404  045B  00E0               	movwf	ftoa@f
  2405  045C  0A84               	incf	4,f
  2406  045D  0800               	movf	0,w
  2407  045E  00E1               	movwf	ftoa@f+1
  2408  045F  0A84               	incf	4,f
  2409  0460  0800               	movf	0,w
  2410  0461  00E2               	movwf	ftoa@f+2
  2411  0462  0A84               	incf	4,f
  2412  0463  0800               	movf	0,w
  2413  0464  00E3               	movwf	ftoa@f+3
  2414  0465  1683               	bsf	3,5	;RP0=1, select bank1
  2415  0466  1303               	bcf	3,6	;RP1=0, select bank1
  2416  0467  085E               	movf	GY_read@entero^(0+128),w
  2417  0468  1283               	bcf	3,5	;RP0=0, select bank0
  2418  0469  1303               	bcf	3,6	;RP1=0, select bank0
  2419  046A  00E4               	movwf	ftoa@status
  2420  046B  1683               	bsf	3,5	;RP0=1, select bank1
  2421  046C  1303               	bcf	3,6	;RP1=0, select bank1
  2422  046D  085F               	movf	(GY_read@entero+1)^(0+128),w
  2423  046E  1283               	bcf	3,5	;RP0=0, select bank0
  2424  046F  1303               	bcf	3,6	;RP1=0, select bank0
  2425  0470  00E5               	movwf	ftoa@status+1
  2426  0471  120A  158A  207A  120A  118A  	fcall	_ftoa
  2427  0476  1683               	bsf	3,5	;RP0=1, select bank1
  2428  0477  1303               	bcf	3,6	;RP1=0, select bank1
  2429  0478  00A0               	movwf	??_GY_read^(0+128)
  2430  0479  0820               	movf	??_GY_read^(0+128),w
  2431  047A  00E0               	movwf	GY_read@buf^(0+128)
  2432  047B                     l3414:
  2433                           
  2434                           ;GY-521.c: 132:     UARTSendString(" ", 10);
  2435  047B  3034               	movlw	(low ((STR_1-__stringbase)| (0+32768)))& (0+255)
  2436  047C  00F4               	movwf	UARTSendString@str
  2437  047D  3080               	movlw	128
  2438  047E  00F5               	movwf	UARTSendString@str+1
  2439  047F  300A               	movlw	10
  2440  0480  00A0               	movwf	??_GY_read^(0+128)
  2441  0481  0820               	movf	??_GY_read^(0+128),w
  2442  0482  00F6               	movwf	UARTSendString@max_length
  2443  0483  160A  118A  2490  120A  118A  	fcall	_UARTSendString
  2444  0488                     l3416:
  2445                           
  2446                           ;GY-521.c: 133:     UARTSendString(buf, 6);
  2447  0488  1683               	bsf	3,5	;RP0=1, select bank1
  2448  0489  1303               	bcf	3,6	;RP1=0, select bank1
  2449  048A  0860               	movf	GY_read@buf^(0+128),w
  2450  048B  00F4               	movwf	UARTSendString@str
  2451  048C  3001               	movlw	1
  2452  048D  00F5               	movwf	UARTSendString@str+1
  2453  048E  3006               	movlw	6
  2454  048F  00A0               	movwf	??_GY_read^(0+128)
  2455  0490  0820               	movf	??_GY_read^(0+128),w
  2456  0491  00F6               	movwf	UARTSendString@max_length
  2457  0492  160A  118A  2490  120A  118A  	fcall	_UARTSendString
  2458  0497                     l3418:
  2459                           
  2460                           ;GY-521.c: 135:     UARTSendChar('\n');
  2461  0497  300A               	movlw	10
  2462  0498  160A  118A  22E7  120A  118A  	fcall	_UARTSendChar
  2463  049D                     l227:
  2464  049D  0008               	return
  2465  049E                     __end_of_GY_read:
  2466                           
  2467                           	psect	text3
  2468  087A                     __ptext3:	
  2469 ;; *************** function _ftoa *****************
  2470 ;; Defined at:
  2471 ;;		line 6 in file "C:\Program Files\Microchip\xc8\v2.31\pic\sources\c90\common\ftoa.c"
  2472 ;; Parameters:    Size  Location     Type
  2473 ;;  f               4   64[BANK0 ] float 
  2474 ;;  status          2   68[BANK0 ] PTR int 
  2475 ;;		 -> RAM(512), 
  2476 ;; Auto vars:     Size  Location     Type
  2477 ;;  l               4   75[BANK0 ] unsigned long 
  2478 ;;  rem             4   71[BANK0 ] unsigned long 
  2479 ;;  cp              1   79[BANK0 ] PTR unsigned char 
  2480 ;;		 -> ftoa@buf(17), 
  2481 ;; Return value:  Size  Location     Type
  2482 ;;                  1    wreg      PTR unsigned char 
  2483 ;; Registers used:
  2484 ;;		wreg, fsr0l, fsr0h, status,2, status,0, btemp+1, pclath, cstack
  2485 ;; Tracked objects:
  2486 ;;		On entry : 0/0
  2487 ;;		On exit  : 0/0
  2488 ;;		Unchanged: 0/0
  2489 ;; Data sizes:     COMMON   BANK0   BANK1   BANK3   BANK2
  2490 ;;      Params:         0       6       0       0       0
  2491 ;;      Locals:         0       9       0       0       0
  2492 ;;      Temps:          0       1       0       0       0
  2493 ;;      Totals:         0      16       0       0       0
  2494 ;;Total ram usage:       16 bytes
  2495 ;; Hardware stack levels used:    1
  2496 ;; Hardware stack levels required when called:    3
  2497 ;; This function calls:
  2498 ;;		___flge
  2499 ;;		___flmul
  2500 ;;		___flneg
  2501 ;;		___flsub
  2502 ;;		___fltol
  2503 ;;		___xxtofl
  2504 ;;		_sprintf
  2505 ;; This function is called by:
  2506 ;;		_GY_read
  2507 ;; This function uses a non-reentrant model
  2508 ;;
  2509                           
  2510                           
  2511                           ;psect for function _ftoa
  2512  087A                     _ftoa:
  2513  087A                     l3302:	
  2514                           ;incstack = 0
  2515                           ; Regs used in _ftoa: [wreg-fsr0h+status,2+status,0+btemp+1+pclath+cstack]
  2516                           
  2517  087A  3090               	movlw	(low (ftoa@buf| (0+256)))& (0+255)
  2518  087B  1283               	bcf	3,5	;RP0=0, select bank0
  2519  087C  1303               	bcf	3,6	;RP1=0, select bank0
  2520  087D  00E6               	movwf	??_ftoa
  2521  087E  0866               	movf	??_ftoa,w
  2522  087F  00EF               	movwf	ftoa@cp
  2523  0880                     l3304:
  2524  0880  0863               	movf	ftoa@f+3,w
  2525  0881  00A3               	movwf	___flge@ff1+3
  2526  0882  0862               	movf	ftoa@f+2,w
  2527  0883  00A2               	movwf	___flge@ff1+2
  2528  0884  0861               	movf	ftoa@f+1,w
  2529  0885  00A1               	movwf	___flge@ff1+1
  2530  0886  0860               	movf	ftoa@f,w
  2531  0887  00A0               	movwf	___flge@ff1
  2532  0888  3000               	movlw	0
  2533  0889  00A7               	movwf	___flge@ff2+3
  2534  088A  3000               	movlw	0
  2535  088B  00A6               	movwf	___flge@ff2+2
  2536  088C  3000               	movlw	0
  2537  088D  00A5               	movwf	___flge@ff2+1
  2538  088E  3000               	movlw	0
  2539  088F  00A4               	movwf	___flge@ff2
  2540  0890  160A  118A  25CB  120A  158A  	fcall	___flge
  2541  0895  1803               	btfsc	3,0
  2542  0896  2898               	goto	u4891
  2543  0897  2899               	goto	u4890
  2544  0898                     u4891:
  2545  0898  28BD               	goto	l3312
  2546  0899                     u4890:
  2547  0899                     l3306:
  2548  0899  302D               	movlw	45
  2549  089A  1283               	bcf	3,5	;RP0=0, select bank0
  2550  089B  1303               	bcf	3,6	;RP1=0, select bank0
  2551  089C  00E6               	movwf	??_ftoa
  2552  089D  086F               	movf	ftoa@cp,w
  2553  089E  0084               	movwf	4
  2554  089F  0866               	movf	??_ftoa,w
  2555  08A0  1783               	bsf	3,7	;select IRP bank2
  2556  08A1  0080               	movwf	0
  2557  08A2                     l3308:
  2558  08A2  3001               	movlw	1
  2559  08A3  00E6               	movwf	??_ftoa
  2560  08A4  0866               	movf	??_ftoa,w
  2561  08A5  07EF               	addwf	ftoa@cp,f
  2562  08A6                     l3310:
  2563  08A6  0863               	movf	ftoa@f+3,w
  2564  08A7  00F6               	movwf	___flneg@f1+3
  2565  08A8  0862               	movf	ftoa@f+2,w
  2566  08A9  00F5               	movwf	___flneg@f1+2
  2567  08AA  0861               	movf	ftoa@f+1,w
  2568  08AB  00F4               	movwf	___flneg@f1+1
  2569  08AC  0860               	movf	ftoa@f,w
  2570  08AD  00F3               	movwf	___flneg@f1
  2571  08AE  160A  118A  22DC  120A  158A  	fcall	___flneg
  2572  08B3  0876               	movf	?___flneg+3,w
  2573  08B4  1283               	bcf	3,5	;RP0=0, select bank0
  2574  08B5  1303               	bcf	3,6	;RP1=0, select bank0
  2575  08B6  00E3               	movwf	ftoa@f+3
  2576  08B7  0875               	movf	?___flneg+2,w
  2577  08B8  00E2               	movwf	ftoa@f+2
  2578  08B9  0874               	movf	?___flneg+1,w
  2579  08BA  00E1               	movwf	ftoa@f+1
  2580  08BB  0873               	movf	?___flneg,w
  2581  08BC  00E0               	movwf	ftoa@f
  2582  08BD                     l3312:
  2583  08BD  1283               	bcf	3,5	;RP0=0, select bank0
  2584  08BE  1303               	bcf	3,6	;RP1=0, select bank0
  2585  08BF  0863               	movf	ftoa@f+3,w
  2586  08C0  00C7               	movwf	___fltol@f1+3
  2587  08C1  0862               	movf	ftoa@f+2,w
  2588  08C2  00C6               	movwf	___fltol@f1+2
  2589  08C3  0861               	movf	ftoa@f+1,w
  2590  08C4  00C5               	movwf	___fltol@f1+1
  2591  08C5  0860               	movf	ftoa@f,w
  2592  08C6  00C4               	movwf	___fltol@f1
  2593  08C7  160A  118A  254F  120A  158A  	fcall	___fltol
  2594  08CC  1283               	bcf	3,5	;RP0=0, select bank0
  2595  08CD  1303               	bcf	3,6	;RP1=0, select bank0
  2596  08CE  0847               	movf	?___fltol+3,w
  2597  08CF  00EE               	movwf	ftoa@l+3
  2598  08D0  0846               	movf	?___fltol+2,w
  2599  08D1  00ED               	movwf	ftoa@l+2
  2600  08D2  0845               	movf	?___fltol+1,w
  2601  08D3  00EC               	movwf	ftoa@l+1
  2602  08D4  0844               	movf	?___fltol,w
  2603  08D5  00EB               	movwf	ftoa@l
  2604  08D6                     l3314:
  2605  08D6  086E               	movf	ftoa@l+3,w
  2606  08D7  00F6               	movwf	___xxtofl@val+3
  2607  08D8  086D               	movf	ftoa@l+2,w
  2608  08D9  00F5               	movwf	___xxtofl@val+2
  2609  08DA  086C               	movf	ftoa@l+1,w
  2610  08DB  00F4               	movwf	___xxtofl@val+1
  2611  08DC  086B               	movf	ftoa@l,w
  2612  08DD  00F3               	movwf	___xxtofl@val
  2613  08DE  3000               	movlw	0
  2614  08DF  160A  118A  266F  120A  158A  	fcall	___xxtofl
  2615  08E4  0876               	movf	?___xxtofl+3,w
  2616  08E5  1283               	bcf	3,5	;RP0=0, select bank0
  2617  08E6  1303               	bcf	3,6	;RP1=0, select bank0
  2618  08E7  00DB               	movwf	___flsub@a+3
  2619  08E8  0875               	movf	?___xxtofl+2,w
  2620  08E9  00DA               	movwf	___flsub@a+2
  2621  08EA  0874               	movf	?___xxtofl+1,w
  2622  08EB  00D9               	movwf	___flsub@a+1
  2623  08EC  0873               	movf	?___xxtofl,w
  2624  08ED  00D8               	movwf	___flsub@a
  2625  08EE  0863               	movf	ftoa@f+3,w
  2626  08EF  00DF               	movwf	___flsub@b+3
  2627  08F0  0862               	movf	ftoa@f+2,w
  2628  08F1  00DE               	movwf	___flsub@b+2
  2629  08F2  0861               	movf	ftoa@f+1,w
  2630  08F3  00DD               	movwf	___flsub@b+1
  2631  08F4  0860               	movf	ftoa@f,w
  2632  08F5  00DC               	movwf	___flsub@b
  2633  08F6  160A  118A  236F  120A  158A  	fcall	___flsub
  2634  08FB  1283               	bcf	3,5	;RP0=0, select bank0
  2635  08FC  1303               	bcf	3,6	;RP1=0, select bank0
  2636  08FD  085B               	movf	?___flsub+3,w
  2637  08FE  00E3               	movwf	ftoa@f+3
  2638  08FF  085A               	movf	?___flsub+2,w
  2639  0900  00E2               	movwf	ftoa@f+2
  2640  0901  0859               	movf	?___flsub+1,w
  2641  0902  00E1               	movwf	ftoa@f+1
  2642  0903  0858               	movf	?___flsub,w
  2643  0904  00E0               	movwf	ftoa@f
  2644  0905                     l3316:
  2645  0905  0863               	movf	ftoa@f+3,w
  2646  0906  00B1               	movwf	___flmul@a+3
  2647  0907  0862               	movf	ftoa@f+2,w
  2648  0908  00B0               	movwf	___flmul@a+2
  2649  0909  0861               	movf	ftoa@f+1,w
  2650  090A  00AF               	movwf	___flmul@a+1
  2651  090B  0860               	movf	ftoa@f,w
  2652  090C  00AE               	movwf	___flmul@a
  2653  090D  3049               	movlw	73
  2654  090E  00AD               	movwf	___flmul@b+3
  2655  090F  3074               	movlw	116
  2656  0910  00AC               	movwf	___flmul@b+2
  2657  0911  3024               	movlw	36
  2658  0912  00AB               	movwf	___flmul@b+1
  2659  0913  3000               	movlw	0
  2660  0914  00AA               	movwf	___flmul@b
  2661  0915  120A  118A  249E  120A  158A  	fcall	___flmul
  2662  091A  1283               	bcf	3,5	;RP0=0, select bank0
  2663  091B  1303               	bcf	3,6	;RP1=0, select bank0
  2664  091C  082D               	movf	?___flmul+3,w
  2665  091D  00C7               	movwf	___fltol@f1+3
  2666  091E  082C               	movf	?___flmul+2,w
  2667  091F  00C6               	movwf	___fltol@f1+2
  2668  0920  082B               	movf	?___flmul+1,w
  2669  0921  00C5               	movwf	___fltol@f1+1
  2670  0922  082A               	movf	?___flmul,w
  2671  0923  00C4               	movwf	___fltol@f1
  2672  0924  160A  118A  254F  120A  158A  	fcall	___fltol
  2673  0929  1283               	bcf	3,5	;RP0=0, select bank0
  2674  092A  1303               	bcf	3,6	;RP1=0, select bank0
  2675  092B  0847               	movf	?___fltol+3,w
  2676  092C  00EA               	movwf	ftoa@rem+3
  2677  092D  0846               	movf	?___fltol+2,w
  2678  092E  00E9               	movwf	ftoa@rem+2
  2679  092F  0845               	movf	?___fltol+1,w
  2680  0930  00E8               	movwf	ftoa@rem+1
  2681  0931  0844               	movf	?___fltol,w
  2682  0932  00E7               	movwf	ftoa@rem
  2683  0933                     l3318:
  2684  0933  3029               	movlw	(low ((STR_7-__stringbase)| (0+32768)))& (0+255)
  2685  0934  00E6               	movwf	??_ftoa
  2686  0935  0866               	movf	??_ftoa,w
  2687  0936  00B1               	movwf	sprintf@f
  2688  0937  086E               	movf	ftoa@l+3,w
  2689  0938  00B5               	movwf	?_sprintf+4
  2690  0939  086D               	movf	ftoa@l+2,w
  2691  093A  00B4               	movwf	?_sprintf+3
  2692  093B  086C               	movf	ftoa@l+1,w
  2693  093C  00B3               	movwf	?_sprintf+2
  2694  093D  086B               	movf	ftoa@l,w
  2695  093E  00B2               	movwf	?_sprintf+1
  2696  093F  086A               	movf	ftoa@rem+3,w
  2697  0940  00B9               	movwf	?_sprintf+8
  2698  0941  0869               	movf	ftoa@rem+2,w
  2699  0942  00B8               	movwf	?_sprintf+7
  2700  0943  0868               	movf	ftoa@rem+1,w
  2701  0944  00B7               	movwf	?_sprintf+6
  2702  0945  0867               	movf	ftoa@rem,w
  2703  0946  00B6               	movwf	?_sprintf+5
  2704  0947  086F               	movf	ftoa@cp,w
  2705  0948  120A  158A  232C  120A  158A  	fcall	_sprintf
  2706  094D                     l3320:
  2707  094D  3090               	movlw	(low (ftoa@buf| (0+256)))& (0+255)
  2708  094E                     l769:
  2709  094E  0008               	return
  2710  094F                     __end_of_ftoa:
  2711                           
  2712                           	psect	text4
  2713  0B2C                     __ptext4:	
  2714 ;; *************** function _sprintf *****************
  2715 ;; Defined at:
  2716 ;;		line 505 in file "C:\Program Files\Microchip\xc8\v2.31\pic\sources\c90\common\doprnt.c"
  2717 ;; Parameters:    Size  Location     Type
  2718 ;;  sp              1    wreg     PTR unsigned char 
  2719 ;;		 -> ftoa@buf(17), 
  2720 ;;  f               1   17[BANK0 ] PTR const unsigned char 
  2721 ;;		 -> STR_7(11), 
  2722 ;; Auto vars:     Size  Location     Type
  2723 ;;  sp              1   37[BANK0 ] PTR unsigned char 
  2724 ;;		 -> ftoa@buf(17), 
  2725 ;;  val             4   33[BANK0 ] unsigned long 
  2726 ;;  tmpval          4    0        struct .
  2727 ;;  prec            2   40[BANK0 ] int 
  2728 ;;  width           2   38[BANK0 ] int 
  2729 ;;  cp              2    0        PTR const unsigned char 
  2730 ;;  len             2    0        unsigned int 
  2731 ;;  c               1   42[BANK0 ] unsigned char 
  2732 ;;  ap              1   32[BANK0 ] PTR void [1]
  2733 ;;		 -> ?_sprintf(2), 
  2734 ;;  flag            1   31[BANK0 ] unsigned char 
  2735 ;; Return value:  Size  Location     Type
  2736 ;;                  2   17[BANK0 ] int 
  2737 ;; Registers used:
  2738 ;;		wreg, fsr0l, fsr0h, status,2, status,0, pclath, cstack
  2739 ;; Tracked objects:
  2740 ;;		On entry : 0/0
  2741 ;;		On exit  : 0/0
  2742 ;;		Unchanged: 0/0
  2743 ;; Data sizes:     COMMON   BANK0   BANK1   BANK3   BANK2
  2744 ;;      Params:         0       9       0       0       0
  2745 ;;      Locals:         0      12       0       0       0
  2746 ;;      Temps:          0       5       0       0       0
  2747 ;;      Totals:         0      26       0       0       0
  2748 ;;Total ram usage:       26 bytes
  2749 ;; Hardware stack levels used:    1
  2750 ;; Hardware stack levels required when called:    2
  2751 ;; This function calls:
  2752 ;;		___lldiv
  2753 ;;		___llmod
  2754 ;;		___wmul
  2755 ;;		_isdigit
  2756 ;; This function is called by:
  2757 ;;		_ftoa
  2758 ;; This function uses a non-reentrant model
  2759 ;;
  2760                           
  2761                           
  2762                           ;psect for function _sprintf
  2763  0B2C                     _sprintf:
  2764                           
  2765                           ;incstack = 0
  2766                           ; Regs used in _sprintf: [wreg-fsr0h+status,2+status,0+pclath+cstack]
  2767                           ;sprintf@sp stored from wreg
  2768  0B2C  1283               	bcf	3,5	;RP0=0, select bank0
  2769  0B2D  1303               	bcf	3,6	;RP1=0, select bank0
  2770  0B2E  00C5               	movwf	sprintf@sp
  2771  0B2F                     l3164:
  2772                           
  2773                           ;C:\Program Files\Microchip\xc8\v2.31\pic\sources\c90\common\doprnt.c: 505: sprintf(char
      +                           * sp, const char * f, ...);C:\Program Files\Microchip\xc8\v2.31\pic\sources\c90\common\
      +                          doprnt.c: 506: {;C:\Program Files\Microchip\xc8\v2.31\pic\sources\c90\common\doprnt.c: 5
      +                          07:  va_list ap;;C:\Program Files\Microchip\xc8\v2.31\pic\sources\c90\common\doprnt.c: 5
      +                          12:  char c;;C:\Program Files\Microchip\xc8\v2.31\pic\sources\c90\common\doprnt.c: 514: 
      +                           int width;;C:\Program Files\Microchip\xc8\v2.31\pic\sources\c90\common\doprnt.c: 517:  
      +                          int prec;
  2774  0B2F  3032               	movlw	(low ((?_sprintf| 0+1)))& (0+255)
  2775  0B30  00BA               	movwf	??_sprintf
  2776  0B31  083A               	movf	??_sprintf,w
  2777  0B32  00C0               	movwf	sprintf@ap
  2778                           
  2779                           ;C:\Program Files\Microchip\xc8\v2.31\pic\sources\c90\common\doprnt.c: 553:  while((c = 
      +                          *f++)) {
  2780  0B33  2D61               	goto	l3262
  2781  0B34                     l3166:
  2782                           
  2783                           ;C:\Program Files\Microchip\xc8\v2.31\pic\sources\c90\common\doprnt.c: 555:   if(c != '%
      +                          ')
  2784  0B34  3025               	movlw	37
  2785  0B35  064A               	xorwf	sprintf@c,w
  2786  0B36  1903               	btfsc	3,2
  2787  0B37  2B39               	goto	u4671
  2788  0B38  2B3A               	goto	u4670
  2789  0B39                     u4671:
  2790  0B39  2B46               	goto	l3172
  2791  0B3A                     u4670:
  2792  0B3A                     l3168:
  2793                           
  2794                           ;C:\Program Files\Microchip\xc8\v2.31\pic\sources\c90\common\doprnt.c: 557:   {;C:\Progr
      +                          am Files\Microchip\xc8\v2.31\pic\sources\c90\common\doprnt.c: 558:    ((*sp++ = (c)));
  2795  0B3A  084A               	movf	sprintf@c,w
  2796  0B3B  00BA               	movwf	??_sprintf
  2797  0B3C  0845               	movf	sprintf@sp,w
  2798  0B3D  0084               	movwf	4
  2799  0B3E  083A               	movf	??_sprintf,w
  2800  0B3F  1783               	bsf	3,7	;select IRP bank2
  2801  0B40  0080               	movwf	0
  2802  0B41                     l3170:
  2803  0B41  3001               	movlw	1
  2804  0B42  00BA               	movwf	??_sprintf
  2805  0B43  083A               	movf	??_sprintf,w
  2806  0B44  07C5               	addwf	sprintf@sp,f
  2807                           
  2808                           ;C:\Program Files\Microchip\xc8\v2.31\pic\sources\c90\common\doprnt.c: 559:    continue;
  2809  0B45  2D61               	goto	l3262
  2810  0B46                     l3172:
  2811                           
  2812                           ;C:\Program Files\Microchip\xc8\v2.31\pic\sources\c90\common\doprnt.c: 563:   width = 0;
  2813  0B46  01C6               	clrf	sprintf@width
  2814  0B47  01C7               	clrf	sprintf@width+1
  2815                           
  2816                           ;C:\Program Files\Microchip\xc8\v2.31\pic\sources\c90\common\doprnt.c: 565:   flag = 0;
  2817  0B48  01BF               	clrf	sprintf@flag
  2818  0B49                     l3174:
  2819                           
  2820                           ;C:\Program Files\Microchip\xc8\v2.31\pic\sources\c90\common\doprnt.c: 614:   if(isdigit
      +                          ((unsigned)*f)) {
  2821  0B49  0831               	movf	sprintf@f,w
  2822  0B4A  0084               	movwf	4
  2823  0B4B  160A  118A  200A  120A  158A  	fcall	stringdir
  2824  0B50  160A  118A  233C  120A  158A  	fcall	_isdigit
  2825  0B55  1C03               	btfss	3,0
  2826  0B56  2B58               	goto	u4681
  2827  0B57  2B59               	goto	u4680
  2828  0B58                     u4681:
  2829  0B58  2B99               	goto	l3186
  2830  0B59                     u4680:
  2831  0B59                     l3176:
  2832                           
  2833                           ;C:\Program Files\Microchip\xc8\v2.31\pic\sources\c90\common\doprnt.c: 615:    width = 0
      +                          ;
  2834  0B59  1283               	bcf	3,5	;RP0=0, select bank0
  2835  0B5A  1303               	bcf	3,6	;RP1=0, select bank0
  2836  0B5B  01C6               	clrf	sprintf@width
  2837  0B5C  01C7               	clrf	sprintf@width+1
  2838  0B5D                     l3178:
  2839                           
  2840                           ;C:\Program Files\Microchip\xc8\v2.31\pic\sources\c90\common\doprnt.c: 617:     width *=
      +                           10;
  2841  0B5D  300A               	movlw	10
  2842  0B5E  00F3               	movwf	___wmul@multiplier
  2843  0B5F  3000               	movlw	0
  2844  0B60  00F4               	movwf	___wmul@multiplier+1
  2845  0B61  1283               	bcf	3,5	;RP0=0, select bank0
  2846  0B62  1303               	bcf	3,6	;RP1=0, select bank0
  2847  0B63  0847               	movf	sprintf@width+1,w
  2848  0B64  00F6               	movwf	___wmul@multiplicand+1
  2849  0B65  0846               	movf	sprintf@width,w
  2850  0B66  00F5               	movwf	___wmul@multiplicand
  2851  0B67  160A  118A  2393  120A  158A  	fcall	___wmul
  2852  0B6C  0874               	movf	?___wmul+1,w
  2853  0B6D  1283               	bcf	3,5	;RP0=0, select bank0
  2854  0B6E  1303               	bcf	3,6	;RP1=0, select bank0
  2855  0B6F  00C7               	movwf	sprintf@width+1
  2856  0B70  0873               	movf	?___wmul,w
  2857  0B71  00C6               	movwf	sprintf@width
  2858  0B72                     l3180:
  2859                           
  2860                           ;C:\Program Files\Microchip\xc8\v2.31\pic\sources\c90\common\doprnt.c: 618:        width
      +                           += *f++ - '0';
  2861  0B72  0831               	movf	sprintf@f,w
  2862  0B73  0084               	movwf	4
  2863  0B74  160A  118A  200A  120A  158A  	fcall	stringdir
  2864  0B79  3ED0               	addlw	208
  2865  0B7A  00BA               	movwf	??_sprintf
  2866  0B7B  30FF               	movlw	255
  2867  0B7C  1803               	skipnc
  2868  0B7D  3000               	movlw	0
  2869  0B7E  00BB               	movwf	??_sprintf+1
  2870  0B7F  083A               	movf	??_sprintf,w
  2871  0B80  07C6               	addwf	sprintf@width,f
  2872  0B81  1803               	skipnc
  2873  0B82  0AC7               	incf	sprintf@width+1,f
  2874  0B83  083B               	movf	??_sprintf+1,w
  2875  0B84  07C7               	addwf	sprintf@width+1,f
  2876  0B85                     l3182:
  2877  0B85  3001               	movlw	1
  2878  0B86  00BA               	movwf	??_sprintf
  2879  0B87  083A               	movf	??_sprintf,w
  2880  0B88  07B1               	addwf	sprintf@f,f
  2881  0B89                     l3184:
  2882                           
  2883                           ;C:\Program Files\Microchip\xc8\v2.31\pic\sources\c90\common\doprnt.c: 619:    } while(i
      +                          sdigit((unsigned)*f));
  2884  0B89  0831               	movf	sprintf@f,w
  2885  0B8A  0084               	movwf	4
  2886  0B8B  160A  118A  200A  120A  158A  	fcall	stringdir
  2887  0B90  160A  118A  233C  120A  158A  	fcall	_isdigit
  2888  0B95  1803               	btfsc	3,0
  2889  0B96  2B98               	goto	u4691
  2890  0B97  2B99               	goto	u4690
  2891  0B98                     u4691:
  2892  0B98  2B5D               	goto	l3178
  2893  0B99                     u4690:
  2894  0B99                     l3186:
  2895                           
  2896                           ;C:\Program Files\Microchip\xc8\v2.31\pic\sources\c90\common\doprnt.c: 628:   if(*f == '
      +                          .') {
  2897  0B99  1283               	bcf	3,5	;RP0=0, select bank0
  2898  0B9A  1303               	bcf	3,6	;RP1=0, select bank0
  2899  0B9B  0831               	movf	sprintf@f,w
  2900  0B9C  0084               	movwf	4
  2901  0B9D  160A  118A  200A  120A  158A  	fcall	stringdir
  2902  0BA2  3A2E               	xorlw	46
  2903  0BA3  1D03               	skipz
  2904  0BA4  2BA6               	goto	u4701
  2905  0BA5  2BA7               	goto	u4700
  2906  0BA6                     u4701:
  2907  0BA6  2BEB               	goto	l3200
  2908  0BA7                     u4700:
  2909  0BA7                     l3188:
  2910                           
  2911                           ;C:\Program Files\Microchip\xc8\v2.31\pic\sources\c90\common\doprnt.c: 630:    f++;
  2912  0BA7  3001               	movlw	1
  2913  0BA8  00BA               	movwf	??_sprintf
  2914  0BA9  083A               	movf	??_sprintf,w
  2915  0BAA  07B1               	addwf	sprintf@f,f
  2916  0BAB                     l3190:
  2917                           
  2918                           ;C:\Program Files\Microchip\xc8\v2.31\pic\sources\c90\common\doprnt.c: 644:    {;C:\Prog
      +                          ram Files\Microchip\xc8\v2.31\pic\sources\c90\common\doprnt.c: 645:     prec = 0;
  2919  0BAB  01C8               	clrf	sprintf@prec
  2920  0BAC  01C9               	clrf	sprintf@prec+1
  2921                           
  2922                           ;C:\Program Files\Microchip\xc8\v2.31\pic\sources\c90\common\doprnt.c: 646:     while(is
      +                          digit((unsigned)*f)) {
  2923  0BAD  2BDA               	goto	l3198
  2924  0BAE                     l3192:
  2925                           
  2926                           ;C:\Program Files\Microchip\xc8\v2.31\pic\sources\c90\common\doprnt.c: 647:      prec *=
      +                           10;
  2927  0BAE  300A               	movlw	10
  2928  0BAF  00F3               	movwf	___wmul@multiplier
  2929  0BB0  3000               	movlw	0
  2930  0BB1  00F4               	movwf	___wmul@multiplier+1
  2931  0BB2  1283               	bcf	3,5	;RP0=0, select bank0
  2932  0BB3  1303               	bcf	3,6	;RP1=0, select bank0
  2933  0BB4  0849               	movf	sprintf@prec+1,w
  2934  0BB5  00F6               	movwf	___wmul@multiplicand+1
  2935  0BB6  0848               	movf	sprintf@prec,w
  2936  0BB7  00F5               	movwf	___wmul@multiplicand
  2937  0BB8  160A  118A  2393  120A  158A  	fcall	___wmul
  2938  0BBD  0874               	movf	?___wmul+1,w
  2939  0BBE  1283               	bcf	3,5	;RP0=0, select bank0
  2940  0BBF  1303               	bcf	3,6	;RP1=0, select bank0
  2941  0BC0  00C9               	movwf	sprintf@prec+1
  2942  0BC1  0873               	movf	?___wmul,w
  2943  0BC2  00C8               	movwf	sprintf@prec
  2944  0BC3                     l3194:
  2945                           
  2946                           ;C:\Program Files\Microchip\xc8\v2.31\pic\sources\c90\common\doprnt.c: 648:         prec
      +                           += *f++ - '0';
  2947  0BC3  0831               	movf	sprintf@f,w
  2948  0BC4  0084               	movwf	4
  2949  0BC5  160A  118A  200A  120A  158A  	fcall	stringdir
  2950  0BCA  3ED0               	addlw	208
  2951  0BCB  00BA               	movwf	??_sprintf
  2952  0BCC  30FF               	movlw	255
  2953  0BCD  1803               	skipnc
  2954  0BCE  3000               	movlw	0
  2955  0BCF  00BB               	movwf	??_sprintf+1
  2956  0BD0  083A               	movf	??_sprintf,w
  2957  0BD1  07C8               	addwf	sprintf@prec,f
  2958  0BD2  1803               	skipnc
  2959  0BD3  0AC9               	incf	sprintf@prec+1,f
  2960  0BD4  083B               	movf	??_sprintf+1,w
  2961  0BD5  07C9               	addwf	sprintf@prec+1,f
  2962  0BD6                     l3196:
  2963  0BD6  3001               	movlw	1
  2964  0BD7  00BA               	movwf	??_sprintf
  2965  0BD8  083A               	movf	??_sprintf,w
  2966  0BD9  07B1               	addwf	sprintf@f,f
  2967  0BDA                     l3198:
  2968                           
  2969                           ;C:\Program Files\Microchip\xc8\v2.31\pic\sources\c90\common\doprnt.c: 646:     while(is
      +                          digit((unsigned)*f)) {
  2970  0BDA  0831               	movf	sprintf@f,w
  2971  0BDB  0084               	movwf	4
  2972  0BDC  160A  118A  200A  120A  158A  	fcall	stringdir
  2973  0BE1  160A  118A  233C  120A  158A  	fcall	_isdigit
  2974  0BE6  1803               	btfsc	3,0
  2975  0BE7  2BE9               	goto	u4711
  2976  0BE8  2BEA               	goto	u4710
  2977  0BE9                     u4711:
  2978  0BE9  2BAE               	goto	l3192
  2979  0BEA                     u4710:
  2980  0BEA  2BF5               	goto	l3206
  2981  0BEB                     l3200:
  2982                           
  2983                           ;C:\Program Files\Microchip\xc8\v2.31\pic\sources\c90\common\doprnt.c: 652:    prec = 0;
  2984  0BEB  01C8               	clrf	sprintf@prec
  2985  0BEC  01C9               	clrf	sprintf@prec+1
  2986  0BED  2BF5               	goto	l3206
  2987  0BEE                     l795:	
  2988                           ;C:\Program Files\Microchip\xc8\v2.31\pic\sources\c90\common\doprnt.c: 667:   case 'l':
  2989                           
  2990                           
  2991                           ;C:\Program Files\Microchip\xc8\v2.31\pic\sources\c90\common\doprnt.c: 669:    flag |= 0
      +                          x10;
  2992  0BEE  163F               	bsf	sprintf@flag,4
  2993                           
  2994                           ;C:\Program Files\Microchip\xc8\v2.31\pic\sources\c90\common\doprnt.c: 670:    goto loop
      +                          ;
  2995  0BEF  2BF5               	goto	l3206
  2996  0BF0                     l3202:
  2997                           
  2998                           ;C:\Program Files\Microchip\xc8\v2.31\pic\sources\c90\common\doprnt.c: 844:    flag |= 0
      +                          xC0;
  2999  0BF0  30C0               	movlw	192
  3000  0BF1  00BA               	movwf	??_sprintf
  3001  0BF2  083A               	movf	??_sprintf,w
  3002  0BF3  04BF               	iorwf	sprintf@flag,f
  3003                           
  3004                           ;C:\Program Files\Microchip\xc8\v2.31\pic\sources\c90\common\doprnt.c: 845:    break;
  3005  0BF4  2C14               	goto	l798
  3006  0BF5                     l3206:
  3007  0BF5  3001               	movlw	1
  3008  0BF6  1283               	bcf	3,5	;RP0=0, select bank0
  3009  0BF7  1303               	bcf	3,6	;RP1=0, select bank0
  3010  0BF8  07B1               	addwf	sprintf@f,f
  3011  0BF9  30FF               	movlw	-1
  3012  0BFA  0731               	addwf	sprintf@f,w
  3013  0BFB  0084               	movwf	4
  3014  0BFC  160A  118A  200A  120A  158A  	fcall	stringdir
  3015  0C01  00CA               	movwf	sprintf@c
  3016  0C02  00BA               	movwf	??_sprintf
  3017  0C03  01BB               	clrf	??_sprintf+1
  3018                           
  3019                           ; Switch on 2 bytes has been partitioned into a top level switch of size 1, and 1 sub-sw
      +                          itches
  3020                           ; Switch size 1, requested type "simple"
  3021                           ; Number of cases is 1, Range of values is 0 to 0
  3022                           ; switch strategies available:
  3023                           ; Name         Instructions Cycles
  3024                           ; simple_byte            4     3 (average)
  3025                           ; direct_byte           11     8 (fixed)
  3026                           ; jumptable            260     6 (fixed)
  3027                           ;	Chosen strategy is simple_byte
  3028  0C04  083B               	movf	??_sprintf+1,w
  3029  0C05  3A00               	xorlw	0	; case 0
  3030  0C06  1903               	skipnz
  3031  0C07  2C09               	goto	l3448
  3032  0C08  2D61               	goto	l3262
  3033  0C09                     l3448:
  3034                           
  3035                           ; Switch size 1, requested type "simple"
  3036                           ; Number of cases is 3, Range of values is 0 to 117
  3037                           ; switch strategies available:
  3038                           ; Name         Instructions Cycles
  3039                           ; simple_byte           10     6 (average)
  3040                           ; jumptable            260     6 (fixed)
  3041                           ;	Chosen strategy is simple_byte
  3042  0C09  083A               	movf	??_sprintf,w
  3043  0C0A  3A00               	xorlw	0	; case 0
  3044  0C0B  1903               	skipnz
  3045  0C0C  2D73               	goto	l3264
  3046  0C0D  3A6C               	xorlw	108	; case 108
  3047  0C0E  1903               	skipnz
  3048  0C0F  2BEE               	goto	l795
  3049  0C10  3A19               	xorlw	25	; case 117
  3050  0C11  1903               	skipnz
  3051  0C12  2BF0               	goto	l3202
  3052  0C13  2D61               	goto	l3262
  3053  0C14                     l798:
  3054                           
  3055                           ;C:\Program Files\Microchip\xc8\v2.31\pic\sources\c90\common\doprnt.c: 1299:   {;C:\Prog
      +                          ram Files\Microchip\xc8\v2.31\pic\sources\c90\common\doprnt.c: 1307:     if(flag & 0x10)
  3056  0C14  1E3F               	btfss	sprintf@flag,4
  3057  0C15  2C17               	goto	u4721
  3058  0C16  2C18               	goto	u4720
  3059  0C17                     u4721:
  3060  0C17  2C2B               	goto	l3212
  3061  0C18                     u4720:
  3062  0C18                     l3208:
  3063                           
  3064                           ;C:\Program Files\Microchip\xc8\v2.31\pic\sources\c90\common\doprnt.c: 1308:     val = (
      +                          *(unsigned long *)__va_arg((*(unsigned long **)ap), (unsigned long)0));
  3065  0C18  0840               	movf	sprintf@ap,w
  3066  0C19  0084               	movwf	4
  3067  0C1A  1383               	bcf	3,7	;select IRP bank0
  3068  0C1B  0800               	movf	0,w
  3069  0C1C  00C1               	movwf	sprintf@val
  3070  0C1D  0A84               	incf	4,f
  3071  0C1E  0800               	movf	0,w
  3072  0C1F  00C2               	movwf	sprintf@val+1
  3073  0C20  0A84               	incf	4,f
  3074  0C21  0800               	movf	0,w
  3075  0C22  00C3               	movwf	sprintf@val+2
  3076  0C23  0A84               	incf	4,f
  3077  0C24  0800               	movf	0,w
  3078  0C25  00C4               	movwf	sprintf@val+3
  3079  0C26                     l3210:
  3080  0C26  3004               	movlw	4
  3081  0C27  00BA               	movwf	??_sprintf
  3082  0C28  083A               	movf	??_sprintf,w
  3083  0C29  07C0               	addwf	sprintf@ap,f
  3084  0C2A  2C3D               	goto	l3216
  3085  0C2B                     l3212:
  3086                           
  3087                           ;C:\Program Files\Microchip\xc8\v2.31\pic\sources\c90\common\doprnt.c: 1312:     val = (
      +                          *(unsigned *)__va_arg((*(unsigned **)ap), (unsigned)0));
  3088  0C2B  0840               	movf	sprintf@ap,w
  3089  0C2C  0084               	movwf	4
  3090  0C2D  1383               	bcf	3,7	;select IRP bank0
  3091  0C2E  0800               	movf	0,w
  3092  0C2F  00BA               	movwf	??_sprintf
  3093  0C30  0A84               	incf	4,f
  3094  0C31  0800               	movf	0,w
  3095  0C32  00BB               	movwf	??_sprintf+1
  3096  0C33  083A               	movf	??_sprintf,w
  3097  0C34  00C1               	movwf	sprintf@val
  3098  0C35  083B               	movf	??_sprintf+1,w
  3099  0C36  00C2               	movwf	sprintf@val+1
  3100  0C37  01C3               	clrf	sprintf@val+2
  3101  0C38  01C4               	clrf	sprintf@val+3
  3102  0C39                     l3214:
  3103  0C39  3002               	movlw	2
  3104  0C3A  00BA               	movwf	??_sprintf
  3105  0C3B  083A               	movf	??_sprintf,w
  3106  0C3C  07C0               	addwf	sprintf@ap,f
  3107  0C3D                     l3216:
  3108                           
  3109                           ;C:\Program Files\Microchip\xc8\v2.31\pic\sources\c90\common\doprnt.c: 1313:   };C:\Prog
      +                          ram Files\Microchip\xc8\v2.31\pic\sources\c90\common\doprnt.c: 1316:   if(prec == 0 && v
      +                          al == 0)
  3110  0C3D  0848               	movf	sprintf@prec,w
  3111  0C3E  0449               	iorwf	sprintf@prec+1,w
  3112  0C3F  1D03               	btfss	3,2
  3113  0C40  2C42               	goto	u4731
  3114  0C41  2C43               	goto	u4730
  3115  0C42                     u4731:
  3116  0C42  2C51               	goto	l3222
  3117  0C43                     u4730:
  3118  0C43                     l3218:
  3119  0C43  0844               	movf	sprintf@val+3,w
  3120  0C44  0443               	iorwf	sprintf@val+2,w
  3121  0C45  0442               	iorwf	sprintf@val+1,w
  3122  0C46  0441               	iorwf	sprintf@val,w
  3123  0C47  1D03               	skipz
  3124  0C48  2C4A               	goto	u4741
  3125  0C49  2C4B               	goto	u4740
  3126  0C4A                     u4741:
  3127  0C4A  2C51               	goto	l3222
  3128  0C4B                     u4740:
  3129  0C4B                     l3220:
  3130                           
  3131                           ;C:\Program Files\Microchip\xc8\v2.31\pic\sources\c90\common\doprnt.c: 1317:    prec++;
  3132  0C4B  3001               	movlw	1
  3133  0C4C  07C8               	addwf	sprintf@prec,f
  3134  0C4D  1803               	skipnc
  3135  0C4E  0AC9               	incf	sprintf@prec+1,f
  3136  0C4F  3000               	movlw	0
  3137  0C50  07C9               	addwf	sprintf@prec+1,f
  3138  0C51                     l3222:
  3139                           
  3140                           ;C:\Program Files\Microchip\xc8\v2.31\pic\sources\c90\common\doprnt.c: 1331:    for(c = 
      +                          1 ; c != sizeof dpowers/sizeof dpowers[0] ; c++)
  3141  0C51  01CA               	clrf	sprintf@c
  3142  0C52  0ACA               	incf	sprintf@c,f
  3143  0C53                     l3228:
  3144                           
  3145                           ;C:\Program Files\Microchip\xc8\v2.31\pic\sources\c90\common\doprnt.c: 1332:     if(val 
      +                          < dpowers[c])
  3146  0C53  084A               	movf	sprintf@c,w
  3147  0C54  00BA               	movwf	??_sprintf
  3148  0C55  3001               	movlw	1
  3149  0C56                     u4755:
  3150  0C56  1003               	clrc
  3151  0C57  0DBA               	rlf	??_sprintf,f
  3152  0C58  3EFF               	addlw	-1
  3153  0C59  1D03               	skipz
  3154  0C5A  2C56               	goto	u4755
  3155  0C5B  1003               	clrc
  3156  0C5C  0D3A               	rlf	??_sprintf,w
  3157  0C5D  3E01               	addlw	low ((_dpowers-__stringbase)| (0+32768))
  3158  0C5E  0084               	movwf	4
  3159  0C5F  160A  118A  200A  120A  158A  	fcall	stringdir
  3160  0C64  00BB               	movwf	??_sprintf+1
  3161  0C65  160A  118A  200A  120A  158A  	fcall	stringdir
  3162  0C6A  00BC               	movwf	??_sprintf+2
  3163  0C6B  160A  118A  200A  120A  158A  	fcall	stringdir
  3164  0C70  00BD               	movwf	??_sprintf+3
  3165  0C71  160A  118A  200A  120A  158A  	fcall	stringdir
  3166  0C76  00BE               	movwf	??_sprintf+4
  3167  0C77  083E               	movf	??_sprintf+4,w
  3168  0C78  0244               	subwf	sprintf@val+3,w
  3169  0C79  1D03               	skipz
  3170  0C7A  2C85               	goto	u4765
  3171  0C7B  083D               	movf	??_sprintf+3,w
  3172  0C7C  0243               	subwf	sprintf@val+2,w
  3173  0C7D  1D03               	skipz
  3174  0C7E  2C85               	goto	u4765
  3175  0C7F  083C               	movf	??_sprintf+2,w
  3176  0C80  0242               	subwf	sprintf@val+1,w
  3177  0C81  1D03               	skipz
  3178  0C82  2C85               	goto	u4765
  3179  0C83  083B               	movf	??_sprintf+1,w
  3180  0C84  0241               	subwf	sprintf@val,w
  3181  0C85                     u4765:
  3182  0C85  1803               	skipnc
  3183  0C86  2C88               	goto	u4761
  3184  0C87  2C89               	goto	u4760
  3185  0C88                     u4761:
  3186  0C88  2C8A               	goto	l3232
  3187  0C89                     u4760:
  3188  0C89  2C94               	goto	l3234
  3189  0C8A                     l3232:
  3190  0C8A  3001               	movlw	1
  3191  0C8B  00BA               	movwf	??_sprintf
  3192  0C8C  083A               	movf	??_sprintf,w
  3193  0C8D  07CA               	addwf	sprintf@c,f
  3194  0C8E  300A               	movlw	10
  3195  0C8F  064A               	xorwf	sprintf@c,w
  3196  0C90  1D03               	btfss	3,2
  3197  0C91  2C93               	goto	u4771
  3198  0C92  2C94               	goto	u4770
  3199  0C93                     u4771:
  3200  0C93  2C53               	goto	l3228
  3201  0C94                     u4770:
  3202  0C94                     l3234:
  3203                           
  3204                           ;C:\Program Files\Microchip\xc8\v2.31\pic\sources\c90\common\doprnt.c: 1365:   if(c < pr
      +                          ec)
  3205  0C94  0849               	movf	sprintf@prec+1,w
  3206  0C95  3A80               	xorlw	128
  3207  0C96  3C80               	sublw	128
  3208  0C97  1D03               	skipz
  3209  0C98  2C9B               	goto	u4785
  3210  0C99  0848               	movf	sprintf@prec,w
  3211  0C9A  024A               	subwf	sprintf@c,w
  3212  0C9B                     u4785:
  3213  0C9B  1803               	skipnc
  3214  0C9C  2C9E               	goto	u4781
  3215  0C9D  2C9F               	goto	u4780
  3216  0C9E                     u4781:
  3217  0C9E  2CA6               	goto	l3238
  3218  0C9F                     u4780:
  3219  0C9F                     l3236:
  3220                           
  3221                           ;C:\Program Files\Microchip\xc8\v2.31\pic\sources\c90\common\doprnt.c: 1366:    c = (cha
      +                          r)prec;
  3222  0C9F  1283               	bcf	3,5	;RP0=0, select bank0
  3223  0CA0  1303               	bcf	3,6	;RP1=0, select bank0
  3224  0CA1  0848               	movf	sprintf@prec,w
  3225  0CA2  00BA               	movwf	??_sprintf
  3226  0CA3  083A               	movf	??_sprintf,w
  3227  0CA4  00CA               	movwf	sprintf@c
  3228  0CA5  2CBE               	goto	l806
  3229  0CA6                     l3238:
  3230  0CA6  1283               	bcf	3,5	;RP0=0, select bank0
  3231  0CA7  1303               	bcf	3,6	;RP1=0, select bank0
  3232  0CA8  0849               	movf	sprintf@prec+1,w
  3233  0CA9  3A80               	xorlw	128
  3234  0CAA  00BA               	movwf	??_sprintf
  3235  0CAB  3080               	movlw	128
  3236  0CAC  023A               	subwf	??_sprintf,w
  3237  0CAD  1D03               	skipz
  3238  0CAE  2CB1               	goto	u4795
  3239  0CAF  084A               	movf	sprintf@c,w
  3240  0CB0  0248               	subwf	sprintf@prec,w
  3241  0CB1                     u4795:
  3242  0CB1  1803               	skipnc
  3243  0CB2  2CB4               	goto	u4791
  3244  0CB3  2CB5               	goto	u4790
  3245  0CB4                     u4791:
  3246  0CB4  2CBE               	goto	l806
  3247  0CB5                     u4790:
  3248  0CB5                     l3240:
  3249                           
  3250                           ;C:\Program Files\Microchip\xc8\v2.31\pic\sources\c90\common\doprnt.c: 1368:    prec = c
      +                          ;
  3251  0CB5  1283               	bcf	3,5	;RP0=0, select bank0
  3252  0CB6  1303               	bcf	3,6	;RP1=0, select bank0
  3253  0CB7  084A               	movf	sprintf@c,w
  3254  0CB8  00BA               	movwf	??_sprintf
  3255  0CB9  01BB               	clrf	??_sprintf+1
  3256  0CBA  083A               	movf	??_sprintf,w
  3257  0CBB  00C8               	movwf	sprintf@prec
  3258  0CBC  083B               	movf	??_sprintf+1,w
  3259  0CBD  00C9               	movwf	sprintf@prec+1
  3260  0CBE                     l806:
  3261                           
  3262                           ;C:\Program Files\Microchip\xc8\v2.31\pic\sources\c90\common\doprnt.c: 1407:   if(width 
      +                          > c)
  3263  0CBE  1283               	bcf	3,5	;RP0=0, select bank0
  3264  0CBF  1303               	bcf	3,6	;RP1=0, select bank0
  3265  0CC0  0847               	movf	sprintf@width+1,w
  3266  0CC1  3A80               	xorlw	128
  3267  0CC2  3C80               	sublw	128
  3268  0CC3  1D03               	skipz
  3269  0CC4  2CC7               	goto	u4805
  3270  0CC5  0846               	movf	sprintf@width,w
  3271  0CC6  024A               	subwf	sprintf@c,w
  3272  0CC7                     u4805:
  3273  0CC7  1803               	skipnc
  3274  0CC8  2CCA               	goto	u4801
  3275  0CC9  2CCB               	goto	u4800
  3276  0CCA                     u4801:
  3277  0CCA  2CD7               	goto	l3244
  3278  0CCB                     u4800:
  3279  0CCB                     l3242:
  3280                           
  3281                           ;C:\Program Files\Microchip\xc8\v2.31\pic\sources\c90\common\doprnt.c: 1408:    width -=
      +                           c;
  3282  0CCB  1283               	bcf	3,5	;RP0=0, select bank0
  3283  0CCC  1303               	bcf	3,6	;RP1=0, select bank0
  3284  0CCD  084A               	movf	sprintf@c,w
  3285  0CCE  00BA               	movwf	??_sprintf
  3286  0CCF  01BB               	clrf	??_sprintf+1
  3287  0CD0  083A               	movf	??_sprintf,w
  3288  0CD1  02C6               	subwf	sprintf@width,f
  3289  0CD2  083B               	movf	??_sprintf+1,w
  3290  0CD3  1C03               	skipc
  3291  0CD4  03C7               	decf	sprintf@width+1,f
  3292  0CD5  02C7               	subwf	sprintf@width+1,f
  3293  0CD6  2CDB               	goto	l3246
  3294  0CD7                     l3244:
  3295                           
  3296                           ;C:\Program Files\Microchip\xc8\v2.31\pic\sources\c90\common\doprnt.c: 1410:    width = 
      +                          0;
  3297  0CD7  1283               	bcf	3,5	;RP0=0, select bank0
  3298  0CD8  1303               	bcf	3,6	;RP1=0, select bank0
  3299  0CD9  01C6               	clrf	sprintf@width
  3300  0CDA  01C7               	clrf	sprintf@width+1
  3301  0CDB                     l3246:
  3302                           
  3303                           ;C:\Program Files\Microchip\xc8\v2.31\pic\sources\c90\common\doprnt.c: 1448:   {;C:\Prog
      +                          ram Files\Microchip\xc8\v2.31\pic\sources\c90\common\doprnt.c: 1450:    if(width
  3304  0CDB  0846               	movf	sprintf@width,w
  3305  0CDC  0447               	iorwf	sprintf@width+1,w
  3306  0CDD  1903               	btfsc	3,2
  3307  0CDE  2CE0               	goto	u4811
  3308  0CDF  2CE1               	goto	u4810
  3309  0CE0                     u4811:
  3310  0CE0  2D53               	goto	l3260
  3311  0CE1                     u4810:
  3312  0CE1                     l3248:
  3313                           
  3314                           ;C:\Program Files\Microchip\xc8\v2.31\pic\sources\c90\common\doprnt.c: 1456:      ((*sp+
      +                          + = (' ')));
  3315  0CE1  3020               	movlw	32
  3316  0CE2  00BA               	movwf	??_sprintf
  3317  0CE3  0845               	movf	sprintf@sp,w
  3318  0CE4  0084               	movwf	4
  3319  0CE5  083A               	movf	??_sprintf,w
  3320  0CE6  1783               	bsf	3,7	;select IRP bank2
  3321  0CE7  0080               	movwf	0
  3322  0CE8                     l3250:
  3323  0CE8  3001               	movlw	1
  3324  0CE9  00BA               	movwf	??_sprintf
  3325  0CEA  083A               	movf	??_sprintf,w
  3326  0CEB  07C5               	addwf	sprintf@sp,f
  3327  0CEC                     l3252:
  3328  0CEC  30FF               	movlw	255
  3329  0CED  07C6               	addwf	sprintf@width,f
  3330  0CEE  1803               	skipnc
  3331  0CEF  0AC7               	incf	sprintf@width+1,f
  3332  0CF0  30FF               	movlw	255
  3333  0CF1  07C7               	addwf	sprintf@width+1,f
  3334  0CF2  0846               	movf	sprintf@width,w
  3335  0CF3  0447               	iorwf	sprintf@width+1,w
  3336  0CF4  1D03               	btfss	3,2
  3337  0CF5  2CF7               	goto	u4821
  3338  0CF6  2CF8               	goto	u4820
  3339  0CF7                     u4821:
  3340  0CF7  2CE1               	goto	l3248
  3341  0CF8                     u4820:
  3342  0CF8  2D53               	goto	l3260
  3343  0CF9                     l3254:
  3344                           
  3345                           ;C:\Program Files\Microchip\xc8\v2.31\pic\sources\c90\common\doprnt.c: 1504:    {;C:\Pro
      +                          gram Files\Microchip\xc8\v2.31\pic\sources\c90\common\doprnt.c: 1515:     c = (val / dpo
      +                          wers[(unsigned int)prec]) % 10 + '0';
  3346  0CF9  3000               	movlw	0
  3347  0CFA  00AB               	movwf	___llmod@divisor+3
  3348  0CFB  3000               	movlw	0
  3349  0CFC  00AA               	movwf	___llmod@divisor+2
  3350  0CFD  3000               	movlw	0
  3351  0CFE  00A9               	movwf	___llmod@divisor+1
  3352  0CFF  300A               	movlw	10
  3353  0D00  00A8               	movwf	___llmod@divisor
  3354  0D01  0848               	movf	sprintf@prec,w
  3355  0D02  00BA               	movwf	??_sprintf
  3356  0D03  3001               	movlw	1
  3357  0D04                     u4835:
  3358  0D04  1003               	clrc
  3359  0D05  0DBA               	rlf	??_sprintf,f
  3360  0D06  3EFF               	addlw	-1
  3361  0D07  1D03               	skipz
  3362  0D08  2D04               	goto	u4835
  3363  0D09  1003               	clrc
  3364  0D0A  0D3A               	rlf	??_sprintf,w
  3365  0D0B  3E01               	addlw	low ((_dpowers-__stringbase)| (0+32768))
  3366  0D0C  0084               	movwf	4
  3367  0D0D  160A  118A  200A  120A  158A  	fcall	stringdir
  3368  0D12  00A0               	movwf	___lldiv@divisor
  3369  0D13  160A  118A  200A  120A  158A  	fcall	stringdir
  3370  0D18  00A1               	movwf	___lldiv@divisor+1
  3371  0D19  160A  118A  200A  120A  158A  	fcall	stringdir
  3372  0D1E  00A2               	movwf	___lldiv@divisor+2
  3373  0D1F  160A  118A  200A  120A  158A  	fcall	stringdir
  3374  0D24  00A3               	movwf	___lldiv@divisor+3
  3375  0D25  0844               	movf	sprintf@val+3,w
  3376  0D26  00A7               	movwf	___lldiv@dividend+3
  3377  0D27  0843               	movf	sprintf@val+2,w
  3378  0D28  00A6               	movwf	___lldiv@dividend+2
  3379  0D29  0842               	movf	sprintf@val+1,w
  3380  0D2A  00A5               	movwf	___lldiv@dividend+1
  3381  0D2B  0841               	movf	sprintf@val,w
  3382  0D2C  00A4               	movwf	___lldiv@dividend
  3383  0D2D  160A  118A  24E7  120A  158A  	fcall	___lldiv
  3384  0D32  1283               	bcf	3,5	;RP0=0, select bank0
  3385  0D33  1303               	bcf	3,6	;RP1=0, select bank0
  3386  0D34  0823               	movf	?___lldiv+3,w
  3387  0D35  00AF               	movwf	___llmod@dividend+3
  3388  0D36  0822               	movf	?___lldiv+2,w
  3389  0D37  00AE               	movwf	___llmod@dividend+2
  3390  0D38  0821               	movf	?___lldiv+1,w
  3391  0D39  00AD               	movwf	___llmod@dividend+1
  3392  0D3A  0820               	movf	?___lldiv,w
  3393  0D3B  00AC               	movwf	___llmod@dividend
  3394  0D3C  160A  118A  243A  120A  158A  	fcall	___llmod
  3395  0D41  1283               	bcf	3,5	;RP0=0, select bank0
  3396  0D42  1303               	bcf	3,6	;RP1=0, select bank0
  3397  0D43  0828               	movf	?___llmod,w
  3398  0D44  3E30               	addlw	48
  3399  0D45  00BB               	movwf	??_sprintf+1
  3400  0D46  083B               	movf	??_sprintf+1,w
  3401  0D47  00CA               	movwf	sprintf@c
  3402  0D48                     l3256:
  3403                           
  3404                           ;C:\Program Files\Microchip\xc8\v2.31\pic\sources\c90\common\doprnt.c: 1549:    };C:\Pro
      +                          gram Files\Microchip\xc8\v2.31\pic\sources\c90\common\doprnt.c: 1550:    ((*sp++ = (c)))
      +                          ;
  3405  0D48  084A               	movf	sprintf@c,w
  3406  0D49  00BA               	movwf	??_sprintf
  3407  0D4A  0845               	movf	sprintf@sp,w
  3408  0D4B  0084               	movwf	4
  3409  0D4C  083A               	movf	??_sprintf,w
  3410  0D4D  1783               	bsf	3,7	;select IRP bank2
  3411  0D4E  0080               	movwf	0
  3412  0D4F                     l3258:
  3413  0D4F  3001               	movlw	1
  3414  0D50  00BA               	movwf	??_sprintf
  3415  0D51  083A               	movf	??_sprintf,w
  3416  0D52  07C5               	addwf	sprintf@sp,f
  3417  0D53                     l3260:
  3418                           
  3419                           ;C:\Program Files\Microchip\xc8\v2.31\pic\sources\c90\common\doprnt.c: 1500:   while(pre
      +                          c--) {
  3420  0D53  30FF               	movlw	255
  3421  0D54  07C8               	addwf	sprintf@prec,f
  3422  0D55  1803               	skipnc
  3423  0D56  0AC9               	incf	sprintf@prec+1,f
  3424  0D57  30FF               	movlw	255
  3425  0D58  07C9               	addwf	sprintf@prec+1,f
  3426  0D59  0A48               	incf	sprintf@prec,w
  3427  0D5A  1D03               	skipz
  3428  0D5B  2D60               	goto	u4841
  3429  0D5C  0A49               	incf	sprintf@prec+1,w
  3430  0D5D  1D03               	btfss	3,2
  3431  0D5E  2D60               	goto	u4841
  3432  0D5F  2D61               	goto	u4840
  3433  0D60                     u4841:
  3434  0D60  2CF9               	goto	l3254
  3435  0D61                     u4840:
  3436  0D61                     l3262:
  3437                           
  3438                           ;C:\Program Files\Microchip\xc8\v2.31\pic\sources\c90\common\doprnt.c: 553:  while((c = 
      +                          *f++)) {
  3439  0D61  3001               	movlw	1
  3440  0D62  07B1               	addwf	sprintf@f,f
  3441  0D63  30FF               	movlw	-1
  3442  0D64  0731               	addwf	sprintf@f,w
  3443  0D65  0084               	movwf	4
  3444  0D66  160A  118A  200A  120A  158A  	fcall	stringdir
  3445  0D6B  00BA               	movwf	??_sprintf
  3446  0D6C  083A               	movf	??_sprintf,w
  3447  0D6D  00CA               	movwf	sprintf@c
  3448  0D6E  084A               	movf	sprintf@c,w
  3449  0D6F  1D03               	btfss	3,2
  3450  0D70  2D72               	goto	u4851
  3451  0D71  2D73               	goto	u4850
  3452  0D72                     u4851:
  3453  0D72  2B34               	goto	l3166
  3454  0D73                     u4850:
  3455  0D73                     l3264:
  3456                           
  3457                           ;C:\Program Files\Microchip\xc8\v2.31\pic\sources\c90\common\doprnt.c: 1564:  *sp = 0;
  3458  0D73  0845               	movf	sprintf@sp,w
  3459  0D74  0084               	movwf	4
  3460  0D75  1783               	bsf	3,7	;select IRP bank2
  3461  0D76  0180               	clrf	0
  3462  0D77                     l817:
  3463  0D77  0008               	return
  3464  0D78                     __end_of_sprintf:
  3465                           
  3466                           	psect	text5
  3467  133C                     __ptext5:	
  3468 ;; *************** function _isdigit *****************
  3469 ;; Defined at:
  3470 ;;		line 8 in file "C:\Program Files\Microchip\xc8\v2.31\pic\sources\c90\common\isdigit.c"
  3471 ;; Parameters:    Size  Location     Type
  3472 ;;  c               1    wreg     unsigned char 
  3473 ;; Auto vars:     Size  Location     Type
  3474 ;;  c               1    4[COMMON] unsigned char 
  3475 ;; Return value:  Size  Location     Type
  3476 ;;		None               void
  3477 ;; Registers used:
  3478 ;;		wreg, status,2, status,0
  3479 ;; Tracked objects:
  3480 ;;		On entry : 0/0
  3481 ;;		On exit  : 0/0
  3482 ;;		Unchanged: 0/0
  3483 ;; Data sizes:     COMMON   BANK0   BANK1   BANK3   BANK2
  3484 ;;      Params:         0       0       0       0       0
  3485 ;;      Locals:         2       0       0       0       0
  3486 ;;      Temps:          0       0       0       0       0
  3487 ;;      Totals:         2       0       0       0       0
  3488 ;;Total ram usage:        2 bytes
  3489 ;; Hardware stack levels used:    1
  3490 ;; Hardware stack levels required when called:    1
  3491 ;; This function calls:
  3492 ;;		Nothing
  3493 ;; This function is called by:
  3494 ;;		_sprintf
  3495 ;; This function uses a non-reentrant model
  3496 ;;
  3497                           
  3498                           
  3499                           ;psect for function _isdigit
  3500  133C                     _isdigit:
  3501                           
  3502                           ;incstack = 0
  3503                           ; Regs used in _isdigit: [wreg+status,2+status,0]
  3504                           ;isdigit@c stored from wreg
  3505  133C  00F4               	movwf	isdigit@c
  3506  133D                     l2260:
  3507  133D  01F3               	clrf	_isdigit$910
  3508  133E                     l2262:
  3509  133E  303A               	movlw	58
  3510  133F  0274               	subwf	isdigit@c,w
  3511  1340  1803               	skipnc
  3512  1341  2B43               	goto	u2851
  3513  1342  2B44               	goto	u2850
  3514  1343                     u2851:
  3515  1343  2B4C               	goto	l2268
  3516  1344                     u2850:
  3517  1344                     l2264:
  3518  1344  3030               	movlw	48
  3519  1345  0274               	subwf	isdigit@c,w
  3520  1346  1C03               	skipc
  3521  1347  2B49               	goto	u2861
  3522  1348  2B4A               	goto	u2860
  3523  1349                     u2861:
  3524  1349  2B4C               	goto	l2268
  3525  134A                     u2860:
  3526  134A                     l2266:
  3527  134A  01F3               	clrf	_isdigit$910
  3528  134B  0AF3               	incf	_isdigit$910,f
  3529  134C                     l2268:
  3530  134C  0C73               	rrf	_isdigit$910,w
  3531  134D                     l822:
  3532  134D  0008               	return
  3533  134E                     __end_of_isdigit:
  3534                           
  3535                           	psect	text6
  3536  1393                     __ptext6:	
  3537 ;; *************** function ___wmul *****************
  3538 ;; Defined at:
  3539 ;;		line 15 in file "C:\Program Files\Microchip\xc8\v2.31\pic\sources\c90\common\Umul16.c"
  3540 ;; Parameters:    Size  Location     Type
  3541 ;;  multiplier      2    3[COMMON] unsigned int 
  3542 ;;  multiplicand    2    5[COMMON] unsigned int 
  3543 ;; Auto vars:     Size  Location     Type
  3544 ;;  product         2    7[COMMON] unsigned int 
  3545 ;; Return value:  Size  Location     Type
  3546 ;;                  2    3[COMMON] unsigned int 
  3547 ;; Registers used:
  3548 ;;		wreg, status,2, status,0
  3549 ;; Tracked objects:
  3550 ;;		On entry : 0/0
  3551 ;;		On exit  : 0/0
  3552 ;;		Unchanged: 0/0
  3553 ;; Data sizes:     COMMON   BANK0   BANK1   BANK3   BANK2
  3554 ;;      Params:         4       0       0       0       0
  3555 ;;      Locals:         2       0       0       0       0
  3556 ;;      Temps:          0       0       0       0       0
  3557 ;;      Totals:         6       0       0       0       0
  3558 ;;Total ram usage:        6 bytes
  3559 ;; Hardware stack levels used:    1
  3560 ;; Hardware stack levels required when called:    1
  3561 ;; This function calls:
  3562 ;;		Nothing
  3563 ;; This function is called by:
  3564 ;;		_sprintf
  3565 ;; This function uses a non-reentrant model
  3566 ;;
  3567                           
  3568                           
  3569                           ;psect for function ___wmul
  3570  1393                     ___wmul:
  3571  1393                     l1994:	
  3572                           ;incstack = 0
  3573                           ; Regs used in ___wmul: [wreg+status,2+status,0]
  3574                           
  3575  1393  01F7               	clrf	___wmul@product
  3576  1394  01F8               	clrf	___wmul@product+1
  3577  1395                     l1996:
  3578  1395  1C73               	btfss	___wmul@multiplier,0
  3579  1396  2B98               	goto	u2191
  3580  1397  2B99               	goto	u2190
  3581  1398                     u2191:
  3582  1398  2B9F               	goto	l313
  3583  1399                     u2190:
  3584  1399                     l1998:
  3585  1399  0875               	movf	___wmul@multiplicand,w
  3586  139A  07F7               	addwf	___wmul@product,f
  3587  139B  1803               	skipnc
  3588  139C  0AF8               	incf	___wmul@product+1,f
  3589  139D  0876               	movf	___wmul@multiplicand+1,w
  3590  139E  07F8               	addwf	___wmul@product+1,f
  3591  139F                     l313:
  3592  139F  3001               	movlw	1
  3593  13A0                     u2205:
  3594  13A0  1003               	clrc
  3595  13A1  0DF5               	rlf	___wmul@multiplicand,f
  3596  13A2  0DF6               	rlf	___wmul@multiplicand+1,f
  3597  13A3  3EFF               	addlw	-1
  3598  13A4  1D03               	skipz
  3599  13A5  2BA0               	goto	u2205
  3600  13A6                     l2000:
  3601  13A6  3001               	movlw	1
  3602  13A7                     u2215:
  3603  13A7  1003               	clrc
  3604  13A8  0CF4               	rrf	___wmul@multiplier+1,f
  3605  13A9  0CF3               	rrf	___wmul@multiplier,f
  3606  13AA  3EFF               	addlw	-1
  3607  13AB  1D03               	skipz
  3608  13AC  2BA7               	goto	u2215
  3609  13AD                     l2002:
  3610  13AD  0873               	movf	___wmul@multiplier,w
  3611  13AE  0474               	iorwf	___wmul@multiplier+1,w
  3612  13AF  1D03               	btfss	3,2
  3613  13B0  2BB2               	goto	u2221
  3614  13B1  2BB3               	goto	u2220
  3615  13B2                     u2221:
  3616  13B2  2B95               	goto	l1996
  3617  13B3                     u2220:
  3618  13B3                     l2004:
  3619  13B3  0878               	movf	___wmul@product+1,w
  3620  13B4  00F4               	movwf	?___wmul+1
  3621  13B5  0877               	movf	___wmul@product,w
  3622  13B6  00F3               	movwf	?___wmul
  3623  13B7                     l315:
  3624  13B7  0008               	return
  3625  13B8                     __end_of___wmul:
  3626                           
  3627                           	psect	text7
  3628  143A                     __ptext7:	
  3629 ;; *************** function ___llmod *****************
  3630 ;; Defined at:
  3631 ;;		line 5 in file "C:\Program Files\Microchip\xc8\v2.31\pic\sources\c90\common\llmod.c"
  3632 ;; Parameters:    Size  Location     Type
  3633 ;;  divisor         4    8[BANK0 ] unsigned long 
  3634 ;;  dividend        4   12[BANK0 ] unsigned long 
  3635 ;; Auto vars:     Size  Location     Type
  3636 ;;  counter         1   16[BANK0 ] unsigned char 
  3637 ;; Return value:  Size  Location     Type
  3638 ;;                  4    8[BANK0 ] unsigned long 
  3639 ;; Registers used:
  3640 ;;		wreg, status,2, status,0
  3641 ;; Tracked objects:
  3642 ;;		On entry : 0/0
  3643 ;;		On exit  : 0/0
  3644 ;;		Unchanged: 0/0
  3645 ;; Data sizes:     COMMON   BANK0   BANK1   BANK3   BANK2
  3646 ;;      Params:         0       8       0       0       0
  3647 ;;      Locals:         0       1       0       0       0
  3648 ;;      Temps:          1       0       0       0       0
  3649 ;;      Totals:         1       9       0       0       0
  3650 ;;Total ram usage:       10 bytes
  3651 ;; Hardware stack levels used:    1
  3652 ;; Hardware stack levels required when called:    1
  3653 ;; This function calls:
  3654 ;;		Nothing
  3655 ;; This function is called by:
  3656 ;;		_sprintf
  3657 ;; This function uses a non-reentrant model
  3658 ;;
  3659                           
  3660                           
  3661                           ;psect for function ___llmod
  3662  143A                     ___llmod:
  3663  143A                     l3044:	
  3664                           ;incstack = 0
  3665                           ; Regs used in ___llmod: [wreg+status,2+status,0]
  3666                           
  3667  143A  1283               	bcf	3,5	;RP0=0, select bank0
  3668  143B  1303               	bcf	3,6	;RP1=0, select bank0
  3669  143C  082B               	movf	___llmod@divisor+3,w
  3670  143D  042A               	iorwf	___llmod@divisor+2,w
  3671  143E  0429               	iorwf	___llmod@divisor+1,w
  3672  143F  0428               	iorwf	___llmod@divisor,w
  3673  1440  1903               	skipnz
  3674  1441  2C43               	goto	u4301
  3675  1442  2C44               	goto	u4300
  3676  1443                     u4301:
  3677  1443  2C87               	goto	l3060
  3678  1444                     u4300:
  3679  1444                     l3046:
  3680  1444  01B0               	clrf	___llmod@counter
  3681  1445  0AB0               	incf	___llmod@counter,f
  3682  1446  2C54               	goto	l3050
  3683  1447                     l3048:
  3684  1447  3001               	movlw	1
  3685  1448  00F9               	movwf	??___llmod
  3686  1449                     u4315:
  3687  1449  1003               	clrc
  3688  144A  0DA8               	rlf	___llmod@divisor,f
  3689  144B  0DA9               	rlf	___llmod@divisor+1,f
  3690  144C  0DAA               	rlf	___llmod@divisor+2,f
  3691  144D  0DAB               	rlf	___llmod@divisor+3,f
  3692  144E  0BF9               	decfsz	??___llmod,f
  3693  144F  2C49               	goto	u4315
  3694  1450  3001               	movlw	1
  3695  1451  00F9               	movwf	??___llmod
  3696  1452  0879               	movf	??___llmod,w
  3697  1453  07B0               	addwf	___llmod@counter,f
  3698  1454                     l3050:
  3699  1454  1FAB               	btfss	___llmod@divisor+3,7
  3700  1455  2C57               	goto	u4321
  3701  1456  2C58               	goto	u4320
  3702  1457                     u4321:
  3703  1457  2C47               	goto	l3048
  3704  1458                     u4320:
  3705  1458                     l3052:
  3706  1458  082B               	movf	___llmod@divisor+3,w
  3707  1459  022F               	subwf	___llmod@dividend+3,w
  3708  145A  1D03               	skipz
  3709  145B  2C66               	goto	u4335
  3710  145C  082A               	movf	___llmod@divisor+2,w
  3711  145D  022E               	subwf	___llmod@dividend+2,w
  3712  145E  1D03               	skipz
  3713  145F  2C66               	goto	u4335
  3714  1460  0829               	movf	___llmod@divisor+1,w
  3715  1461  022D               	subwf	___llmod@dividend+1,w
  3716  1462  1D03               	skipz
  3717  1463  2C66               	goto	u4335
  3718  1464  0828               	movf	___llmod@divisor,w
  3719  1465  022C               	subwf	___llmod@dividend,w
  3720  1466                     u4335:
  3721  1466  1C03               	skipc
  3722  1467  2C69               	goto	u4331
  3723  1468  2C6A               	goto	u4330
  3724  1469                     u4331:
  3725  1469  2C78               	goto	l3056
  3726  146A                     u4330:
  3727  146A                     l3054:
  3728  146A  0828               	movf	___llmod@divisor,w
  3729  146B  02AC               	subwf	___llmod@dividend,f
  3730  146C  0829               	movf	___llmod@divisor+1,w
  3731  146D  1C03               	skipc
  3732  146E  0F29               	incfsz	___llmod@divisor+1,w
  3733  146F  02AD               	subwf	___llmod@dividend+1,f
  3734  1470  082A               	movf	___llmod@divisor+2,w
  3735  1471  1C03               	skipc
  3736  1472  0F2A               	incfsz	___llmod@divisor+2,w
  3737  1473  02AE               	subwf	___llmod@dividend+2,f
  3738  1474  082B               	movf	___llmod@divisor+3,w
  3739  1475  1C03               	skipc
  3740  1476  0F2B               	incfsz	___llmod@divisor+3,w
  3741  1477  02AF               	subwf	___llmod@dividend+3,f
  3742  1478                     l3056:
  3743  1478  3001               	movlw	1
  3744  1479                     u4345:
  3745  1479  1003               	clrc
  3746  147A  0CAB               	rrf	___llmod@divisor+3,f
  3747  147B  0CAA               	rrf	___llmod@divisor+2,f
  3748  147C  0CA9               	rrf	___llmod@divisor+1,f
  3749  147D  0CA8               	rrf	___llmod@divisor,f
  3750  147E  3EFF               	addlw	-1
  3751  147F  1D03               	skipz
  3752  1480  2C79               	goto	u4345
  3753  1481                     l3058:
  3754  1481  3001               	movlw	1
  3755  1482  02B0               	subwf	___llmod@counter,f
  3756  1483  1D03               	btfss	3,2
  3757  1484  2C86               	goto	u4351
  3758  1485  2C87               	goto	u4350
  3759  1486                     u4351:
  3760  1486  2C58               	goto	l3052
  3761  1487                     u4350:
  3762  1487                     l3060:
  3763  1487  082F               	movf	___llmod@dividend+3,w
  3764  1488  00AB               	movwf	?___llmod+3
  3765  1489  082E               	movf	___llmod@dividend+2,w
  3766  148A  00AA               	movwf	?___llmod+2
  3767  148B  082D               	movf	___llmod@dividend+1,w
  3768  148C  00A9               	movwf	?___llmod+1
  3769  148D  082C               	movf	___llmod@dividend,w
  3770  148E  00A8               	movwf	?___llmod
  3771  148F                     l535:
  3772  148F  0008               	return
  3773  1490                     __end_of___llmod:
  3774                           
  3775                           	psect	text8
  3776  166F                     __ptext8:	
  3777 ;; *************** function ___xxtofl *****************
  3778 ;; Defined at:
  3779 ;;		line 10 in file "C:\Program Files\Microchip\xc8\v2.31\pic\sources\c90\common\xxtofl.c"
  3780 ;; Parameters:    Size  Location     Type
  3781 ;;  sign            1    wreg     unsigned char 
  3782 ;;  val             4    3[COMMON] long 
  3783 ;; Auto vars:     Size  Location     Type
  3784 ;;  sign            1    4[BANK0 ] unsigned char 
  3785 ;;  arg             4    6[BANK0 ] unsigned long 
  3786 ;;  exp             1    5[BANK0 ] unsigned char 
  3787 ;; Return value:  Size  Location     Type
  3788 ;;                  4    3[COMMON] unsigned char 
  3789 ;; Registers used:
  3790 ;;		wreg, status,2, status,0
  3791 ;; Tracked objects:
  3792 ;;		On entry : 0/0
  3793 ;;		On exit  : 0/0
  3794 ;;		Unchanged: 0/0
  3795 ;; Data sizes:     COMMON   BANK0   BANK1   BANK3   BANK2
  3796 ;;      Params:         4       0       0       0       0
  3797 ;;      Locals:         0       6       0       0       0
  3798 ;;      Temps:          0       4       0       0       0
  3799 ;;      Totals:         4      10       0       0       0
  3800 ;;Total ram usage:       14 bytes
  3801 ;; Hardware stack levels used:    1
  3802 ;; Hardware stack levels required when called:    1
  3803 ;; This function calls:
  3804 ;;		Nothing
  3805 ;; This function is called by:
  3806 ;;		_GY_read
  3807 ;;		_ftoa
  3808 ;; This function uses a non-reentrant model
  3809 ;;
  3810                           
  3811                           
  3812                           ;psect for function ___xxtofl
  3813  166F                     ___xxtofl:
  3814                           
  3815                           ;incstack = 0
  3816                           ; Regs used in ___xxtofl: [wreg+status,2+status,0]
  3817                           ;___xxtofl@sign stored from wreg
  3818  166F  1283               	bcf	3,5	;RP0=0, select bank0
  3819  1670  1303               	bcf	3,6	;RP1=0, select bank0
  3820  1671  00A4               	movwf	___xxtofl@sign
  3821  1672                     l3120:
  3822  1672  0824               	movf	___xxtofl@sign,w
  3823  1673  1903               	btfsc	3,2
  3824  1674  2E76               	goto	u4531
  3825  1675  2E77               	goto	u4530
  3826  1676                     u4531:
  3827  1676  2E8B               	goto	l3126
  3828  1677                     u4530:
  3829  1677                     l3122:
  3830  1677  1FF6               	btfss	___xxtofl@val+3,7
  3831  1678  2E7A               	goto	u4541
  3832  1679  2E7B               	goto	u4540
  3833  167A                     u4541:
  3834  167A  2E8B               	goto	l3126
  3835  167B                     u4540:
  3836  167B                     l3124:
  3837  167B  0973               	comf	___xxtofl@val,w
  3838  167C  00A6               	movwf	___xxtofl@arg
  3839  167D  0974               	comf	___xxtofl@val+1,w
  3840  167E  00A7               	movwf	___xxtofl@arg+1
  3841  167F  0975               	comf	___xxtofl@val+2,w
  3842  1680  00A8               	movwf	___xxtofl@arg+2
  3843  1681  0976               	comf	___xxtofl@val+3,w
  3844  1682  00A9               	movwf	___xxtofl@arg+3
  3845  1683  0AA6               	incf	___xxtofl@arg,f
  3846  1684  1903               	skipnz
  3847  1685  0AA7               	incf	___xxtofl@arg+1,f
  3848  1686  1903               	skipnz
  3849  1687  0AA8               	incf	___xxtofl@arg+2,f
  3850  1688  1903               	skipnz
  3851  1689  0AA9               	incf	___xxtofl@arg+3,f
  3852  168A  2E93               	goto	l746
  3853  168B                     l3126:
  3854  168B  0876               	movf	___xxtofl@val+3,w
  3855  168C  00A9               	movwf	___xxtofl@arg+3
  3856  168D  0875               	movf	___xxtofl@val+2,w
  3857  168E  00A8               	movwf	___xxtofl@arg+2
  3858  168F  0874               	movf	___xxtofl@val+1,w
  3859  1690  00A7               	movwf	___xxtofl@arg+1
  3860  1691  0873               	movf	___xxtofl@val,w
  3861  1692  00A6               	movwf	___xxtofl@arg
  3862  1693                     l746:
  3863  1693  0876               	movf	___xxtofl@val+3,w
  3864  1694  0475               	iorwf	___xxtofl@val+2,w
  3865  1695  0474               	iorwf	___xxtofl@val+1,w
  3866  1696  0473               	iorwf	___xxtofl@val,w
  3867  1697  1D03               	skipz
  3868  1698  2E9A               	goto	u4551
  3869  1699  2E9B               	goto	u4550
  3870  169A                     u4551:
  3871  169A  2EA4               	goto	l3132
  3872  169B                     u4550:
  3873  169B                     l3128:
  3874  169B  3000               	movlw	0
  3875  169C  00F6               	movwf	?___xxtofl+3
  3876  169D  3000               	movlw	0
  3877  169E  00F5               	movwf	?___xxtofl+2
  3878  169F  3000               	movlw	0
  3879  16A0  00F4               	movwf	?___xxtofl+1
  3880  16A1  3000               	movlw	0
  3881  16A2  00F3               	movwf	?___xxtofl
  3882  16A3  2F2A               	goto	l748
  3883  16A4                     l3132:
  3884  16A4  3096               	movlw	150
  3885  16A5  00A0               	movwf	??___xxtofl
  3886  16A6  0820               	movf	??___xxtofl,w
  3887  16A7  00A5               	movwf	___xxtofl@exp
  3888  16A8  2EB6               	goto	l3136
  3889  16A9                     l3134:
  3890  16A9  3001               	movlw	1
  3891  16AA  00A0               	movwf	??___xxtofl
  3892  16AB  0820               	movf	??___xxtofl,w
  3893  16AC  07A5               	addwf	___xxtofl@exp,f
  3894  16AD  3001               	movlw	1
  3895  16AE                     u4565:
  3896  16AE  1003               	clrc
  3897  16AF  0CA9               	rrf	___xxtofl@arg+3,f
  3898  16B0  0CA8               	rrf	___xxtofl@arg+2,f
  3899  16B1  0CA7               	rrf	___xxtofl@arg+1,f
  3900  16B2  0CA6               	rrf	___xxtofl@arg,f
  3901  16B3  3EFF               	addlw	-1
  3902  16B4  1D03               	skipz
  3903  16B5  2EAE               	goto	u4565
  3904  16B6                     l3136:
  3905  16B6  30FE               	movlw	254
  3906  16B7  0529               	andwf	___xxtofl@arg+3,w
  3907  16B8  1D03               	btfss	3,2
  3908  16B9  2EBB               	goto	u4571
  3909  16BA  2EBC               	goto	u4570
  3910  16BB                     u4571:
  3911  16BB  2EA9               	goto	l3134
  3912  16BC                     u4570:
  3913  16BC  2ED8               	goto	l752
  3914  16BD                     l3138:
  3915  16BD  3001               	movlw	1
  3916  16BE  00A0               	movwf	??___xxtofl
  3917  16BF  0820               	movf	??___xxtofl,w
  3918  16C0  07A5               	addwf	___xxtofl@exp,f
  3919  16C1                     l3140:
  3920  16C1  3001               	movlw	1
  3921  16C2  07A6               	addwf	___xxtofl@arg,f
  3922  16C3  3000               	movlw	0
  3923  16C4  1803               	skipnc
  3924  16C5  3001               	movlw	1
  3925  16C6  07A7               	addwf	___xxtofl@arg+1,f
  3926  16C7  3000               	movlw	0
  3927  16C8  1803               	skipnc
  3928  16C9  3001               	movlw	1
  3929  16CA  07A8               	addwf	___xxtofl@arg+2,f
  3930  16CB  3000               	movlw	0
  3931  16CC  1803               	skipnc
  3932  16CD  3001               	movlw	1
  3933  16CE  07A9               	addwf	___xxtofl@arg+3,f
  3934  16CF                     l3142:
  3935  16CF  3001               	movlw	1
  3936  16D0                     u4585:
  3937  16D0  1003               	clrc
  3938  16D1  0CA9               	rrf	___xxtofl@arg+3,f
  3939  16D2  0CA8               	rrf	___xxtofl@arg+2,f
  3940  16D3  0CA7               	rrf	___xxtofl@arg+1,f
  3941  16D4  0CA6               	rrf	___xxtofl@arg,f
  3942  16D5  3EFF               	addlw	-1
  3943  16D6  1D03               	skipz
  3944  16D7  2ED0               	goto	u4585
  3945  16D8                     l752:
  3946  16D8  30FF               	movlw	255
  3947  16D9  0529               	andwf	___xxtofl@arg+3,w
  3948  16DA  1D03               	btfss	3,2
  3949  16DB  2EDD               	goto	u4591
  3950  16DC  2EDE               	goto	u4590
  3951  16DD                     u4591:
  3952  16DD  2EBD               	goto	l3138
  3953  16DE                     u4590:
  3954  16DE  2EEA               	goto	l3146
  3955  16DF                     l3144:
  3956  16DF  3001               	movlw	1
  3957  16E0  02A5               	subwf	___xxtofl@exp,f
  3958  16E1  3001               	movlw	1
  3959  16E2  00A0               	movwf	??___xxtofl
  3960  16E3                     u4605:
  3961  16E3  1003               	clrc
  3962  16E4  0DA6               	rlf	___xxtofl@arg,f
  3963  16E5  0DA7               	rlf	___xxtofl@arg+1,f
  3964  16E6  0DA8               	rlf	___xxtofl@arg+2,f
  3965  16E7  0DA9               	rlf	___xxtofl@arg+3,f
  3966  16E8  0BA0               	decfsz	??___xxtofl,f
  3967  16E9  2EE3               	goto	u4605
  3968  16EA                     l3146:
  3969  16EA  1BA8               	btfsc	___xxtofl@arg+2,7
  3970  16EB  2EED               	goto	u4611
  3971  16EC  2EEE               	goto	u4610
  3972  16ED                     u4611:
  3973  16ED  2EF4               	goto	l759
  3974  16EE                     u4610:
  3975  16EE                     l3148:
  3976  16EE  3002               	movlw	2
  3977  16EF  0225               	subwf	___xxtofl@exp,w
  3978  16F0  1803               	skipnc
  3979  16F1  2EF3               	goto	u4621
  3980  16F2  2EF4               	goto	u4620
  3981  16F3                     u4621:
  3982  16F3  2EDF               	goto	l3144
  3983  16F4                     u4620:
  3984  16F4                     l759:
  3985  16F4  1825               	btfsc	___xxtofl@exp,0
  3986  16F5  2EF7               	goto	u4631
  3987  16F6  2EF8               	goto	u4630
  3988  16F7                     u4631:
  3989  16F7  2F00               	goto	l760
  3990  16F8                     u4630:
  3991  16F8                     l3150:
  3992  16F8  30FF               	movlw	255
  3993  16F9  05A6               	andwf	___xxtofl@arg,f
  3994  16FA  30FF               	movlw	255
  3995  16FB  05A7               	andwf	___xxtofl@arg+1,f
  3996  16FC  307F               	movlw	127
  3997  16FD  05A8               	andwf	___xxtofl@arg+2,f
  3998  16FE  30FF               	movlw	255
  3999  16FF  05A9               	andwf	___xxtofl@arg+3,f
  4000  1700                     l760:
  4001  1700  1003               	clrc
  4002  1701  0CA5               	rrf	___xxtofl@exp,f
  4003  1702                     l3152:
  4004  1702  0825               	movf	___xxtofl@exp,w
  4005  1703  00A0               	movwf	??___xxtofl
  4006  1704  01A1               	clrf	??___xxtofl+1
  4007  1705  01A2               	clrf	??___xxtofl+2
  4008  1706  01A3               	clrf	??___xxtofl+3
  4009  1707  3018               	movlw	24
  4010  1708                     u4645:
  4011  1708  1003               	clrc
  4012  1709  0DA0               	rlf	??___xxtofl,f
  4013  170A  0DA1               	rlf	??___xxtofl+1,f
  4014  170B  0DA2               	rlf	??___xxtofl+2,f
  4015  170C  0DA3               	rlf	??___xxtofl+3,f
  4016  170D                     u4640:
  4017  170D  3EFF               	addlw	-1
  4018  170E  1D03               	skipz
  4019  170F  2F08               	goto	u4645
  4020  1710  0820               	movf	??___xxtofl,w
  4021  1711  04A6               	iorwf	___xxtofl@arg,f
  4022  1712  0821               	movf	??___xxtofl+1,w
  4023  1713  04A7               	iorwf	___xxtofl@arg+1,f
  4024  1714  0822               	movf	??___xxtofl+2,w
  4025  1715  04A8               	iorwf	___xxtofl@arg+2,f
  4026  1716  0823               	movf	??___xxtofl+3,w
  4027  1717  04A9               	iorwf	___xxtofl@arg+3,f
  4028  1718                     l3154:
  4029  1718  0824               	movf	___xxtofl@sign,w
  4030  1719  1903               	btfsc	3,2
  4031  171A  2F1C               	goto	u4651
  4032  171B  2F1D               	goto	u4650
  4033  171C                     u4651:
  4034  171C  2F22               	goto	l3160
  4035  171D                     u4650:
  4036  171D                     l3156:
  4037  171D  1FF6               	btfss	___xxtofl@val+3,7
  4038  171E  2F20               	goto	u4661
  4039  171F  2F21               	goto	u4660
  4040  1720                     u4661:
  4041  1720  2F22               	goto	l3160
  4042  1721                     u4660:
  4043  1721                     l3158:
  4044  1721  17A9               	bsf	___xxtofl@arg+3,7
  4045  1722                     l3160:
  4046  1722  0829               	movf	___xxtofl@arg+3,w
  4047  1723  00F6               	movwf	?___xxtofl+3
  4048  1724  0828               	movf	___xxtofl@arg+2,w
  4049  1725  00F5               	movwf	?___xxtofl+2
  4050  1726  0827               	movf	___xxtofl@arg+1,w
  4051  1727  00F4               	movwf	?___xxtofl+1
  4052  1728  0826               	movf	___xxtofl@arg,w
  4053  1729  00F3               	movwf	?___xxtofl
  4054  172A                     l748:
  4055  172A  0008               	return
  4056  172B                     __end_of___xxtofl:
  4057                           
  4058                           	psect	text9
  4059  154F                     __ptext9:	
  4060 ;; *************** function ___fltol *****************
  4061 ;; Defined at:
  4062 ;;		line 43 in file "C:\Program Files\Microchip\xc8\v2.31\pic\sources\c90\common\fltol.c"
  4063 ;; Parameters:    Size  Location     Type
  4064 ;;  f1              4   36[BANK0 ] unsigned char 
  4065 ;; Auto vars:     Size  Location     Type
  4066 ;;  exp1            1    8[COMMON] unsigned char 
  4067 ;;  sign1           1    7[COMMON] unsigned char 
  4068 ;; Return value:  Size  Location     Type
  4069 ;;                  4   36[BANK0 ] long 
  4070 ;; Registers used:
  4071 ;;		wreg, status,2, status,0
  4072 ;; Tracked objects:
  4073 ;;		On entry : 0/0
  4074 ;;		On exit  : 0/0
  4075 ;;		Unchanged: 0/0
  4076 ;; Data sizes:     COMMON   BANK0   BANK1   BANK3   BANK2
  4077 ;;      Params:         0       4       0       0       0
  4078 ;;      Locals:         2       0       0       0       0
  4079 ;;      Temps:          0       5       0       0       0
  4080 ;;      Totals:         2       9       0       0       0
  4081 ;;Total ram usage:       11 bytes
  4082 ;; Hardware stack levels used:    1
  4083 ;; Hardware stack levels required when called:    1
  4084 ;; This function calls:
  4085 ;;		Nothing
  4086 ;; This function is called by:
  4087 ;;		_ftoa
  4088 ;; This function uses a non-reentrant model
  4089 ;;
  4090                           
  4091                           
  4092                           ;psect for function ___fltol
  4093  154F                     ___fltol:
  4094  154F                     l3084:	
  4095                           ;incstack = 0
  4096                           ; Regs used in ___fltol: [wreg+status,2+status,0]
  4097                           
  4098  154F  1003               	clrc
  4099  1550  1283               	bcf	3,5	;RP0=0, select bank0
  4100  1551  1303               	bcf	3,6	;RP1=0, select bank0
  4101  1552  0D46               	rlf	___fltol@f1+2,w
  4102  1553  0D47               	rlf	___fltol@f1+3,w
  4103  1554  00C8               	movwf	??___fltol
  4104  1555  0848               	movf	??___fltol,w
  4105  1556  00F8               	movwf	___fltol@exp1
  4106  1557  0878               	movf	___fltol@exp1,w
  4107  1558  1D03               	btfss	3,2
  4108  1559  2D5B               	goto	u4431
  4109  155A  2D5C               	goto	u4430
  4110  155B                     u4431:
  4111  155B  2D65               	goto	l3090
  4112  155C                     u4430:
  4113  155C                     l3086:
  4114  155C  3000               	movlw	0
  4115  155D  00C7               	movwf	?___fltol+3
  4116  155E  3000               	movlw	0
  4117  155F  00C6               	movwf	?___fltol+2
  4118  1560  3000               	movlw	0
  4119  1561  00C5               	movwf	?___fltol+1
  4120  1562  3000               	movlw	0
  4121  1563  00C4               	movwf	?___fltol
  4122  1564  2DCA               	goto	l499
  4123  1565                     l3090:
  4124  1565  0844               	movf	___fltol@f1,w
  4125  1566  00C8               	movwf	??___fltol
  4126  1567  0845               	movf	___fltol@f1+1,w
  4127  1568  00C9               	movwf	??___fltol+1
  4128  1569  0846               	movf	___fltol@f1+2,w
  4129  156A  00CA               	movwf	??___fltol+2
  4130  156B  0847               	movf	___fltol@f1+3,w
  4131  156C  00CB               	movwf	??___fltol+3
  4132  156D  301F               	movlw	31
  4133  156E                     u4445:
  4134  156E  1003               	clrc
  4135  156F  0CCB               	rrf	??___fltol+3,f
  4136  1570  0CCA               	rrf	??___fltol+2,f
  4137  1571  0CC9               	rrf	??___fltol+1,f
  4138  1572  0CC8               	rrf	??___fltol,f
  4139  1573                     u4440:
  4140  1573  3EFF               	addlw	-1
  4141  1574  1D03               	skipz
  4142  1575  2D6E               	goto	u4445
  4143  1576  0848               	movf	??___fltol,w
  4144  1577  00CC               	movwf	??___fltol+4
  4145  1578  084C               	movf	??___fltol+4,w
  4146  1579  00F7               	movwf	___fltol@sign1
  4147  157A                     l3092:
  4148  157A  17C6               	bsf	___fltol@f1+2,7
  4149  157B                     l3094:
  4150  157B  30FF               	movlw	255
  4151  157C  05C4               	andwf	___fltol@f1,f
  4152  157D  30FF               	movlw	255
  4153  157E  05C5               	andwf	___fltol@f1+1,f
  4154  157F  30FF               	movlw	255
  4155  1580  05C6               	andwf	___fltol@f1+2,f
  4156  1581  3000               	movlw	0
  4157  1582  05C7               	andwf	___fltol@f1+3,f
  4158  1583                     l3096:
  4159  1583  3096               	movlw	150
  4160  1584  02F8               	subwf	___fltol@exp1,f
  4161  1585                     l3098:
  4162  1585  1FF8               	btfss	___fltol@exp1,7
  4163  1586  2D88               	goto	u4451
  4164  1587  2D89               	goto	u4450
  4165  1588                     u4451:
  4166  1588  2DA3               	goto	l3108
  4167  1589                     u4450:
  4168  1589                     l3100:
  4169  1589  0878               	movf	___fltol@exp1,w
  4170  158A  3A80               	xorlw	128
  4171  158B  3E97               	addlw	151
  4172  158C  1803               	skipnc
  4173  158D  2D8F               	goto	u4461
  4174  158E  2D90               	goto	u4460
  4175  158F                     u4461:
  4176  158F  2D91               	goto	l3106
  4177  1590                     u4460:
  4178  1590  2D5C               	goto	l3086
  4179  1591                     l3106:
  4180  1591  3001               	movlw	1
  4181  1592                     u4475:
  4182  1592  1003               	clrc
  4183  1593  0CC7               	rrf	___fltol@f1+3,f
  4184  1594  0CC6               	rrf	___fltol@f1+2,f
  4185  1595  0CC5               	rrf	___fltol@f1+1,f
  4186  1596  0CC4               	rrf	___fltol@f1,f
  4187  1597  3EFF               	addlw	-1
  4188  1598  1D03               	skipz
  4189  1599  2D92               	goto	u4475
  4190  159A  3001               	movlw	1
  4191  159B  00C8               	movwf	??___fltol
  4192  159C  0848               	movf	??___fltol,w
  4193  159D  07F8               	addwf	___fltol@exp1,f
  4194  159E  1D03               	btfss	3,2
  4195  159F  2DA1               	goto	u4481
  4196  15A0  2DA2               	goto	u4480
  4197  15A1                     u4481:
  4198  15A1  2D91               	goto	l3106
  4199  15A2                     u4480:
  4200  15A2  2DBA               	goto	l3116
  4201  15A3                     l3108:
  4202  15A3  3020               	movlw	32
  4203  15A4  0278               	subwf	___fltol@exp1,w
  4204  15A5  1C03               	skipc
  4205  15A6  2DA8               	goto	u4491
  4206  15A7  2DA9               	goto	u4490
  4207  15A8                     u4491:
  4208  15A8  2DB5               	goto	l506
  4209  15A9                     u4490:
  4210  15A9  2D5C               	goto	l3086
  4211  15AA                     l3114:
  4212  15AA  3001               	movlw	1
  4213  15AB  00C8               	movwf	??___fltol
  4214  15AC                     u4505:
  4215  15AC  1003               	clrc
  4216  15AD  0DC4               	rlf	___fltol@f1,f
  4217  15AE  0DC5               	rlf	___fltol@f1+1,f
  4218  15AF  0DC6               	rlf	___fltol@f1+2,f
  4219  15B0  0DC7               	rlf	___fltol@f1+3,f
  4220  15B1  0BC8               	decfsz	??___fltol,f
  4221  15B2  2DAC               	goto	u4505
  4222  15B3  3001               	movlw	1
  4223  15B4  02F8               	subwf	___fltol@exp1,f
  4224  15B5                     l506:
  4225  15B5  0878               	movf	___fltol@exp1,w
  4226  15B6  1D03               	btfss	3,2
  4227  15B7  2DB9               	goto	u4511
  4228  15B8  2DBA               	goto	u4510
  4229  15B9                     u4511:
  4230  15B9  2DAA               	goto	l3114
  4231  15BA                     u4510:
  4232  15BA                     l3116:
  4233  15BA  0877               	movf	___fltol@sign1,w
  4234  15BB  1903               	btfsc	3,2
  4235  15BC  2DBE               	goto	u4521
  4236  15BD  2DBF               	goto	u4520
  4237  15BE                     u4521:
  4238  15BE  2DCA               	goto	l509
  4239  15BF                     u4520:
  4240  15BF                     l3118:
  4241  15BF  09C4               	comf	___fltol@f1,f
  4242  15C0  09C5               	comf	___fltol@f1+1,f
  4243  15C1  09C6               	comf	___fltol@f1+2,f
  4244  15C2  09C7               	comf	___fltol@f1+3,f
  4245  15C3  0AC4               	incf	___fltol@f1,f
  4246  15C4  1903               	skipnz
  4247  15C5  0AC5               	incf	___fltol@f1+1,f
  4248  15C6  1903               	skipnz
  4249  15C7  0AC6               	incf	___fltol@f1+2,f
  4250  15C8  1903               	skipnz
  4251  15C9  0AC7               	incf	___fltol@f1+3,f
  4252  15CA                     l509:
  4253  15CA                     l499:
  4254  15CA  0008               	return
  4255  15CB                     __end_of___fltol:
  4256                           
  4257                           	psect	text10
  4258  136F                     __ptext10:	
  4259 ;; *************** function ___flsub *****************
  4260 ;; Defined at:
  4261 ;;		line 242 in file "C:\Program Files\Microchip\xc8\v2.31\pic\sources\c90\common\sprcadd.c"
  4262 ;; Parameters:    Size  Location     Type
  4263 ;;  a               4   56[BANK0 ] long 
  4264 ;;  b               4   60[BANK0 ] long 
  4265 ;; Auto vars:     Size  Location     Type
  4266 ;;		None
  4267 ;; Return value:  Size  Location     Type
  4268 ;;                  4   56[BANK0 ] long 
  4269 ;; Registers used:
  4270 ;;		wreg, status,2, status,0, btemp+1, pclath, cstack
  4271 ;; Tracked objects:
  4272 ;;		On entry : 0/0
  4273 ;;		On exit  : 0/0
  4274 ;;		Unchanged: 0/0
  4275 ;; Data sizes:     COMMON   BANK0   BANK1   BANK3   BANK2
  4276 ;;      Params:         0       8       0       0       0
  4277 ;;      Locals:         0       0       0       0       0
  4278 ;;      Temps:          0       0       0       0       0
  4279 ;;      Totals:         0       8       0       0       0
  4280 ;;Total ram usage:        8 bytes
  4281 ;; Hardware stack levels used:    1
  4282 ;; Hardware stack levels required when called:    2
  4283 ;; This function calls:
  4284 ;;		___fladd
  4285 ;; This function is called by:
  4286 ;;		_ftoa
  4287 ;; This function uses a non-reentrant model
  4288 ;;
  4289                           
  4290                           
  4291                           ;psect for function ___flsub
  4292  136F                     ___flsub:
  4293  136F                     l2348:	
  4294                           ;incstack = 0
  4295                           ; Regs used in ___flsub: [wreg+status,2+status,0+btemp+1+pclath+cstack]
  4296                           
  4297  136F  3080               	movlw	128
  4298  1370  1283               	bcf	3,5	;RP0=0, select bank0
  4299  1371  1303               	bcf	3,6	;RP1=0, select bank0
  4300  1372  06DB               	xorwf	___flsub@a+3,f
  4301  1373                     l2350:
  4302  1373  085F               	movf	___flsub@b+3,w
  4303  1374  00C7               	movwf	___fladd@b+3
  4304  1375  085E               	movf	___flsub@b+2,w
  4305  1376  00C6               	movwf	___fladd@b+2
  4306  1377  085D               	movf	___flsub@b+1,w
  4307  1378  00C5               	movwf	___fladd@b+1
  4308  1379  085C               	movf	___flsub@b,w
  4309  137A  00C4               	movwf	___fladd@b
  4310  137B  085B               	movf	___flsub@a+3,w
  4311  137C  00CB               	movwf	___fladd@a+3
  4312  137D  085A               	movf	___flsub@a+2,w
  4313  137E  00CA               	movwf	___fladd@a+2
  4314  137F  0859               	movf	___flsub@a+1,w
  4315  1380  00C9               	movwf	___fladd@a+1
  4316  1381  0858               	movf	___flsub@a,w
  4317  1382  00C8               	movwf	___fladd@a
  4318  1383  120A  158A  2578  160A  118A  	fcall	___fladd
  4319  1388  1283               	bcf	3,5	;RP0=0, select bank0
  4320  1389  1303               	bcf	3,6	;RP1=0, select bank0
  4321  138A  0847               	movf	?___fladd+3,w
  4322  138B  00DB               	movwf	?___flsub+3
  4323  138C  0846               	movf	?___fladd+2,w
  4324  138D  00DA               	movwf	?___flsub+2
  4325  138E  0845               	movf	?___fladd+1,w
  4326  138F  00D9               	movwf	?___flsub+1
  4327  1390  0844               	movf	?___fladd,w
  4328  1391  00D8               	movwf	?___flsub
  4329  1392                     l652:
  4330  1392  0008               	return
  4331  1393                     __end_of___flsub:
  4332                           
  4333                           	psect	text11
  4334  0D78                     __ptext11:	
  4335 ;; *************** function ___fladd *****************
  4336 ;; Defined at:
  4337 ;;		line 10 in file "C:\Program Files\Microchip\xc8\v2.31\pic\sources\c90\common\sprcadd.c"
  4338 ;; Parameters:    Size  Location     Type
  4339 ;;  b               4   36[BANK0 ] long 
  4340 ;;  a               4   40[BANK0 ] long 
  4341 ;; Auto vars:     Size  Location     Type
  4342 ;;  grs             1   55[BANK0 ] unsigned char 
  4343 ;;  bexp            1   54[BANK0 ] unsigned char 
  4344 ;;  aexp            1   53[BANK0 ] unsigned char 
  4345 ;;  signs           1   52[BANK0 ] unsigned char 
  4346 ;; Return value:  Size  Location     Type
  4347 ;;                  4   36[BANK0 ] unsigned char 
  4348 ;; Registers used:
  4349 ;;		wreg, status,2, status,0, btemp+1
  4350 ;; Tracked objects:
  4351 ;;		On entry : 0/0
  4352 ;;		On exit  : 0/0
  4353 ;;		Unchanged: 0/0
  4354 ;; Data sizes:     COMMON   BANK0   BANK1   BANK3   BANK2
  4355 ;;      Params:         0       8       0       0       0
  4356 ;;      Locals:         0       4       0       0       0
  4357 ;;      Temps:          0       8       0       0       0
  4358 ;;      Totals:         0      20       0       0       0
  4359 ;;Total ram usage:       20 bytes
  4360 ;; Hardware stack levels used:    1
  4361 ;; Hardware stack levels required when called:    1
  4362 ;; This function calls:
  4363 ;;		Nothing
  4364 ;; This function is called by:
  4365 ;;		_GY_read
  4366 ;;		___flsub
  4367 ;; This function uses a non-reentrant model
  4368 ;;
  4369                           
  4370                           
  4371                           ;psect for function ___fladd
  4372  0D78                     ___fladd:
  4373  0D78                     l2052:	
  4374                           ;incstack = 0
  4375                           ; Regs used in ___fladd: [wreg+status,2+status,0+btemp+1]
  4376                           
  4377  0D78  1283               	bcf	3,5	;RP0=0, select bank0
  4378  0D79  1303               	bcf	3,6	;RP1=0, select bank0
  4379  0D7A  0847               	movf	___fladd@b+3,w
  4380  0D7B  3980               	andlw	128
  4381  0D7C  00CC               	movwf	??___fladd
  4382  0D7D  084C               	movf	??___fladd,w
  4383  0D7E  00D4               	movwf	___fladd@signs
  4384  0D7F                     l2054:
  4385  0D7F  0847               	movf	___fladd@b+3,w
  4386  0D80  00CC               	movwf	??___fladd
  4387  0D81  074C               	addwf	??___fladd,w
  4388  0D82  00CD               	movwf	??___fladd+1
  4389  0D83  084D               	movf	??___fladd+1,w
  4390  0D84  00D6               	movwf	___fladd@bexp
  4391  0D85                     l2056:
  4392  0D85  1FC6               	btfss	___fladd@b+2,7
  4393  0D86  2D88               	goto	u2361
  4394  0D87  2D89               	goto	u2360
  4395  0D88                     u2361:
  4396  0D88  2D8A               	goto	l2060
  4397  0D89                     u2360:
  4398  0D89                     l2058:
  4399  0D89  1456               	bsf	___fladd@bexp,0
  4400  0D8A                     l2060:
  4401  0D8A  0856               	movf	___fladd@bexp,w
  4402  0D8B  1903               	btfsc	3,2
  4403  0D8C  2D8E               	goto	u2371
  4404  0D8D  2D8F               	goto	u2370
  4405  0D8E                     u2371:
  4406  0D8E  2D9F               	goto	l2070
  4407  0D8F                     u2370:
  4408  0D8F                     l2062:
  4409  0D8F  0A56               	incf	___fladd@bexp,w
  4410  0D90  1D03               	btfss	3,2
  4411  0D91  2D93               	goto	u2381
  4412  0D92  2D94               	goto	u2380
  4413  0D93                     u2381:
  4414  0D93  2D9C               	goto	l2066
  4415  0D94                     u2380:
  4416  0D94                     l2064:
  4417  0D94  3000               	movlw	0
  4418  0D95  00C7               	movwf	___fladd@b+3
  4419  0D96  3000               	movlw	0
  4420  0D97  00C6               	movwf	___fladd@b+2
  4421  0D98  3000               	movlw	0
  4422  0D99  00C5               	movwf	___fladd@b+1
  4423  0D9A  3000               	movlw	0
  4424  0D9B  00C4               	movwf	___fladd@b
  4425  0D9C                     l2066:
  4426  0D9C  17C6               	bsf	___fladd@b+2,7
  4427  0D9D                     l2068:
  4428  0D9D  01C7               	clrf	___fladd@b+3
  4429  0D9E  2DA7               	goto	l2072
  4430  0D9F                     l2070:
  4431  0D9F  3000               	movlw	0
  4432  0DA0  00C7               	movwf	___fladd@b+3
  4433  0DA1  3000               	movlw	0
  4434  0DA2  00C6               	movwf	___fladd@b+2
  4435  0DA3  3000               	movlw	0
  4436  0DA4  00C5               	movwf	___fladd@b+1
  4437  0DA5  3000               	movlw	0
  4438  0DA6  00C4               	movwf	___fladd@b
  4439  0DA7                     l2072:
  4440  0DA7  084B               	movf	___fladd@a+3,w
  4441  0DA8  3980               	andlw	128
  4442  0DA9  00CC               	movwf	??___fladd
  4443  0DAA  084C               	movf	??___fladd,w
  4444  0DAB  00D5               	movwf	___fladd@aexp
  4445  0DAC                     l2074:
  4446  0DAC  0855               	movf	___fladd@aexp,w
  4447  0DAD  0654               	xorwf	___fladd@signs,w
  4448  0DAE  1903               	skipnz
  4449  0DAF  2DB1               	goto	u2391
  4450  0DB0  2DB2               	goto	u2390
  4451  0DB1                     u2391:
  4452  0DB1  2DB3               	goto	l2078
  4453  0DB2                     u2390:
  4454  0DB2                     l2076:
  4455  0DB2  1754               	bsf	___fladd@signs,6
  4456  0DB3                     l2078:
  4457  0DB3  084B               	movf	___fladd@a+3,w
  4458  0DB4  00CC               	movwf	??___fladd
  4459  0DB5  074C               	addwf	??___fladd,w
  4460  0DB6  00CD               	movwf	??___fladd+1
  4461  0DB7  084D               	movf	??___fladd+1,w
  4462  0DB8  00D5               	movwf	___fladd@aexp
  4463  0DB9                     l2080:
  4464  0DB9  1FCA               	btfss	___fladd@a+2,7
  4465  0DBA  2DBC               	goto	u2401
  4466  0DBB  2DBD               	goto	u2400
  4467  0DBC                     u2401:
  4468  0DBC  2DBE               	goto	l2084
  4469  0DBD                     u2400:
  4470  0DBD                     l2082:
  4471  0DBD  1455               	bsf	___fladd@aexp,0
  4472  0DBE                     l2084:
  4473  0DBE  0855               	movf	___fladd@aexp,w
  4474  0DBF  1903               	btfsc	3,2
  4475  0DC0  2DC2               	goto	u2411
  4476  0DC1  2DC3               	goto	u2410
  4477  0DC2                     u2411:
  4478  0DC2  2DD3               	goto	l2094
  4479  0DC3                     u2410:
  4480  0DC3                     l2086:
  4481  0DC3  0A55               	incf	___fladd@aexp,w
  4482  0DC4  1D03               	btfss	3,2
  4483  0DC5  2DC7               	goto	u2421
  4484  0DC6  2DC8               	goto	u2420
  4485  0DC7                     u2421:
  4486  0DC7  2DD0               	goto	l2090
  4487  0DC8                     u2420:
  4488  0DC8                     l2088:
  4489  0DC8  3000               	movlw	0
  4490  0DC9  00CB               	movwf	___fladd@a+3
  4491  0DCA  3000               	movlw	0
  4492  0DCB  00CA               	movwf	___fladd@a+2
  4493  0DCC  3000               	movlw	0
  4494  0DCD  00C9               	movwf	___fladd@a+1
  4495  0DCE  3000               	movlw	0
  4496  0DCF  00C8               	movwf	___fladd@a
  4497  0DD0                     l2090:
  4498  0DD0  17CA               	bsf	___fladd@a+2,7
  4499  0DD1                     l2092:
  4500  0DD1  01CB               	clrf	___fladd@a+3
  4501  0DD2  2DDB               	goto	l606
  4502  0DD3                     l2094:
  4503  0DD3  3000               	movlw	0
  4504  0DD4  00CB               	movwf	___fladd@a+3
  4505  0DD5  3000               	movlw	0
  4506  0DD6  00CA               	movwf	___fladd@a+2
  4507  0DD7  3000               	movlw	0
  4508  0DD8  00C9               	movwf	___fladd@a+1
  4509  0DD9  3000               	movlw	0
  4510  0DDA  00C8               	movwf	___fladd@a
  4511  0DDB                     l606:
  4512  0DDB  0856               	movf	___fladd@bexp,w
  4513  0DDC  0255               	subwf	___fladd@aexp,w
  4514  0DDD  1803               	skipnc
  4515  0DDE  2DE0               	goto	u2431
  4516  0DDF  2DE1               	goto	u2430
  4517  0DE0                     u2431:
  4518  0DE0  2E25               	goto	l2130
  4519  0DE1                     u2430:
  4520  0DE1                     l2096:
  4521  0DE1  1F54               	btfss	___fladd@signs,6
  4522  0DE2  2DE4               	goto	u2441
  4523  0DE3  2DE5               	goto	u2440
  4524  0DE4                     u2441:
  4525  0DE4  2DE9               	goto	l2100
  4526  0DE5                     u2440:
  4527  0DE5                     l2098:
  4528  0DE5  3080               	movlw	128
  4529  0DE6  00CC               	movwf	??___fladd
  4530  0DE7  084C               	movf	??___fladd,w
  4531  0DE8  06D4               	xorwf	___fladd@signs,f
  4532  0DE9                     l2100:
  4533  0DE9  0856               	movf	___fladd@bexp,w
  4534  0DEA  00CC               	movwf	??___fladd
  4535  0DEB  084C               	movf	??___fladd,w
  4536  0DEC  00D7               	movwf	___fladd@grs
  4537  0DED                     l2102:
  4538  0DED  0855               	movf	___fladd@aexp,w
  4539  0DEE  00CC               	movwf	??___fladd
  4540  0DEF  084C               	movf	??___fladd,w
  4541  0DF0  00D6               	movwf	___fladd@bexp
  4542  0DF1                     l2104:
  4543  0DF1  0857               	movf	___fladd@grs,w
  4544  0DF2  00CC               	movwf	??___fladd
  4545  0DF3  084C               	movf	??___fladd,w
  4546  0DF4  00D5               	movwf	___fladd@aexp
  4547  0DF5                     l2106:
  4548  0DF5  0844               	movf	___fladd@b,w
  4549  0DF6  00CC               	movwf	??___fladd
  4550  0DF7  084C               	movf	??___fladd,w
  4551  0DF8  00D7               	movwf	___fladd@grs
  4552  0DF9                     l2108:
  4553  0DF9  0848               	movf	___fladd@a,w
  4554  0DFA  00CC               	movwf	??___fladd
  4555  0DFB  084C               	movf	??___fladd,w
  4556  0DFC  00C4               	movwf	___fladd@b
  4557  0DFD                     l2110:
  4558  0DFD  0857               	movf	___fladd@grs,w
  4559  0DFE  00CC               	movwf	??___fladd
  4560  0DFF  084C               	movf	??___fladd,w
  4561  0E00  00C8               	movwf	___fladd@a
  4562  0E01                     l2112:
  4563  0E01  0845               	movf	___fladd@b+1,w
  4564  0E02  00CC               	movwf	??___fladd
  4565  0E03  084C               	movf	??___fladd,w
  4566  0E04  00D7               	movwf	___fladd@grs
  4567  0E05                     l2114:
  4568  0E05  0849               	movf	___fladd@a+1,w
  4569  0E06  00CC               	movwf	??___fladd
  4570  0E07  084C               	movf	??___fladd,w
  4571  0E08  00C5               	movwf	___fladd@b+1
  4572  0E09                     l2116:
  4573  0E09  0857               	movf	___fladd@grs,w
  4574  0E0A  00CC               	movwf	??___fladd
  4575  0E0B  084C               	movf	??___fladd,w
  4576  0E0C  00C9               	movwf	___fladd@a+1
  4577  0E0D                     l2118:
  4578  0E0D  0846               	movf	___fladd@b+2,w
  4579  0E0E  00CC               	movwf	??___fladd
  4580  0E0F  084C               	movf	??___fladd,w
  4581  0E10  00D7               	movwf	___fladd@grs
  4582  0E11                     l2120:
  4583  0E11  084A               	movf	___fladd@a+2,w
  4584  0E12  00CC               	movwf	??___fladd
  4585  0E13  084C               	movf	??___fladd,w
  4586  0E14  00C6               	movwf	___fladd@b+2
  4587  0E15                     l2122:
  4588  0E15  0857               	movf	___fladd@grs,w
  4589  0E16  00CC               	movwf	??___fladd
  4590  0E17  084C               	movf	??___fladd,w
  4591  0E18  00CA               	movwf	___fladd@a+2
  4592  0E19                     l2124:
  4593  0E19  0847               	movf	___fladd@b+3,w
  4594  0E1A  00CC               	movwf	??___fladd
  4595  0E1B  084C               	movf	??___fladd,w
  4596  0E1C  00D7               	movwf	___fladd@grs
  4597  0E1D                     l2126:
  4598  0E1D  084B               	movf	___fladd@a+3,w
  4599  0E1E  00CC               	movwf	??___fladd
  4600  0E1F  084C               	movf	??___fladd,w
  4601  0E20  00C7               	movwf	___fladd@b+3
  4602  0E21                     l2128:
  4603  0E21  0857               	movf	___fladd@grs,w
  4604  0E22  00CC               	movwf	??___fladd
  4605  0E23  084C               	movf	??___fladd,w
  4606  0E24  00CB               	movwf	___fladd@a+3
  4607  0E25                     l2130:
  4608  0E25  01D7               	clrf	___fladd@grs
  4609  0E26                     l2132:
  4610  0E26  0855               	movf	___fladd@aexp,w
  4611  0E27  00CC               	movwf	??___fladd
  4612  0E28  01CD               	clrf	??___fladd+1
  4613  0E29  084D               	movf	??___fladd+1,w
  4614  0E2A  00CF               	movwf	??___fladd+3
  4615  0E2B  0856               	movf	___fladd@bexp,w
  4616  0E2C  024C               	subwf	??___fladd,w
  4617  0E2D  00CE               	movwf	??___fladd+2
  4618  0E2E  1C03               	skipc
  4619  0E2F  03CF               	decf	??___fladd+3,f
  4620  0E30  084F               	movf	??___fladd+3,w
  4621  0E31  3A80               	xorlw	128
  4622  0E32  00FF               	movwf	btemp+1
  4623  0E33  3080               	movlw	128
  4624  0E34  027F               	subwf	btemp+1,w
  4625  0E35  1D03               	skipz
  4626  0E36  2E39               	goto	u2455
  4627  0E37  301A               	movlw	26
  4628  0E38  024E               	subwf	??___fladd+2,w
  4629  0E39                     u2455:
  4630  0E39  1C03               	skipc
  4631  0E3A  2E3C               	goto	u2451
  4632  0E3B  2E3D               	goto	u2450
  4633  0E3C                     u2451:
  4634  0E3C  2E7A               	goto	l2148
  4635  0E3D                     u2450:
  4636  0E3D                     l2134:
  4637  0E3D  1283               	bcf	3,5	;RP0=0, select bank0
  4638  0E3E  1303               	bcf	3,6	;RP1=0, select bank0
  4639  0E3F  0847               	movf	___fladd@b+3,w
  4640  0E40  0446               	iorwf	___fladd@b+2,w
  4641  0E41  0445               	iorwf	___fladd@b+1,w
  4642  0E42  0444               	iorwf	___fladd@b,w
  4643  0E43  1D03               	skipz
  4644  0E44  2E46               	goto	u2461
  4645  0E45  2E48               	goto	u2460
  4646  0E46                     u2461:
  4647  0E46  3001               	movlw	1
  4648  0E47  2E49               	goto	u2470
  4649  0E48                     u2460:
  4650  0E48  3000               	movlw	0
  4651  0E49                     u2470:
  4652  0E49  00CC               	movwf	??___fladd
  4653  0E4A  084C               	movf	??___fladd,w
  4654  0E4B  00D7               	movwf	___fladd@grs
  4655  0E4C  3000               	movlw	0
  4656  0E4D  00C7               	movwf	___fladd@b+3
  4657  0E4E  3000               	movlw	0
  4658  0E4F  00C6               	movwf	___fladd@b+2
  4659  0E50  3000               	movlw	0
  4660  0E51  00C5               	movwf	___fladd@b+1
  4661  0E52  3000               	movlw	0
  4662  0E53  00C4               	movwf	___fladd@b
  4663  0E54  0855               	movf	___fladd@aexp,w
  4664  0E55  00CC               	movwf	??___fladd
  4665  0E56  084C               	movf	??___fladd,w
  4666  0E57  00D6               	movwf	___fladd@bexp
  4667  0E58  2E82               	goto	l610
  4668  0E59                     l612:
  4669  0E59  1C57               	btfss	___fladd@grs,0
  4670  0E5A  2E5C               	goto	u2481
  4671  0E5B  2E5D               	goto	u2480
  4672  0E5C                     u2481:
  4673  0E5C  2E66               	goto	l2138
  4674  0E5D                     u2480:
  4675  0E5D                     l2136:
  4676  0E5D  0857               	movf	___fladd@grs,w
  4677  0E5E  00CC               	movwf	??___fladd
  4678  0E5F  1003               	clrc
  4679  0E60  0C4C               	rrf	??___fladd,w
  4680  0E61  3801               	iorlw	1
  4681  0E62  00CD               	movwf	??___fladd+1
  4682  0E63  084D               	movf	??___fladd+1,w
  4683  0E64  00D7               	movwf	___fladd@grs
  4684  0E65  2E68               	goto	l2140
  4685  0E66                     l2138:
  4686  0E66  1003               	clrc
  4687  0E67  0CD7               	rrf	___fladd@grs,f
  4688  0E68                     l2140:
  4689  0E68  1C44               	btfss	___fladd@b,0
  4690  0E69  2E6B               	goto	u2491
  4691  0E6A  2E6C               	goto	u2490
  4692  0E6B                     u2491:
  4693  0E6B  2E6D               	goto	l2144
  4694  0E6C                     u2490:
  4695  0E6C                     l2142:
  4696  0E6C  17D7               	bsf	___fladd@grs,7
  4697  0E6D                     l2144:
  4698  0E6D  3001               	movlw	1
  4699  0E6E  00CC               	movwf	??___fladd
  4700  0E6F                     u2505:
  4701  0E6F  0D47               	rlf	___fladd@b+3,w
  4702  0E70  0CC7               	rrf	___fladd@b+3,f
  4703  0E71  0CC6               	rrf	___fladd@b+2,f
  4704  0E72  0CC5               	rrf	___fladd@b+1,f
  4705  0E73  0CC4               	rrf	___fladd@b,f
  4706  0E74  0BCC               	decfsz	??___fladd& (0+127),f
  4707  0E75  2E6F               	goto	u2505
  4708  0E76                     l2146:
  4709  0E76  3001               	movlw	1
  4710  0E77  00CC               	movwf	??___fladd
  4711  0E78  084C               	movf	??___fladd,w
  4712  0E79  07D6               	addwf	___fladd@bexp,f
  4713  0E7A                     l2148:
  4714  0E7A  1283               	bcf	3,5	;RP0=0, select bank0
  4715  0E7B  1303               	bcf	3,6	;RP1=0, select bank0
  4716  0E7C  0855               	movf	___fladd@aexp,w
  4717  0E7D  0256               	subwf	___fladd@bexp,w
  4718  0E7E  1C03               	skipc
  4719  0E7F  2E81               	goto	u2511
  4720  0E80  2E82               	goto	u2510
  4721  0E81                     u2511:
  4722  0E81  2E59               	goto	l612
  4723  0E82                     u2510:
  4724  0E82                     l610:
  4725  0E82  1B54               	btfsc	___fladd@signs,6
  4726  0E83  2E85               	goto	u2521
  4727  0E84  2E86               	goto	u2520
  4728  0E85                     u2521:
  4729  0E85  2ED1               	goto	l2174
  4730  0E86                     u2520:
  4731  0E86                     l2150:
  4732  0E86  0856               	movf	___fladd@bexp,w
  4733  0E87  1D03               	btfss	3,2
  4734  0E88  2E8A               	goto	u2531
  4735  0E89  2E8B               	goto	u2530
  4736  0E8A                     u2531:
  4737  0E8A  2E94               	goto	l2156
  4738  0E8B                     u2530:
  4739  0E8B                     l2152:
  4740  0E8B  3000               	movlw	0
  4741  0E8C  00C7               	movwf	?___fladd+3
  4742  0E8D  3000               	movlw	0
  4743  0E8E  00C6               	movwf	?___fladd+2
  4744  0E8F  3000               	movlw	0
  4745  0E90  00C5               	movwf	?___fladd+1
  4746  0E91  3000               	movlw	0
  4747  0E92  00C4               	movwf	?___fladd
  4748  0E93  2FFF               	goto	l619
  4749  0E94                     l2156:
  4750  0E94  0848               	movf	___fladd@a,w
  4751  0E95  07C4               	addwf	___fladd@b,f
  4752  0E96  0849               	movf	___fladd@a+1,w
  4753  0E97  1103               	clrz
  4754  0E98  1803               	skipnc
  4755  0E99  3E01               	addlw	1
  4756  0E9A  1903               	skipnz
  4757  0E9B  2E9D               	goto	u2541
  4758  0E9C  07C5               	addwf	___fladd@b+1,f
  4759  0E9D                     u2541:
  4760  0E9D  084A               	movf	___fladd@a+2,w
  4761  0E9E  1103               	clrz
  4762  0E9F  1803               	skipnc
  4763  0EA0  3E01               	addlw	1
  4764  0EA1  1903               	skipnz
  4765  0EA2  2EA4               	goto	u2542
  4766  0EA3  07C6               	addwf	___fladd@b+2,f
  4767  0EA4                     u2542:
  4768  0EA4  084B               	movf	___fladd@a+3,w
  4769  0EA5  1103               	clrz
  4770  0EA6  1803               	skipnc
  4771  0EA7  3E01               	addlw	1
  4772  0EA8  1903               	skipnz
  4773  0EA9  2EAB               	goto	u2543
  4774  0EAA  07C7               	addwf	___fladd@b+3,f
  4775  0EAB                     u2543:
  4776  0EAB                     l2158:
  4777  0EAB  1C47               	btfss	___fladd@b+3,0
  4778  0EAC  2EAE               	goto	u2551
  4779  0EAD  2EAF               	goto	u2550
  4780  0EAE                     u2551:
  4781  0EAE  2F85               	goto	l2208
  4782  0EAF                     u2550:
  4783  0EAF                     l2160:
  4784  0EAF  1C57               	btfss	___fladd@grs,0
  4785  0EB0  2EB2               	goto	u2561
  4786  0EB1  2EB3               	goto	u2560
  4787  0EB2                     u2561:
  4788  0EB2  2EBC               	goto	l2164
  4789  0EB3                     u2560:
  4790  0EB3                     l2162:
  4791  0EB3  0857               	movf	___fladd@grs,w
  4792  0EB4  00CC               	movwf	??___fladd
  4793  0EB5  1003               	clrc
  4794  0EB6  0C4C               	rrf	??___fladd,w
  4795  0EB7  3801               	iorlw	1
  4796  0EB8  00CD               	movwf	??___fladd+1
  4797  0EB9  084D               	movf	??___fladd+1,w
  4798  0EBA  00D7               	movwf	___fladd@grs
  4799  0EBB  2EBE               	goto	l2166
  4800  0EBC                     l2164:
  4801  0EBC  1003               	clrc
  4802  0EBD  0CD7               	rrf	___fladd@grs,f
  4803  0EBE                     l2166:
  4804  0EBE  1C44               	btfss	___fladd@b,0
  4805  0EBF  2EC1               	goto	u2571
  4806  0EC0  2EC2               	goto	u2570
  4807  0EC1                     u2571:
  4808  0EC1  2EC3               	goto	l2170
  4809  0EC2                     u2570:
  4810  0EC2                     l2168:
  4811  0EC2  17D7               	bsf	___fladd@grs,7
  4812  0EC3                     l2170:
  4813  0EC3  3001               	movlw	1
  4814  0EC4  00CC               	movwf	??___fladd
  4815  0EC5                     u2585:
  4816  0EC5  0D47               	rlf	___fladd@b+3,w
  4817  0EC6  0CC7               	rrf	___fladd@b+3,f
  4818  0EC7  0CC6               	rrf	___fladd@b+2,f
  4819  0EC8  0CC5               	rrf	___fladd@b+1,f
  4820  0EC9  0CC4               	rrf	___fladd@b,f
  4821  0ECA  0BCC               	decfsz	??___fladd& (0+127),f
  4822  0ECB  2EC5               	goto	u2585
  4823  0ECC                     l2172:
  4824  0ECC  3001               	movlw	1
  4825  0ECD  00CC               	movwf	??___fladd
  4826  0ECE  084C               	movf	??___fladd,w
  4827  0ECF  07D6               	addwf	___fladd@bexp,f
  4828  0ED0  2F85               	goto	l2208
  4829  0ED1                     l2174:
  4830  0ED1  0847               	movf	___fladd@b+3,w
  4831  0ED2  3A80               	xorlw	128
  4832  0ED3  00FF               	movwf	btemp+1
  4833  0ED4  084B               	movf	___fladd@a+3,w
  4834  0ED5  3A80               	xorlw	128
  4835  0ED6  027F               	subwf	btemp+1,w
  4836  0ED7  1D03               	skipz
  4837  0ED8  2EE3               	goto	u2593
  4838  0ED9  084A               	movf	___fladd@a+2,w
  4839  0EDA  0246               	subwf	___fladd@b+2,w
  4840  0EDB  1D03               	skipz
  4841  0EDC  2EE3               	goto	u2593
  4842  0EDD  0849               	movf	___fladd@a+1,w
  4843  0EDE  0245               	subwf	___fladd@b+1,w
  4844  0EDF  1D03               	skipz
  4845  0EE0  2EE3               	goto	u2593
  4846  0EE1  0848               	movf	___fladd@a,w
  4847  0EE2  0244               	subwf	___fladd@b,w
  4848  0EE3                     u2593:
  4849  0EE3  1803               	skipnc
  4850  0EE4  2EE6               	goto	u2591
  4851  0EE5  2EE7               	goto	u2590
  4852  0EE6                     u2591:
  4853  0EE6  2F3F               	goto	l2184
  4854  0EE7                     u2590:
  4855  0EE7                     l2176:
  4856  0EE7  30FF               	movlw	255
  4857  0EE8  00CC               	movwf	??___fladd
  4858  0EE9  30FF               	movlw	255
  4859  0EEA  00CD               	movwf	??___fladd+1
  4860  0EEB  30FF               	movlw	255
  4861  0EEC  00CE               	movwf	??___fladd+2
  4862  0EED  30FF               	movlw	255
  4863  0EEE  00CF               	movwf	??___fladd+3
  4864  0EEF  0848               	movf	___fladd@a,w
  4865  0EF0  00D0               	movwf	??___fladd+4
  4866  0EF1  0849               	movf	___fladd@a+1,w
  4867  0EF2  00D1               	movwf	??___fladd+5
  4868  0EF3  084A               	movf	___fladd@a+2,w
  4869  0EF4  00D2               	movwf	??___fladd+6
  4870  0EF5  084B               	movf	___fladd@a+3,w
  4871  0EF6  00D3               	movwf	??___fladd+7
  4872  0EF7  0844               	movf	___fladd@b,w
  4873  0EF8  02D0               	subwf	??___fladd+4,f
  4874  0EF9  0845               	movf	___fladd@b+1,w
  4875  0EFA  1C03               	skipc
  4876  0EFB  0F45               	incfsz	___fladd@b+1,w
  4877  0EFC  2EFE               	goto	u2601
  4878  0EFD  2EFF               	goto	u2602
  4879  0EFE                     u2601:
  4880  0EFE  02D1               	subwf	??___fladd+5,f
  4881  0EFF                     u2602:
  4882  0EFF  0846               	movf	___fladd@b+2,w
  4883  0F00  1C03               	skipc
  4884  0F01  0F46               	incfsz	___fladd@b+2,w
  4885  0F02  2F04               	goto	u2603
  4886  0F03  2F05               	goto	u2604
  4887  0F04                     u2603:
  4888  0F04  02D2               	subwf	??___fladd+6,f
  4889  0F05                     u2604:
  4890  0F05  0847               	movf	___fladd@b+3,w
  4891  0F06  1C03               	skipc
  4892  0F07  0F47               	incfsz	___fladd@b+3,w
  4893  0F08  2F0A               	goto	u2605
  4894  0F09  2F0B               	goto	u2606
  4895  0F0A                     u2605:
  4896  0F0A  02D3               	subwf	??___fladd+7,f
  4897  0F0B                     u2606:
  4898  0F0B  0850               	movf	??___fladd+4,w
  4899  0F0C  07CC               	addwf	??___fladd,f
  4900  0F0D  0851               	movf	??___fladd+5,w
  4901  0F0E  1803               	skipnc
  4902  0F0F  0F51               	incfsz	??___fladd+5,w
  4903  0F10  2F12               	goto	u2610
  4904  0F11  2F13               	goto	u2611
  4905  0F12                     u2610:
  4906  0F12  07CD               	addwf	??___fladd+1,f
  4907  0F13                     u2611:
  4908  0F13  0852               	movf	??___fladd+6,w
  4909  0F14  1803               	skipnc
  4910  0F15  0F52               	incfsz	??___fladd+6,w
  4911  0F16  2F18               	goto	u2612
  4912  0F17  2F19               	goto	u2613
  4913  0F18                     u2612:
  4914  0F18  07CE               	addwf	??___fladd+2,f
  4915  0F19                     u2613:
  4916  0F19  0853               	movf	??___fladd+7,w
  4917  0F1A  1803               	skipnc
  4918  0F1B  0A53               	incf	??___fladd+7,w
  4919  0F1C  07CF               	addwf	??___fladd+3,f
  4920  0F1D  084F               	movf	??___fladd+3,w
  4921  0F1E  00C7               	movwf	___fladd@b+3
  4922  0F1F  084E               	movf	??___fladd+2,w
  4923  0F20  00C6               	movwf	___fladd@b+2
  4924  0F21  084D               	movf	??___fladd+1,w
  4925  0F22  00C5               	movwf	___fladd@b+1
  4926  0F23  084C               	movf	??___fladd,w
  4927  0F24  00C4               	movwf	___fladd@b
  4928  0F25                     l2178:
  4929  0F25  3080               	movlw	128
  4930  0F26  00CC               	movwf	??___fladd
  4931  0F27  084C               	movf	??___fladd,w
  4932  0F28  06D4               	xorwf	___fladd@signs,f
  4933  0F29  09D7               	comf	___fladd@grs,f
  4934  0F2A  0AD7               	incf	___fladd@grs,f
  4935  0F2B                     l2180:
  4936  0F2B  0857               	movf	___fladd@grs,w
  4937  0F2C  1D03               	btfss	3,2
  4938  0F2D  2F2F               	goto	u2621
  4939  0F2E  2F30               	goto	u2620
  4940  0F2F                     u2621:
  4941  0F2F  2F4D               	goto	l627
  4942  0F30                     u2620:
  4943  0F30                     l2182:
  4944  0F30  3001               	movlw	1
  4945  0F31  07C4               	addwf	___fladd@b,f
  4946  0F32  3000               	movlw	0
  4947  0F33  1803               	skipnc
  4948  0F34  3001               	movlw	1
  4949  0F35  07C5               	addwf	___fladd@b+1,f
  4950  0F36  3000               	movlw	0
  4951  0F37  1803               	skipnc
  4952  0F38  3001               	movlw	1
  4953  0F39  07C6               	addwf	___fladd@b+2,f
  4954  0F3A  3000               	movlw	0
  4955  0F3B  1803               	skipnc
  4956  0F3C  3001               	movlw	1
  4957  0F3D  07C7               	addwf	___fladd@b+3,f
  4958  0F3E  2F4D               	goto	l627
  4959  0F3F                     l2184:
  4960  0F3F  0848               	movf	___fladd@a,w
  4961  0F40  02C4               	subwf	___fladd@b,f
  4962  0F41  0849               	movf	___fladd@a+1,w
  4963  0F42  1C03               	skipc
  4964  0F43  0F49               	incfsz	___fladd@a+1,w
  4965  0F44  02C5               	subwf	___fladd@b+1,f
  4966  0F45  084A               	movf	___fladd@a+2,w
  4967  0F46  1C03               	skipc
  4968  0F47  0F4A               	incfsz	___fladd@a+2,w
  4969  0F48  02C6               	subwf	___fladd@b+2,f
  4970  0F49  084B               	movf	___fladd@a+3,w
  4971  0F4A  1C03               	skipc
  4972  0F4B  0F4B               	incfsz	___fladd@a+3,w
  4973  0F4C  02C7               	subwf	___fladd@b+3,f
  4974  0F4D                     l627:
  4975  0F4D  0847               	movf	___fladd@b+3,w
  4976  0F4E  0446               	iorwf	___fladd@b+2,w
  4977  0F4F  0445               	iorwf	___fladd@b+1,w
  4978  0F50  0444               	iorwf	___fladd@b,w
  4979  0F51  1D03               	skipz
  4980  0F52  2F54               	goto	u2631
  4981  0F53  2F55               	goto	u2630
  4982  0F54                     u2631:
  4983  0F54  2F81               	goto	l2206
  4984  0F55                     u2630:
  4985  0F55                     l2186:
  4986  0F55  0857               	movf	___fladd@grs,w
  4987  0F56  1D03               	btfss	3,2
  4988  0F57  2F59               	goto	u2641
  4989  0F58  2F5A               	goto	u2640
  4990  0F59                     u2641:
  4991  0F59  2F81               	goto	l2206
  4992  0F5A                     u2640:
  4993  0F5A                     l2188:
  4994  0F5A  3000               	movlw	0
  4995  0F5B  00C7               	movwf	?___fladd+3
  4996  0F5C  3000               	movlw	0
  4997  0F5D  00C6               	movwf	?___fladd+2
  4998  0F5E  3000               	movlw	0
  4999  0F5F  00C5               	movwf	?___fladd+1
  5000  0F60  3000               	movlw	0
  5001  0F61  00C4               	movwf	?___fladd
  5002  0F62  2FFF               	goto	l619
  5003  0F63                     l2192:
  5004  0F63  3001               	movlw	1
  5005  0F64  00CC               	movwf	??___fladd
  5006  0F65                     u2655:
  5007  0F65  1003               	clrc
  5008  0F66  0DC4               	rlf	___fladd@b,f
  5009  0F67  0DC5               	rlf	___fladd@b+1,f
  5010  0F68  0DC6               	rlf	___fladd@b+2,f
  5011  0F69  0DC7               	rlf	___fladd@b+3,f
  5012  0F6A  0BCC               	decfsz	??___fladd,f
  5013  0F6B  2F65               	goto	u2655
  5014  0F6C                     l2194:
  5015  0F6C  1FD7               	btfss	___fladd@grs,7
  5016  0F6D  2F6F               	goto	u2661
  5017  0F6E  2F70               	goto	u2660
  5018  0F6F                     u2661:
  5019  0F6F  2F71               	goto	l631
  5020  0F70                     u2660:
  5021  0F70                     l2196:
  5022  0F70  1444               	bsf	___fladd@b,0
  5023  0F71                     l631:
  5024  0F71  1C57               	btfss	___fladd@grs,0
  5025  0F72  2F74               	goto	u2671
  5026  0F73  2F75               	goto	u2670
  5027  0F74                     u2671:
  5028  0F74  2F78               	goto	l2200
  5029  0F75                     u2670:
  5030  0F75                     l2198:
  5031  0F75  1403               	setc
  5032  0F76  0DD7               	rlf	___fladd@grs,f
  5033  0F77  2F7A               	goto	l2202
  5034  0F78                     l2200:
  5035  0F78  1003               	clrc
  5036  0F79  0DD7               	rlf	___fladd@grs,f
  5037  0F7A                     l2202:
  5038  0F7A  0856               	movf	___fladd@bexp,w
  5039  0F7B  1903               	btfsc	3,2
  5040  0F7C  2F7E               	goto	u2681
  5041  0F7D  2F7F               	goto	u2680
  5042  0F7E                     u2681:
  5043  0F7E  2F81               	goto	l2206
  5044  0F7F                     u2680:
  5045  0F7F                     l2204:
  5046  0F7F  3001               	movlw	1
  5047  0F80  02D6               	subwf	___fladd@bexp,f
  5048  0F81                     l2206:
  5049  0F81  1FC6               	btfss	___fladd@b+2,7
  5050  0F82  2F84               	goto	u2691
  5051  0F83  2F85               	goto	u2690
  5052  0F84                     u2691:
  5053  0F84  2F63               	goto	l2192
  5054  0F85                     u2690:
  5055  0F85                     l2208:
  5056  0F85  01D5               	clrf	___fladd@aexp
  5057  0F86                     l2210:
  5058  0F86  1FD7               	btfss	___fladd@grs,7
  5059  0F87  2F89               	goto	u2701
  5060  0F88  2F8A               	goto	u2700
  5061  0F89                     u2701:
  5062  0F89  2F98               	goto	l2218
  5063  0F8A                     u2700:
  5064  0F8A                     l2212:
  5065  0F8A  0857               	movf	___fladd@grs,w
  5066  0F8B  397F               	andlw	127
  5067  0F8C  1903               	btfsc	3,2
  5068  0F8D  2F8F               	goto	u2711
  5069  0F8E  2F90               	goto	u2710
  5070  0F8F                     u2711:
  5071  0F8F  2F93               	goto	l637
  5072  0F90                     u2710:
  5073  0F90                     l2214:
  5074  0F90  01D5               	clrf	___fladd@aexp
  5075  0F91  0AD5               	incf	___fladd@aexp,f
  5076  0F92  2F98               	goto	l2218
  5077  0F93                     l637:
  5078  0F93  1C44               	btfss	___fladd@b,0
  5079  0F94  2F96               	goto	u2721
  5080  0F95  2F97               	goto	u2720
  5081  0F96                     u2721:
  5082  0F96  2F98               	goto	l2218
  5083  0F97                     u2720:
  5084  0F97  2F90               	goto	l2214
  5085  0F98                     l2218:
  5086  0F98  0855               	movf	___fladd@aexp,w
  5087  0F99  1903               	btfsc	3,2
  5088  0F9A  2F9C               	goto	u2731
  5089  0F9B  2F9D               	goto	u2730
  5090  0F9C                     u2731:
  5091  0F9C  2FD1               	goto	l640
  5092  0F9D                     u2730:
  5093  0F9D                     l2220:
  5094  0F9D  3001               	movlw	1
  5095  0F9E  07C4               	addwf	___fladd@b,f
  5096  0F9F  3000               	movlw	0
  5097  0FA0  1803               	skipnc
  5098  0FA1  3001               	movlw	1
  5099  0FA2  07C5               	addwf	___fladd@b+1,f
  5100  0FA3  3000               	movlw	0
  5101  0FA4  1803               	skipnc
  5102  0FA5  3001               	movlw	1
  5103  0FA6  07C6               	addwf	___fladd@b+2,f
  5104  0FA7  3000               	movlw	0
  5105  0FA8  1803               	skipnc
  5106  0FA9  3001               	movlw	1
  5107  0FAA  07C7               	addwf	___fladd@b+3,f
  5108  0FAB                     l2222:
  5109  0FAB  1C47               	btfss	___fladd@b+3,0
  5110  0FAC  2FAE               	goto	u2741
  5111  0FAD  2FAF               	goto	u2740
  5112  0FAE                     u2741:
  5113  0FAE  2FD1               	goto	l640
  5114  0FAF                     u2740:
  5115  0FAF                     l2224:
  5116  0FAF  0844               	movf	___fladd@b,w
  5117  0FB0  00CC               	movwf	??___fladd
  5118  0FB1  0845               	movf	___fladd@b+1,w
  5119  0FB2  00CD               	movwf	??___fladd+1
  5120  0FB3  0846               	movf	___fladd@b+2,w
  5121  0FB4  00CE               	movwf	??___fladd+2
  5122  0FB5  0847               	movf	___fladd@b+3,w
  5123  0FB6  00CF               	movwf	??___fladd+3
  5124  0FB7  3001               	movlw	1
  5125  0FB8  00D0               	movwf	??___fladd+4
  5126  0FB9                     u2755:
  5127  0FB9  0D4F               	rlf	??___fladd+3,w
  5128  0FBA  0CCF               	rrf	??___fladd+3,f
  5129  0FBB  0CCE               	rrf	??___fladd+2,f
  5130  0FBC  0CCD               	rrf	??___fladd+1,f
  5131  0FBD  0CCC               	rrf	??___fladd,f
  5132  0FBE                     u2750:
  5133  0FBE  0BD0               	decfsz	??___fladd+4,f
  5134  0FBF  2FB9               	goto	u2755
  5135  0FC0  084F               	movf	??___fladd+3,w
  5136  0FC1  00C7               	movwf	___fladd@b+3
  5137  0FC2  084E               	movf	??___fladd+2,w
  5138  0FC3  00C6               	movwf	___fladd@b+2
  5139  0FC4  084D               	movf	??___fladd+1,w
  5140  0FC5  00C5               	movwf	___fladd@b+1
  5141  0FC6  084C               	movf	??___fladd,w
  5142  0FC7  00C4               	movwf	___fladd@b
  5143  0FC8  0A56               	incf	___fladd@bexp,w
  5144  0FC9  1903               	btfsc	3,2
  5145  0FCA  2FCC               	goto	u2761
  5146  0FCB  2FCD               	goto	u2760
  5147  0FCC                     u2761:
  5148  0FCC  2FD1               	goto	l640
  5149  0FCD                     u2760:
  5150  0FCD                     l2226:
  5151  0FCD  3001               	movlw	1
  5152  0FCE  00CC               	movwf	??___fladd
  5153  0FCF  084C               	movf	??___fladd,w
  5154  0FD0  07D6               	addwf	___fladd@bexp,f
  5155  0FD1                     l640:
  5156  0FD1  0A56               	incf	___fladd@bexp,w
  5157  0FD2  1903               	btfsc	3,2
  5158  0FD3  2FD5               	goto	u2771
  5159  0FD4  2FD6               	goto	u2770
  5160  0FD5                     u2771:
  5161  0FD5  2FDB               	goto	l2230
  5162  0FD6                     u2770:
  5163  0FD6                     l2228:
  5164  0FD6  0856               	movf	___fladd@bexp,w
  5165  0FD7  1D03               	btfss	3,2
  5166  0FD8  2FDA               	goto	u2781
  5167  0FD9  2FDB               	goto	u2780
  5168  0FDA                     u2781:
  5169  0FDA  2FE9               	goto	l2236
  5170  0FDB                     u2780:
  5171  0FDB                     l2230:
  5172  0FDB  3000               	movlw	0
  5173  0FDC  00C7               	movwf	___fladd@b+3
  5174  0FDD  3000               	movlw	0
  5175  0FDE  00C6               	movwf	___fladd@b+2
  5176  0FDF  3000               	movlw	0
  5177  0FE0  00C5               	movwf	___fladd@b+1
  5178  0FE1  3000               	movlw	0
  5179  0FE2  00C4               	movwf	___fladd@b
  5180  0FE3                     l2232:
  5181  0FE3  0856               	movf	___fladd@bexp,w
  5182  0FE4  1D03               	btfss	3,2
  5183  0FE5  2FE7               	goto	u2791
  5184  0FE6  2FE8               	goto	u2790
  5185  0FE7                     u2791:
  5186  0FE7  2FE9               	goto	l2236
  5187  0FE8                     u2790:
  5188  0FE8                     l2234:
  5189  0FE8  01D4               	clrf	___fladd@signs
  5190  0FE9                     l2236:
  5191  0FE9  1C56               	btfss	___fladd@bexp,0
  5192  0FEA  2FEC               	goto	u2801
  5193  0FEB  2FED               	goto	u2800
  5194  0FEC                     u2801:
  5195  0FEC  2FEF               	goto	l2240
  5196  0FED                     u2800:
  5197  0FED                     l2238:
  5198  0FED  17C6               	bsf	___fladd@b+2,7
  5199  0FEE  2FF3               	goto	l648
  5200  0FEF                     l2240:
  5201  0FEF  307F               	movlw	127
  5202  0FF0  00CC               	movwf	??___fladd
  5203  0FF1  084C               	movf	??___fladd,w
  5204  0FF2  05C6               	andwf	___fladd@b+2,f
  5205  0FF3                     l648:
  5206  0FF3  0856               	movf	___fladd@bexp,w
  5207  0FF4  00CC               	movwf	??___fladd
  5208  0FF5  1003               	clrc
  5209  0FF6  0C4C               	rrf	??___fladd,w
  5210  0FF7  00CD               	movwf	??___fladd+1
  5211  0FF8  084D               	movf	??___fladd+1,w
  5212  0FF9  00C7               	movwf	___fladd@b+3
  5213  0FFA                     l2242:
  5214  0FFA  1FD4               	btfss	___fladd@signs,7
  5215  0FFB  2FFD               	goto	u2811
  5216  0FFC  2FFE               	goto	u2810
  5217  0FFD                     u2811:
  5218  0FFD  2FFF               	goto	l649
  5219  0FFE                     u2810:
  5220  0FFE                     l2244:
  5221  0FFE  17C7               	bsf	___fladd@b+3,7
  5222  0FFF                     l649:
  5223  0FFF                     l619:
  5224  0FFF  0008               	return
  5225  1000                     __end_of___fladd:
  5226                           
  5227                           	psect	text12
  5228  12DC                     __ptext12:	
  5229 ;; *************** function ___flneg *****************
  5230 ;; Defined at:
  5231 ;;		line 15 in file "C:\Program Files\Microchip\xc8\v2.31\pic\sources\c90\common\flneg.c"
  5232 ;; Parameters:    Size  Location     Type
  5233 ;;  f1              4    3[COMMON] unsigned char 
  5234 ;; Auto vars:     Size  Location     Type
  5235 ;;		None
  5236 ;; Return value:  Size  Location     Type
  5237 ;;                  4    3[COMMON] unsigned char 
  5238 ;; Registers used:
  5239 ;;		wreg
  5240 ;; Tracked objects:
  5241 ;;		On entry : 0/0
  5242 ;;		On exit  : 0/0
  5243 ;;		Unchanged: 0/0
  5244 ;; Data sizes:     COMMON   BANK0   BANK1   BANK3   BANK2
  5245 ;;      Params:         4       0       0       0       0
  5246 ;;      Locals:         0       0       0       0       0
  5247 ;;      Temps:          0       0       0       0       0
  5248 ;;      Totals:         4       0       0       0       0
  5249 ;;Total ram usage:        4 bytes
  5250 ;; Hardware stack levels used:    1
  5251 ;; Hardware stack levels required when called:    1
  5252 ;; This function calls:
  5253 ;;		Nothing
  5254 ;; This function is called by:
  5255 ;;		_ftoa
  5256 ;; This function uses a non-reentrant model
  5257 ;;
  5258                           
  5259                           
  5260                           ;psect for function ___flneg
  5261  12DC                     ___flneg:
  5262  12DC                     l2304:	
  5263                           ;incstack = 0
  5264                           ; Regs used in ___flneg: [wreg]
  5265                           
  5266  12DC  0876               	movf	___flneg@f1+3,w
  5267  12DD  0475               	iorwf	___flneg@f1+2,w
  5268  12DE  0474               	iorwf	___flneg@f1+1,w
  5269  12DF  0473               	iorwf	___flneg@f1,w
  5270  12E0  1903               	skipnz
  5271  12E1  2AE3               	goto	u2981
  5272  12E2  2AE4               	goto	u2980
  5273  12E3                     u2981:
  5274  12E3  2AE6               	goto	l2308
  5275  12E4                     u2980:
  5276  12E4                     l2306:
  5277  12E4  3080               	movlw	128
  5278  12E5  06F6               	xorwf	___flneg@f1+3,f
  5279  12E6                     l2308:
  5280  12E6                     l495:
  5281  12E6  0008               	return
  5282  12E7                     __end_of___flneg:
  5283                           
  5284                           	psect	text13
  5285  049E                     __ptext13:	
  5286 ;; *************** function ___flmul *****************
  5287 ;; Defined at:
  5288 ;;		line 8 in file "C:\Program Files\Microchip\xc8\v2.31\pic\sources\c90\common\sprcmul.c"
  5289 ;; Parameters:    Size  Location     Type
  5290 ;;  b               4   10[BANK0 ] unsigned char 
  5291 ;;  a               4   14[BANK0 ] unsigned char 
  5292 ;; Auto vars:     Size  Location     Type
  5293 ;;  prod            4   30[BANK0 ] struct .
  5294 ;;  grs             4   24[BANK0 ] unsigned long 
  5295 ;;  temp            2   34[BANK0 ] struct .
  5296 ;;  bexp            1   29[BANK0 ] unsigned char 
  5297 ;;  aexp            1   28[BANK0 ] unsigned char 
  5298 ;;  sign            1   23[BANK0 ] unsigned char 
  5299 ;; Return value:  Size  Location     Type
  5300 ;;                  4   10[BANK0 ] unsigned char 
  5301 ;; Registers used:
  5302 ;;		wreg, status,2, status,0, btemp+1, pclath, cstack
  5303 ;; Tracked objects:
  5304 ;;		On entry : 0/0
  5305 ;;		On exit  : 0/0
  5306 ;;		Unchanged: 0/0
  5307 ;; Data sizes:     COMMON   BANK0   BANK1   BANK3   BANK2
  5308 ;;      Params:         0       8       0       0       0
  5309 ;;      Locals:         0      13       0       0       0
  5310 ;;      Temps:          0       5       0       0       0
  5311 ;;      Totals:         0      26       0       0       0
  5312 ;;Total ram usage:       26 bytes
  5313 ;; Hardware stack levels used:    1
  5314 ;; Hardware stack levels required when called:    2
  5315 ;; This function calls:
  5316 ;;		__Umul8_16
  5317 ;; This function is called by:
  5318 ;;		_GY_read
  5319 ;;		_ftoa
  5320 ;; This function uses a non-reentrant model
  5321 ;;
  5322                           
  5323                           
  5324                           ;psect for function ___flmul
  5325  049E                     ___flmul:
  5326  049E                     l2354:	
  5327                           ;incstack = 0
  5328                           ; Regs used in ___flmul: [wreg+status,2+status,0+btemp+1+pclath+cstack]
  5329                           
  5330  049E  1283               	bcf	3,5	;RP0=0, select bank0
  5331  049F  1303               	bcf	3,6	;RP1=0, select bank0
  5332  04A0  082D               	movf	___flmul@b+3,w
  5333  04A1  3980               	andlw	128
  5334  04A2  00B2               	movwf	??___flmul
  5335  04A3  0832               	movf	??___flmul,w
  5336  04A4  00B7               	movwf	___flmul@sign
  5337  04A5                     l2356:
  5338  04A5  082D               	movf	___flmul@b+3,w
  5339  04A6  00B2               	movwf	??___flmul
  5340  04A7  0732               	addwf	??___flmul,w
  5341  04A8  00B3               	movwf	??___flmul+1
  5342  04A9  0833               	movf	??___flmul+1,w
  5343  04AA  00BD               	movwf	___flmul@bexp
  5344  04AB                     l2358:
  5345  04AB  1FAC               	btfss	___flmul@b+2,7
  5346  04AC  2CAE               	goto	u3091
  5347  04AD  2CAF               	goto	u3090
  5348  04AE                     u3091:
  5349  04AE  2CB0               	goto	l2362
  5350  04AF                     u3090:
  5351  04AF                     l2360:
  5352  04AF  143D               	bsf	___flmul@bexp,0
  5353  04B0                     l2362:
  5354  04B0  083D               	movf	___flmul@bexp,w
  5355  04B1  1903               	btfsc	3,2
  5356  04B2  2CB4               	goto	u3101
  5357  04B3  2CB5               	goto	u3100
  5358  04B4                     u3101:
  5359  04B4  2CC4               	goto	l2370
  5360  04B5                     u3100:
  5361  04B5                     l2364:
  5362  04B5  0A3D               	incf	___flmul@bexp,w
  5363  04B6  1D03               	btfss	3,2
  5364  04B7  2CB9               	goto	u3111
  5365  04B8  2CBA               	goto	u3110
  5366  04B9                     u3111:
  5367  04B9  2CC2               	goto	l2368
  5368  04BA                     u3110:
  5369  04BA                     l2366:
  5370  04BA  3000               	movlw	0
  5371  04BB  00AD               	movwf	___flmul@b+3
  5372  04BC  3000               	movlw	0
  5373  04BD  00AC               	movwf	___flmul@b+2
  5374  04BE  3000               	movlw	0
  5375  04BF  00AB               	movwf	___flmul@b+1
  5376  04C0  3000               	movlw	0
  5377  04C1  00AA               	movwf	___flmul@b
  5378  04C2                     l2368:
  5379  04C2  17AC               	bsf	___flmul@b+2,7
  5380  04C3  2CCC               	goto	l2372
  5381  04C4                     l2370:
  5382  04C4  3000               	movlw	0
  5383  04C5  00AD               	movwf	___flmul@b+3
  5384  04C6  3000               	movlw	0
  5385  04C7  00AC               	movwf	___flmul@b+2
  5386  04C8  3000               	movlw	0
  5387  04C9  00AB               	movwf	___flmul@b+1
  5388  04CA  3000               	movlw	0
  5389  04CB  00AA               	movwf	___flmul@b
  5390  04CC                     l2372:
  5391  04CC  0831               	movf	___flmul@a+3,w
  5392  04CD  3980               	andlw	128
  5393  04CE  00B2               	movwf	??___flmul
  5394  04CF  0832               	movf	??___flmul,w
  5395  04D0  06B7               	xorwf	___flmul@sign,f
  5396  04D1                     l2374:
  5397  04D1  0831               	movf	___flmul@a+3,w
  5398  04D2  00B2               	movwf	??___flmul
  5399  04D3  0732               	addwf	??___flmul,w
  5400  04D4  00B3               	movwf	??___flmul+1
  5401  04D5  0833               	movf	??___flmul+1,w
  5402  04D6  00BC               	movwf	___flmul@aexp
  5403  04D7                     l2376:
  5404  04D7  1FB0               	btfss	___flmul@a+2,7
  5405  04D8  2CDA               	goto	u3121
  5406  04D9  2CDB               	goto	u3120
  5407  04DA                     u3121:
  5408  04DA  2CDC               	goto	l2380
  5409  04DB                     u3120:
  5410  04DB                     l2378:
  5411  04DB  143C               	bsf	___flmul@aexp,0
  5412  04DC                     l2380:
  5413  04DC  083C               	movf	___flmul@aexp,w
  5414  04DD  1903               	btfsc	3,2
  5415  04DE  2CE0               	goto	u3131
  5416  04DF  2CE1               	goto	u3130
  5417  04E0                     u3131:
  5418  04E0  2CF0               	goto	l2388
  5419  04E1                     u3130:
  5420  04E1                     l2382:
  5421  04E1  0A3C               	incf	___flmul@aexp,w
  5422  04E2  1D03               	btfss	3,2
  5423  04E3  2CE5               	goto	u3141
  5424  04E4  2CE6               	goto	u3140
  5425  04E5                     u3141:
  5426  04E5  2CEE               	goto	l2386
  5427  04E6                     u3140:
  5428  04E6                     l2384:
  5429  04E6  3000               	movlw	0
  5430  04E7  00B1               	movwf	___flmul@a+3
  5431  04E8  3000               	movlw	0
  5432  04E9  00B0               	movwf	___flmul@a+2
  5433  04EA  3000               	movlw	0
  5434  04EB  00AF               	movwf	___flmul@a+1
  5435  04EC  3000               	movlw	0
  5436  04ED  00AE               	movwf	___flmul@a
  5437  04EE                     l2386:
  5438  04EE  17B0               	bsf	___flmul@a+2,7
  5439  04EF  2CF8               	goto	l2390
  5440  04F0                     l2388:
  5441  04F0  3000               	movlw	0
  5442  04F1  00B1               	movwf	___flmul@a+3
  5443  04F2  3000               	movlw	0
  5444  04F3  00B0               	movwf	___flmul@a+2
  5445  04F4  3000               	movlw	0
  5446  04F5  00AF               	movwf	___flmul@a+1
  5447  04F6  3000               	movlw	0
  5448  04F7  00AE               	movwf	___flmul@a
  5449  04F8                     l2390:
  5450  04F8  083C               	movf	___flmul@aexp,w
  5451  04F9  1903               	btfsc	3,2
  5452  04FA  2CFC               	goto	u3151
  5453  04FB  2CFD               	goto	u3150
  5454  04FC                     u3151:
  5455  04FC  2D02               	goto	l2394
  5456  04FD                     u3150:
  5457  04FD                     l2392:
  5458  04FD  083D               	movf	___flmul@bexp,w
  5459  04FE  1D03               	btfss	3,2
  5460  04FF  2D01               	goto	u3161
  5461  0500  2D02               	goto	u3160
  5462  0501                     u3161:
  5463  0501  2D0B               	goto	l2398
  5464  0502                     u3160:
  5465  0502                     l2394:
  5466  0502  3000               	movlw	0
  5467  0503  00AD               	movwf	?___flmul+3
  5468  0504  3000               	movlw	0
  5469  0505  00AC               	movwf	?___flmul+2
  5470  0506  3000               	movlw	0
  5471  0507  00AB               	movwf	?___flmul+1
  5472  0508  3000               	movlw	0
  5473  0509  00AA               	movwf	?___flmul
  5474  050A  2FFE               	goto	l702
  5475  050B                     l2398:
  5476  050B  082A               	movf	___flmul@b,w
  5477  050C  00B2               	movwf	??___flmul
  5478  050D  0832               	movf	??___flmul,w
  5479  050E  00F3               	movwf	__Umul8_16@multiplicand
  5480  050F  0830               	movf	___flmul@a+2,w
  5481  0510  160A  118A  23B8  120A  118A  	fcall	__Umul8_16
  5482  0515  0874               	movf	?__Umul8_16+1,w
  5483  0516  1283               	bcf	3,5	;RP0=0, select bank0
  5484  0517  1303               	bcf	3,6	;RP1=0, select bank0
  5485  0518  00C3               	movwf	___flmul@temp+1
  5486  0519  0873               	movf	?__Umul8_16,w
  5487  051A  00C2               	movwf	___flmul@temp
  5488  051B                     l2400:
  5489  051B  0842               	movf	___flmul@temp,w
  5490  051C  00B2               	movwf	??___flmul
  5491  051D  01B3               	clrf	??___flmul+1
  5492  051E  01B4               	clrf	??___flmul+2
  5493  051F  01B5               	clrf	??___flmul+3
  5494  0520  0835               	movf	??___flmul+3,w
  5495  0521  00BB               	movwf	___flmul@grs+3
  5496  0522  0834               	movf	??___flmul+2,w
  5497  0523  00BA               	movwf	___flmul@grs+2
  5498  0524  0833               	movf	??___flmul+1,w
  5499  0525  00B9               	movwf	___flmul@grs+1
  5500  0526  0832               	movf	??___flmul,w
  5501  0527  00B8               	movwf	___flmul@grs
  5502  0528                     l2402:
  5503  0528  0843               	movf	___flmul@temp+1,w
  5504  0529  00B2               	movwf	??___flmul
  5505  052A  01B3               	clrf	??___flmul+1
  5506  052B  01B4               	clrf	??___flmul+2
  5507  052C  01B5               	clrf	??___flmul+3
  5508  052D  0835               	movf	??___flmul+3,w
  5509  052E  00C1               	movwf	___flmul@prod+3
  5510  052F  0834               	movf	??___flmul+2,w
  5511  0530  00C0               	movwf	___flmul@prod+2
  5512  0531  0833               	movf	??___flmul+1,w
  5513  0532  00BF               	movwf	___flmul@prod+1
  5514  0533  0832               	movf	??___flmul,w
  5515  0534  00BE               	movwf	___flmul@prod
  5516  0535  082B               	movf	___flmul@b+1,w
  5517  0536  00B2               	movwf	??___flmul
  5518  0537  0832               	movf	??___flmul,w
  5519  0538  00F3               	movwf	__Umul8_16@multiplicand
  5520  0539  082F               	movf	___flmul@a+1,w
  5521  053A  160A  118A  23B8  120A  118A  	fcall	__Umul8_16
  5522  053F  0874               	movf	?__Umul8_16+1,w
  5523  0540  1283               	bcf	3,5	;RP0=0, select bank0
  5524  0541  1303               	bcf	3,6	;RP1=0, select bank0
  5525  0542  00C3               	movwf	___flmul@temp+1
  5526  0543  0873               	movf	?__Umul8_16,w
  5527  0544  00C2               	movwf	___flmul@temp
  5528  0545                     l2404:
  5529  0545  0842               	movf	___flmul@temp,w
  5530  0546  00B2               	movwf	??___flmul
  5531  0547  01B3               	clrf	??___flmul+1
  5532  0548  01B4               	clrf	??___flmul+2
  5533  0549  01B5               	clrf	??___flmul+3
  5534  054A  0832               	movf	??___flmul,w
  5535  054B  07B8               	addwf	___flmul@grs,f
  5536  054C  0833               	movf	??___flmul+1,w
  5537  054D  1103               	clrz
  5538  054E  1803               	skipnc
  5539  054F  3E01               	addlw	1
  5540  0550  1903               	skipnz
  5541  0551  2D53               	goto	u3171
  5542  0552  07B9               	addwf	___flmul@grs+1,f
  5543  0553                     u3171:
  5544  0553  0834               	movf	??___flmul+2,w
  5545  0554  1103               	clrz
  5546  0555  1803               	skipnc
  5547  0556  3E01               	addlw	1
  5548  0557  1903               	skipnz
  5549  0558  2D5A               	goto	u3172
  5550  0559  07BA               	addwf	___flmul@grs+2,f
  5551  055A                     u3172:
  5552  055A  0835               	movf	??___flmul+3,w
  5553  055B  1103               	clrz
  5554  055C  1803               	skipnc
  5555  055D  3E01               	addlw	1
  5556  055E  1903               	skipnz
  5557  055F  2D61               	goto	u3173
  5558  0560  07BB               	addwf	___flmul@grs+3,f
  5559  0561                     u3173:
  5560  0561                     l2406:
  5561  0561  0843               	movf	___flmul@temp+1,w
  5562  0562  00B2               	movwf	??___flmul
  5563  0563  01B3               	clrf	??___flmul+1
  5564  0564  01B4               	clrf	??___flmul+2
  5565  0565  01B5               	clrf	??___flmul+3
  5566  0566  0832               	movf	??___flmul,w
  5567  0567  07BE               	addwf	___flmul@prod,f
  5568  0568  0833               	movf	??___flmul+1,w
  5569  0569  1103               	clrz
  5570  056A  1803               	skipnc
  5571  056B  3E01               	addlw	1
  5572  056C  1903               	skipnz
  5573  056D  2D6F               	goto	u3181
  5574  056E  07BF               	addwf	___flmul@prod+1,f
  5575  056F                     u3181:
  5576  056F  0834               	movf	??___flmul+2,w
  5577  0570  1103               	clrz
  5578  0571  1803               	skipnc
  5579  0572  3E01               	addlw	1
  5580  0573  1903               	skipnz
  5581  0574  2D76               	goto	u3182
  5582  0575  07C0               	addwf	___flmul@prod+2,f
  5583  0576                     u3182:
  5584  0576  0835               	movf	??___flmul+3,w
  5585  0577  1103               	clrz
  5586  0578  1803               	skipnc
  5587  0579  3E01               	addlw	1
  5588  057A  1903               	skipnz
  5589  057B  2D7D               	goto	u3183
  5590  057C  07C1               	addwf	___flmul@prod+3,f
  5591  057D                     u3183:
  5592  057D  082C               	movf	___flmul@b+2,w
  5593  057E  00B2               	movwf	??___flmul
  5594  057F  0832               	movf	??___flmul,w
  5595  0580  00F3               	movwf	__Umul8_16@multiplicand
  5596  0581  082E               	movf	___flmul@a,w
  5597  0582  160A  118A  23B8  120A  118A  	fcall	__Umul8_16
  5598  0587  0874               	movf	?__Umul8_16+1,w
  5599  0588  1283               	bcf	3,5	;RP0=0, select bank0
  5600  0589  1303               	bcf	3,6	;RP1=0, select bank0
  5601  058A  00C3               	movwf	___flmul@temp+1
  5602  058B  0873               	movf	?__Umul8_16,w
  5603  058C  00C2               	movwf	___flmul@temp
  5604  058D                     l2408:
  5605  058D  0842               	movf	___flmul@temp,w
  5606  058E  00B2               	movwf	??___flmul
  5607  058F  01B3               	clrf	??___flmul+1
  5608  0590  01B4               	clrf	??___flmul+2
  5609  0591  01B5               	clrf	??___flmul+3
  5610  0592  0832               	movf	??___flmul,w
  5611  0593  07B8               	addwf	___flmul@grs,f
  5612  0594  0833               	movf	??___flmul+1,w
  5613  0595  1103               	clrz
  5614  0596  1803               	skipnc
  5615  0597  3E01               	addlw	1
  5616  0598  1903               	skipnz
  5617  0599  2D9B               	goto	u3191
  5618  059A  07B9               	addwf	___flmul@grs+1,f
  5619  059B                     u3191:
  5620  059B  0834               	movf	??___flmul+2,w
  5621  059C  1103               	clrz
  5622  059D  1803               	skipnc
  5623  059E  3E01               	addlw	1
  5624  059F  1903               	skipnz
  5625  05A0  2DA2               	goto	u3192
  5626  05A1  07BA               	addwf	___flmul@grs+2,f
  5627  05A2                     u3192:
  5628  05A2  0835               	movf	??___flmul+3,w
  5629  05A3  1103               	clrz
  5630  05A4  1803               	skipnc
  5631  05A5  3E01               	addlw	1
  5632  05A6  1903               	skipnz
  5633  05A7  2DA9               	goto	u3193
  5634  05A8  07BB               	addwf	___flmul@grs+3,f
  5635  05A9                     u3193:
  5636  05A9                     l2410:
  5637  05A9  0843               	movf	___flmul@temp+1,w
  5638  05AA  00B2               	movwf	??___flmul
  5639  05AB  01B3               	clrf	??___flmul+1
  5640  05AC  01B4               	clrf	??___flmul+2
  5641  05AD  01B5               	clrf	??___flmul+3
  5642  05AE  0832               	movf	??___flmul,w
  5643  05AF  07BE               	addwf	___flmul@prod,f
  5644  05B0  0833               	movf	??___flmul+1,w
  5645  05B1  1103               	clrz
  5646  05B2  1803               	skipnc
  5647  05B3  3E01               	addlw	1
  5648  05B4  1903               	skipnz
  5649  05B5  2DB7               	goto	u3201
  5650  05B6  07BF               	addwf	___flmul@prod+1,f
  5651  05B7                     u3201:
  5652  05B7  0834               	movf	??___flmul+2,w
  5653  05B8  1103               	clrz
  5654  05B9  1803               	skipnc
  5655  05BA  3E01               	addlw	1
  5656  05BB  1903               	skipnz
  5657  05BC  2DBE               	goto	u3202
  5658  05BD  07C0               	addwf	___flmul@prod+2,f
  5659  05BE                     u3202:
  5660  05BE  0835               	movf	??___flmul+3,w
  5661  05BF  1103               	clrz
  5662  05C0  1803               	skipnc
  5663  05C1  3E01               	addlw	1
  5664  05C2  1903               	skipnz
  5665  05C3  2DC5               	goto	u3203
  5666  05C4  07C1               	addwf	___flmul@prod+3,f
  5667  05C5                     u3203:
  5668  05C5                     l2412:
  5669  05C5  3008               	movlw	8
  5670  05C6  00B2               	movwf	??___flmul
  5671  05C7                     u3215:
  5672  05C7  1003               	clrc
  5673  05C8  0DB8               	rlf	___flmul@grs,f
  5674  05C9  0DB9               	rlf	___flmul@grs+1,f
  5675  05CA  0DBA               	rlf	___flmul@grs+2,f
  5676  05CB  0DBB               	rlf	___flmul@grs+3,f
  5677  05CC  0BB2               	decfsz	??___flmul,f
  5678  05CD  2DC7               	goto	u3215
  5679  05CE                     l2414:
  5680  05CE  082B               	movf	___flmul@b+1,w
  5681  05CF  00B2               	movwf	??___flmul
  5682  05D0  0832               	movf	??___flmul,w
  5683  05D1  00F3               	movwf	__Umul8_16@multiplicand
  5684  05D2  082E               	movf	___flmul@a,w
  5685  05D3  160A  118A  23B8  120A  118A  	fcall	__Umul8_16
  5686  05D8  0874               	movf	?__Umul8_16+1,w
  5687  05D9  1283               	bcf	3,5	;RP0=0, select bank0
  5688  05DA  1303               	bcf	3,6	;RP1=0, select bank0
  5689  05DB  00C3               	movwf	___flmul@temp+1
  5690  05DC  0873               	movf	?__Umul8_16,w
  5691  05DD  00C2               	movwf	___flmul@temp
  5692  05DE                     l2416:
  5693  05DE  0842               	movf	___flmul@temp,w
  5694  05DF  00B2               	movwf	??___flmul
  5695  05E0  0843               	movf	___flmul@temp+1,w
  5696  05E1  00B3               	movwf	??___flmul+1
  5697  05E2  01B4               	clrf	??___flmul+2
  5698  05E3  01B5               	clrf	??___flmul+3
  5699  05E4  0832               	movf	??___flmul,w
  5700  05E5  07B8               	addwf	___flmul@grs,f
  5701  05E6  0833               	movf	??___flmul+1,w
  5702  05E7  1103               	clrz
  5703  05E8  1803               	skipnc
  5704  05E9  3E01               	addlw	1
  5705  05EA  1903               	skipnz
  5706  05EB  2DED               	goto	u3221
  5707  05EC  07B9               	addwf	___flmul@grs+1,f
  5708  05ED                     u3221:
  5709  05ED  0834               	movf	??___flmul+2,w
  5710  05EE  1103               	clrz
  5711  05EF  1803               	skipnc
  5712  05F0  3E01               	addlw	1
  5713  05F1  1903               	skipnz
  5714  05F2  2DF4               	goto	u3222
  5715  05F3  07BA               	addwf	___flmul@grs+2,f
  5716  05F4                     u3222:
  5717  05F4  0835               	movf	??___flmul+3,w
  5718  05F5  1103               	clrz
  5719  05F6  1803               	skipnc
  5720  05F7  3E01               	addlw	1
  5721  05F8  1903               	skipnz
  5722  05F9  2DFB               	goto	u3223
  5723  05FA  07BB               	addwf	___flmul@grs+3,f
  5724  05FB                     u3223:
  5725  05FB                     l2418:
  5726  05FB  082A               	movf	___flmul@b,w
  5727  05FC  00B2               	movwf	??___flmul
  5728  05FD  0832               	movf	??___flmul,w
  5729  05FE  00F3               	movwf	__Umul8_16@multiplicand
  5730  05FF  082F               	movf	___flmul@a+1,w
  5731  0600  160A  118A  23B8  120A  118A  	fcall	__Umul8_16
  5732  0605  0874               	movf	?__Umul8_16+1,w
  5733  0606  1283               	bcf	3,5	;RP0=0, select bank0
  5734  0607  1303               	bcf	3,6	;RP1=0, select bank0
  5735  0608  00C3               	movwf	___flmul@temp+1
  5736  0609  0873               	movf	?__Umul8_16,w
  5737  060A  00C2               	movwf	___flmul@temp
  5738  060B                     l2420:
  5739  060B  0842               	movf	___flmul@temp,w
  5740  060C  00B2               	movwf	??___flmul
  5741  060D  0843               	movf	___flmul@temp+1,w
  5742  060E  00B3               	movwf	??___flmul+1
  5743  060F  01B4               	clrf	??___flmul+2
  5744  0610  01B5               	clrf	??___flmul+3
  5745  0611  0832               	movf	??___flmul,w
  5746  0612  07B8               	addwf	___flmul@grs,f
  5747  0613  0833               	movf	??___flmul+1,w
  5748  0614  1103               	clrz
  5749  0615  1803               	skipnc
  5750  0616  3E01               	addlw	1
  5751  0617  1903               	skipnz
  5752  0618  2E1A               	goto	u3231
  5753  0619  07B9               	addwf	___flmul@grs+1,f
  5754  061A                     u3231:
  5755  061A  0834               	movf	??___flmul+2,w
  5756  061B  1103               	clrz
  5757  061C  1803               	skipnc
  5758  061D  3E01               	addlw	1
  5759  061E  1903               	skipnz
  5760  061F  2E21               	goto	u3232
  5761  0620  07BA               	addwf	___flmul@grs+2,f
  5762  0621                     u3232:
  5763  0621  0835               	movf	??___flmul+3,w
  5764  0622  1103               	clrz
  5765  0623  1803               	skipnc
  5766  0624  3E01               	addlw	1
  5767  0625  1903               	skipnz
  5768  0626  2E28               	goto	u3233
  5769  0627  07BB               	addwf	___flmul@grs+3,f
  5770  0628                     u3233:
  5771  0628                     l2422:
  5772  0628  3008               	movlw	8
  5773  0629  00B2               	movwf	??___flmul
  5774  062A                     u3245:
  5775  062A  1003               	clrc
  5776  062B  0DB8               	rlf	___flmul@grs,f
  5777  062C  0DB9               	rlf	___flmul@grs+1,f
  5778  062D  0DBA               	rlf	___flmul@grs+2,f
  5779  062E  0DBB               	rlf	___flmul@grs+3,f
  5780  062F  0BB2               	decfsz	??___flmul,f
  5781  0630  2E2A               	goto	u3245
  5782  0631  082A               	movf	___flmul@b,w
  5783  0632  00B2               	movwf	??___flmul
  5784  0633  0832               	movf	??___flmul,w
  5785  0634  00F3               	movwf	__Umul8_16@multiplicand
  5786  0635  082E               	movf	___flmul@a,w
  5787  0636  160A  118A  23B8  120A  118A  	fcall	__Umul8_16
  5788  063B  0874               	movf	?__Umul8_16+1,w
  5789  063C  1283               	bcf	3,5	;RP0=0, select bank0
  5790  063D  1303               	bcf	3,6	;RP1=0, select bank0
  5791  063E  00C3               	movwf	___flmul@temp+1
  5792  063F  0873               	movf	?__Umul8_16,w
  5793  0640  00C2               	movwf	___flmul@temp
  5794  0641                     l2424:
  5795  0641  0842               	movf	___flmul@temp,w
  5796  0642  00B2               	movwf	??___flmul
  5797  0643  0843               	movf	___flmul@temp+1,w
  5798  0644  00B3               	movwf	??___flmul+1
  5799  0645  01B4               	clrf	??___flmul+2
  5800  0646  01B5               	clrf	??___flmul+3
  5801  0647  0832               	movf	??___flmul,w
  5802  0648  07B8               	addwf	___flmul@grs,f
  5803  0649  0833               	movf	??___flmul+1,w
  5804  064A  1103               	clrz
  5805  064B  1803               	skipnc
  5806  064C  3E01               	addlw	1
  5807  064D  1903               	skipnz
  5808  064E  2E50               	goto	u3251
  5809  064F  07B9               	addwf	___flmul@grs+1,f
  5810  0650                     u3251:
  5811  0650  0834               	movf	??___flmul+2,w
  5812  0651  1103               	clrz
  5813  0652  1803               	skipnc
  5814  0653  3E01               	addlw	1
  5815  0654  1903               	skipnz
  5816  0655  2E57               	goto	u3252
  5817  0656  07BA               	addwf	___flmul@grs+2,f
  5818  0657                     u3252:
  5819  0657  0835               	movf	??___flmul+3,w
  5820  0658  1103               	clrz
  5821  0659  1803               	skipnc
  5822  065A  3E01               	addlw	1
  5823  065B  1903               	skipnz
  5824  065C  2E5E               	goto	u3253
  5825  065D  07BB               	addwf	___flmul@grs+3,f
  5826  065E                     u3253:
  5827  065E                     l2426:
  5828  065E  082B               	movf	___flmul@b+1,w
  5829  065F  00B2               	movwf	??___flmul
  5830  0660  0832               	movf	??___flmul,w
  5831  0661  00F3               	movwf	__Umul8_16@multiplicand
  5832  0662  0830               	movf	___flmul@a+2,w
  5833  0663  160A  118A  23B8  120A  118A  	fcall	__Umul8_16
  5834  0668  0874               	movf	?__Umul8_16+1,w
  5835  0669  1283               	bcf	3,5	;RP0=0, select bank0
  5836  066A  1303               	bcf	3,6	;RP1=0, select bank0
  5837  066B  00C3               	movwf	___flmul@temp+1
  5838  066C  0873               	movf	?__Umul8_16,w
  5839  066D  00C2               	movwf	___flmul@temp
  5840  066E  0842               	movf	___flmul@temp,w
  5841  066F  00B2               	movwf	??___flmul
  5842  0670  0843               	movf	___flmul@temp+1,w
  5843  0671  00B3               	movwf	??___flmul+1
  5844  0672  01B4               	clrf	??___flmul+2
  5845  0673  01B5               	clrf	??___flmul+3
  5846  0674  0832               	movf	??___flmul,w
  5847  0675  07BE               	addwf	___flmul@prod,f
  5848  0676  0833               	movf	??___flmul+1,w
  5849  0677  1103               	clrz
  5850  0678  1803               	skipnc
  5851  0679  3E01               	addlw	1
  5852  067A  1903               	skipnz
  5853  067B  2E7D               	goto	u3261
  5854  067C  07BF               	addwf	___flmul@prod+1,f
  5855  067D                     u3261:
  5856  067D  0834               	movf	??___flmul+2,w
  5857  067E  1103               	clrz
  5858  067F  1803               	skipnc
  5859  0680  3E01               	addlw	1
  5860  0681  1903               	skipnz
  5861  0682  2E84               	goto	u3262
  5862  0683  07C0               	addwf	___flmul@prod+2,f
  5863  0684                     u3262:
  5864  0684  0835               	movf	??___flmul+3,w
  5865  0685  1103               	clrz
  5866  0686  1803               	skipnc
  5867  0687  3E01               	addlw	1
  5868  0688  1903               	skipnz
  5869  0689  2E8B               	goto	u3263
  5870  068A  07C1               	addwf	___flmul@prod+3,f
  5871  068B                     u3263:
  5872  068B                     l2428:
  5873  068B  082C               	movf	___flmul@b+2,w
  5874  068C  00B2               	movwf	??___flmul
  5875  068D  0832               	movf	??___flmul,w
  5876  068E  00F3               	movwf	__Umul8_16@multiplicand
  5877  068F  082F               	movf	___flmul@a+1,w
  5878  0690  160A  118A  23B8  120A  118A  	fcall	__Umul8_16
  5879  0695  0874               	movf	?__Umul8_16+1,w
  5880  0696  1283               	bcf	3,5	;RP0=0, select bank0
  5881  0697  1303               	bcf	3,6	;RP1=0, select bank0
  5882  0698  00C3               	movwf	___flmul@temp+1
  5883  0699  0873               	movf	?__Umul8_16,w
  5884  069A  00C2               	movwf	___flmul@temp
  5885  069B                     l2430:
  5886  069B  0842               	movf	___flmul@temp,w
  5887  069C  00B2               	movwf	??___flmul
  5888  069D  0843               	movf	___flmul@temp+1,w
  5889  069E  00B3               	movwf	??___flmul+1
  5890  069F  01B4               	clrf	??___flmul+2
  5891  06A0  01B5               	clrf	??___flmul+3
  5892  06A1  0832               	movf	??___flmul,w
  5893  06A2  07BE               	addwf	___flmul@prod,f
  5894  06A3  0833               	movf	??___flmul+1,w
  5895  06A4  1103               	clrz
  5896  06A5  1803               	skipnc
  5897  06A6  3E01               	addlw	1
  5898  06A7  1903               	skipnz
  5899  06A8  2EAA               	goto	u3271
  5900  06A9  07BF               	addwf	___flmul@prod+1,f
  5901  06AA                     u3271:
  5902  06AA  0834               	movf	??___flmul+2,w
  5903  06AB  1103               	clrz
  5904  06AC  1803               	skipnc
  5905  06AD  3E01               	addlw	1
  5906  06AE  1903               	skipnz
  5907  06AF  2EB1               	goto	u3272
  5908  06B0  07C0               	addwf	___flmul@prod+2,f
  5909  06B1                     u3272:
  5910  06B1  0835               	movf	??___flmul+3,w
  5911  06B2  1103               	clrz
  5912  06B3  1803               	skipnc
  5913  06B4  3E01               	addlw	1
  5914  06B5  1903               	skipnz
  5915  06B6  2EB8               	goto	u3273
  5916  06B7  07C1               	addwf	___flmul@prod+3,f
  5917  06B8                     u3273:
  5918  06B8  082C               	movf	___flmul@b+2,w
  5919  06B9  00B2               	movwf	??___flmul
  5920  06BA  0832               	movf	??___flmul,w
  5921  06BB  00F3               	movwf	__Umul8_16@multiplicand
  5922  06BC  0830               	movf	___flmul@a+2,w
  5923  06BD  160A  118A  23B8  120A  118A  	fcall	__Umul8_16
  5924  06C2  0874               	movf	?__Umul8_16+1,w
  5925  06C3  1283               	bcf	3,5	;RP0=0, select bank0
  5926  06C4  1303               	bcf	3,6	;RP1=0, select bank0
  5927  06C5  00C3               	movwf	___flmul@temp+1
  5928  06C6  0873               	movf	?__Umul8_16,w
  5929  06C7  00C2               	movwf	___flmul@temp
  5930  06C8                     l2432:
  5931  06C8  0842               	movf	___flmul@temp,w
  5932  06C9  00B2               	movwf	??___flmul
  5933  06CA  0843               	movf	___flmul@temp+1,w
  5934  06CB  00B3               	movwf	??___flmul+1
  5935  06CC  01B4               	clrf	??___flmul+2
  5936  06CD  01B5               	clrf	??___flmul+3
  5937  06CE  3008               	movlw	8
  5938  06CF                     u3285:
  5939  06CF  1003               	clrc
  5940  06D0  0DB2               	rlf	??___flmul,f
  5941  06D1  0DB3               	rlf	??___flmul+1,f
  5942  06D2  0DB4               	rlf	??___flmul+2,f
  5943  06D3  0DB5               	rlf	??___flmul+3,f
  5944  06D4                     u3280:
  5945  06D4  3EFF               	addlw	-1
  5946  06D5  1D03               	skipz
  5947  06D6  2ECF               	goto	u3285
  5948  06D7  0832               	movf	??___flmul,w
  5949  06D8  07BE               	addwf	___flmul@prod,f
  5950  06D9  0833               	movf	??___flmul+1,w
  5951  06DA  1103               	clrz
  5952  06DB  1803               	skipnc
  5953  06DC  3E01               	addlw	1
  5954  06DD  1903               	skipnz
  5955  06DE  2EE0               	goto	u3291
  5956  06DF  07BF               	addwf	___flmul@prod+1,f
  5957  06E0                     u3291:
  5958  06E0  0834               	movf	??___flmul+2,w
  5959  06E1  1103               	clrz
  5960  06E2  1803               	skipnc
  5961  06E3  3E01               	addlw	1
  5962  06E4  1903               	skipnz
  5963  06E5  2EE7               	goto	u3292
  5964  06E6  07C0               	addwf	___flmul@prod+2,f
  5965  06E7                     u3292:
  5966  06E7  0835               	movf	??___flmul+3,w
  5967  06E8  1103               	clrz
  5968  06E9  1803               	skipnc
  5969  06EA  3E01               	addlw	1
  5970  06EB  1903               	skipnz
  5971  06EC  2EEE               	goto	u3293
  5972  06ED  07C1               	addwf	___flmul@prod+3,f
  5973  06EE                     u3293:
  5974  06EE                     l2434:
  5975  06EE  0838               	movf	___flmul@grs,w
  5976  06EF  00B2               	movwf	??___flmul
  5977  06F0  0839               	movf	___flmul@grs+1,w
  5978  06F1  00B3               	movwf	??___flmul+1
  5979  06F2  083A               	movf	___flmul@grs+2,w
  5980  06F3  00B4               	movwf	??___flmul+2
  5981  06F4  083B               	movf	___flmul@grs+3,w
  5982  06F5  00B5               	movwf	??___flmul+3
  5983  06F6  3018               	movlw	24
  5984  06F7                     u3305:
  5985  06F7  1003               	clrc
  5986  06F8  0CB5               	rrf	??___flmul+3,f
  5987  06F9  0CB4               	rrf	??___flmul+2,f
  5988  06FA  0CB3               	rrf	??___flmul+1,f
  5989  06FB  0CB2               	rrf	??___flmul,f
  5990  06FC                     u3300:
  5991  06FC  3EFF               	addlw	-1
  5992  06FD  1D03               	skipz
  5993  06FE  2EF7               	goto	u3305
  5994  06FF  0832               	movf	??___flmul,w
  5995  0700  07BE               	addwf	___flmul@prod,f
  5996  0701  0833               	movf	??___flmul+1,w
  5997  0702  1103               	clrz
  5998  0703  1803               	skipnc
  5999  0704  3E01               	addlw	1
  6000  0705  1903               	skipnz
  6001  0706  2F08               	goto	u3311
  6002  0707  07BF               	addwf	___flmul@prod+1,f
  6003  0708                     u3311:
  6004  0708  0834               	movf	??___flmul+2,w
  6005  0709  1103               	clrz
  6006  070A  1803               	skipnc
  6007  070B  3E01               	addlw	1
  6008  070C  1903               	skipnz
  6009  070D  2F0F               	goto	u3312
  6010  070E  07C0               	addwf	___flmul@prod+2,f
  6011  070F                     u3312:
  6012  070F  0835               	movf	??___flmul+3,w
  6013  0710  1103               	clrz
  6014  0711  1803               	skipnc
  6015  0712  3E01               	addlw	1
  6016  0713  1903               	skipnz
  6017  0714  2F16               	goto	u3313
  6018  0715  07C1               	addwf	___flmul@prod+3,f
  6019  0716                     u3313:
  6020  0716                     l2436:
  6021  0716  3008               	movlw	8
  6022  0717  00B2               	movwf	??___flmul
  6023  0718                     u3325:
  6024  0718  1003               	clrc
  6025  0719  0DB8               	rlf	___flmul@grs,f
  6026  071A  0DB9               	rlf	___flmul@grs+1,f
  6027  071B  0DBA               	rlf	___flmul@grs+2,f
  6028  071C  0DBB               	rlf	___flmul@grs+3,f
  6029  071D  0BB2               	decfsz	??___flmul,f
  6030  071E  2F18               	goto	u3325
  6031  071F                     l2438:
  6032  071F  083D               	movf	___flmul@bexp,w
  6033  0720  073C               	addwf	___flmul@aexp,w
  6034  0721  00B2               	movwf	??___flmul
  6035  0722  01B3               	clrf	??___flmul+1
  6036  0723  0DB3               	rlf	??___flmul+1,f
  6037  0724  0832               	movf	??___flmul,w
  6038  0725  3E82               	addlw	130
  6039  0726  00C2               	movwf	___flmul@temp
  6040  0727  0833               	movf	??___flmul+1,w
  6041  0728  1803               	skipnc
  6042  0729  3E01               	addlw	1
  6043  072A  3EFF               	addlw	255
  6044  072B  00C3               	movwf	___flmul@temp+1
  6045  072C  2F4A               	goto	l2450
  6046  072D                     l2440:
  6047  072D  3001               	movlw	1
  6048  072E  00B2               	movwf	??___flmul
  6049  072F                     u3335:
  6050  072F  1003               	clrc
  6051  0730  0DBE               	rlf	___flmul@prod,f
  6052  0731  0DBF               	rlf	___flmul@prod+1,f
  6053  0732  0DC0               	rlf	___flmul@prod+2,f
  6054  0733  0DC1               	rlf	___flmul@prod+3,f
  6055  0734  0BB2               	decfsz	??___flmul,f
  6056  0735  2F2F               	goto	u3335
  6057  0736                     l2442:
  6058  0736  1FBB               	btfss	___flmul@grs+3,7
  6059  0737  2F39               	goto	u3341
  6060  0738  2F3A               	goto	u3340
  6061  0739                     u3341:
  6062  0739  2F3B               	goto	l2446
  6063  073A                     u3340:
  6064  073A                     l2444:
  6065  073A  143E               	bsf	___flmul@prod,0
  6066  073B                     l2446:
  6067  073B  3001               	movlw	1
  6068  073C  00B2               	movwf	??___flmul
  6069  073D                     u3355:
  6070  073D  1003               	clrc
  6071  073E  0DB8               	rlf	___flmul@grs,f
  6072  073F  0DB9               	rlf	___flmul@grs+1,f
  6073  0740  0DBA               	rlf	___flmul@grs+2,f
  6074  0741  0DBB               	rlf	___flmul@grs+3,f
  6075  0742  0BB2               	decfsz	??___flmul,f
  6076  0743  2F3D               	goto	u3355
  6077  0744                     l2448:
  6078  0744  30FF               	movlw	255
  6079  0745  07C2               	addwf	___flmul@temp,f
  6080  0746  1803               	skipnc
  6081  0747  0AC3               	incf	___flmul@temp+1,f
  6082  0748  30FF               	movlw	255
  6083  0749  07C3               	addwf	___flmul@temp+1,f
  6084  074A                     l2450:
  6085  074A  1FC0               	btfss	___flmul@prod+2,7
  6086  074B  2F4D               	goto	u3361
  6087  074C  2F4E               	goto	u3360
  6088  074D                     u3361:
  6089  074D  2F2D               	goto	l2440
  6090  074E                     u3360:
  6091  074E                     l2452:
  6092  074E  01BC               	clrf	___flmul@aexp
  6093  074F                     l2454:
  6094  074F  1FBB               	btfss	___flmul@grs+3,7
  6095  0750  2F52               	goto	u3371
  6096  0751  2F53               	goto	u3370
  6097  0752                     u3371:
  6098  0752  2F6F               	goto	l2462
  6099  0753                     u3370:
  6100  0753                     l2456:
  6101  0753  30FF               	movlw	255
  6102  0754  0538               	andwf	___flmul@grs,w
  6103  0755  00B2               	movwf	??___flmul
  6104  0756  30FF               	movlw	255
  6105  0757  0539               	andwf	___flmul@grs+1,w
  6106  0758  00B3               	movwf	??___flmul+1
  6107  0759  30FF               	movlw	255
  6108  075A  053A               	andwf	___flmul@grs+2,w
  6109  075B  00B4               	movwf	??___flmul+2
  6110  075C  307F               	movlw	127
  6111  075D  053B               	andwf	___flmul@grs+3,w
  6112  075E  00B5               	movwf	??___flmul+3
  6113  075F  0835               	movf	??___flmul+3,w
  6114  0760  0434               	iorwf	??___flmul+2,w
  6115  0761  0433               	iorwf	??___flmul+1,w
  6116  0762  0432               	iorwf	??___flmul,w
  6117  0763  1903               	skipnz
  6118  0764  2F66               	goto	u3381
  6119  0765  2F67               	goto	u3380
  6120  0766                     u3381:
  6121  0766  2F6A               	goto	l708
  6122  0767                     u3380:
  6123  0767                     l2458:
  6124  0767  01BC               	clrf	___flmul@aexp
  6125  0768  0ABC               	incf	___flmul@aexp,f
  6126  0769  2F6F               	goto	l2462
  6127  076A                     l708:
  6128  076A  1C3E               	btfss	___flmul@prod,0
  6129  076B  2F6D               	goto	u3391
  6130  076C  2F6E               	goto	u3390
  6131  076D                     u3391:
  6132  076D  2F6F               	goto	l2462
  6133  076E                     u3390:
  6134  076E  2F67               	goto	l2458
  6135  076F                     l2462:
  6136  076F  083C               	movf	___flmul@aexp,w
  6137  0770  1903               	btfsc	3,2
  6138  0771  2F73               	goto	u3401
  6139  0772  2F74               	goto	u3400
  6140  0773                     u3401:
  6141  0773  2FA5               	goto	l2472
  6142  0774                     u3400:
  6143  0774                     l2464:
  6144  0774  3001               	movlw	1
  6145  0775  07BE               	addwf	___flmul@prod,f
  6146  0776  3000               	movlw	0
  6147  0777  1803               	skipnc
  6148  0778  3001               	movlw	1
  6149  0779  07BF               	addwf	___flmul@prod+1,f
  6150  077A  3000               	movlw	0
  6151  077B  1803               	skipnc
  6152  077C  3001               	movlw	1
  6153  077D  07C0               	addwf	___flmul@prod+2,f
  6154  077E  3000               	movlw	0
  6155  077F  1803               	skipnc
  6156  0780  3001               	movlw	1
  6157  0781  07C1               	addwf	___flmul@prod+3,f
  6158  0782                     l2466:
  6159  0782  1C41               	btfss	___flmul@prod+3,0
  6160  0783  2F85               	goto	u3411
  6161  0784  2F86               	goto	u3410
  6162  0785                     u3411:
  6163  0785  2FA5               	goto	l2472
  6164  0786                     u3410:
  6165  0786                     l2468:
  6166  0786  083E               	movf	___flmul@prod,w
  6167  0787  00B2               	movwf	??___flmul
  6168  0788  083F               	movf	___flmul@prod+1,w
  6169  0789  00B3               	movwf	??___flmul+1
  6170  078A  0840               	movf	___flmul@prod+2,w
  6171  078B  00B4               	movwf	??___flmul+2
  6172  078C  0841               	movf	___flmul@prod+3,w
  6173  078D  00B5               	movwf	??___flmul+3
  6174  078E  3001               	movlw	1
  6175  078F  00B6               	movwf	??___flmul+4
  6176  0790                     u3425:
  6177  0790  0D35               	rlf	??___flmul+3,w
  6178  0791  0CB5               	rrf	??___flmul+3,f
  6179  0792  0CB4               	rrf	??___flmul+2,f
  6180  0793  0CB3               	rrf	??___flmul+1,f
  6181  0794  0CB2               	rrf	??___flmul,f
  6182  0795                     u3420:
  6183  0795  0BB6               	decfsz	??___flmul+4,f
  6184  0796  2F90               	goto	u3425
  6185  0797  0835               	movf	??___flmul+3,w
  6186  0798  00C1               	movwf	___flmul@prod+3
  6187  0799  0834               	movf	??___flmul+2,w
  6188  079A  00C0               	movwf	___flmul@prod+2
  6189  079B  0833               	movf	??___flmul+1,w
  6190  079C  00BF               	movwf	___flmul@prod+1
  6191  079D  0832               	movf	??___flmul,w
  6192  079E  00BE               	movwf	___flmul@prod
  6193  079F                     l2470:
  6194  079F  3001               	movlw	1
  6195  07A0  07C2               	addwf	___flmul@temp,f
  6196  07A1  1803               	skipnc
  6197  07A2  0AC3               	incf	___flmul@temp+1,f
  6198  07A3  3000               	movlw	0
  6199  07A4  07C3               	addwf	___flmul@temp+1,f
  6200  07A5                     l2472:
  6201  07A5  0843               	movf	___flmul@temp+1,w
  6202  07A6  3A80               	xorlw	128
  6203  07A7  00FF               	movwf	btemp+1
  6204  07A8  3080               	movlw	128
  6205  07A9  027F               	subwf	btemp+1,w
  6206  07AA  1D03               	skipz
  6207  07AB  2FAE               	goto	u3435
  6208  07AC  30FF               	movlw	255
  6209  07AD  0242               	subwf	___flmul@temp,w
  6210  07AE                     u3435:
  6211  07AE  1C03               	skipc
  6212  07AF  2FB1               	goto	u3431
  6213  07B0  2FB2               	goto	u3430
  6214  07B1                     u3431:
  6215  07B1  2FBD               	goto	l2476
  6216  07B2                     u3430:
  6217  07B2                     l2474:
  6218  07B2  307F               	movlw	127
  6219  07B3  1283               	bcf	3,5	;RP0=0, select bank0
  6220  07B4  1303               	bcf	3,6	;RP1=0, select bank0
  6221  07B5  00C1               	movwf	___flmul@prod+3
  6222  07B6  3080               	movlw	128
  6223  07B7  00C0               	movwf	___flmul@prod+2
  6224  07B8  3000               	movlw	0
  6225  07B9  00BF               	movwf	___flmul@prod+1
  6226  07BA  3000               	movlw	0
  6227  07BB  00BE               	movwf	___flmul@prod
  6228  07BC  2FF2               	goto	l714
  6229  07BD                     l2476:
  6230  07BD  1283               	bcf	3,5	;RP0=0, select bank0
  6231  07BE  1303               	bcf	3,6	;RP1=0, select bank0
  6232  07BF  0843               	movf	___flmul@temp+1,w
  6233  07C0  3A80               	xorlw	128
  6234  07C1  00FF               	movwf	btemp+1
  6235  07C2  3080               	movlw	128
  6236  07C3  027F               	subwf	btemp+1,w
  6237  07C4  1D03               	skipz
  6238  07C5  2FC8               	goto	u3445
  6239  07C6  3001               	movlw	1
  6240  07C7  0242               	subwf	___flmul@temp,w
  6241  07C8                     u3445:
  6242  07C8  1803               	skipnc
  6243  07C9  2FCB               	goto	u3441
  6244  07CA  2FCC               	goto	u3440
  6245  07CB                     u3441:
  6246  07CB  2FD8               	goto	l2482
  6247  07CC                     u3440:
  6248  07CC                     l2478:
  6249  07CC  3000               	movlw	0
  6250  07CD  1283               	bcf	3,5	;RP0=0, select bank0
  6251  07CE  1303               	bcf	3,6	;RP1=0, select bank0
  6252  07CF  00C1               	movwf	___flmul@prod+3
  6253  07D0  3000               	movlw	0
  6254  07D1  00C0               	movwf	___flmul@prod+2
  6255  07D2  3000               	movlw	0
  6256  07D3  00BF               	movwf	___flmul@prod+1
  6257  07D4  3000               	movlw	0
  6258  07D5  00BE               	movwf	___flmul@prod
  6259  07D6                     l2480:
  6260  07D6  01B7               	clrf	___flmul@sign
  6261  07D7  2FF2               	goto	l714
  6262  07D8                     l2482:
  6263  07D8  1283               	bcf	3,5	;RP0=0, select bank0
  6264  07D9  1303               	bcf	3,6	;RP1=0, select bank0
  6265  07DA  0842               	movf	___flmul@temp,w
  6266  07DB  00B2               	movwf	??___flmul
  6267  07DC  0832               	movf	??___flmul,w
  6268  07DD  00BD               	movwf	___flmul@bexp
  6269  07DE  30FF               	movlw	255
  6270  07DF  05BE               	andwf	___flmul@prod,f
  6271  07E0  30FF               	movlw	255
  6272  07E1  05BF               	andwf	___flmul@prod+1,f
  6273  07E2  307F               	movlw	127
  6274  07E3  05C0               	andwf	___flmul@prod+2,f
  6275  07E4  3000               	movlw	0
  6276  07E5  05C1               	andwf	___flmul@prod+3,f
  6277  07E6                     l2484:
  6278  07E6  1C3D               	btfss	___flmul@bexp,0
  6279  07E7  2FE9               	goto	u3451
  6280  07E8  2FEA               	goto	u3450
  6281  07E9                     u3451:
  6282  07E9  2FEB               	goto	l2488
  6283  07EA                     u3450:
  6284  07EA                     l2486:
  6285  07EA  17C0               	bsf	___flmul@prod+2,7
  6286  07EB                     l2488:
  6287  07EB  083D               	movf	___flmul@bexp,w
  6288  07EC  00B2               	movwf	??___flmul
  6289  07ED  1003               	clrc
  6290  07EE  0C32               	rrf	??___flmul,w
  6291  07EF  00B3               	movwf	??___flmul+1
  6292  07F0  0833               	movf	??___flmul+1,w
  6293  07F1  00C1               	movwf	___flmul@prod+3
  6294  07F2                     l714:
  6295  07F2  0837               	movf	___flmul@sign,w
  6296  07F3  00B2               	movwf	??___flmul
  6297  07F4  0832               	movf	??___flmul,w
  6298  07F5  04C1               	iorwf	___flmul@prod+3,f
  6299  07F6                     l2490:
  6300  07F6  0841               	movf	___flmul@prod+3,w
  6301  07F7  00AD               	movwf	?___flmul+3
  6302  07F8  0840               	movf	___flmul@prod+2,w
  6303  07F9  00AC               	movwf	?___flmul+2
  6304  07FA  083F               	movf	___flmul@prod+1,w
  6305  07FB  00AB               	movwf	?___flmul+1
  6306  07FC  083E               	movf	___flmul@prod,w
  6307  07FD  00AA               	movwf	?___flmul
  6308  07FE                     l702:
  6309  07FE  0008               	return
  6310  07FF                     __end_of___flmul:
  6311                           
  6312                           	psect	text14
  6313  13B8                     __ptext14:	
  6314 ;; *************** function __Umul8_16 *****************
  6315 ;; Defined at:
  6316 ;;		line 4 in file "C:\Program Files\Microchip\xc8\v2.31\pic\sources\c90\common\Umul8_16.c"
  6317 ;; Parameters:    Size  Location     Type
  6318 ;;  multiplier      1    wreg     unsigned char 
  6319 ;;  multiplicand    1    3[COMMON] unsigned char 
  6320 ;; Auto vars:     Size  Location     Type
  6321 ;;  multiplier      1    4[BANK0 ] unsigned char 
  6322 ;;  word_mpld       2    2[BANK0 ] unsigned int 
  6323 ;;  product         2    0[BANK0 ] unsigned int 
  6324 ;; Return value:  Size  Location     Type
  6325 ;;                  2    3[COMMON] unsigned int 
  6326 ;; Registers used:
  6327 ;;		wreg, status,2, status,0
  6328 ;; Tracked objects:
  6329 ;;		On entry : 0/0
  6330 ;;		On exit  : 0/0
  6331 ;;		Unchanged: 0/0
  6332 ;; Data sizes:     COMMON   BANK0   BANK1   BANK3   BANK2
  6333 ;;      Params:         2       0       0       0       0
  6334 ;;      Locals:         0       5       0       0       0
  6335 ;;      Temps:          2       0       0       0       0
  6336 ;;      Totals:         4       5       0       0       0
  6337 ;;Total ram usage:        9 bytes
  6338 ;; Hardware stack levels used:    1
  6339 ;; Hardware stack levels required when called:    1
  6340 ;; This function calls:
  6341 ;;		Nothing
  6342 ;; This function is called by:
  6343 ;;		___flmul
  6344 ;; This function uses a non-reentrant model
  6345 ;;
  6346                           
  6347                           
  6348                           ;psect for function __Umul8_16
  6349  13B8                     __Umul8_16:
  6350                           
  6351                           ;incstack = 0
  6352                           ; Regs used in __Umul8_16: [wreg+status,2+status,0]
  6353                           ;__Umul8_16@multiplier stored from wreg
  6354  13B8  1283               	bcf	3,5	;RP0=0, select bank0
  6355  13B9  1303               	bcf	3,6	;RP1=0, select bank0
  6356  13BA  00A4               	movwf	__Umul8_16@multiplier
  6357  13BB                     l2246:
  6358  13BB  01A0               	clrf	__Umul8_16@product
  6359  13BC  01A1               	clrf	__Umul8_16@product+1
  6360  13BD                     l2248:
  6361  13BD  0873               	movf	__Umul8_16@multiplicand,w
  6362  13BE  00F5               	movwf	??__Umul8_16
  6363  13BF  01F6               	clrf	??__Umul8_16+1
  6364  13C0  0875               	movf	??__Umul8_16,w
  6365  13C1  00A2               	movwf	__Umul8_16@word_mpld
  6366  13C2  0876               	movf	??__Umul8_16+1,w
  6367  13C3  00A3               	movwf	__Umul8_16@word_mpld+1
  6368  13C4                     l2250:
  6369  13C4  1C24               	btfss	__Umul8_16@multiplier,0
  6370  13C5  2BC7               	goto	u2821
  6371  13C6  2BC8               	goto	u2820
  6372  13C7                     u2821:
  6373  13C7  2BCE               	goto	l721
  6374  13C8                     u2820:
  6375  13C8                     l2252:
  6376  13C8  0822               	movf	__Umul8_16@word_mpld,w
  6377  13C9  07A0               	addwf	__Umul8_16@product,f
  6378  13CA  1803               	skipnc
  6379  13CB  0AA1               	incf	__Umul8_16@product+1,f
  6380  13CC  0823               	movf	__Umul8_16@word_mpld+1,w
  6381  13CD  07A1               	addwf	__Umul8_16@product+1,f
  6382  13CE                     l721:
  6383  13CE  3001               	movlw	1
  6384  13CF                     u2835:
  6385  13CF  1003               	clrc
  6386  13D0  0DA2               	rlf	__Umul8_16@word_mpld,f
  6387  13D1  0DA3               	rlf	__Umul8_16@word_mpld+1,f
  6388  13D2  3EFF               	addlw	-1
  6389  13D3  1D03               	skipz
  6390  13D4  2BCF               	goto	u2835
  6391  13D5  1003               	clrc
  6392  13D6  0CA4               	rrf	__Umul8_16@multiplier,f
  6393  13D7                     l2254:
  6394  13D7  0824               	movf	__Umul8_16@multiplier,w
  6395  13D8  1D03               	btfss	3,2
  6396  13D9  2BDB               	goto	u2841
  6397  13DA  2BDC               	goto	u2840
  6398  13DB                     u2841:
  6399  13DB  2BC4               	goto	l2250
  6400  13DC                     u2840:
  6401  13DC                     l2256:
  6402  13DC  0821               	movf	__Umul8_16@product+1,w
  6403  13DD  00F4               	movwf	?__Umul8_16+1
  6404  13DE  0820               	movf	__Umul8_16@product,w
  6405  13DF  00F3               	movwf	?__Umul8_16
  6406  13E0                     l723:
  6407  13E0  0008               	return
  6408  13E1                     __end_of__Umul8_16:
  6409                           
  6410                           	psect	text15
  6411  15CB                     __ptext15:	
  6412 ;; *************** function ___flge *****************
  6413 ;; Defined at:
  6414 ;;		line 4 in file "C:\Program Files\Microchip\xc8\v2.31\pic\sources\c90\common\flge.c"
  6415 ;; Parameters:    Size  Location     Type
  6416 ;;  ff1             4    0[BANK0 ] unsigned int 
  6417 ;;  ff2             4    4[BANK0 ] unsigned int 
  6418 ;; Auto vars:     Size  Location     Type
  6419 ;;		None
  6420 ;; Return value:  Size  Location     Type
  6421 ;;		None               void
  6422 ;; Registers used:
  6423 ;;		wreg, status,2, status,0
  6424 ;; Tracked objects:
  6425 ;;		On entry : 0/0
  6426 ;;		On exit  : 0/0
  6427 ;;		Unchanged: 0/0
  6428 ;; Data sizes:     COMMON   BANK0   BANK1   BANK3   BANK2
  6429 ;;      Params:         0       8       0       0       0
  6430 ;;      Locals:         0       0       0       0       0
  6431 ;;      Temps:          4       0       0       0       0
  6432 ;;      Totals:         4       8       0       0       0
  6433 ;;Total ram usage:       12 bytes
  6434 ;; Hardware stack levels used:    1
  6435 ;; Hardware stack levels required when called:    1
  6436 ;; This function calls:
  6437 ;;		Nothing
  6438 ;; This function is called by:
  6439 ;;		_ftoa
  6440 ;; This function uses a non-reentrant model
  6441 ;;
  6442                           
  6443                           
  6444                           ;psect for function ___flge
  6445  15CB                     ___flge:
  6446  15CB                     l3064:	
  6447                           ;incstack = 0
  6448                           ; Regs used in ___flge: [wreg+status,2+status,0]
  6449                           
  6450  15CB  3000               	movlw	0
  6451  15CC  1283               	bcf	3,5	;RP0=0, select bank0
  6452  15CD  1303               	bcf	3,6	;RP1=0, select bank0
  6453  15CE  0520               	andwf	___flge@ff1,w
  6454  15CF  00F3               	movwf	??___flge
  6455  15D0  3000               	movlw	0
  6456  15D1  0521               	andwf	___flge@ff1+1,w
  6457  15D2  00F4               	movwf	??___flge+1
  6458  15D3  3080               	movlw	128
  6459  15D4  0522               	andwf	___flge@ff1+2,w
  6460  15D5  00F5               	movwf	??___flge+2
  6461  15D6  307F               	movlw	127
  6462  15D7  0523               	andwf	___flge@ff1+3,w
  6463  15D8  00F6               	movwf	??___flge+3
  6464  15D9  0876               	movf	??___flge+3,w
  6465  15DA  0475               	iorwf	??___flge+2,w
  6466  15DB  0474               	iorwf	??___flge+1,w
  6467  15DC  0473               	iorwf	??___flge,w
  6468  15DD  1D03               	skipz
  6469  15DE  2DE0               	goto	u4361
  6470  15DF  2DE1               	goto	u4360
  6471  15E0                     u4361:
  6472  15E0  2DE9               	goto	l487
  6473  15E1                     u4360:
  6474  15E1                     l3066:
  6475  15E1  3000               	movlw	0
  6476  15E2  00A3               	movwf	___flge@ff1+3
  6477  15E3  3000               	movlw	0
  6478  15E4  00A2               	movwf	___flge@ff1+2
  6479  15E5  3000               	movlw	0
  6480  15E6  00A1               	movwf	___flge@ff1+1
  6481  15E7  3000               	movlw	0
  6482  15E8  00A0               	movwf	___flge@ff1
  6483  15E9                     l487:
  6484  15E9  3000               	movlw	0
  6485  15EA  0524               	andwf	___flge@ff2,w
  6486  15EB  00F3               	movwf	??___flge
  6487  15EC  3000               	movlw	0
  6488  15ED  0525               	andwf	___flge@ff2+1,w
  6489  15EE  00F4               	movwf	??___flge+1
  6490  15EF  3080               	movlw	128
  6491  15F0  0526               	andwf	___flge@ff2+2,w
  6492  15F1  00F5               	movwf	??___flge+2
  6493  15F2  307F               	movlw	127
  6494  15F3  0527               	andwf	___flge@ff2+3,w
  6495  15F4  00F6               	movwf	??___flge+3
  6496  15F5  0876               	movf	??___flge+3,w
  6497  15F6  0475               	iorwf	??___flge+2,w
  6498  15F7  0474               	iorwf	??___flge+1,w
  6499  15F8  0473               	iorwf	??___flge,w
  6500  15F9  1D03               	skipz
  6501  15FA  2DFC               	goto	u4371
  6502  15FB  2DFD               	goto	u4370
  6503  15FC                     u4371:
  6504  15FC  2E05               	goto	l3070
  6505  15FD                     u4370:
  6506  15FD                     l3068:
  6507  15FD  3000               	movlw	0
  6508  15FE  00A7               	movwf	___flge@ff2+3
  6509  15FF  3000               	movlw	0
  6510  1600  00A6               	movwf	___flge@ff2+2
  6511  1601  3000               	movlw	0
  6512  1602  00A5               	movwf	___flge@ff2+1
  6513  1603  3000               	movlw	0
  6514  1604  00A4               	movwf	___flge@ff2
  6515  1605                     l3070:
  6516  1605  1FA3               	btfss	___flge@ff1+3,7
  6517  1606  2E08               	goto	u4381
  6518  1607  2E09               	goto	u4380
  6519  1608                     u4381:
  6520  1608  2E2D               	goto	l3074
  6521  1609                     u4380:
  6522  1609                     l3072:
  6523  1609  3000               	movlw	0
  6524  160A  00F3               	movwf	??___flge
  6525  160B  3000               	movlw	0
  6526  160C  00F4               	movwf	??___flge+1
  6527  160D  3000               	movlw	0
  6528  160E  00F5               	movwf	??___flge+2
  6529  160F  3080               	movlw	128
  6530  1610  00F6               	movwf	??___flge+3
  6531  1611  0820               	movf	___flge@ff1,w
  6532  1612  02F3               	subwf	??___flge,f
  6533  1613  0821               	movf	___flge@ff1+1,w
  6534  1614  1C03               	skipc
  6535  1615  0F21               	incfsz	___flge@ff1+1,w
  6536  1616  2E18               	goto	u4391
  6537  1617  2E19               	goto	u4392
  6538  1618                     u4391:
  6539  1618  02F4               	subwf	??___flge+1,f
  6540  1619                     u4392:
  6541  1619  0822               	movf	___flge@ff1+2,w
  6542  161A  1C03               	skipc
  6543  161B  0F22               	incfsz	___flge@ff1+2,w
  6544  161C  2E1E               	goto	u4393
  6545  161D  2E1F               	goto	u4394
  6546  161E                     u4393:
  6547  161E  02F5               	subwf	??___flge+2,f
  6548  161F                     u4394:
  6549  161F  0823               	movf	___flge@ff1+3,w
  6550  1620  1C03               	skipc
  6551  1621  0F23               	incfsz	___flge@ff1+3,w
  6552  1622  2E24               	goto	u4395
  6553  1623  2E25               	goto	u4396
  6554  1624                     u4395:
  6555  1624  02F6               	subwf	??___flge+3,f
  6556  1625                     u4396:
  6557  1625  0876               	movf	??___flge+3,w
  6558  1626  00A3               	movwf	___flge@ff1+3
  6559  1627  0875               	movf	??___flge+2,w
  6560  1628  00A2               	movwf	___flge@ff1+2
  6561  1629  0874               	movf	??___flge+1,w
  6562  162A  00A1               	movwf	___flge@ff1+1
  6563  162B  0873               	movf	??___flge,w
  6564  162C  00A0               	movwf	___flge@ff1
  6565  162D                     l3074:
  6566  162D  1FA7               	btfss	___flge@ff2+3,7
  6567  162E  2E30               	goto	u4401
  6568  162F  2E31               	goto	u4400
  6569  1630                     u4401:
  6570  1630  2E55               	goto	l490
  6571  1631                     u4400:
  6572  1631                     l3076:
  6573  1631  3000               	movlw	0
  6574  1632  00F3               	movwf	??___flge
  6575  1633  3000               	movlw	0
  6576  1634  00F4               	movwf	??___flge+1
  6577  1635  3000               	movlw	0
  6578  1636  00F5               	movwf	??___flge+2
  6579  1637  3080               	movlw	128
  6580  1638  00F6               	movwf	??___flge+3
  6581  1639  0824               	movf	___flge@ff2,w
  6582  163A  02F3               	subwf	??___flge,f
  6583  163B  0825               	movf	___flge@ff2+1,w
  6584  163C  1C03               	skipc
  6585  163D  0F25               	incfsz	___flge@ff2+1,w
  6586  163E  2E40               	goto	u4411
  6587  163F  2E41               	goto	u4412
  6588  1640                     u4411:
  6589  1640  02F4               	subwf	??___flge+1,f
  6590  1641                     u4412:
  6591  1641  0826               	movf	___flge@ff2+2,w
  6592  1642  1C03               	skipc
  6593  1643  0F26               	incfsz	___flge@ff2+2,w
  6594  1644  2E46               	goto	u4413
  6595  1645  2E47               	goto	u4414
  6596  1646                     u4413:
  6597  1646  02F5               	subwf	??___flge+2,f
  6598  1647                     u4414:
  6599  1647  0827               	movf	___flge@ff2+3,w
  6600  1648  1C03               	skipc
  6601  1649  0F27               	incfsz	___flge@ff2+3,w
  6602  164A  2E4C               	goto	u4415
  6603  164B  2E4D               	goto	u4416
  6604  164C                     u4415:
  6605  164C  02F6               	subwf	??___flge+3,f
  6606  164D                     u4416:
  6607  164D  0876               	movf	??___flge+3,w
  6608  164E  00A7               	movwf	___flge@ff2+3
  6609  164F  0875               	movf	??___flge+2,w
  6610  1650  00A6               	movwf	___flge@ff2+2
  6611  1651  0874               	movf	??___flge+1,w
  6612  1652  00A5               	movwf	___flge@ff2+1
  6613  1653  0873               	movf	??___flge,w
  6614  1654  00A4               	movwf	___flge@ff2
  6615  1655                     l490:
  6616  1655  3080               	movlw	128
  6617  1656  06A3               	xorwf	___flge@ff1+3,f
  6618  1657  3080               	movlw	128
  6619  1658  06A7               	xorwf	___flge@ff2+3,f
  6620  1659  0827               	movf	___flge@ff2+3,w
  6621  165A  0223               	subwf	___flge@ff1+3,w
  6622  165B  1D03               	skipz
  6623  165C  2E67               	goto	u4425
  6624  165D  0826               	movf	___flge@ff2+2,w
  6625  165E  0222               	subwf	___flge@ff1+2,w
  6626  165F  1D03               	skipz
  6627  1660  2E67               	goto	u4425
  6628  1661  0825               	movf	___flge@ff2+1,w
  6629  1662  0221               	subwf	___flge@ff1+1,w
  6630  1663  1D03               	skipz
  6631  1664  2E67               	goto	u4425
  6632  1665  0824               	movf	___flge@ff2,w
  6633  1666  0220               	subwf	___flge@ff1,w
  6634  1667                     u4425:
  6635  1667  1803               	skipnc
  6636  1668  2E6A               	goto	u4421
  6637  1669  2E6B               	goto	u4420
  6638  166A                     u4421:
  6639  166A  2E6D               	goto	l3080
  6640  166B                     u4420:
  6641  166B                     l3078:
  6642  166B  1003               	clrc
  6643  166C  2E6E               	goto	l491
  6644  166D                     l3080:
  6645  166D  1403               	setc
  6646  166E                     l491:
  6647  166E  0008               	return
  6648  166F                     __end_of___flge:
  6649                           
  6650                           	psect	text16
  6651  094F                     __ptext16:	
  6652 ;; *************** function ___fldiv *****************
  6653 ;; Defined at:
  6654 ;;		line 8 in file "C:\Program Files\Microchip\xc8\v2.31\pic\sources\c90\common\sprcdiv.c"
  6655 ;; Parameters:    Size  Location     Type
  6656 ;;  a               4   10[BANK0 ] unsigned int 
  6657 ;;  b               4   14[BANK0 ] unsigned int 
  6658 ;; Auto vars:     Size  Location     Type
  6659 ;;  grs             4   30[BANK0 ] unsigned long 
  6660 ;;  rem             4   23[BANK0 ] unsigned long 
  6661 ;;  new_exp         2   28[BANK0 ] int 
  6662 ;;  aexp            1   35[BANK0 ] unsigned char 
  6663 ;;  bexp            1   34[BANK0 ] unsigned char 
  6664 ;;  sign            1   27[BANK0 ] unsigned char 
  6665 ;; Return value:  Size  Location     Type
  6666 ;;                  4   10[BANK0 ] unsigned char 
  6667 ;; Registers used:
  6668 ;;		wreg, status,2, status,0, btemp+1
  6669 ;; Tracked objects:
  6670 ;;		On entry : 0/0
  6671 ;;		On exit  : 0/0
  6672 ;;		Unchanged: 0/0
  6673 ;; Data sizes:     COMMON   BANK0   BANK1   BANK3   BANK2
  6674 ;;      Params:         0       8       0       0       0
  6675 ;;      Locals:         0      13       0       0       0
  6676 ;;      Temps:          0       5       0       0       0
  6677 ;;      Totals:         0      26       0       0       0
  6678 ;;Total ram usage:       26 bytes
  6679 ;; Hardware stack levels used:    1
  6680 ;; Hardware stack levels required when called:    1
  6681 ;; This function calls:
  6682 ;;		Nothing
  6683 ;; This function is called by:
  6684 ;;		_GY_read
  6685 ;; This function uses a non-reentrant model
  6686 ;;
  6687                           
  6688                           
  6689                           ;psect for function ___fldiv
  6690  094F                     ___fldiv:
  6691  094F                     l2740:	
  6692                           ;incstack = 0
  6693                           ; Regs used in ___fldiv: [wreg+status,2+status,0+btemp+1]
  6694                           
  6695  094F  1283               	bcf	3,5	;RP0=0, select bank0
  6696  0950  1303               	bcf	3,6	;RP1=0, select bank0
  6697  0951  0831               	movf	___fldiv@b+3,w
  6698  0952  3980               	andlw	128
  6699  0953  00B2               	movwf	??___fldiv
  6700  0954  0832               	movf	??___fldiv,w
  6701  0955  00BB               	movwf	___fldiv@sign
  6702  0956                     l2742:
  6703  0956  0831               	movf	___fldiv@b+3,w
  6704  0957  00B2               	movwf	??___fldiv
  6705  0958  0732               	addwf	??___fldiv,w
  6706  0959  00B3               	movwf	??___fldiv+1
  6707  095A  0833               	movf	??___fldiv+1,w
  6708  095B  00C2               	movwf	___fldiv@bexp
  6709  095C                     l2744:
  6710  095C  1FB0               	btfss	___fldiv@b+2,7
  6711  095D  295F               	goto	u3901
  6712  095E  2960               	goto	u3900
  6713  095F                     u3901:
  6714  095F  2961               	goto	l2748
  6715  0960                     u3900:
  6716  0960                     l2746:
  6717  0960  1442               	bsf	___fldiv@bexp,0
  6718  0961                     l2748:
  6719  0961  0842               	movf	___fldiv@bexp,w
  6720  0962  1903               	btfsc	3,2
  6721  0963  2965               	goto	u3911
  6722  0964  2966               	goto	u3910
  6723  0965                     u3911:
  6724  0965  2976               	goto	l2758
  6725  0966                     u3910:
  6726  0966                     l2750:
  6727  0966  0A42               	incf	___fldiv@bexp,w
  6728  0967  1D03               	btfss	3,2
  6729  0968  296A               	goto	u3921
  6730  0969  296B               	goto	u3920
  6731  096A                     u3921:
  6732  096A  2973               	goto	l2754
  6733  096B                     u3920:
  6734  096B                     l2752:
  6735  096B  3000               	movlw	0
  6736  096C  00B1               	movwf	___fldiv@b+3
  6737  096D  3000               	movlw	0
  6738  096E  00B0               	movwf	___fldiv@b+2
  6739  096F  3000               	movlw	0
  6740  0970  00AF               	movwf	___fldiv@b+1
  6741  0971  3000               	movlw	0
  6742  0972  00AE               	movwf	___fldiv@b
  6743  0973                     l2754:
  6744  0973  17B0               	bsf	___fldiv@b+2,7
  6745  0974                     l2756:
  6746  0974  01B1               	clrf	___fldiv@b+3
  6747  0975  297E               	goto	l2760
  6748  0976                     l2758:
  6749  0976  3000               	movlw	0
  6750  0977  00B1               	movwf	___fldiv@b+3
  6751  0978  3000               	movlw	0
  6752  0979  00B0               	movwf	___fldiv@b+2
  6753  097A  3000               	movlw	0
  6754  097B  00AF               	movwf	___fldiv@b+1
  6755  097C  3000               	movlw	0
  6756  097D  00AE               	movwf	___fldiv@b
  6757  097E                     l2760:
  6758  097E  082D               	movf	___fldiv@a+3,w
  6759  097F  3980               	andlw	128
  6760  0980  00B2               	movwf	??___fldiv
  6761  0981  0832               	movf	??___fldiv,w
  6762  0982  06BB               	xorwf	___fldiv@sign,f
  6763  0983                     l2762:
  6764  0983  082D               	movf	___fldiv@a+3,w
  6765  0984  00B2               	movwf	??___fldiv
  6766  0985  0732               	addwf	??___fldiv,w
  6767  0986  00B3               	movwf	??___fldiv+1
  6768  0987  0833               	movf	??___fldiv+1,w
  6769  0988  00C3               	movwf	___fldiv@aexp
  6770  0989                     l2764:
  6771  0989  1FAC               	btfss	___fldiv@a+2,7
  6772  098A  298C               	goto	u3931
  6773  098B  298D               	goto	u3930
  6774  098C                     u3931:
  6775  098C  298E               	goto	l2768
  6776  098D                     u3930:
  6777  098D                     l2766:
  6778  098D  1443               	bsf	___fldiv@aexp,0
  6779  098E                     l2768:
  6780  098E  0843               	movf	___fldiv@aexp,w
  6781  098F  1903               	btfsc	3,2
  6782  0990  2992               	goto	u3941
  6783  0991  2993               	goto	u3940
  6784  0992                     u3941:
  6785  0992  29A3               	goto	l2778
  6786  0993                     u3940:
  6787  0993                     l2770:
  6788  0993  0A43               	incf	___fldiv@aexp,w
  6789  0994  1D03               	btfss	3,2
  6790  0995  2997               	goto	u3951
  6791  0996  2998               	goto	u3950
  6792  0997                     u3951:
  6793  0997  29A0               	goto	l2774
  6794  0998                     u3950:
  6795  0998                     l2772:
  6796  0998  3000               	movlw	0
  6797  0999  00AD               	movwf	___fldiv@a+3
  6798  099A  3000               	movlw	0
  6799  099B  00AC               	movwf	___fldiv@a+2
  6800  099C  3000               	movlw	0
  6801  099D  00AB               	movwf	___fldiv@a+1
  6802  099E  3000               	movlw	0
  6803  099F  00AA               	movwf	___fldiv@a
  6804  09A0                     l2774:
  6805  09A0  17AC               	bsf	___fldiv@a+2,7
  6806  09A1                     l2776:
  6807  09A1  01AD               	clrf	___fldiv@a+3
  6808  09A2  29AB               	goto	l662
  6809  09A3                     l2778:
  6810  09A3  3000               	movlw	0
  6811  09A4  00AD               	movwf	___fldiv@a+3
  6812  09A5  3000               	movlw	0
  6813  09A6  00AC               	movwf	___fldiv@a+2
  6814  09A7  3000               	movlw	0
  6815  09A8  00AB               	movwf	___fldiv@a+1
  6816  09A9  3000               	movlw	0
  6817  09AA  00AA               	movwf	___fldiv@a
  6818  09AB                     l662:
  6819  09AB  082D               	movf	___fldiv@a+3,w
  6820  09AC  042C               	iorwf	___fldiv@a+2,w
  6821  09AD  042B               	iorwf	___fldiv@a+1,w
  6822  09AE  042A               	iorwf	___fldiv@a,w
  6823  09AF  1D03               	skipz
  6824  09B0  29B2               	goto	u3961
  6825  09B1  29B3               	goto	u3960
  6826  09B2                     u3961:
  6827  09B2  29CC               	goto	l2788
  6828  09B3                     u3960:
  6829  09B3                     l2780:
  6830  09B3  3000               	movlw	0
  6831  09B4  00B1               	movwf	___fldiv@b+3
  6832  09B5  3000               	movlw	0
  6833  09B6  00B0               	movwf	___fldiv@b+2
  6834  09B7  3000               	movlw	0
  6835  09B8  00AF               	movwf	___fldiv@b+1
  6836  09B9  3000               	movlw	0
  6837  09BA  00AE               	movwf	___fldiv@b
  6838  09BB  3080               	movlw	128
  6839  09BC  04B0               	iorwf	___fldiv@b+2,f
  6840  09BD  307F               	movlw	127
  6841  09BE  04B1               	iorwf	___fldiv@b+3,f
  6842  09BF                     l2782:
  6843  09BF  083B               	movf	___fldiv@sign,w
  6844  09C0  00B2               	movwf	??___fldiv
  6845  09C1  0832               	movf	??___fldiv,w
  6846  09C2  04B1               	iorwf	___fldiv@b+3,f
  6847  09C3                     l2784:
  6848  09C3  0831               	movf	___fldiv@b+3,w
  6849  09C4  00AD               	movwf	?___fldiv+3
  6850  09C5  0830               	movf	___fldiv@b+2,w
  6851  09C6  00AC               	movwf	?___fldiv+2
  6852  09C7  082F               	movf	___fldiv@b+1,w
  6853  09C8  00AB               	movwf	?___fldiv+1
  6854  09C9  082E               	movf	___fldiv@b,w
  6855  09CA  00AA               	movwf	?___fldiv
  6856  09CB  2B2B               	goto	l664
  6857  09CC                     l2788:
  6858  09CC  0842               	movf	___fldiv@bexp,w
  6859  09CD  1D03               	btfss	3,2
  6860  09CE  29D0               	goto	u3971
  6861  09CF  29D1               	goto	u3970
  6862  09D0                     u3971:
  6863  09D0  29DA               	goto	l2794
  6864  09D1                     u3970:
  6865  09D1                     l2790:
  6866  09D1  3000               	movlw	0
  6867  09D2  00AD               	movwf	?___fldiv+3
  6868  09D3  3000               	movlw	0
  6869  09D4  00AC               	movwf	?___fldiv+2
  6870  09D5  3000               	movlw	0
  6871  09D6  00AB               	movwf	?___fldiv+1
  6872  09D7  3000               	movlw	0
  6873  09D8  00AA               	movwf	?___fldiv
  6874  09D9  2B2B               	goto	l664
  6875  09DA                     l2794:
  6876  09DA  0842               	movf	___fldiv@bexp,w
  6877  09DB  00B2               	movwf	??___fldiv
  6878  09DC  01B3               	clrf	??___fldiv+1
  6879  09DD  0833               	movf	??___fldiv+1,w
  6880  09DE  00B5               	movwf	??___fldiv+3
  6881  09DF  0843               	movf	___fldiv@aexp,w
  6882  09E0  0232               	subwf	??___fldiv,w
  6883  09E1  00B4               	movwf	??___fldiv+2
  6884  09E2  1C03               	skipc
  6885  09E3  03B5               	decf	??___fldiv+3,f
  6886  09E4  0834               	movf	??___fldiv+2,w
  6887  09E5  3E7F               	addlw	127
  6888  09E6  00BC               	movwf	___fldiv@new_exp
  6889  09E7  0835               	movf	??___fldiv+3,w
  6890  09E8  1803               	skipnc
  6891  09E9  3E01               	addlw	1
  6892  09EA  3E00               	addlw	0
  6893  09EB  00BD               	movwf	___fldiv@new_exp+1
  6894  09EC                     l2796:
  6895  09EC  0831               	movf	___fldiv@b+3,w
  6896  09ED  00BA               	movwf	___fldiv@rem+3
  6897  09EE  0830               	movf	___fldiv@b+2,w
  6898  09EF  00B9               	movwf	___fldiv@rem+2
  6899  09F0  082F               	movf	___fldiv@b+1,w
  6900  09F1  00B8               	movwf	___fldiv@rem+1
  6901  09F2  082E               	movf	___fldiv@b,w
  6902  09F3  00B7               	movwf	___fldiv@rem
  6903  09F4                     l2798:
  6904  09F4  3000               	movlw	0
  6905  09F5  00B1               	movwf	___fldiv@b+3
  6906  09F6  3000               	movlw	0
  6907  09F7  00B0               	movwf	___fldiv@b+2
  6908  09F8  3000               	movlw	0
  6909  09F9  00AF               	movwf	___fldiv@b+1
  6910  09FA  3000               	movlw	0
  6911  09FB  00AE               	movwf	___fldiv@b
  6912  09FC                     l2800:
  6913  09FC  3000               	movlw	0
  6914  09FD  00C1               	movwf	___fldiv@grs+3
  6915  09FE  3000               	movlw	0
  6916  09FF  00C0               	movwf	___fldiv@grs+2
  6917  0A00  3000               	movlw	0
  6918  0A01  00BF               	movwf	___fldiv@grs+1
  6919  0A02  3000               	movlw	0
  6920  0A03  00BE               	movwf	___fldiv@grs
  6921  0A04                     l2802:
  6922  0A04  01C3               	clrf	___fldiv@aexp
  6923  0A05  2A50               	goto	l2822
  6924  0A06                     l2804:
  6925  0A06  0843               	movf	___fldiv@aexp,w
  6926  0A07  1903               	btfsc	3,2
  6927  0A08  2A0A               	goto	u3981
  6928  0A09  2A0B               	goto	u3980
  6929  0A0A                     u3981:
  6930  0A0A  2A2B               	goto	l2814
  6931  0A0B                     u3980:
  6932  0A0B                     l2806:
  6933  0A0B  3001               	movlw	1
  6934  0A0C  00B2               	movwf	??___fldiv
  6935  0A0D                     u3995:
  6936  0A0D  1003               	clrc
  6937  0A0E  0DB7               	rlf	___fldiv@rem,f
  6938  0A0F  0DB8               	rlf	___fldiv@rem+1,f
  6939  0A10  0DB9               	rlf	___fldiv@rem+2,f
  6940  0A11  0DBA               	rlf	___fldiv@rem+3,f
  6941  0A12  0BB2               	decfsz	??___fldiv,f
  6942  0A13  2A0D               	goto	u3995
  6943  0A14  3001               	movlw	1
  6944  0A15  00B2               	movwf	??___fldiv
  6945  0A16                     u4005:
  6946  0A16  1003               	clrc
  6947  0A17  0DAE               	rlf	___fldiv@b,f
  6948  0A18  0DAF               	rlf	___fldiv@b+1,f
  6949  0A19  0DB0               	rlf	___fldiv@b+2,f
  6950  0A1A  0DB1               	rlf	___fldiv@b+3,f
  6951  0A1B  0BB2               	decfsz	??___fldiv,f
  6952  0A1C  2A16               	goto	u4005
  6953  0A1D                     l2808:
  6954  0A1D  1FC1               	btfss	___fldiv@grs+3,7
  6955  0A1E  2A20               	goto	u4011
  6956  0A1F  2A21               	goto	u4010
  6957  0A20                     u4011:
  6958  0A20  2A22               	goto	l2812
  6959  0A21                     u4010:
  6960  0A21                     l2810:
  6961  0A21  142E               	bsf	___fldiv@b,0
  6962  0A22                     l2812:
  6963  0A22  3001               	movlw	1
  6964  0A23  00B2               	movwf	??___fldiv
  6965  0A24                     u4025:
  6966  0A24  1003               	clrc
  6967  0A25  0DBE               	rlf	___fldiv@grs,f
  6968  0A26  0DBF               	rlf	___fldiv@grs+1,f
  6969  0A27  0DC0               	rlf	___fldiv@grs+2,f
  6970  0A28  0DC1               	rlf	___fldiv@grs+3,f
  6971  0A29  0BB2               	decfsz	??___fldiv,f
  6972  0A2A  2A24               	goto	u4025
  6973  0A2B                     l2814:
  6974  0A2B  082D               	movf	___fldiv@a+3,w
  6975  0A2C  023A               	subwf	___fldiv@rem+3,w
  6976  0A2D  1D03               	skipz
  6977  0A2E  2A39               	goto	u4035
  6978  0A2F  082C               	movf	___fldiv@a+2,w
  6979  0A30  0239               	subwf	___fldiv@rem+2,w
  6980  0A31  1D03               	skipz
  6981  0A32  2A39               	goto	u4035
  6982  0A33  082B               	movf	___fldiv@a+1,w
  6983  0A34  0238               	subwf	___fldiv@rem+1,w
  6984  0A35  1D03               	skipz
  6985  0A36  2A39               	goto	u4035
  6986  0A37  082A               	movf	___fldiv@a,w
  6987  0A38  0237               	subwf	___fldiv@rem,w
  6988  0A39                     u4035:
  6989  0A39  1C03               	skipc
  6990  0A3A  2A3C               	goto	u4031
  6991  0A3B  2A3D               	goto	u4030
  6992  0A3C                     u4031:
  6993  0A3C  2A4C               	goto	l2820
  6994  0A3D                     u4030:
  6995  0A3D                     l2816:
  6996  0A3D  1741               	bsf	___fldiv@grs+3,6
  6997  0A3E                     l2818:
  6998  0A3E  082A               	movf	___fldiv@a,w
  6999  0A3F  02B7               	subwf	___fldiv@rem,f
  7000  0A40  082B               	movf	___fldiv@a+1,w
  7001  0A41  1C03               	skipc
  7002  0A42  0F2B               	incfsz	___fldiv@a+1,w
  7003  0A43  02B8               	subwf	___fldiv@rem+1,f
  7004  0A44  082C               	movf	___fldiv@a+2,w
  7005  0A45  1C03               	skipc
  7006  0A46  0F2C               	incfsz	___fldiv@a+2,w
  7007  0A47  02B9               	subwf	___fldiv@rem+2,f
  7008  0A48  082D               	movf	___fldiv@a+3,w
  7009  0A49  1C03               	skipc
  7010  0A4A  0F2D               	incfsz	___fldiv@a+3,w
  7011  0A4B  02BA               	subwf	___fldiv@rem+3,f
  7012  0A4C                     l2820:
  7013  0A4C  3001               	movlw	1
  7014  0A4D  00B2               	movwf	??___fldiv
  7015  0A4E  0832               	movf	??___fldiv,w
  7016  0A4F  07C3               	addwf	___fldiv@aexp,f
  7017  0A50                     l2822:
  7018  0A50  301A               	movlw	26
  7019  0A51  0243               	subwf	___fldiv@aexp,w
  7020  0A52  1C03               	skipc
  7021  0A53  2A55               	goto	u4041
  7022  0A54  2A56               	goto	u4040
  7023  0A55                     u4041:
  7024  0A55  2A06               	goto	l2804
  7025  0A56                     u4040:
  7026  0A56                     l2824:
  7027  0A56  083A               	movf	___fldiv@rem+3,w
  7028  0A57  0439               	iorwf	___fldiv@rem+2,w
  7029  0A58  0438               	iorwf	___fldiv@rem+1,w
  7030  0A59  0437               	iorwf	___fldiv@rem,w
  7031  0A5A  1903               	skipnz
  7032  0A5B  2A5D               	goto	u4051
  7033  0A5C  2A5E               	goto	u4050
  7034  0A5D                     u4051:
  7035  0A5D  2A7D               	goto	l2838
  7036  0A5E                     u4050:
  7037  0A5E                     l2826:
  7038  0A5E  143E               	bsf	___fldiv@grs,0
  7039  0A5F  2A7D               	goto	l2838
  7040  0A60                     l2828:
  7041  0A60  3001               	movlw	1
  7042  0A61  00B2               	movwf	??___fldiv
  7043  0A62                     u4065:
  7044  0A62  1003               	clrc
  7045  0A63  0DAE               	rlf	___fldiv@b,f
  7046  0A64  0DAF               	rlf	___fldiv@b+1,f
  7047  0A65  0DB0               	rlf	___fldiv@b+2,f
  7048  0A66  0DB1               	rlf	___fldiv@b+3,f
  7049  0A67  0BB2               	decfsz	??___fldiv,f
  7050  0A68  2A62               	goto	u4065
  7051  0A69                     l2830:
  7052  0A69  1FC1               	btfss	___fldiv@grs+3,7
  7053  0A6A  2A6C               	goto	u4071
  7054  0A6B  2A6D               	goto	u4070
  7055  0A6C                     u4071:
  7056  0A6C  2A6E               	goto	l2834
  7057  0A6D                     u4070:
  7058  0A6D                     l2832:
  7059  0A6D  142E               	bsf	___fldiv@b,0
  7060  0A6E                     l2834:
  7061  0A6E  3001               	movlw	1
  7062  0A6F  00B2               	movwf	??___fldiv
  7063  0A70                     u4085:
  7064  0A70  1003               	clrc
  7065  0A71  0DBE               	rlf	___fldiv@grs,f
  7066  0A72  0DBF               	rlf	___fldiv@grs+1,f
  7067  0A73  0DC0               	rlf	___fldiv@grs+2,f
  7068  0A74  0DC1               	rlf	___fldiv@grs+3,f
  7069  0A75  0BB2               	decfsz	??___fldiv,f
  7070  0A76  2A70               	goto	u4085
  7071  0A77                     l2836:
  7072  0A77  30FF               	movlw	255
  7073  0A78  07BC               	addwf	___fldiv@new_exp,f
  7074  0A79  1803               	skipnc
  7075  0A7A  0ABD               	incf	___fldiv@new_exp+1,f
  7076  0A7B  30FF               	movlw	255
  7077  0A7C  07BD               	addwf	___fldiv@new_exp+1,f
  7078  0A7D                     l2838:
  7079  0A7D  1FB0               	btfss	___fldiv@b+2,7
  7080  0A7E  2A80               	goto	u4091
  7081  0A7F  2A81               	goto	u4090
  7082  0A80                     u4091:
  7083  0A80  2A60               	goto	l2828
  7084  0A81                     u4090:
  7085  0A81                     l2840:
  7086  0A81  01C3               	clrf	___fldiv@aexp
  7087  0A82                     l2842:
  7088  0A82  1FC1               	btfss	___fldiv@grs+3,7
  7089  0A83  2A85               	goto	u4101
  7090  0A84  2A86               	goto	u4100
  7091  0A85                     u4101:
  7092  0A85  2AA2               	goto	l2850
  7093  0A86                     u4100:
  7094  0A86                     l2844:
  7095  0A86  30FF               	movlw	255
  7096  0A87  053E               	andwf	___fldiv@grs,w
  7097  0A88  00B2               	movwf	??___fldiv
  7098  0A89  30FF               	movlw	255
  7099  0A8A  053F               	andwf	___fldiv@grs+1,w
  7100  0A8B  00B3               	movwf	??___fldiv+1
  7101  0A8C  30FF               	movlw	255
  7102  0A8D  0540               	andwf	___fldiv@grs+2,w
  7103  0A8E  00B4               	movwf	??___fldiv+2
  7104  0A8F  307F               	movlw	127
  7105  0A90  0541               	andwf	___fldiv@grs+3,w
  7106  0A91  00B5               	movwf	??___fldiv+3
  7107  0A92  0835               	movf	??___fldiv+3,w
  7108  0A93  0434               	iorwf	??___fldiv+2,w
  7109  0A94  0433               	iorwf	??___fldiv+1,w
  7110  0A95  0432               	iorwf	??___fldiv,w
  7111  0A96  1903               	skipnz
  7112  0A97  2A99               	goto	u4111
  7113  0A98  2A9A               	goto	u4110
  7114  0A99                     u4111:
  7115  0A99  2A9D               	goto	l678
  7116  0A9A                     u4110:
  7117  0A9A                     l2846:
  7118  0A9A  01C3               	clrf	___fldiv@aexp
  7119  0A9B  0AC3               	incf	___fldiv@aexp,f
  7120  0A9C  2AA2               	goto	l2850
  7121  0A9D                     l678:
  7122  0A9D  1C2E               	btfss	___fldiv@b,0
  7123  0A9E  2AA0               	goto	u4121
  7124  0A9F  2AA1               	goto	u4120
  7125  0AA0                     u4121:
  7126  0AA0  2AA2               	goto	l2850
  7127  0AA1                     u4120:
  7128  0AA1  2A9A               	goto	l2846
  7129  0AA2                     l2850:
  7130  0AA2  0843               	movf	___fldiv@aexp,w
  7131  0AA3  1903               	btfsc	3,2
  7132  0AA4  2AA6               	goto	u4131
  7133  0AA5  2AA7               	goto	u4130
  7134  0AA6                     u4131:
  7135  0AA6  2AD8               	goto	l2860
  7136  0AA7                     u4130:
  7137  0AA7                     l2852:
  7138  0AA7  3001               	movlw	1
  7139  0AA8  07AE               	addwf	___fldiv@b,f
  7140  0AA9  3000               	movlw	0
  7141  0AAA  1803               	skipnc
  7142  0AAB  3001               	movlw	1
  7143  0AAC  07AF               	addwf	___fldiv@b+1,f
  7144  0AAD  3000               	movlw	0
  7145  0AAE  1803               	skipnc
  7146  0AAF  3001               	movlw	1
  7147  0AB0  07B0               	addwf	___fldiv@b+2,f
  7148  0AB1  3000               	movlw	0
  7149  0AB2  1803               	skipnc
  7150  0AB3  3001               	movlw	1
  7151  0AB4  07B1               	addwf	___fldiv@b+3,f
  7152  0AB5                     l2854:
  7153  0AB5  1C31               	btfss	___fldiv@b+3,0
  7154  0AB6  2AB8               	goto	u4141
  7155  0AB7  2AB9               	goto	u4140
  7156  0AB8                     u4141:
  7157  0AB8  2AD8               	goto	l2860
  7158  0AB9                     u4140:
  7159  0AB9                     l2856:
  7160  0AB9  082E               	movf	___fldiv@b,w
  7161  0ABA  00B2               	movwf	??___fldiv
  7162  0ABB  082F               	movf	___fldiv@b+1,w
  7163  0ABC  00B3               	movwf	??___fldiv+1
  7164  0ABD  0830               	movf	___fldiv@b+2,w
  7165  0ABE  00B4               	movwf	??___fldiv+2
  7166  0ABF  0831               	movf	___fldiv@b+3,w
  7167  0AC0  00B5               	movwf	??___fldiv+3
  7168  0AC1  3001               	movlw	1
  7169  0AC2  00B6               	movwf	??___fldiv+4
  7170  0AC3                     u4155:
  7171  0AC3  0D35               	rlf	??___fldiv+3,w
  7172  0AC4  0CB5               	rrf	??___fldiv+3,f
  7173  0AC5  0CB4               	rrf	??___fldiv+2,f
  7174  0AC6  0CB3               	rrf	??___fldiv+1,f
  7175  0AC7  0CB2               	rrf	??___fldiv,f
  7176  0AC8                     u4150:
  7177  0AC8  0BB6               	decfsz	??___fldiv+4,f
  7178  0AC9  2AC3               	goto	u4155
  7179  0ACA  0835               	movf	??___fldiv+3,w
  7180  0ACB  00B1               	movwf	___fldiv@b+3
  7181  0ACC  0834               	movf	??___fldiv+2,w
  7182  0ACD  00B0               	movwf	___fldiv@b+2
  7183  0ACE  0833               	movf	??___fldiv+1,w
  7184  0ACF  00AF               	movwf	___fldiv@b+1
  7185  0AD0  0832               	movf	??___fldiv,w
  7186  0AD1  00AE               	movwf	___fldiv@b
  7187  0AD2                     l2858:
  7188  0AD2  3001               	movlw	1
  7189  0AD3  07BC               	addwf	___fldiv@new_exp,f
  7190  0AD4  1803               	skipnc
  7191  0AD5  0ABD               	incf	___fldiv@new_exp+1,f
  7192  0AD6  3000               	movlw	0
  7193  0AD7  07BD               	addwf	___fldiv@new_exp+1,f
  7194  0AD8                     l2860:
  7195  0AD8  083D               	movf	___fldiv@new_exp+1,w
  7196  0AD9  3A80               	xorlw	128
  7197  0ADA  00FF               	movwf	btemp+1
  7198  0ADB  3080               	movlw	128
  7199  0ADC  027F               	subwf	btemp+1,w
  7200  0ADD  1D03               	skipz
  7201  0ADE  2AE1               	goto	u4165
  7202  0ADF  30FF               	movlw	255
  7203  0AE0  023C               	subwf	___fldiv@new_exp,w
  7204  0AE1                     u4165:
  7205  0AE1  1C03               	skipc
  7206  0AE2  2AE4               	goto	u4161
  7207  0AE3  2AE5               	goto	u4160
  7208  0AE4                     u4161:
  7209  0AE4  2AF3               	goto	l2864
  7210  0AE5                     u4160:
  7211  0AE5                     l2862:
  7212  0AE5  30FF               	movlw	255
  7213  0AE6  1283               	bcf	3,5	;RP0=0, select bank0
  7214  0AE7  1303               	bcf	3,6	;RP1=0, select bank0
  7215  0AE8  00BC               	movwf	___fldiv@new_exp
  7216  0AE9  3000               	movlw	0
  7217  0AEA  00BD               	movwf	___fldiv@new_exp+1
  7218  0AEB  3000               	movlw	0
  7219  0AEC  00B1               	movwf	___fldiv@b+3
  7220  0AED  3000               	movlw	0
  7221  0AEE  00B0               	movwf	___fldiv@b+2
  7222  0AEF  3000               	movlw	0
  7223  0AF0  00AF               	movwf	___fldiv@b+1
  7224  0AF1  3000               	movlw	0
  7225  0AF2  00AE               	movwf	___fldiv@b
  7226  0AF3                     l2864:
  7227  0AF3  1283               	bcf	3,5	;RP0=0, select bank0
  7228  0AF4  1303               	bcf	3,6	;RP1=0, select bank0
  7229  0AF5  083D               	movf	___fldiv@new_exp+1,w
  7230  0AF6  3A80               	xorlw	128
  7231  0AF7  00FF               	movwf	btemp+1
  7232  0AF8  3080               	movlw	128
  7233  0AF9  027F               	subwf	btemp+1,w
  7234  0AFA  1D03               	skipz
  7235  0AFB  2AFE               	goto	u4175
  7236  0AFC  3001               	movlw	1
  7237  0AFD  023C               	subwf	___fldiv@new_exp,w
  7238  0AFE                     u4175:
  7239  0AFE  1803               	skipnc
  7240  0AFF  2B01               	goto	u4171
  7241  0B00  2B02               	goto	u4170
  7242  0B01                     u4171:
  7243  0B01  2B0F               	goto	l684
  7244  0B02                     u4170:
  7245  0B02                     l2866:
  7246  0B02  1283               	bcf	3,5	;RP0=0, select bank0
  7247  0B03  1303               	bcf	3,6	;RP1=0, select bank0
  7248  0B04  01BC               	clrf	___fldiv@new_exp
  7249  0B05  01BD               	clrf	___fldiv@new_exp+1
  7250  0B06                     l2868:
  7251  0B06  3000               	movlw	0
  7252  0B07  00B1               	movwf	___fldiv@b+3
  7253  0B08  3000               	movlw	0
  7254  0B09  00B0               	movwf	___fldiv@b+2
  7255  0B0A  3000               	movlw	0
  7256  0B0B  00AF               	movwf	___fldiv@b+1
  7257  0B0C  3000               	movlw	0
  7258  0B0D  00AE               	movwf	___fldiv@b
  7259  0B0E                     l2870:
  7260  0B0E  01BB               	clrf	___fldiv@sign
  7261  0B0F                     l684:
  7262  0B0F  1283               	bcf	3,5	;RP0=0, select bank0
  7263  0B10  1303               	bcf	3,6	;RP1=0, select bank0
  7264  0B11  083C               	movf	___fldiv@new_exp,w
  7265  0B12  00B2               	movwf	??___fldiv
  7266  0B13  0832               	movf	??___fldiv,w
  7267  0B14  00C2               	movwf	___fldiv@bexp
  7268  0B15                     l2872:
  7269  0B15  1C42               	btfss	___fldiv@bexp,0
  7270  0B16  2B18               	goto	u4181
  7271  0B17  2B19               	goto	u4180
  7272  0B18                     u4181:
  7273  0B18  2B1B               	goto	l2876
  7274  0B19                     u4180:
  7275  0B19                     l2874:
  7276  0B19  17B0               	bsf	___fldiv@b+2,7
  7277  0B1A  2B1F               	goto	l686
  7278  0B1B                     l2876:
  7279  0B1B  307F               	movlw	127
  7280  0B1C  00B2               	movwf	??___fldiv
  7281  0B1D  0832               	movf	??___fldiv,w
  7282  0B1E  05B0               	andwf	___fldiv@b+2,f
  7283  0B1F                     l686:
  7284  0B1F  0842               	movf	___fldiv@bexp,w
  7285  0B20  00B2               	movwf	??___fldiv
  7286  0B21  1003               	clrc
  7287  0B22  0C32               	rrf	??___fldiv,w
  7288  0B23  00B3               	movwf	??___fldiv+1
  7289  0B24  0833               	movf	??___fldiv+1,w
  7290  0B25  00B1               	movwf	___fldiv@b+3
  7291  0B26  083B               	movf	___fldiv@sign,w
  7292  0B27  00B2               	movwf	??___fldiv
  7293  0B28  0832               	movf	??___fldiv,w
  7294  0B29  04B1               	iorwf	___fldiv@b+3,f
  7295  0B2A  29C3               	goto	l2784
  7296  0B2B                     l664:
  7297  0B2B  0008               	return
  7298  0B2C                     __end_of___fldiv:
  7299                           
  7300                           	psect	text17
  7301  1490                     __ptext17:	
  7302 ;; *************** function _UARTSendString *****************
  7303 ;; Defined at:
  7304 ;;		line 50 in file "UART.c"
  7305 ;; Parameters:    Size  Location     Type
  7306 ;;  str             2    4[COMMON] PTR const unsigned char 
  7307 ;;		 -> ftoa@buf(17), STR_6(2), STR_5(2), STR_4(2), 
  7308 ;;		 -> STR_3(2), STR_2(2), STR_1(2), 
  7309 ;;  max_length      1    6[COMMON] const unsigned char 
  7310 ;; Auto vars:     Size  Location     Type
  7311 ;;  i               2    0[BANK0 ] int 
  7312 ;; Return value:  Size  Location     Type
  7313 ;;                  1    wreg      void 
  7314 ;; Registers used:
  7315 ;;		wreg, fsr0l, fsr0h, status,2, status,0, btemp+1, pclath, cstack
  7316 ;; Tracked objects:
  7317 ;;		On entry : 0/0
  7318 ;;		On exit  : 0/0
  7319 ;;		Unchanged: 0/0
  7320 ;; Data sizes:     COMMON   BANK0   BANK1   BANK3   BANK2
  7321 ;;      Params:         3       0       0       0       0
  7322 ;;      Locals:         0       2       0       0       0
  7323 ;;      Temps:          3       0       0       0       0
  7324 ;;      Totals:         6       2       0       0       0
  7325 ;;Total ram usage:        8 bytes
  7326 ;; Hardware stack levels used:    1
  7327 ;; Hardware stack levels required when called:    2
  7328 ;; This function calls:
  7329 ;;		_UARTSendChar
  7330 ;; This function is called by:
  7331 ;;		_GY_read
  7332 ;; This function uses a non-reentrant model
  7333 ;;
  7334                           
  7335                           
  7336                           ;psect for function _UARTSendString
  7337  1490                     _UARTSendString:
  7338  1490                     l2708:	
  7339                           ;incstack = 0
  7340                           ; Regs used in _UARTSendString: [wreg-fsr0h+status,2+status,0+btemp+1+pclath+cstack]
  7341                           
  7342                           
  7343                           ;UART.c: 51:     int i = 0;
  7344  1490  1283               	bcf	3,5	;RP0=0, select bank0
  7345  1491  1303               	bcf	3,6	;RP1=0, select bank0
  7346  1492  01A0               	clrf	UARTSendString@i
  7347  1493  01A1               	clrf	UARTSendString@i+1
  7348                           
  7349                           ;UART.c: 52:     for (i=0 ; i<max_length && str[i]!='\0' ; i++) {
  7350  1494  01A0               	clrf	UARTSendString@i
  7351  1495  01A1               	clrf	UARTSendString@i+1
  7352  1496  2CBB               	goto	l2714
  7353  1497                     l2710:
  7354                           
  7355                           ;UART.c: 53:         UARTSendChar(str[i]);
  7356  1497  0820               	movf	UARTSendString@i,w
  7357  1498  0774               	addwf	UARTSendString@str,w
  7358  1499  00F8               	movwf	??_UARTSendString+1
  7359  149A  0875               	movf	UARTSendString@str+1,w
  7360  149B  00F7               	movwf	??_UARTSendString
  7361  149C  1803               	skipnc
  7362  149D  0AF7               	incf	??_UARTSendString,f
  7363  149E  1FA0               	btfss	UARTSendString@i,7
  7364  149F  2CA1               	goto	u3850
  7365  14A0  03F7               	decf	??_UARTSendString,f
  7366  14A1                     u3850:
  7367  14A1  0877               	movf	??_UARTSendString,w
  7368  14A2  00F9               	movwf	??_UARTSendString+2
  7369  14A3  0879               	movf	??_UARTSendString+2,w
  7370  14A4  1283               	bcf	3,5	;RP0=0, select bank0
  7371  14A5  1303               	bcf	3,6	;RP1=0, select bank0
  7372  14A6  00FF               	movwf	btemp+1
  7373  14A7  0878               	movf	??_UARTSendString+1,w
  7374  14A8  0084               	movwf	4
  7375  14A9  160A  118A  2000  160A  118A  	fcall	stringtab
  7376  14AE  160A  118A  22E7  160A  118A  	fcall	_UARTSendChar
  7377  14B3                     l2712:
  7378                           
  7379                           ;UART.c: 54:     }
  7380  14B3  3001               	movlw	1
  7381  14B4  1283               	bcf	3,5	;RP0=0, select bank0
  7382  14B5  1303               	bcf	3,6	;RP1=0, select bank0
  7383  14B6  07A0               	addwf	UARTSendString@i,f
  7384  14B7  1803               	skipnc
  7385  14B8  0AA1               	incf	UARTSendString@i+1,f
  7386  14B9  3000               	movlw	0
  7387  14BA  07A1               	addwf	UARTSendString@i+1,f
  7388  14BB                     l2714:
  7389  14BB  0821               	movf	UARTSendString@i+1,w
  7390  14BC  3A80               	xorlw	128
  7391  14BD  00F7               	movwf	??_UARTSendString
  7392  14BE  3080               	movlw	128
  7393  14BF  0277               	subwf	??_UARTSendString,w
  7394  14C0  1D03               	skipz
  7395  14C1  2CC4               	goto	u3865
  7396  14C2  0876               	movf	UARTSendString@max_length,w
  7397  14C3  0220               	subwf	UARTSendString@i,w
  7398  14C4                     u3865:
  7399  14C4  1803               	skipnc
  7400  14C5  2CC7               	goto	u3861
  7401  14C6  2CC8               	goto	u3860
  7402  14C7                     u3861:
  7403  14C7  2CE6               	goto	l170
  7404  14C8                     u3860:
  7405  14C8                     l2716:
  7406  14C8  1283               	bcf	3,5	;RP0=0, select bank0
  7407  14C9  1303               	bcf	3,6	;RP1=0, select bank0
  7408  14CA  0820               	movf	UARTSendString@i,w
  7409  14CB  0774               	addwf	UARTSendString@str,w
  7410  14CC  00F8               	movwf	??_UARTSendString+1
  7411  14CD  0875               	movf	UARTSendString@str+1,w
  7412  14CE  00F7               	movwf	??_UARTSendString
  7413  14CF  1803               	skipnc
  7414  14D0  0AF7               	incf	??_UARTSendString,f
  7415  14D1  1FA0               	btfss	UARTSendString@i,7
  7416  14D2  2CD4               	goto	u3870
  7417  14D3  03F7               	decf	??_UARTSendString,f
  7418  14D4                     u3870:
  7419  14D4  0877               	movf	??_UARTSendString,w
  7420  14D5  00F9               	movwf	??_UARTSendString+2
  7421  14D6  0879               	movf	??_UARTSendString+2,w
  7422  14D7  1283               	bcf	3,5	;RP0=0, select bank0
  7423  14D8  1303               	bcf	3,6	;RP1=0, select bank0
  7424  14D9  00FF               	movwf	btemp+1
  7425  14DA  0878               	movf	??_UARTSendString+1,w
  7426  14DB  0084               	movwf	4
  7427  14DC  160A  118A  2000  160A  118A  	fcall	stringtab
  7428  14E1  3A00               	xorlw	0
  7429  14E2  1D03               	skipz
  7430  14E3  2CE5               	goto	u3881
  7431  14E4  2CE6               	goto	u3880
  7432  14E5                     u3881:
  7433  14E5  2C97               	goto	l2710
  7434  14E6                     u3880:
  7435  14E6                     l170:
  7436  14E6  0008               	return
  7437  14E7                     __end_of_UARTSendString:
  7438                           
  7439                           	psect	text18
  7440  12E7                     __ptext18:	
  7441 ;; *************** function _UARTSendChar *****************
  7442 ;; Defined at:
  7443 ;;		line 40 in file "UART.c"
  7444 ;; Parameters:    Size  Location     Type
  7445 ;;  c               1    wreg     const unsigned char 
  7446 ;; Auto vars:     Size  Location     Type
  7447 ;;  c               1    3[COMMON] const unsigned char 
  7448 ;; Return value:  Size  Location     Type
  7449 ;;                  1    wreg      void 
  7450 ;; Registers used:
  7451 ;;		wreg
  7452 ;; Tracked objects:
  7453 ;;		On entry : 0/0
  7454 ;;		On exit  : 0/0
  7455 ;;		Unchanged: 0/0
  7456 ;; Data sizes:     COMMON   BANK0   BANK1   BANK3   BANK2
  7457 ;;      Params:         0       0       0       0       0
  7458 ;;      Locals:         1       0       0       0       0
  7459 ;;      Temps:          0       0       0       0       0
  7460 ;;      Totals:         1       0       0       0       0
  7461 ;;Total ram usage:        1 bytes
  7462 ;; Hardware stack levels used:    1
  7463 ;; Hardware stack levels required when called:    1
  7464 ;; This function calls:
  7465 ;;		Nothing
  7466 ;; This function is called by:
  7467 ;;		_UARTSendString
  7468 ;;		_GY_read
  7469 ;; This function uses a non-reentrant model
  7470 ;;
  7471                           
  7472                           
  7473                           ;psect for function _UARTSendChar
  7474  12E7                     _UARTSendChar:
  7475                           
  7476                           ;incstack = 0
  7477                           ; Regs used in _UARTSendChar: [wreg]
  7478                           ;UARTSendChar@c stored from wreg
  7479  12E7  00F3               	movwf	UARTSendChar@c
  7480  12E8                     l2280:
  7481  12E8                     l159:	
  7482                           ;UART.c: 41:     while (TXSTAbits.TRMT == 0);
  7483                           
  7484  12E8  1683               	bsf	3,5	;RP0=1, select bank1
  7485  12E9  1303               	bcf	3,6	;RP1=0, select bank1
  7486  12EA  1C98               	btfss	24,1	;volatile
  7487  12EB  2AED               	goto	u2901
  7488  12EC  2AEE               	goto	u2900
  7489  12ED                     u2901:
  7490  12ED  2AE8               	goto	l159
  7491  12EE                     u2900:
  7492  12EE                     l2282:
  7493                           
  7494                           ;UART.c: 42:     TXREG = c;
  7495  12EE  0873               	movf	UARTSendChar@c,w
  7496  12EF  1283               	bcf	3,5	;RP0=0, select bank0
  7497  12F0  1303               	bcf	3,6	;RP1=0, select bank0
  7498  12F1  0099               	movwf	25	;volatile
  7499  12F2                     l162:
  7500  12F2  0008               	return
  7501  12F3                     __end_of_UARTSendChar:
  7502                           
  7503                           	psect	text19
  7504  132C                     __ptext19:	
  7505 ;; *************** function _I2C_Start *****************
  7506 ;; Defined at:
  7507 ;;		line 31 in file "I2C.c"
  7508 ;; Parameters:    Size  Location     Type
  7509 ;;  add             1    wreg     unsigned char 
  7510 ;; Auto vars:     Size  Location     Type
  7511 ;;  add             1    4[COMMON] unsigned char 
  7512 ;; Return value:  Size  Location     Type
  7513 ;;                  1    wreg      void 
  7514 ;; Registers used:
  7515 ;;		wreg, status,2, status,0, pclath, cstack
  7516 ;; Tracked objects:
  7517 ;;		On entry : 0/0
  7518 ;;		On exit  : 0/0
  7519 ;;		Unchanged: 0/0
  7520 ;; Data sizes:     COMMON   BANK0   BANK1   BANK3   BANK2
  7521 ;;      Params:         0       0       0       0       0
  7522 ;;      Locals:         1       0       0       0       0
  7523 ;;      Temps:          0       0       0       0       0
  7524 ;;      Totals:         1       0       0       0       0
  7525 ;;Total ram usage:        1 bytes
  7526 ;; Hardware stack levels used:    1
  7527 ;; Hardware stack levels required when called:    3
  7528 ;; This function calls:
  7529 ;;		_I2C_Master_Wait
  7530 ;;		_I2C_Master_Write
  7531 ;; This function is called by:
  7532 ;;		_GY_read
  7533 ;; This function uses a non-reentrant model
  7534 ;;
  7535                           
  7536                           
  7537                           ;psect for function _I2C_Start
  7538  132C                     _I2C_Start:
  7539                           
  7540                           ;incstack = 0
  7541                           ; Regs used in _I2C_Start: [wreg+status,2+status,0+pclath+cstack]
  7542                           ;I2C_Start@add stored from wreg
  7543  132C  00F4               	movwf	I2C_Start@add
  7544  132D                     l2650:
  7545                           
  7546                           ;I2C.c: 31: void I2C_Start(char add);I2C.c: 32: {;I2C.c: 33:     I2C_Master_Wait();
  7547  132D  160A  118A  2300  160A  118A  	fcall	_I2C_Master_Wait
  7548  1332                     l2652:
  7549                           
  7550                           ;I2C.c: 34:     SEN = 1;
  7551  1332  1683               	bsf	3,5	;RP0=1, select bank1
  7552  1333  1303               	bcf	3,6	;RP1=0, select bank1
  7553  1334  1411               	bsf	17,0	;volatile
  7554                           
  7555                           ;I2C.c: 35:     I2C_Master_Write(add);
  7556  1335  0874               	movf	I2C_Start@add,w
  7557  1336  160A  118A  231C  160A  118A  	fcall	_I2C_Master_Write
  7558  133B                     l96:
  7559  133B  0008               	return
  7560  133C                     __end_of_I2C_Start:
  7561                           
  7562                           	psect	text20
  7563  13E1                     __ptext20:	
  7564 ;; *************** function _I2C_Read *****************
  7565 ;; Defined at:
  7566 ;;		line 84 in file "I2C.c"
  7567 ;; Parameters:    Size  Location     Type
  7568 ;;  ACK_NACK        1    wreg     unsigned char 
  7569 ;; Auto vars:     Size  Location     Type
  7570 ;;  ACK_NACK        1    4[COMMON] unsigned char 
  7571 ;;  Data            1    5[COMMON] unsigned char 
  7572 ;; Return value:  Size  Location     Type
  7573 ;;                  1    wreg      unsigned char 
  7574 ;; Registers used:
  7575 ;;		wreg, status,2, status,0, pclath, cstack
  7576 ;; Tracked objects:
  7577 ;;		On entry : 0/0
  7578 ;;		On exit  : 0/0
  7579 ;;		Unchanged: 0/0
  7580 ;; Data sizes:     COMMON   BANK0   BANK1   BANK3   BANK2
  7581 ;;      Params:         0       0       0       0       0
  7582 ;;      Locals:         2       0       0       0       0
  7583 ;;      Temps:          1       0       0       0       0
  7584 ;;      Totals:         3       0       0       0       0
  7585 ;;Total ram usage:        3 bytes
  7586 ;; Hardware stack levels used:    1
  7587 ;; Hardware stack levels required when called:    2
  7588 ;; This function calls:
  7589 ;;		_I2C_ACK
  7590 ;;		_I2C_Master_Wait
  7591 ;;		_I2C_NACK
  7592 ;; This function is called by:
  7593 ;;		_GY_read
  7594 ;; This function uses a non-reentrant model
  7595 ;;
  7596                           
  7597                           
  7598                           ;psect for function _I2C_Read
  7599  13E1                     _I2C_Read:
  7600                           
  7601                           ;incstack = 0
  7602                           ; Regs used in _I2C_Read: [wreg+status,2+status,0+pclath+cstack]
  7603                           ;I2C_Read@ACK_NACK stored from wreg
  7604  13E1  00F4               	movwf	I2C_Read@ACK_NACK
  7605  13E2                     l2662:
  7606                           
  7607                           ;I2C.c: 84: unsigned char I2C_Read(unsigned char ACK_NACK);I2C.c: 85: { I2C_Master_Wait(
      +                          );
  7608  13E2  160A  118A  2300  160A  118A  	fcall	_I2C_Master_Wait
  7609  13E7                     l2664:
  7610                           
  7611                           ;I2C.c: 87:     unsigned char Data;;I2C.c: 88:     RCEN = 1;
  7612  13E7  1683               	bsf	3,5	;RP0=1, select bank1
  7613  13E8  1303               	bcf	3,6	;RP1=0, select bank1
  7614  13E9  1591               	bsf	17,3	;volatile
  7615  13EA                     l129:	
  7616                           ;I2C.c: 89:     while(!BF);
  7617                           
  7618  13EA  1C14               	btfss	20,0	;volatile
  7619  13EB  2BED               	goto	u3791
  7620  13EC  2BEE               	goto	u3790
  7621  13ED                     u3791:
  7622  13ED  2BEA               	goto	l129
  7623  13EE                     u3790:
  7624  13EE                     l2666:
  7625                           
  7626                           ;I2C.c: 90:     Data = SSPBUF;
  7627  13EE  1283               	bcf	3,5	;RP0=0, select bank0
  7628  13EF  1303               	bcf	3,6	;RP1=0, select bank0
  7629  13F0  0813               	movf	19,w	;volatile
  7630  13F1  00F3               	movwf	??_I2C_Read
  7631  13F2  0873               	movf	??_I2C_Read,w
  7632  13F3  00F5               	movwf	I2C_Read@Data
  7633  13F4                     l2668:
  7634                           
  7635                           ;I2C.c: 91:     if(ACK_NACK==0)
  7636  13F4  0874               	movf	I2C_Read@ACK_NACK,w
  7637  13F5  1D03               	btfss	3,2
  7638  13F6  2BF8               	goto	u3801
  7639  13F7  2BF9               	goto	u3800
  7640  13F8                     u3801:
  7641  13F8  2BFF               	goto	l2672
  7642  13F9                     u3800:
  7643  13F9                     l2670:
  7644                           
  7645                           ;I2C.c: 92:         I2C_ACK();
  7646  13F9  160A  118A  22CA  160A  118A  	fcall	_I2C_ACK
  7647  13FE  2C04               	goto	l134
  7648  13FF                     l2672:
  7649                           
  7650                           ;I2C.c: 94:         I2C_NACK();
  7651  13FF  160A  118A  22D3  160A  118A  	fcall	_I2C_NACK
  7652  1404                     l134:
  7653  1404  1283               	bcf	3,5	;RP0=0, select bank0
  7654  1405  1303               	bcf	3,6	;RP1=0, select bank0
  7655  1406  1D8C               	btfss	12,3	;volatile
  7656  1407  2C09               	goto	u3811
  7657  1408  2C0A               	goto	u3810
  7658  1409                     u3811:
  7659  1409  2C04               	goto	l134
  7660  140A                     u3810:
  7661  140A                     l136:
  7662                           
  7663                           ;I2C.c: 96:     SSPIF=0;
  7664  140A  118C               	bcf	12,3	;volatile
  7665  140B                     l2674:
  7666                           
  7667                           ;I2C.c: 97:     return Data;
  7668  140B  0875               	movf	I2C_Read@Data,w
  7669  140C                     l137:
  7670  140C  0008               	return
  7671  140D                     __end_of_I2C_Read:
  7672                           
  7673                           	psect	text21
  7674  12D3                     __ptext21:	
  7675 ;; *************** function _I2C_NACK *****************
  7676 ;; Defined at:
  7677 ;;		line 57 in file "I2C.c"
  7678 ;; Parameters:    Size  Location     Type
  7679 ;;		None
  7680 ;; Auto vars:     Size  Location     Type
  7681 ;;		None
  7682 ;; Return value:  Size  Location     Type
  7683 ;;                  1    wreg      void 
  7684 ;; Registers used:
  7685 ;;		None
  7686 ;; Tracked objects:
  7687 ;;		On entry : 0/0
  7688 ;;		On exit  : 0/0
  7689 ;;		Unchanged: 0/0
  7690 ;; Data sizes:     COMMON   BANK0   BANK1   BANK3   BANK2
  7691 ;;      Params:         0       0       0       0       0
  7692 ;;      Locals:         0       0       0       0       0
  7693 ;;      Temps:          0       0       0       0       0
  7694 ;;      Totals:         0       0       0       0       0
  7695 ;;Total ram usage:        0 bytes
  7696 ;; Hardware stack levels used:    1
  7697 ;; Hardware stack levels required when called:    1
  7698 ;; This function calls:
  7699 ;;		Nothing
  7700 ;; This function is called by:
  7701 ;;		_I2C_Read
  7702 ;; This function uses a non-reentrant model
  7703 ;;
  7704                           
  7705                           
  7706                           ;psect for function _I2C_NACK
  7707  12D3                     _I2C_NACK:
  7708  12D3                     l2278:	
  7709                           ;incstack = 0
  7710                           ; Regs used in _I2C_NACK: []
  7711                           
  7712                           
  7713                           ;I2C.c: 59:  ACKDT = 1;
  7714  12D3  1683               	bsf	3,5	;RP0=1, select bank1
  7715  12D4  1303               	bcf	3,6	;RP1=0, select bank1
  7716  12D5  1691               	bsf	17,5	;volatile
  7717                           
  7718                           ;I2C.c: 60:  ACKEN = 1;
  7719  12D6  1611               	bsf	17,4	;volatile
  7720  12D7                     l111:	
  7721                           ;I2C.c: 61:     while(ACKEN);
  7722                           
  7723  12D7  1A11               	btfsc	17,4	;volatile
  7724  12D8  2ADA               	goto	u2891
  7725  12D9  2ADB               	goto	u2890
  7726  12DA                     u2891:
  7727  12DA  2AD7               	goto	l111
  7728  12DB                     u2890:
  7729  12DB                     l114:
  7730  12DB  0008               	return
  7731  12DC                     __end_of_I2C_NACK:
  7732                           
  7733                           	psect	text22
  7734  12CA                     __ptext22:	
  7735 ;; *************** function _I2C_ACK *****************
  7736 ;; Defined at:
  7737 ;;		line 50 in file "I2C.c"
  7738 ;; Parameters:    Size  Location     Type
  7739 ;;		None
  7740 ;; Auto vars:     Size  Location     Type
  7741 ;;		None
  7742 ;; Return value:  Size  Location     Type
  7743 ;;                  1    wreg      void 
  7744 ;; Registers used:
  7745 ;;		None
  7746 ;; Tracked objects:
  7747 ;;		On entry : 0/0
  7748 ;;		On exit  : 0/0
  7749 ;;		Unchanged: 0/0
  7750 ;; Data sizes:     COMMON   BANK0   BANK1   BANK3   BANK2
  7751 ;;      Params:         0       0       0       0       0
  7752 ;;      Locals:         0       0       0       0       0
  7753 ;;      Temps:          0       0       0       0       0
  7754 ;;      Totals:         0       0       0       0       0
  7755 ;;Total ram usage:        0 bytes
  7756 ;; Hardware stack levels used:    1
  7757 ;; Hardware stack levels required when called:    1
  7758 ;; This function calls:
  7759 ;;		Nothing
  7760 ;; This function is called by:
  7761 ;;		_I2C_Read
  7762 ;; This function uses a non-reentrant model
  7763 ;;
  7764                           
  7765                           
  7766                           ;psect for function _I2C_ACK
  7767  12CA                     _I2C_ACK:
  7768  12CA                     l2276:	
  7769                           ;incstack = 0
  7770                           ; Regs used in _I2C_ACK: []
  7771                           
  7772                           
  7773                           ;I2C.c: 52:  ACKDT = 0;
  7774  12CA  1683               	bsf	3,5	;RP0=1, select bank1
  7775  12CB  1303               	bcf	3,6	;RP1=0, select bank1
  7776  12CC  1291               	bcf	17,5	;volatile
  7777                           
  7778                           ;I2C.c: 53:     ACKEN = 1;
  7779  12CD  1611               	bsf	17,4	;volatile
  7780  12CE                     l105:	
  7781                           ;I2C.c: 54:     while(ACKEN);
  7782                           
  7783  12CE  1A11               	btfsc	17,4	;volatile
  7784  12CF  2AD1               	goto	u2881
  7785  12D0  2AD2               	goto	u2880
  7786  12D1                     u2881:
  7787  12D1  2ACE               	goto	l105
  7788  12D2                     u2880:
  7789  12D2                     l108:
  7790  12D2  0008               	return
  7791  12D3                     __end_of_I2C_ACK:
  7792                           
  7793                           	psect	text23
  7794  12C1                     __ptext23:	
  7795 ;; *************** function _I2C_Master_RepeatedStart *****************
  7796 ;; Defined at:
  7797 ;;		line 38 in file "I2C.c"
  7798 ;; Parameters:    Size  Location     Type
  7799 ;;		None
  7800 ;; Auto vars:     Size  Location     Type
  7801 ;;		None
  7802 ;; Return value:  Size  Location     Type
  7803 ;;                  1    wreg      void 
  7804 ;; Registers used:
  7805 ;;		wreg, status,2, status,0, pclath, cstack
  7806 ;; Tracked objects:
  7807 ;;		On entry : 0/0
  7808 ;;		On exit  : 0/0
  7809 ;;		Unchanged: 0/0
  7810 ;; Data sizes:     COMMON   BANK0   BANK1   BANK3   BANK2
  7811 ;;      Params:         0       0       0       0       0
  7812 ;;      Locals:         0       0       0       0       0
  7813 ;;      Temps:          0       0       0       0       0
  7814 ;;      Totals:         0       0       0       0       0
  7815 ;;Total ram usage:        0 bytes
  7816 ;; Hardware stack levels used:    1
  7817 ;; Hardware stack levels required when called:    2
  7818 ;; This function calls:
  7819 ;;		_I2C_Master_Wait
  7820 ;; This function is called by:
  7821 ;;		_GY_read
  7822 ;; This function uses a non-reentrant model
  7823 ;;
  7824                           
  7825                           
  7826                           ;psect for function _I2C_Master_RepeatedStart
  7827  12C1                     _I2C_Master_RepeatedStart:
  7828  12C1                     l2654:	
  7829                           ;incstack = 0
  7830                           ; Regs used in _I2C_Master_RepeatedStart: [wreg+status,2+status,0+pclath+cstack]
  7831                           
  7832                           
  7833                           ;I2C.c: 40:     I2C_Master_Wait();
  7834  12C1  160A  118A  2300  160A  118A  	fcall	_I2C_Master_Wait
  7835  12C6                     l2656:
  7836                           
  7837                           ;I2C.c: 41:     RSEN = 1;
  7838  12C6  1683               	bsf	3,5	;RP0=1, select bank1
  7839  12C7  1303               	bcf	3,6	;RP1=0, select bank1
  7840  12C8  1491               	bsf	17,1	;volatile
  7841  12C9                     l99:
  7842  12C9  0008               	return
  7843  12CA                     __end_of_I2C_Master_RepeatedStart:
  7844                           
  7845                           	psect	text24
  7846  172B                     __ptext24:	
  7847 ;; *************** function _GY_init *****************
  7848 ;; Defined at:
  7849 ;;		line 14 in file "GY-521.c"
  7850 ;; Parameters:    Size  Location     Type
  7851 ;;		None
  7852 ;; Auto vars:     Size  Location     Type
  7853 ;;		None
  7854 ;; Return value:  Size  Location     Type
  7855 ;;                  1    wreg      void 
  7856 ;; Registers used:
  7857 ;;		wreg, status,2, status,0, pclath, cstack
  7858 ;; Tracked objects:
  7859 ;;		On entry : 0/0
  7860 ;;		On exit  : 0/0
  7861 ;;		Unchanged: 0/0
  7862 ;; Data sizes:     COMMON   BANK0   BANK1   BANK3   BANK2
  7863 ;;      Params:         0       0       0       0       0
  7864 ;;      Locals:         0       0       0       0       0
  7865 ;;      Temps:          0       0       0       0       0
  7866 ;;      Totals:         0       0       0       0       0
  7867 ;;Total ram usage:        0 bytes
  7868 ;; Hardware stack levels used:    1
  7869 ;; Hardware stack levels required when called:    3
  7870 ;; This function calls:
  7871 ;;		_I2C_Master_Init
  7872 ;;		_I2C_Master_Start
  7873 ;;		_I2C_Master_Stop
  7874 ;;		_I2C_Master_Write
  7875 ;;		_UARTInit
  7876 ;; This function is called by:
  7877 ;;		_main
  7878 ;; This function uses a non-reentrant model
  7879 ;;
  7880                           
  7881                           
  7882                           ;psect for function _GY_init
  7883  172B                     _GY_init:
  7884  172B                     l3324:	
  7885                           ;incstack = 0
  7886                           ; Regs used in _GY_init: [wreg+status,2+status,0+pclath+cstack]
  7887                           
  7888                           
  7889                           ;GY-521.c: 16:     I2C_Master_Init();
  7890  172B  160A  118A  22F3  160A  118A  	fcall	_I2C_Master_Init
  7891                           
  7892                           ;GY-521.c: 17:     UARTInit(9600, 1);
  7893  1730  3000               	movlw	0
  7894  1731  1283               	bcf	3,5	;RP0=0, select bank0
  7895  1732  1303               	bcf	3,6	;RP1=0, select bank0
  7896  1733  00AB               	movwf	UARTInit@baud_rate+3
  7897  1734  3000               	movlw	0
  7898  1735  00AA               	movwf	UARTInit@baud_rate+2
  7899  1736  3025               	movlw	37
  7900  1737  00A9               	movwf	UARTInit@baud_rate+1
  7901  1738  3080               	movlw	128
  7902  1739  00A8               	movwf	UARTInit@baud_rate
  7903  173A  01AC               	clrf	UARTInit@BRGH
  7904  173B  0AAC               	incf	UARTInit@BRGH,f
  7905  173C  120A  158A  2007  160A  118A  	fcall	_UARTInit
  7906                           
  7907                           ;GY-521.c: 21:     I2C_Master_Start();
  7908  1741  160A  118A  22AF  160A  118A  	fcall	_I2C_Master_Start
  7909                           
  7910                           ;GY-521.c: 22:     I2C_Master_Write(0xD0);
  7911  1746  30D0               	movlw	208
  7912  1747  160A  118A  231C  160A  118A  	fcall	_I2C_Master_Write
  7913                           
  7914                           ;GY-521.c: 23:     I2C_Master_Write(0x6B);
  7915  174C  306B               	movlw	107
  7916  174D  160A  118A  231C  160A  118A  	fcall	_I2C_Master_Write
  7917                           
  7918                           ;GY-521.c: 24:     I2C_Master_Write(0x01);
  7919  1752  3001               	movlw	1
  7920  1753  160A  118A  231C  160A  118A  	fcall	_I2C_Master_Write
  7921                           
  7922                           ;GY-521.c: 25:     I2C_Master_Stop();
  7923  1758  160A  118A  22B8  160A  118A  	fcall	_I2C_Master_Stop
  7924                           
  7925                           ;GY-521.c: 29:     I2C_Master_Start();
  7926  175D  160A  118A  22AF  160A  118A  	fcall	_I2C_Master_Start
  7927                           
  7928                           ;GY-521.c: 30:     I2C_Master_Write(0xD0);
  7929  1762  30D0               	movlw	208
  7930  1763  160A  118A  231C  160A  118A  	fcall	_I2C_Master_Write
  7931                           
  7932                           ;GY-521.c: 31:     I2C_Master_Write(0x00);
  7933  1768  3000               	movlw	0
  7934  1769  160A  118A  231C  160A  118A  	fcall	_I2C_Master_Write
  7935                           
  7936                           ;GY-521.c: 32:     I2C_Master_Stop();
  7937  176E  160A  118A  22B8  160A  118A  	fcall	_I2C_Master_Stop
  7938                           
  7939                           ;GY-521.c: 35:     I2C_Master_Start();
  7940  1773  160A  118A  22AF  160A  118A  	fcall	_I2C_Master_Start
  7941                           
  7942                           ;GY-521.c: 36:     I2C_Master_Write(0xD0);
  7943  1778  30D0               	movlw	208
  7944  1779  160A  118A  231C  160A  118A  	fcall	_I2C_Master_Write
  7945                           
  7946                           ;GY-521.c: 37:     I2C_Master_Write(0x19);
  7947  177E  3019               	movlw	25
  7948  177F  160A  118A  231C  160A  118A  	fcall	_I2C_Master_Write
  7949                           
  7950                           ;GY-521.c: 38:     I2C_Master_Write(0x08);
  7951  1784  3008               	movlw	8
  7952  1785  160A  118A  231C  160A  118A  	fcall	_I2C_Master_Write
  7953                           
  7954                           ;GY-521.c: 39:     I2C_Master_Stop();
  7955  178A  160A  118A  22B8  160A  118A  	fcall	_I2C_Master_Stop
  7956                           
  7957                           ;GY-521.c: 42:     I2C_Master_Start();
  7958  178F  160A  118A  22AF  160A  118A  	fcall	_I2C_Master_Start
  7959                           
  7960                           ;GY-521.c: 43:     I2C_Master_Write(0xD0);
  7961  1794  30D0               	movlw	208
  7962  1795  160A  118A  231C  160A  118A  	fcall	_I2C_Master_Write
  7963                           
  7964                           ;GY-521.c: 44:     I2C_Master_Write(0x1A);
  7965  179A  301A               	movlw	26
  7966  179B  160A  118A  231C  160A  118A  	fcall	_I2C_Master_Write
  7967                           
  7968                           ;GY-521.c: 45:     I2C_Master_Write(0x00);
  7969  17A0  3000               	movlw	0
  7970  17A1  160A  118A  231C  160A  118A  	fcall	_I2C_Master_Write
  7971                           
  7972                           ;GY-521.c: 46:     I2C_Master_Stop();
  7973  17A6  160A  118A  22B8  160A  118A  	fcall	_I2C_Master_Stop
  7974                           
  7975                           ;GY-521.c: 48:     I2C_Master_Start();
  7976  17AB  160A  118A  22AF  160A  118A  	fcall	_I2C_Master_Start
  7977                           
  7978                           ;GY-521.c: 49:     I2C_Master_Write(0xD0);
  7979  17B0  30D0               	movlw	208
  7980  17B1  160A  118A  231C  160A  118A  	fcall	_I2C_Master_Write
  7981                           
  7982                           ;GY-521.c: 50:     I2C_Master_Write(0x1B);
  7983  17B6  301B               	movlw	27
  7984  17B7  160A  118A  231C  160A  118A  	fcall	_I2C_Master_Write
  7985                           
  7986                           ;GY-521.c: 51:     I2C_Master_Write(0x00);
  7987  17BC  3000               	movlw	0
  7988  17BD  160A  118A  231C  160A  118A  	fcall	_I2C_Master_Write
  7989                           
  7990                           ;GY-521.c: 52:     I2C_Master_Stop();
  7991  17C2  160A  118A  22B8  160A  118A  	fcall	_I2C_Master_Stop
  7992                           
  7993                           ;GY-521.c: 54:     I2C_Master_Start();
  7994  17C7  160A  118A  22AF  160A  118A  	fcall	_I2C_Master_Start
  7995                           
  7996                           ;GY-521.c: 55:     I2C_Master_Write(0xD0);
  7997  17CC  30D0               	movlw	208
  7998  17CD  160A  118A  231C  160A  118A  	fcall	_I2C_Master_Write
  7999                           
  8000                           ;GY-521.c: 56:     I2C_Master_Write(0x1C);
  8001  17D2  301C               	movlw	28
  8002  17D3  160A  118A  231C  160A  118A  	fcall	_I2C_Master_Write
  8003                           
  8004                           ;GY-521.c: 57:     I2C_Master_Write(0x00);
  8005  17D8  3000               	movlw	0
  8006  17D9  160A  118A  231C  160A  118A  	fcall	_I2C_Master_Write
  8007                           
  8008                           ;GY-521.c: 58:     I2C_Master_Stop();
  8009  17DE  160A  118A  22B8  160A  118A  	fcall	_I2C_Master_Stop
  8010                           
  8011                           ;GY-521.c: 62:     I2C_Master_Start();
  8012  17E3  160A  118A  22AF  160A  118A  	fcall	_I2C_Master_Start
  8013                           
  8014                           ;GY-521.c: 63:     I2C_Master_Write(0x68);
  8015  17E8  3068               	movlw	104
  8016  17E9  160A  118A  231C  160A  118A  	fcall	_I2C_Master_Write
  8017                           
  8018                           ;GY-521.c: 64:     I2C_Master_Write(0x6C);
  8019  17EE  306C               	movlw	108
  8020  17EF  160A  118A  231C  160A  118A  	fcall	_I2C_Master_Write
  8021                           
  8022                           ;GY-521.c: 65:     I2C_Master_Write(0x00);
  8023  17F4  3000               	movlw	0
  8024  17F5  160A  118A  231C  160A  118A  	fcall	_I2C_Master_Write
  8025                           
  8026                           ;GY-521.c: 66:     I2C_Master_Stop();
  8027  17FA  160A  118A  22B8  160A  118A  	fcall	_I2C_Master_Stop
  8028  17FF                     l215:
  8029  17FF  0008               	return
  8030  1800                     __end_of_GY_init:
  8031                           
  8032                           	psect	text25
  8033  0807                     __ptext25:	
  8034 ;; *************** function _UARTInit *****************
  8035 ;; Defined at:
  8036 ;;		line 9 in file "UART.c"
  8037 ;; Parameters:    Size  Location     Type
  8038 ;;  baud_rate       4    8[BANK0 ] const unsigned long 
  8039 ;;  BRGH            1   12[BANK0 ] const unsigned char 
  8040 ;; Auto vars:     Size  Location     Type
  8041 ;;		None
  8042 ;; Return value:  Size  Location     Type
  8043 ;;                  1    wreg      void 
  8044 ;; Registers used:
  8045 ;;		wreg, status,2, status,0, pclath, cstack
  8046 ;; Tracked objects:
  8047 ;;		On entry : 0/0
  8048 ;;		On exit  : 0/0
  8049 ;;		Unchanged: 0/0
  8050 ;; Data sizes:     COMMON   BANK0   BANK1   BANK3   BANK2
  8051 ;;      Params:         0       5       0       0       0
  8052 ;;      Locals:         0       0       0       0       0
  8053 ;;      Temps:          0       4       0       0       0
  8054 ;;      Totals:         0       9       0       0       0
  8055 ;;Total ram usage:        9 bytes
  8056 ;; Hardware stack levels used:    1
  8057 ;; Hardware stack levels required when called:    2
  8058 ;; This function calls:
  8059 ;;		___lldiv
  8060 ;; This function is called by:
  8061 ;;		_GY_init
  8062 ;; This function uses a non-reentrant model
  8063 ;;
  8064                           
  8065                           
  8066                           ;psect for function _UARTInit
  8067  0807                     _UARTInit:
  8068  0807                     l3272:	
  8069                           ;incstack = 0
  8070                           ; Regs used in _UARTInit: [wreg+status,2+status,0+pclath+cstack]
  8071                           
  8072                           
  8073                           ;UART.c: 11:     if (BRGH == 0) {
  8074  0807  1283               	bcf	3,5	;RP0=0, select bank0
  8075  0808  1303               	bcf	3,6	;RP1=0, select bank0
  8076  0809  082C               	movf	UARTInit@BRGH,w
  8077  080A  1D03               	btfss	3,2
  8078  080B  280D               	goto	u4861
  8079  080C  280E               	goto	u4860
  8080  080D                     u4861:
  8081  080D  283D               	goto	l3278
  8082  080E                     u4860:
  8083  080E                     l3274:
  8084                           
  8085                           ;UART.c: 12:         SPBRG = 4000000/(64*baud_rate) - 1;
  8086  080E  0828               	movf	UARTInit@baud_rate,w
  8087  080F  00AD               	movwf	??_UARTInit
  8088  0810  0829               	movf	UARTInit@baud_rate+1,w
  8089  0811  00AE               	movwf	??_UARTInit+1
  8090  0812  082A               	movf	UARTInit@baud_rate+2,w
  8091  0813  00AF               	movwf	??_UARTInit+2
  8092  0814  082B               	movf	UARTInit@baud_rate+3,w
  8093  0815  00B0               	movwf	??_UARTInit+3
  8094  0816  3006               	movlw	6
  8095  0817                     u4875:
  8096  0817  1003               	clrc
  8097  0818  0DAD               	rlf	??_UARTInit,f
  8098  0819  0DAE               	rlf	??_UARTInit+1,f
  8099  081A  0DAF               	rlf	??_UARTInit+2,f
  8100  081B  0DB0               	rlf	??_UARTInit+3,f
  8101  081C                     u4870:
  8102  081C  3EFF               	addlw	-1
  8103  081D  1D03               	skipz
  8104  081E  2817               	goto	u4875
  8105  081F  0830               	movf	??_UARTInit+3,w
  8106  0820  00A3               	movwf	___lldiv@divisor+3
  8107  0821  082F               	movf	??_UARTInit+2,w
  8108  0822  00A2               	movwf	___lldiv@divisor+2
  8109  0823  082E               	movf	??_UARTInit+1,w
  8110  0824  00A1               	movwf	___lldiv@divisor+1
  8111  0825  082D               	movf	??_UARTInit,w
  8112  0826  00A0               	movwf	___lldiv@divisor
  8113  0827  3000               	movlw	0
  8114  0828  00A7               	movwf	___lldiv@dividend+3
  8115  0829  303D               	movlw	61
  8116  082A  00A6               	movwf	___lldiv@dividend+2
  8117  082B  3009               	movlw	9
  8118  082C  00A5               	movwf	___lldiv@dividend+1
  8119  082D  3000               	movlw	0
  8120  082E  00A4               	movwf	___lldiv@dividend
  8121  082F  160A  118A  24E7  120A  158A  	fcall	___lldiv
  8122  0834  1283               	bcf	3,5	;RP0=0, select bank0
  8123  0835  1303               	bcf	3,6	;RP1=0, select bank0
  8124  0836  0820               	movf	?___lldiv,w
  8125  0837  3EFF               	addlw	255
  8126  0838  1683               	bsf	3,5	;RP0=1, select bank1
  8127  0839  1303               	bcf	3,6	;RP1=0, select bank1
  8128  083A  0099               	movwf	25	;volatile
  8129  083B                     l3276:
  8130                           
  8131                           ;UART.c: 13:         TXSTAbits.BRGH = 0;
  8132  083B  1118               	bcf	24,2	;volatile
  8133                           
  8134                           ;UART.c: 14:     } else {
  8135  083C  286B               	goto	l3282
  8136  083D                     l3278:
  8137                           
  8138                           ;UART.c: 15:         SPBRG = 4000000/(16*baud_rate) - 1;
  8139  083D  0828               	movf	UARTInit@baud_rate,w
  8140  083E  00AD               	movwf	??_UARTInit
  8141  083F  0829               	movf	UARTInit@baud_rate+1,w
  8142  0840  00AE               	movwf	??_UARTInit+1
  8143  0841  082A               	movf	UARTInit@baud_rate+2,w
  8144  0842  00AF               	movwf	??_UARTInit+2
  8145  0843  082B               	movf	UARTInit@baud_rate+3,w
  8146  0844  00B0               	movwf	??_UARTInit+3
  8147  0845  3004               	movlw	4
  8148  0846                     u4885:
  8149  0846  1003               	clrc
  8150  0847  0DAD               	rlf	??_UARTInit,f
  8151  0848  0DAE               	rlf	??_UARTInit+1,f
  8152  0849  0DAF               	rlf	??_UARTInit+2,f
  8153  084A  0DB0               	rlf	??_UARTInit+3,f
  8154  084B                     u4880:
  8155  084B  3EFF               	addlw	-1
  8156  084C  1D03               	skipz
  8157  084D  2846               	goto	u4885
  8158  084E  0830               	movf	??_UARTInit+3,w
  8159  084F  00A3               	movwf	___lldiv@divisor+3
  8160  0850  082F               	movf	??_UARTInit+2,w
  8161  0851  00A2               	movwf	___lldiv@divisor+2
  8162  0852  082E               	movf	??_UARTInit+1,w
  8163  0853  00A1               	movwf	___lldiv@divisor+1
  8164  0854  082D               	movf	??_UARTInit,w
  8165  0855  00A0               	movwf	___lldiv@divisor
  8166  0856  3000               	movlw	0
  8167  0857  00A7               	movwf	___lldiv@dividend+3
  8168  0858  303D               	movlw	61
  8169  0859  00A6               	movwf	___lldiv@dividend+2
  8170  085A  3009               	movlw	9
  8171  085B  00A5               	movwf	___lldiv@dividend+1
  8172  085C  3000               	movlw	0
  8173  085D  00A4               	movwf	___lldiv@dividend
  8174  085E  160A  118A  24E7  120A  158A  	fcall	___lldiv
  8175  0863  1283               	bcf	3,5	;RP0=0, select bank0
  8176  0864  1303               	bcf	3,6	;RP1=0, select bank0
  8177  0865  0820               	movf	?___lldiv,w
  8178  0866  3EFF               	addlw	255
  8179  0867  1683               	bsf	3,5	;RP0=1, select bank1
  8180  0868  1303               	bcf	3,6	;RP1=0, select bank1
  8181  0869  0099               	movwf	25	;volatile
  8182  086A                     l3280:
  8183                           
  8184                           ;UART.c: 16:         TXSTAbits.BRGH = 1;
  8185  086A  1518               	bsf	24,2	;volatile
  8186  086B                     l3282:
  8187                           
  8188                           ;UART.c: 20:     TXSTAbits.TX9 = 0;
  8189  086B  1318               	bcf	24,6	;volatile
  8190  086C                     l3284:
  8191                           
  8192                           ;UART.c: 21:     TXSTAbits.TXEN = 1;
  8193  086C  1698               	bsf	24,5	;volatile
  8194  086D                     l3286:
  8195                           
  8196                           ;UART.c: 22:     TXSTAbits.SYNC = 0;
  8197  086D  1218               	bcf	24,4	;volatile
  8198  086E                     l3288:
  8199                           
  8200                           ;UART.c: 25:     RCSTAbits.SPEN = 1;
  8201  086E  1283               	bcf	3,5	;RP0=0, select bank0
  8202  086F  1303               	bcf	3,6	;RP1=0, select bank0
  8203  0870  1798               	bsf	24,7	;volatile
  8204  0871                     l3290:
  8205                           
  8206                           ;UART.c: 26:     RCSTAbits.RX9 = 0;
  8207  0871  1318               	bcf	24,6	;volatile
  8208  0872                     l3292:
  8209                           
  8210                           ;UART.c: 27:     RCSTAbits.CREN = 1;
  8211  0872  1618               	bsf	24,4	;volatile
  8212  0873                     l3294:
  8213                           
  8214                           ;UART.c: 28:     RCSTAbits.FERR = 0;
  8215  0873  1118               	bcf	24,2	;volatile
  8216  0874                     l3296:
  8217                           
  8218                           ;UART.c: 29:     RCSTAbits.OERR = 0;
  8219  0874  1098               	bcf	24,1	;volatile
  8220  0875                     l3298:
  8221                           
  8222                           ;UART.c: 32:     TRISCbits.TRISC7 = 1;
  8223  0875  1683               	bsf	3,5	;RP0=1, select bank1
  8224  0876  1303               	bcf	3,6	;RP1=0, select bank1
  8225  0877  1787               	bsf	7,7	;volatile
  8226  0878                     l3300:
  8227                           
  8228                           ;UART.c: 33:     TRISCbits.TRISC6 = 0;
  8229  0878  1307               	bcf	7,6	;volatile
  8230  0879                     l156:
  8231  0879  0008               	return
  8232  087A                     __end_of_UARTInit:
  8233                           
  8234                           	psect	text26
  8235  14E7                     __ptext26:	
  8236 ;; *************** function ___lldiv *****************
  8237 ;; Defined at:
  8238 ;;		line 5 in file "C:\Program Files\Microchip\xc8\v2.31\pic\sources\c90\common\__lldiv.c"
  8239 ;; Parameters:    Size  Location     Type
  8240 ;;  divisor         4    0[BANK0 ] unsigned long 
  8241 ;;  dividend        4    4[BANK0 ] unsigned long 
  8242 ;; Auto vars:     Size  Location     Type
  8243 ;;  quotient        4    4[COMMON] unsigned long 
  8244 ;;  counter         1    8[COMMON] unsigned char 
  8245 ;; Return value:  Size  Location     Type
  8246 ;;                  4    0[BANK0 ] unsigned long 
  8247 ;; Registers used:
  8248 ;;		wreg, status,2, status,0
  8249 ;; Tracked objects:
  8250 ;;		On entry : 0/0
  8251 ;;		On exit  : 0/0
  8252 ;;		Unchanged: 0/0
  8253 ;; Data sizes:     COMMON   BANK0   BANK1   BANK3   BANK2
  8254 ;;      Params:         0       8       0       0       0
  8255 ;;      Locals:         5       0       0       0       0
  8256 ;;      Temps:          1       0       0       0       0
  8257 ;;      Totals:         6       8       0       0       0
  8258 ;;Total ram usage:       14 bytes
  8259 ;; Hardware stack levels used:    1
  8260 ;; Hardware stack levels required when called:    1
  8261 ;; This function calls:
  8262 ;;		Nothing
  8263 ;; This function is called by:
  8264 ;;		_UARTInit
  8265 ;;		_sprintf
  8266 ;; This function uses a non-reentrant model
  8267 ;;
  8268                           
  8269                           
  8270                           ;psect for function ___lldiv
  8271  14E7                     ___lldiv:
  8272  14E7                     l3020:	
  8273                           ;incstack = 0
  8274                           ; Regs used in ___lldiv: [wreg+status,2+status,0]
  8275                           
  8276  14E7  3000               	movlw	0
  8277  14E8  00F7               	movwf	___lldiv@quotient+3
  8278  14E9  3000               	movlw	0
  8279  14EA  00F6               	movwf	___lldiv@quotient+2
  8280  14EB  3000               	movlw	0
  8281  14EC  00F5               	movwf	___lldiv@quotient+1
  8282  14ED  3000               	movlw	0
  8283  14EE  00F4               	movwf	___lldiv@quotient
  8284  14EF  1283               	bcf	3,5	;RP0=0, select bank0
  8285  14F0  1303               	bcf	3,6	;RP1=0, select bank0
  8286  14F1  0823               	movf	___lldiv@divisor+3,w
  8287  14F2  0422               	iorwf	___lldiv@divisor+2,w
  8288  14F3  0421               	iorwf	___lldiv@divisor+1,w
  8289  14F4  0420               	iorwf	___lldiv@divisor,w
  8290  14F5  1903               	skipnz
  8291  14F6  2CF8               	goto	u4231
  8292  14F7  2CF9               	goto	u4230
  8293  14F8                     u4231:
  8294  14F8  2D46               	goto	l3040
  8295  14F9                     u4230:
  8296  14F9                     l3022:
  8297  14F9  01F8               	clrf	___lldiv@counter
  8298  14FA  0AF8               	incf	___lldiv@counter,f
  8299  14FB  2D09               	goto	l3026
  8300  14FC                     l3024:
  8301  14FC  3001               	movlw	1
  8302  14FD  00F3               	movwf	??___lldiv
  8303  14FE                     u4245:
  8304  14FE  1003               	clrc
  8305  14FF  0DA0               	rlf	___lldiv@divisor,f
  8306  1500  0DA1               	rlf	___lldiv@divisor+1,f
  8307  1501  0DA2               	rlf	___lldiv@divisor+2,f
  8308  1502  0DA3               	rlf	___lldiv@divisor+3,f
  8309  1503  0BF3               	decfsz	??___lldiv,f
  8310  1504  2CFE               	goto	u4245
  8311  1505  3001               	movlw	1
  8312  1506  00F3               	movwf	??___lldiv
  8313  1507  0873               	movf	??___lldiv,w
  8314  1508  07F8               	addwf	___lldiv@counter,f
  8315  1509                     l3026:
  8316  1509  1FA3               	btfss	___lldiv@divisor+3,7
  8317  150A  2D0C               	goto	u4251
  8318  150B  2D0D               	goto	u4250
  8319  150C                     u4251:
  8320  150C  2CFC               	goto	l3024
  8321  150D                     u4250:
  8322  150D                     l3028:
  8323  150D  3001               	movlw	1
  8324  150E  00F3               	movwf	??___lldiv
  8325  150F                     u4265:
  8326  150F  1003               	clrc
  8327  1510  0DF4               	rlf	___lldiv@quotient,f
  8328  1511  0DF5               	rlf	___lldiv@quotient+1,f
  8329  1512  0DF6               	rlf	___lldiv@quotient+2,f
  8330  1513  0DF7               	rlf	___lldiv@quotient+3,f
  8331  1514  0BF3               	decfsz	??___lldiv,f
  8332  1515  2D0F               	goto	u4265
  8333  1516                     l3030:
  8334  1516  0823               	movf	___lldiv@divisor+3,w
  8335  1517  0227               	subwf	___lldiv@dividend+3,w
  8336  1518  1D03               	skipz
  8337  1519  2D24               	goto	u4275
  8338  151A  0822               	movf	___lldiv@divisor+2,w
  8339  151B  0226               	subwf	___lldiv@dividend+2,w
  8340  151C  1D03               	skipz
  8341  151D  2D24               	goto	u4275
  8342  151E  0821               	movf	___lldiv@divisor+1,w
  8343  151F  0225               	subwf	___lldiv@dividend+1,w
  8344  1520  1D03               	skipz
  8345  1521  2D24               	goto	u4275
  8346  1522  0820               	movf	___lldiv@divisor,w
  8347  1523  0224               	subwf	___lldiv@dividend,w
  8348  1524                     u4275:
  8349  1524  1C03               	skipc
  8350  1525  2D27               	goto	u4271
  8351  1526  2D28               	goto	u4270
  8352  1527                     u4271:
  8353  1527  2D37               	goto	l3036
  8354  1528                     u4270:
  8355  1528                     l3032:
  8356  1528  0820               	movf	___lldiv@divisor,w
  8357  1529  02A4               	subwf	___lldiv@dividend,f
  8358  152A  0821               	movf	___lldiv@divisor+1,w
  8359  152B  1C03               	skipc
  8360  152C  0F21               	incfsz	___lldiv@divisor+1,w
  8361  152D  02A5               	subwf	___lldiv@dividend+1,f
  8362  152E  0822               	movf	___lldiv@divisor+2,w
  8363  152F  1C03               	skipc
  8364  1530  0F22               	incfsz	___lldiv@divisor+2,w
  8365  1531  02A6               	subwf	___lldiv@dividend+2,f
  8366  1532  0823               	movf	___lldiv@divisor+3,w
  8367  1533  1C03               	skipc
  8368  1534  0F23               	incfsz	___lldiv@divisor+3,w
  8369  1535  02A7               	subwf	___lldiv@dividend+3,f
  8370  1536                     l3034:
  8371  1536  1474               	bsf	___lldiv@quotient,0
  8372  1537                     l3036:
  8373  1537  3001               	movlw	1
  8374  1538                     u4285:
  8375  1538  1003               	clrc
  8376  1539  0CA3               	rrf	___lldiv@divisor+3,f
  8377  153A  0CA2               	rrf	___lldiv@divisor+2,f
  8378  153B  0CA1               	rrf	___lldiv@divisor+1,f
  8379  153C  0CA0               	rrf	___lldiv@divisor,f
  8380  153D  3EFF               	addlw	-1
  8381  153E  1D03               	skipz
  8382  153F  2D38               	goto	u4285
  8383  1540                     l3038:
  8384  1540  3001               	movlw	1
  8385  1541  02F8               	subwf	___lldiv@counter,f
  8386  1542  1D03               	btfss	3,2
  8387  1543  2D45               	goto	u4291
  8388  1544  2D46               	goto	u4290
  8389  1545                     u4291:
  8390  1545  2D0D               	goto	l3028
  8391  1546                     u4290:
  8392  1546                     l3040:
  8393  1546  0877               	movf	___lldiv@quotient+3,w
  8394  1547  00A3               	movwf	?___lldiv+3
  8395  1548  0876               	movf	___lldiv@quotient+2,w
  8396  1549  00A2               	movwf	?___lldiv+2
  8397  154A  0875               	movf	___lldiv@quotient+1,w
  8398  154B  00A1               	movwf	?___lldiv+1
  8399  154C  0874               	movf	___lldiv@quotient,w
  8400  154D  00A0               	movwf	?___lldiv
  8401  154E                     l349:
  8402  154E  0008               	return
  8403  154F                     __end_of___lldiv:
  8404                           
  8405                           	psect	text27
  8406  131C                     __ptext27:	
  8407 ;; *************** function _I2C_Master_Write *****************
  8408 ;; Defined at:
  8409 ;;		line 64 in file "I2C.c"
  8410 ;; Parameters:    Size  Location     Type
  8411 ;;  data            1    wreg     unsigned char 
  8412 ;; Auto vars:     Size  Location     Type
  8413 ;;  data            1    3[COMMON] unsigned char 
  8414 ;; Return value:  Size  Location     Type
  8415 ;;                  1    wreg      unsigned char 
  8416 ;; Registers used:
  8417 ;;		wreg, status,2, status,0, pclath, cstack
  8418 ;; Tracked objects:
  8419 ;;		On entry : 0/0
  8420 ;;		On exit  : 0/0
  8421 ;;		Unchanged: 0/0
  8422 ;; Data sizes:     COMMON   BANK0   BANK1   BANK3   BANK2
  8423 ;;      Params:         0       0       0       0       0
  8424 ;;      Locals:         1       0       0       0       0
  8425 ;;      Temps:          0       0       0       0       0
  8426 ;;      Totals:         1       0       0       0       0
  8427 ;;Total ram usage:        1 bytes
  8428 ;; Hardware stack levels used:    1
  8429 ;; Hardware stack levels required when called:    2
  8430 ;; This function calls:
  8431 ;;		_I2C_Master_Wait
  8432 ;; This function is called by:
  8433 ;;		_I2C_Start
  8434 ;;		_GY_init
  8435 ;;		_GY_read
  8436 ;; This function uses a non-reentrant model
  8437 ;;
  8438                           
  8439                           
  8440                           ;psect for function _I2C_Master_Write
  8441  131C                     _I2C_Master_Write:
  8442                           
  8443                           ;incstack = 0
  8444                           ; Regs used in _I2C_Master_Write: [wreg+status,2+status,0+pclath+cstack]
  8445                           ;I2C_Master_Write@data stored from wreg
  8446  131C  00F3               	movwf	I2C_Master_Write@data
  8447  131D                     l2272:
  8448                           
  8449                           ;I2C.c: 64: unsigned char I2C_Master_Write(unsigned char data);I2C.c: 65: {;I2C.c: 66:  
      +                             I2C_Master_Wait();
  8450  131D  160A  118A  2300  160A  118A  	fcall	_I2C_Master_Wait
  8451  1322                     l2274:
  8452                           
  8453                           ;I2C.c: 67:     SSPBUF = data;
  8454  1322  0873               	movf	I2C_Master_Write@data,w
  8455  1323  1283               	bcf	3,5	;RP0=0, select bank0
  8456  1324  1303               	bcf	3,6	;RP1=0, select bank0
  8457  1325  0093               	movwf	19	;volatile
  8458  1326                     l117:	
  8459                           ;I2C.c: 68:     while(!SSPIF);
  8460                           
  8461  1326  1D8C               	btfss	12,3	;volatile
  8462  1327  2B29               	goto	u2871
  8463  1328  2B2A               	goto	u2870
  8464  1329                     u2871:
  8465  1329  2B26               	goto	l117
  8466  132A                     u2870:
  8467  132A                     l119:
  8468                           
  8469                           ;I2C.c: 69:  SSPIF = 0;
  8470  132A  118C               	bcf	12,3	;volatile
  8471  132B                     l120:	
  8472                           ;I2C.c: 70:     return ACKSTAT;;	Return value of _I2C_Master_Write is never used
  8473                           
  8474  132B  0008               	return
  8475  132C                     __end_of_I2C_Master_Write:
  8476                           
  8477                           	psect	text28
  8478  12B8                     __ptext28:	
  8479 ;; *************** function _I2C_Master_Stop *****************
  8480 ;; Defined at:
  8481 ;;		line 44 in file "I2C.c"
  8482 ;; Parameters:    Size  Location     Type
  8483 ;;		None
  8484 ;; Auto vars:     Size  Location     Type
  8485 ;;		None
  8486 ;; Return value:  Size  Location     Type
  8487 ;;                  1    wreg      void 
  8488 ;; Registers used:
  8489 ;;		wreg, status,2, status,0, pclath, cstack
  8490 ;; Tracked objects:
  8491 ;;		On entry : 0/0
  8492 ;;		On exit  : 0/0
  8493 ;;		Unchanged: 0/0
  8494 ;; Data sizes:     COMMON   BANK0   BANK1   BANK3   BANK2
  8495 ;;      Params:         0       0       0       0       0
  8496 ;;      Locals:         0       0       0       0       0
  8497 ;;      Temps:          0       0       0       0       0
  8498 ;;      Totals:         0       0       0       0       0
  8499 ;;Total ram usage:        0 bytes
  8500 ;; Hardware stack levels used:    1
  8501 ;; Hardware stack levels required when called:    2
  8502 ;; This function calls:
  8503 ;;		_I2C_Master_Wait
  8504 ;; This function is called by:
  8505 ;;		_GY_init
  8506 ;;		_GY_read
  8507 ;; This function uses a non-reentrant model
  8508 ;;
  8509                           
  8510                           
  8511                           ;psect for function _I2C_Master_Stop
  8512  12B8                     _I2C_Master_Stop:
  8513  12B8                     l2658:	
  8514                           ;incstack = 0
  8515                           ; Regs used in _I2C_Master_Stop: [wreg+status,2+status,0+pclath+cstack]
  8516                           
  8517                           
  8518                           ;I2C.c: 46:     I2C_Master_Wait();
  8519  12B8  160A  118A  2300  160A  118A  	fcall	_I2C_Master_Wait
  8520  12BD                     l2660:
  8521                           
  8522                           ;I2C.c: 47:     PEN = 1;
  8523  12BD  1683               	bsf	3,5	;RP0=1, select bank1
  8524  12BE  1303               	bcf	3,6	;RP1=0, select bank1
  8525  12BF  1511               	bsf	17,2	;volatile
  8526  12C0                     l102:
  8527  12C0  0008               	return
  8528  12C1                     __end_of_I2C_Master_Stop:
  8529                           
  8530                           	psect	text29
  8531  12AF                     __ptext29:	
  8532 ;; *************** function _I2C_Master_Start *****************
  8533 ;; Defined at:
  8534 ;;		line 25 in file "I2C.c"
  8535 ;; Parameters:    Size  Location     Type
  8536 ;;		None
  8537 ;; Auto vars:     Size  Location     Type
  8538 ;;		None
  8539 ;; Return value:  Size  Location     Type
  8540 ;;                  1    wreg      void 
  8541 ;; Registers used:
  8542 ;;		wreg, status,2, status,0, pclath, cstack
  8543 ;; Tracked objects:
  8544 ;;		On entry : 0/0
  8545 ;;		On exit  : 0/0
  8546 ;;		Unchanged: 0/0
  8547 ;; Data sizes:     COMMON   BANK0   BANK1   BANK3   BANK2
  8548 ;;      Params:         0       0       0       0       0
  8549 ;;      Locals:         0       0       0       0       0
  8550 ;;      Temps:          0       0       0       0       0
  8551 ;;      Totals:         0       0       0       0       0
  8552 ;;Total ram usage:        0 bytes
  8553 ;; Hardware stack levels used:    1
  8554 ;; Hardware stack levels required when called:    2
  8555 ;; This function calls:
  8556 ;;		_I2C_Master_Wait
  8557 ;; This function is called by:
  8558 ;;		_GY_init
  8559 ;; This function uses a non-reentrant model
  8560 ;;
  8561                           
  8562                           
  8563                           ;psect for function _I2C_Master_Start
  8564  12AF                     _I2C_Master_Start:
  8565  12AF                     l2646:	
  8566                           ;incstack = 0
  8567                           ; Regs used in _I2C_Master_Start: [wreg+status,2+status,0+pclath+cstack]
  8568                           
  8569                           
  8570                           ;I2C.c: 27:     I2C_Master_Wait();
  8571  12AF  160A  118A  2300  160A  118A  	fcall	_I2C_Master_Wait
  8572  12B4                     l2648:
  8573                           
  8574                           ;I2C.c: 28:     SEN = 1;
  8575  12B4  1683               	bsf	3,5	;RP0=1, select bank1
  8576  12B5  1303               	bcf	3,6	;RP1=0, select bank1
  8577  12B6  1411               	bsf	17,0	;volatile
  8578  12B7                     l93:
  8579  12B7  0008               	return
  8580  12B8                     __end_of_I2C_Master_Start:
  8581                           
  8582                           	psect	text30
  8583  1300                     __ptext30:	
  8584 ;; *************** function _I2C_Master_Wait *****************
  8585 ;; Defined at:
  8586 ;;		line 20 in file "I2C.c"
  8587 ;; Parameters:    Size  Location     Type
  8588 ;;		None
  8589 ;; Auto vars:     Size  Location     Type
  8590 ;;		None
  8591 ;; Return value:  Size  Location     Type
  8592 ;;                  1    wreg      void 
  8593 ;; Registers used:
  8594 ;;		wreg, status,2
  8595 ;; Tracked objects:
  8596 ;;		On entry : 0/0
  8597 ;;		On exit  : 0/0
  8598 ;;		Unchanged: 0/0
  8599 ;; Data sizes:     COMMON   BANK0   BANK1   BANK3   BANK2
  8600 ;;      Params:         0       0       0       0       0
  8601 ;;      Locals:         0       0       0       0       0
  8602 ;;      Temps:          0       0       0       0       0
  8603 ;;      Totals:         0       0       0       0       0
  8604 ;;Total ram usage:        0 bytes
  8605 ;; Hardware stack levels used:    1
  8606 ;; Hardware stack levels required when called:    1
  8607 ;; This function calls:
  8608 ;;		Nothing
  8609 ;; This function is called by:
  8610 ;;		_I2C_Master_Start
  8611 ;;		_I2C_Start
  8612 ;;		_I2C_Master_RepeatedStart
  8613 ;;		_I2C_Master_Stop
  8614 ;;		_I2C_Master_Write
  8615 ;;		_I2C_Read
  8616 ;;		_I2C_Read_Byte
  8617 ;; This function uses a non-reentrant model
  8618 ;;
  8619                           
  8620                           
  8621                           ;psect for function _I2C_Master_Wait
  8622  1300                     _I2C_Master_Wait:
  8623  1300                     l1990:	
  8624                           ;incstack = 0
  8625                           ; Regs used in _I2C_Master_Wait: [wreg+status,2]
  8626                           
  8627  1300                     l87:	
  8628                           ;I2C.c: 22:     while ((SSPSTAT & 0x04) || (SSPCON2 & 0x1F));
  8629                           
  8630  1300  1683               	bsf	3,5	;RP0=1, select bank1
  8631  1301  1303               	bcf	3,6	;RP1=0, select bank1
  8632  1302  1914               	btfsc	20,2	;volatile
  8633  1303  2B05               	goto	u2171
  8634  1304  2B06               	goto	u2170
  8635  1305                     u2171:
  8636  1305  2B00               	goto	l87
  8637  1306                     u2170:
  8638  1306                     l1992:
  8639  1306  0811               	movf	17,w	;volatile
  8640  1307  391F               	andlw	31
  8641  1308  1D03               	btfss	3,2
  8642  1309  2B0B               	goto	u2181
  8643  130A  2B0C               	goto	u2180
  8644  130B                     u2181:
  8645  130B  2B00               	goto	l87
  8646  130C                     u2180:
  8647  130C                     l90:
  8648  130C  0008               	return
  8649  130D                     __end_of_I2C_Master_Wait:
  8650                           
  8651                           	psect	text31
  8652  12F3                     __ptext31:	
  8653 ;; *************** function _I2C_Master_Init *****************
  8654 ;; Defined at:
  8655 ;;		line 10 in file "I2C.c"
  8656 ;; Parameters:    Size  Location     Type
  8657 ;;		None
  8658 ;; Auto vars:     Size  Location     Type
  8659 ;;		None
  8660 ;; Return value:  Size  Location     Type
  8661 ;;                  1    wreg      void 
  8662 ;; Registers used:
  8663 ;;		wreg, status,2
  8664 ;; Tracked objects:
  8665 ;;		On entry : 0/0
  8666 ;;		On exit  : 0/0
  8667 ;;		Unchanged: 0/0
  8668 ;; Data sizes:     COMMON   BANK0   BANK1   BANK3   BANK2
  8669 ;;      Params:         0       0       0       0       0
  8670 ;;      Locals:         0       0       0       0       0
  8671 ;;      Temps:          0       0       0       0       0
  8672 ;;      Totals:         0       0       0       0       0
  8673 ;;Total ram usage:        0 bytes
  8674 ;; Hardware stack levels used:    1
  8675 ;; Hardware stack levels required when called:    1
  8676 ;; This function calls:
  8677 ;;		Nothing
  8678 ;; This function is called by:
  8679 ;;		_GY_init
  8680 ;; This function uses a non-reentrant model
  8681 ;;
  8682                           
  8683                           
  8684                           ;psect for function _I2C_Master_Init
  8685  12F3                     _I2C_Master_Init:
  8686  12F3                     l1548:	
  8687                           ;incstack = 0
  8688                           ; Regs used in _I2C_Master_Init: [wreg+status,2]
  8689                           
  8690                           
  8691                           ;I2C.c: 12:   SSPCON = 0x28;
  8692  12F3  3028               	movlw	40
  8693  12F4  1283               	bcf	3,5	;RP0=0, select bank0
  8694  12F5  1303               	bcf	3,6	;RP1=0, select bank0
  8695  12F6  0094               	movwf	20	;volatile
  8696  12F7                     l1550:
  8697                           
  8698                           ;I2C.c: 13:   SSPCON2 = 0x00;
  8699  12F7  1683               	bsf	3,5	;RP0=1, select bank1
  8700  12F8  1303               	bcf	3,6	;RP1=0, select bank1
  8701  12F9  0191               	clrf	17	;volatile
  8702  12FA                     l1552:
  8703                           
  8704                           ;I2C.c: 14:   SSPSTAT = 0x00;
  8705  12FA  0194               	clrf	20	;volatile
  8706                           
  8707                           ;I2C.c: 15:   SSPADD = ((4000000/4)/100000) - 1;
  8708  12FB  3009               	movlw	9
  8709  12FC  0093               	movwf	19	;volatile
  8710  12FD                     l1554:
  8711                           
  8712                           ;I2C.c: 16:   TRISC3 = 1;
  8713  12FD  1587               	bsf	7,3	;volatile
  8714  12FE                     l1556:
  8715                           
  8716                           ;I2C.c: 17:   TRISC4 = 1;
  8717  12FE  1607               	bsf	7,4	;volatile
  8718  12FF                     l84:
  8719  12FF  0008               	return
  8720  1300                     __end_of_I2C_Master_Init:
  8721                           
  8722                           	psect	text32
  8723  140D                     __ptext32:	
  8724 ;; *************** function _ISR *****************
  8725 ;; Defined at:
  8726 ;;		line 50 in file "main.c"
  8727 ;; Parameters:    Size  Location     Type
  8728 ;;		None
  8729 ;; Auto vars:     Size  Location     Type
  8730 ;;		None
  8731 ;; Return value:  Size  Location     Type
  8732 ;;                  1    wreg      void 
  8733 ;; Registers used:
  8734 ;;		wreg, status,2, status,0
  8735 ;; Tracked objects:
  8736 ;;		On entry : 0/0
  8737 ;;		On exit  : 0/0
  8738 ;;		Unchanged: 0/0
  8739 ;; Data sizes:     COMMON   BANK0   BANK1   BANK3   BANK2
  8740 ;;      Params:         0       0       0       0       0
  8741 ;;      Locals:         0       0       0       0       0
  8742 ;;      Temps:          3       0       0       0       0
  8743 ;;      Totals:         3       0       0       0       0
  8744 ;;Total ram usage:        3 bytes
  8745 ;; Hardware stack levels used:    1
  8746 ;; This function calls:
  8747 ;;		Nothing
  8748 ;; This function is called by:
  8749 ;;		Interrupt level 1
  8750 ;; This function uses a non-reentrant model
  8751 ;;
  8752                           
  8753                           
  8754                           ;psect for function _ISR
  8755  140D                     _ISR:
  8756  140D                     i1l1914:
  8757                           
  8758                           ;main.c: 52:     if (PIR1bits.RCIF) {
  8759  140D  1283               	bcf	3,5	;RP0=0, select bank0
  8760  140E  1303               	bcf	3,6	;RP1=0, select bank0
  8761  140F  1E8C               	btfss	12,5	;volatile
  8762  1410  2C12               	goto	u207_21
  8763  1411  2C13               	goto	u207_20
  8764  1412                     u207_21:
  8765  1412  2C33               	goto	i1l36
  8766  1413                     u207_20:
  8767  1413                     i1l1916:
  8768                           
  8769                           ;main.c: 53:         entrada = RCREG;
  8770  1413  081A               	movf	26,w	;volatile
  8771  1414  00F0               	movwf	??_ISR
  8772  1415  0870               	movf	??_ISR,w
  8773  1416  00FA               	movwf	_entrada
  8774  1417                     i1l1918:
  8775                           
  8776                           ;main.c: 54:         if (entrada == 'A') {
  8777  1417  3041               	movlw	65
  8778  1418  067A               	xorwf	_entrada,w
  8779  1419  1D03               	btfss	3,2
  8780  141A  2C1C               	goto	u208_21
  8781  141B  2C1D               	goto	u208_20
  8782  141C                     u208_21:
  8783  141C  2C1E               	goto	i1l1922
  8784  141D                     u208_20:
  8785  141D                     i1l1920:
  8786                           
  8787                           ;main.c: 55:             PORTAbits.RA0 = 1;
  8788  141D  1405               	bsf	5,0	;volatile
  8789  141E                     i1l1922:
  8790                           
  8791                           ;main.c: 57:         if (entrada == 'B') {
  8792  141E  3042               	movlw	66
  8793  141F  067A               	xorwf	_entrada,w
  8794  1420  1D03               	btfss	3,2
  8795  1421  2C23               	goto	u209_21
  8796  1422  2C24               	goto	u209_20
  8797  1423                     u209_21:
  8798  1423  2C25               	goto	i1l1926
  8799  1424                     u209_20:
  8800  1424                     i1l1924:
  8801                           
  8802                           ;main.c: 58:             PORTAbits.RA0 = 0;
  8803  1424  1005               	bcf	5,0	;volatile
  8804  1425                     i1l1926:
  8805                           
  8806                           ;main.c: 60:         if (entrada == 'C') {
  8807  1425  3043               	movlw	67
  8808  1426  067A               	xorwf	_entrada,w
  8809  1427  1D03               	btfss	3,2
  8810  1428  2C2A               	goto	u210_21
  8811  1429  2C2B               	goto	u210_20
  8812  142A                     u210_21:
  8813  142A  2C2C               	goto	i1l1930
  8814  142B                     u210_20:
  8815  142B                     i1l1928:
  8816                           
  8817                           ;main.c: 61:             PORTAbits.RA1 = 1;
  8818  142B  1485               	bsf	5,1	;volatile
  8819  142C                     i1l1930:
  8820                           
  8821                           ;main.c: 63:         if (entrada == 'D') {
  8822  142C  3044               	movlw	68
  8823  142D  067A               	xorwf	_entrada,w
  8824  142E  1D03               	btfss	3,2
  8825  142F  2C31               	goto	u211_21
  8826  1430  2C32               	goto	u211_20
  8827  1431                     u211_21:
  8828  1431  2C33               	goto	i1l36
  8829  1432                     u211_20:
  8830  1432                     i1l1932:
  8831                           
  8832                           ;main.c: 64:             PORTAbits.RA1 = 0;
  8833  1432  1085               	bcf	5,1	;volatile
  8834  1433                     i1l36:
  8835  1433  0872               	movf	??_ISR+2,w
  8836  1434  008A               	movwf	10
  8837  1435  0E71               	swapf	??_ISR+1,w
  8838  1436  0083               	movwf	3
  8839  1437  0EFE               	swapf	btemp,f
  8840  1438  0E7E               	swapf	btemp,w
  8841  1439  0009               	retfie
  8842  143A                     __end_of_ISR:
  8843  007E                     btemp	set	126	;btemp
  8844  007E                     wtemp0	set	126
  8845                           
  8846                           	psect	intentry
  8847  0004                     __pintentry:	
  8848                           ;incstack = 0
  8849                           ; Regs used in _ISR: [wreg+status,2+status,0]
  8850                           
  8851  0004                     interrupt_function:
  8852  007E                     saved_w	set	btemp
  8853  0004  00FE               	movwf	btemp
  8854  0005  0E03               	swapf	3,w
  8855  0006  00F1               	movwf	??_ISR+1
  8856  0007  080A               	movf	10,w
  8857  0008  00F2               	movwf	??_ISR+2
  8858  0009  160A  118A  2C0D   	ljmp	_ISR
  8859                           
  8860                           	psect	config
  8861                           
  8862                           ;Config register CONFIG1 @ 0x2007
  8863                           ;	Oscillator Selection bits
  8864                           ;	FOSC = INTRC_NOCLKOUT, INTOSCIO oscillator: I/O function on RA6/OSC2/CLKOUT pin, I/O f
      +                          unction on RA7/OSC1/CLKIN
  8865                           ;	Watchdog Timer Enable bit
  8866                           ;	WDTE = OFF, WDT disabled and can be enabled by SWDTEN bit of the WDTCON register
  8867                           ;	Power-up Timer Enable bit
  8868                           ;	PWRTE = OFF, PWRT disabled
  8869                           ;	RE3/MCLR pin function select bit
  8870                           ;	MCLRE = OFF, RE3/MCLR pin function is digital input, MCLR internally tied to VDD
  8871                           ;	Code Protection bit
  8872                           ;	CP = OFF, Program memory code protection is disabled
  8873                           ;	Data Code Protection bit
  8874                           ;	CPD = OFF, Data memory code protection is disabled
  8875                           ;	Brown Out Reset Selection bits
  8876                           ;	BOREN = OFF, BOR disabled
  8877                           ;	Internal External Switchover bit
  8878                           ;	IESO = OFF, Internal/External Switchover mode is disabled
  8879                           ;	Fail-Safe Clock Monitor Enabled bit
  8880                           ;	FCMEN = OFF, Fail-Safe Clock Monitor is disabled
  8881                           ;	Low Voltage Programming Enable bit
  8882                           ;	LVP = OFF, RB3 pin has digital I/O, HV on MCLR must be used for programming
  8883                           ;	In-Circuit Debugger Mode bit
  8884                           ;	DEBUG = 0x1, unprogrammed default
  8885  2007                     	org	8199
  8886  2007  20D4               	dw	8404
  8887                           
  8888                           ;Config register CONFIG2 @ 0x2008
  8889                           ;	Brown-out Reset Selection bit
  8890                           ;	BOR4V = BOR40V, Brown-out Reset set to 4.0V
  8891                           ;	Flash Program Memory Self Write Enable bits
  8892                           ;	WRT = OFF, Write protection off
  8893  2008                     	org	8200
  8894  2008  3FFF               	dw	16383

Data Sizes:
    Strings     13
    Constant    40
    Data        0
    BSS         18
    Persistent  0
    Stack       0

Auto Spaces:
    Space          Size  Autos    Used
    COMMON           14     10      11
    BANK0            80     80      80
    BANK1            80     68      68
    BANK3            96      0      17
    BANK2            96      0       0

Pointer List with Targets:

    ftoa@status	PTR int  size(2) Largest target is 512
		 -> RAM(DATA[512]), 

    sprintf@f	PTR const unsigned char  size(1) Largest target is 11
		 -> STR_7(CODE[11]), 

    sprintf@sp	PTR unsigned char  size(1) Largest target is 17
		 -> ftoa@buf(BANK3[17]), 

    sprintf@ap	PTR void [1] size(1) Largest target is 2
		 -> ?_sprintf(BANK0[2]), 

    ftoa@cp	PTR unsigned char  size(1) Largest target is 17
		 -> ftoa@buf(BANK3[17]), 

    sp__ftoa	PTR unsigned char  size(1) Largest target is 17
		 -> ftoa@buf(BANK3[17]), 

    GY_read@buf	PTR unsigned char  size(1) Largest target is 17
		 -> ftoa@buf(BANK3[17]), 

    UARTSendString@str	PTR const unsigned char  size(2) Largest target is 17
		 -> ftoa@buf(BANK3[17]), STR_6(CODE[2]), STR_5(CODE[2]), STR_4(CODE[2]), 
		 -> STR_3(CODE[2]), STR_2(CODE[2]), STR_1(CODE[2]), 


Critical Paths under _main in COMMON

    _GY_read->_UARTSendString
    _sprintf->___llmod
    ___llmod->___lldiv
    ___flsub->___xxtofl
    ___fladd->___xxtofl
    ___flmul->__Umul8_16
    ___flmul->___xxtofl
    ___fldiv->___xxtofl
    _UARTSendString->_UARTSendChar
    _I2C_Start->_I2C_Master_Write
    _UARTInit->___lldiv

Critical Paths under _ISR in COMMON

    None.

Critical Paths under _main in BANK0

    _GY_read->_ftoa
    _ftoa->___flsub
    _sprintf->___llmod
    ___llmod->___lldiv
    ___fltol->___flmul
    ___flsub->___fladd
    ___fladd->___fldiv
    ___flmul->___xxtofl
    ___fldiv->___xxtofl
    _GY_init->_UARTInit
    _UARTInit->___lldiv

Critical Paths under _ISR in BANK0

    None.

Critical Paths under _main in BANK1

    _main->_GY_read

Critical Paths under _ISR in BANK1

    None.

Critical Paths under _main in BANK3

    None.

Critical Paths under _ISR in BANK3

    None.

Critical Paths under _main in BANK2

    None.

Critical Paths under _ISR in BANK2

    None.

Call Graph Tables:

 ---------------------------------------------------------------------------------
 (Depth) Function   	        Calls       Base Space   Used Autos Params    Refs
 ---------------------------------------------------------------------------------
 (0) _main                                                 3     3      0   26253
                                             65 BANK1      3     3      0
                            _GY_init
                            _GY_read
                              _Setup
 ---------------------------------------------------------------------------------
 (1) _Setup                                                0     0      0       0
 ---------------------------------------------------------------------------------
 (1) _GY_read                                             65    65      0   25177
                                              0 BANK1     65    65      0
           _I2C_Master_RepeatedStart
                    _I2C_Master_Stop
                   _I2C_Master_Write
                           _I2C_Read
                          _I2C_Start
                       _UARTSendChar
                     _UARTSendString
                            ___fladd
                            ___fldiv
                            ___flmul
                           ___xxtofl
                               _ftoa
 ---------------------------------------------------------------------------------
 (2) _ftoa                                                16    10      6   12801
                                             64 BANK0     16    10      6
                             ___flge
                            ___flmul
                            ___flneg
                            ___flsub
                            ___fltol
                           ___xxtofl
                            _sprintf
 ---------------------------------------------------------------------------------
 (3) _sprintf                                             34    25      9    3119
                                             17 BANK0     26    17      9
                            ___lldiv
                            ___llmod
                             ___wmul
                            _isdigit
 ---------------------------------------------------------------------------------
 (4) _isdigit                                              2     2      0      68
                                              3 COMMON     2     2      0
 ---------------------------------------------------------------------------------
 (4) ___wmul                                               6     2      4     396
                                              3 COMMON     6     2      4
 ---------------------------------------------------------------------------------
 (4) ___llmod                                             10     2      8     412
                                              9 COMMON     1     1      0
                                              8 BANK0      9     1      8
                            ___lldiv (ARG)
 ---------------------------------------------------------------------------------
 (3) ___xxtofl                                            14    10      4    1196
                                              3 COMMON     4     0      4
                                              0 BANK0     10    10      0
 ---------------------------------------------------------------------------------
 (3) ___fltol                                             11     7      4     517
                                              7 COMMON     2     2      0
                                             36 BANK0      9     5      4
                            ___flmul (ARG)
 ---------------------------------------------------------------------------------
 (3) ___flsub                                              8     0      8    2485
                                             56 BANK0      8     0      8
                            ___fladd
                           ___xxtofl (ARG)
 ---------------------------------------------------------------------------------
 (4) ___fladd                                             20    12      8    2288
                                             36 BANK0     20    12      8
                            ___fldiv (ARG)
                           ___xxtofl (ARG)
 ---------------------------------------------------------------------------------
 (3) ___flneg                                              4     0      4     121
                                              3 COMMON     4     0      4
 ---------------------------------------------------------------------------------
 (3) ___flmul                                             26    18      8    3329
                                             10 BANK0     26    18      8
                          __Umul8_16
                           ___xxtofl (ARG)
 ---------------------------------------------------------------------------------
 (4) __Umul8_16                                            9     7      2     799
                                              3 COMMON     4     2      2
                                              0 BANK0      5     5      0
 ---------------------------------------------------------------------------------
 (3) ___flge                                              12     4      8     446
                                              3 COMMON     4     4      0
                                              0 BANK0      8     0      8
 ---------------------------------------------------------------------------------
 (2) ___fldiv                                             26    18      8    1273
                                             10 BANK0     26    18      8
                           ___xxtofl (ARG)
 ---------------------------------------------------------------------------------
 (2) _UARTSendString                                       8     5      3    2133
                                              4 COMMON     6     3      3
                                              0 BANK0      2     2      0
                       _UARTSendChar
 ---------------------------------------------------------------------------------
 (3) _UARTSendChar                                         1     1      0      22
                                              3 COMMON     1     1      0
 ---------------------------------------------------------------------------------
 (2) _I2C_Start                                            1     1      0      44
                                              4 COMMON     1     1      0
                    _I2C_Master_Wait
                   _I2C_Master_Write
 ---------------------------------------------------------------------------------
 (2) _I2C_Read                                             3     3      0      45
                                              3 COMMON     3     3      0
                            _I2C_ACK
                    _I2C_Master_Wait
                           _I2C_NACK
 ---------------------------------------------------------------------------------
 (3) _I2C_NACK                                             0     0      0       0
 ---------------------------------------------------------------------------------
 (3) _I2C_ACK                                              0     0      0       0
 ---------------------------------------------------------------------------------
 (2) _I2C_Master_RepeatedStart                             0     0      0       0
                    _I2C_Master_Wait
 ---------------------------------------------------------------------------------
 (1) _GY_init                                              0     0      0    1076
                    _I2C_Master_Init
                   _I2C_Master_Start
                    _I2C_Master_Stop
                   _I2C_Master_Write
                           _UARTInit
 ---------------------------------------------------------------------------------
 (2) _UARTInit                                             9     4      5    1054
                                              8 BANK0      9     4      5
                            ___lldiv
 ---------------------------------------------------------------------------------
 (4) ___lldiv                                             14     6      8     781
                                              3 COMMON     6     6      0
                                              0 BANK0      8     0      8
 ---------------------------------------------------------------------------------
 (3) _I2C_Master_Write                                     1     1      0      22
                                              3 COMMON     1     1      0
                    _I2C_Master_Wait
 ---------------------------------------------------------------------------------
 (2) _I2C_Master_Stop                                      0     0      0       0
                    _I2C_Master_Wait
 ---------------------------------------------------------------------------------
 (2) _I2C_Master_Start                                     0     0      0       0
                    _I2C_Master_Wait
 ---------------------------------------------------------------------------------
 (4) _I2C_Master_Wait                                      0     0      0       0
 ---------------------------------------------------------------------------------
 (2) _I2C_Master_Init                                      0     0      0       0
 ---------------------------------------------------------------------------------
 Estimated maximum stack depth 4
 ---------------------------------------------------------------------------------
 (Depth) Function   	        Calls       Base Space   Used Autos Params    Refs
 ---------------------------------------------------------------------------------
 (5) _ISR                                                  3     3      0       0
                                              0 COMMON     3     3      0
 ---------------------------------------------------------------------------------
 Estimated maximum stack depth 5
 ---------------------------------------------------------------------------------

 Call Graph Graphs:

 _main (ROOT)
   _GY_init
     _I2C_Master_Init
     _I2C_Master_Start
       _I2C_Master_Wait
     _I2C_Master_Stop
       _I2C_Master_Wait
     _I2C_Master_Write
       _I2C_Master_Wait
     _UARTInit
       ___lldiv
   _GY_read
     _I2C_Master_RepeatedStart
       _I2C_Master_Wait
     _I2C_Master_Stop
       _I2C_Master_Wait
     _I2C_Master_Write
       _I2C_Master_Wait
     _I2C_Read
       _I2C_ACK
       _I2C_Master_Wait
       _I2C_NACK
     _I2C_Start
       _I2C_Master_Wait
       _I2C_Master_Write
         _I2C_Master_Wait
     _UARTSendChar
     _UARTSendString
       _UARTSendChar
     ___fladd
       ___fldiv (ARG)
         ___xxtofl (ARG)
       ___xxtofl (ARG)
     ___fldiv
       ___xxtofl (ARG)
     ___flmul
       __Umul8_16
       ___xxtofl (ARG)
     ___xxtofl
     _ftoa
       ___flge
       ___flmul
         __Umul8_16
         ___xxtofl (ARG)
       ___flneg
       ___flsub
         ___fladd
           ___fldiv (ARG)
             ___xxtofl (ARG)
           ___xxtofl (ARG)
         ___xxtofl (ARG)
       ___fltol
         ___flmul (ARG)
           __Umul8_16
           ___xxtofl (ARG)
       ___xxtofl
       _sprintf
         ___lldiv
         ___llmod
           ___lldiv (ARG)
         ___wmul
         _isdigit
   _Setup

 _ISR (ROOT)

 Address spaces:
Name               Size   Autos  Total    Cost      Usage
BITCOMMON            E      0       0       0        0.0%
EEDATA             100      0       0       0        0.0%
NULL                 0      0       0       0        0.0%
CODE                 0      0       0       0        0.0%
COMMON               E      A       B       1       78.6%
BITSFR0              0      0       0       1        0.0%
SFR0                 0      0       0       1        0.0%
BITSFR1              0      0       0       2        0.0%
SFR1                 0      0       0       2        0.0%
STACK                0      0       0       2        0.0%
ABS                  0      0      B0       3        0.0%
BITBANK0            50      0       0       4        0.0%
BITSFR3              0      0       0       4        0.0%
SFR3                 0      0       0       4        0.0%
BANK0               50     50      50       5      100.0%
BITSFR2              0      0       0       5        0.0%
SFR2                 0      0       0       5        0.0%
BITBANK1            50      0       0       6        0.0%
BANK1               50     44      44       7       85.0%
BITBANK3            60      0       0       8        0.0%
BANK3               60      0      11       9       17.7%
BITBANK2            60      0       0      10        0.0%
BANK2               60      0       0      11        0.0%
DATA                 0      0      B0      12        0.0%


Microchip Technology PIC Macro Assembler V2.31 build 20201012212115 
Symbol Table                                                                                   Sat Mar 06 09:51:14 2021

                UARTInit@baud_rate 0028                       ___fldiv@aexp 0043  
                     ___fldiv@bexp 0042                                  pc 0002  
                     ___fldiv@sign 003B                 __size_of_I2C_Start 0010  
                               _BF 04A0                                 l47 131B  
                               l90 130C                                 l84 12FF  
                               l93 12B7                                 l87 1300  
                               l96 133B                                 l99 12C9  
                               fsr 0004                ___wmul@multiplicand 0075  
              __Umul8_16@word_mpld 0022                                l102 12C0  
                              l111 12D7                                l120 132B  
                              l105 12CE                                l114 12DB  
                              l108 12D2                                l117 1326  
                              l221 0035                                l134 1404  
                              l119 132A                                l215 17FF  
                              l136 140A                                l137 140C  
                              l129 13EA                                l313 139F  
                              l162 12F2                                l170 14E6  
                              l218 0029                                l315 13B7  
                              l227 049D                                l156 0879  
                              l159 12E8                                l610 0E82  
                              l506 15B5                                l612 0E59  
                              l349 154E                                l509 15CA  
                              l702 07FE                                l606 0DDB  
                              l631 0F71                                l535 148F  
                              l640 0FD1                                l721 13CE  
                              l490 1655                                l714 07F2  
                              l491 166E                                l723 13E0  
                              l627 0F4D                                l619 0FFF  
                              l708 076A                                l652 1392  
                              l637 0F93                                l662 09AB  
                              l822 134D                                l806 0CBE  
                              l487 15E9                                l495 12E6  
                              l664 0B2B                                l648 0FF3  
                              l760 1700                                l752 16D8  
                              l649 0FFF                                l817 0D77  
                              l746 1693                                l499 15CA  
                              l684 0B0F                                l748 172A  
                              l686 0B1F                                l678 0A9D  
                              l759 16F4                                l769 094E  
                              l795 0BEE                                l798 0C14  
                              _PEN 048A                                _ISR 140D  
                              _SEN 0488                    __end_of_I2C_ACK 12D3  
                              fsr0 0004                                indf 0000  
                     ___flmul@aexp 003C                       ___flmul@bexp 003D  
                     ___flmul@sign 0037                       ___flmul@temp 0042  
                     ___flmul@prod 003E                               ?_ISR 0070  
                     ___fltol@exp1 0078                               l2000 13A6  
                             l2002 13AD                               l2100 0DE9  
                             l2004 13B3                               l2110 0DFD  
                             l2102 0DED                               l2200 0F78  
                             l2120 0E11                               l2112 0E01  
                             l2104 0DF1                               l2210 0F86  
                             l2202 0F7A                               l2122 0E15  
                             l2114 0E05                               l2106 0DF5  
                             l2130 0E25                               l3020 14E7  
                             l2220 0F9D                               l2212 0F8A  
                             l2204 0F7F                               l2140 0E68  
                             l2132 0E26                               l2124 0E19  
                             l2116 0E09                               l2108 0DF9  
                             l2060 0D8A                               l2052 0D78  
                             l3100 1589                               l3030 1516  
                             l3022 14F9                               l2230 0FDB  
                             l2222 0FAB                               l2214 0F90  
                             l2206 0F81                               l2150 0E86  
                             l2142 0E6C                               l2134 0E3D  
                             l2126 0E1D                               l2118 0E0D  
                             l2062 0D8F                               l2070 0D9F  
                             l2054 0D7F                               l3032 1528  
                             l3024 14FC                               l3040 1546  
                             l2400 051B                               l2304 12DC  
                             l2240 0FEF                               l2232 0FE3  
                             l2224 0FAF                               l2160 0EAF  
                             l2208 0F85                               l2152 0E8B  
                             l2144 0E6D                               l2136 0E5D  
                             l2128 0E21                               l2080 0DB9  
                             l2072 0DA7                               l2064 0D94  
                             l2056 0D85                               l3120 1672  
                             l3200 0BEB                               l3034 1536  
                             l3026 1509                               l2250 13C4  
                             l2410 05A9                               l2402 0528  
                             l2306 12E4                               l2242 0FFA  
                             l2234 0FE8                               l2226 0FCD  
                             l2218 0F98                               l2170 0EC3  
                             l2162 0EB3                               l2146 0E76  
                             l2138 0E66                               l2090 0DD0  
                             l2082 0DBD                               l2074 0DAC  
                             l2066 0D9C                               l2058 0D89  
                             l3114 15AA                               l3106 1591  
                             l3122 1677                               l3050 1454  
                             l3210 0C26                               l3202 0BF0  
                             l3036 1537                               l3028 150D  
                             l3300 0878                               l2252 13C8  
                             l2420 060B                               l2412 05C5  
                             l2404 0545                               l2308 12E6  
                             l2244 0FFE                               l2236 0FE9  
                             l2228 0FD6                               l2180 0F2B  
                             l2172 0ECC                               l2164 0EBC  
                             l2156 0E94                               l2148 0E7A  
                             l2092 0DD1                               l2084 0DBE  
                             l2076 0DB2                               l2068 0D9D  
                             l3116 15BA                               l3108 15A3  
                             l3140 16C1                               l3132 16A4  
                             l3124 167B                               l3052 1458  
                             l3060 1487                               l3044 143A  
                             l2260 133D                               l3220 0C4B  
                             l3212 0C2B                               l1550 12F7  
                             l3038 1540                               l3070 1605  
                             l2254 13D7                               l2246 13BB  
                             l2430 069B                               l2422 0628  
                             l2414 05CE                               l2406 0561  
                             l2238 0FED                               l2182 0F30  
                             l2166 0EBE                               l2158 0EAB  
                             l2174 0ED1                               l2086 0DC3  
                             l2094 0DD3                               l2078 0DB3  
                             l2350 1373                               l3118 15BF  
                             l3150 16F8                               l3142 16CF  
                             l3134 16A9                               l3126 168B  
                             l3054 146A                               l3046 1444  
                             l2262 133E                               l3222 0C51  
                             l3214 0C39                               l3206 0BF5  
                             l3310 08A6                               l3302 087A  
                             l1552 12FA                               l2272 131D  
                             l2280 12E8                               l3080 166D  
                             l3072 1609                               l3064 15CB  
                             l2256 13DC                               l2248 13BD  
                             l2440 072D                               l2432 06C8  
                             l2424 0641                               l2416 05DE  
                             l2408 058D                               l2360 04AF  
                             l2192 0F63                               l2176 0EE7  
                             l2184 0F3F                               l2168 0EC2  
                             l2096 0DE1                               l2088 0DC8  
                             l3160 1722                               l3152 1702  
                             l3144 16DF                               l3136 16B6  
                             l3128 169B                               l3056 1478  
                             l3048 1447                               l2264 1344  
                             l3240 0CB5                               l3232 0C8A  
                             l3216 0C3D                               l3208 0C18  
                             l3320 094D                               l3312 08BD  
                             l3304 0880                               l3400 03CE  
                             l1800 1316                               l1554 12FD  
                             l2274 1322                               l2282 12EE  
                             l3074 162D                               l3066 15E1  
                             l2442 0736                               l2450 074A  
                             l2434 06EE                               l2426 065E  
                             l2418 05FB                               l2370 04C4  
                             l2362 04B0                               l2354 049E  
                             l2194 0F6C                               l2186 0F55  
                             l2178 0F25                               l2098 0DE5  
                             l3090 1565                               l3154 1718  
                             l3146 16EA                               l3138 16BD  
                             l3058 1481                               l2266 134A  
                             l3250 0CE8                               l3242 0CCB  
                             l3234 0C94                               l3218 0C43  
                             l3170 0B41                               l3314 08D6  
                             l3306 0899                               l3410 0445  
                             l3402 03F5                               l3330 0023  
                             l1802 1317                               l1556 12FE  
                             l1548 12F3                               l3324 172B  
                             l2276 12CA                               l3076 1631  
                             l3068 15FD                               l2452 074E  
                             l2444 073A                               l2436 0716  
                             l2428 068B                               l2380 04DC  
                             l2372 04CC                               l2364 04B5  
                             l2356 04A5                               l2196 0F70  
                             l2188 0F5A                               l2348 136F  
                             l3092 157A                               l3084 154F  
                             l3156 171D                               l3148 16EE  
                             l2268 134C                               l3252 0CEC  
                             l3260 0D53                               l3244 0CD7  
                             l3236 0C9F                               l3228 0C53  
                             l3180 0B72                               l3172 0B46  
                             l3164 0B2F                               l3316 0905  
                             l3308 08A2                               l3412 0454  
                             l3404 0402                               l3332 002F  
                             l1804 1318                               l2278 12D3  
                             l2710 1497                               l3078 166B  
                             l2470 079F                               l2462 076F  
                             l2454 074F                               l2446 073B  
                             l2438 071F                               l2390 04F8  
                             l2382 04E1                               l2374 04D1  
                             l2366 04BA                               l2358 04AB  
                             l2198 0F75                               l3094 157B  
                             l3086 155C                               l3158 1721  
                             l3254 0CF9                               l3246 0CDB  
                             l3238 0CA6                               l3190 0BAB  
                             l3182 0B85                               l3174 0B49  
                             l3166 0B34                               l3262 0D61  
                             l3318 0933                               l3414 047B  
                             l3406 0411                               l3350 007C  
                             l3342 004A                               l3334 003B  
                             l3422 134E                               l3280 086A  
                             l3272 0807                               l2712 14B3  
                             l2800 09FC                               l2480 07D6  
                             l2464 0774                               l2472 07A5  
                             l2456 0753                               l2448 0744  
                             l2392 04FD                               l2384 04E6  
                             l2376 04D7                               l2368 04C2  
                             l3096 1583                               l3256 0D48  
                             l3248 0CE1                               l3264 0D73  
                             l3192 0BAE                               l3184 0B89  
                             l3176 0B59                               l3168 0B3A  
                             l3416 0488                               l3408 0438  
                             l3360 00C9                               l3352 008D  
                             l3344 0059                               l3336 0046  
                             l3328 001D                               l3424 135C  
                             l3290 0871                               l3282 086B  
                             l3274 080E                               l2650 132D  
                             l2714 14BB                               l2810 0A21  
                             l2802 0A04                               l2490 07F6  
                             l2482 07D8                               l2474 07B2  
                             l2466 0782                               l2458 0767  
                             l2394 0502                               l2386 04EE  
                             l2378 04DB                               l3098 1585  
                             l3258 0D4F                               l3194 0BC3  
                             l3178 0B5D                               l3186 0B99  
                             l3418 0497                               l3370 01AD  
                             l3362 00D8                               l3354 009C  
                             l3346 005F                               l3426 1366  
                             l2660 12BD                               l3292 0872  
                             l3284 086C                               l3276 083B  
                             l2652 1332                               l2716 14C8  
                             l2708 1490                               l2820 0A4C  
                             l2812 0A22                               l2804 0A06  
                             l2740 094F                               l2484 07E6  
                             l2476 07BD                               l2468 0786  
                             l2388 04F0                               l3196 0BD6  
                             l3188 0BA7                               l3380 02F8  
                             l3372 0206                               l3364 00E7  
                             l3356 00AB                               l3348 006C  
                             l2646 12AF                               l3294 0873  
                             l3286 086D                               l3278 083D  
                             l2654 12C1                               l2670 13F9  
                             l2662 13E2                               l2830 0A69  
                             l2806 0A0B                               l2814 0A2B  
                             l2822 0A50                               l2750 0966  
                             l2742 0956                               l2486 07EA  
                             l2478 07CC                               l2398 050B  
                             l3198 0BDA                               l3390 036F  
                             l3382 0305                               l3374 0248  
                             l3366 0129                               l3358 00BA  
                             l2648 12B4                               l3296 0874  
                             l3288 086E                               l2656 12C6  
                             l2672 13FF                               l2664 13E7  
                             l2840 0A81                               l2832 0A6D  
                             l2824 0A56                               l2816 0A3D  
                             l2808 0A1D                               l2760 097E  
                             l2752 096B                               l2744 095C  
                             l2488 07EB                               l3448 0C09  
                             l3392 037C                               l3384 032C  
                             l3376 028A                               l3368 016B  
                             l2658 12B8                               l3298 0875  
                             l2674 140B                               l2666 13EE  
                             l2850 0AA2                               l2842 0A82  
                             l2834 0A6E                               l2826 0A5E  
                             l2818 0A3E                               l2770 0993  
                             l2762 0983                               l2754 0973  
                             l2746 0960                               l3394 038B  
                             l3386 0339                               l3378 02CC  
                             l2668 13F4                               l2852 0AA7  
                             l2860 0AD8                               l2844 0A86  
                             l2836 0A77                               l2828 0A60  
                             l2780 09B3                               l2772 0998  
                             l2764 0989                               l2756 0974  
                             l2748 0961                               l3396 03B2  
                             l3388 0348                               l1990 1300  
                             l2870 0B0E                               l2862 0AE5  
                             l2854 0AB5                               l2846 0A9A  
                             l2838 0A7D                               l2790 09D1  
                             l2782 09BF                               l2774 09A0  
                             l2766 098D                               l2758 0976  
                             l3398 03BF                               l1798 130D  
                             l1992 1306                               l2872 0B15  
                             l2864 0AF3                               l2856 0AB9  
                             l2784 09C3                               l2776 09A1  
                             l2768 098E                               l2874 0B19  
                             l2866 0B02                               l2858 0AD2  
                             l2794 09DA                               l2778 09A3  
                             l1994 1393                               l2876 0B1B  
                             l2868 0B06                               l2796 09EC  
                             l2788 09CC                               l1996 1395  
                             l2798 09F4                               l1998 1399  
                             STR_1 1043                               STR_2 1043  
                             STR_3 1043                               STR_4 1043  
                             STR_5 1043                               STR_6 1043  
                             STR_7 1038                               u3100 04B5  
                             u2220 13B3                               u3101 04B4  
                             u2221 13B2                               u2205 13A0  
                             u3110 04BA                               u3111 04B9  
                             u2215 13A7                               u3120 04DB  
                             u2400 0DBD                               u3201 05B7  
                             u3121 04DA                               u2401 0DBC  
                             u2170 1306                               u4010 0A21  
                             u3202 05BE                               u3130 04E1  
                             u2410 0DC3                               u2171 1305  
                             u4011 0A20                               u3203 05C5  
                             u3131 04E0                               u2411 0DC2  
                             u2180 130C                               u4100 0A86  
                             u3300 06FC                               u3140 04E6  
                             u2420 0DC8                               u2181 130B  
                             u4101 0A85                               u4005 0A16  
                             u3221 05ED                               u3141 04E5  
                             u2421 0DC7                               u4110 0A9A  
                             u4030 0A3D                               u3222 05F4  
                             u3150 04FD                               u2510 0E82  
                             u2430 0DE1                               u2190 1399  
                             u4111 0A99                               u4031 0A3C  
                             u3311 0708                               u3231 061A  
                             u3223 05FB                               u3215 05C7  
                             u3151 04FC                               u2511 0E81  
                             u2431 0DE0                               u2191 1398  
                             u4120 0AA1                               u4040 0A56  
                             u3400 0774                               u3312 070F  
                             u3232 0621                               u3160 0502  
                             u2520 0E86                               u2440 0DE5  
                             u2360 0D89                               u4121 0AA0  
                             u4041 0A55                               u4025 0A24  
                             u3401 0773                               u3313 0716  
                             u3305 06F7                               u3233 0628  
                             u3161 0501                               u2601 0EFE  
                             u2521 0E85                               u2505 0E6F  
                             u2441 0DE4                               u2361 0D88  
                             u4130 0AA7                               u4050 0A5E  
                             u3410 0786                               u3090 04AF  
                             u2610 0F12                               u2602 0EFF  
                             u2530 0E8B                               u2450 0E3D  
                             u2370 0D8F                               u4131 0AA6  
                             u4051 0A5D                               u4035 0A39  
                             u3411 0785                               u3251 0650  
                             u3171 0553                               u3091 04AE  
                             u2611 0F13                               u2603 0F04  
                             u2531 0E8A                               u2451 0E3C  
                             u2371 0D8E                               u4140 0AB9  
                             u3420 0795                               u3340 073A  
                             u3252 0657                               u3172 055A  
                             u2700 0F8A                               u2620 0F30  
                             u2612 0F18                               u2604 0F05  
                             u2460 0E48                               u2380 0D94  
                             u4300 1444                               u4141 0AB8  
                             u3341 0739                               u3325 0718  
                             u3261 067D                               u3253 065E  
                             u3245 062A                               u3181 056F  
                             u3173 0561                               u2701 0F89  
                             u2621 0F2F                               u2613 0F19  
                             u2605 0F0A                               u2541 0E9D  
                             u2461 0E46                               u2381 0D93  
                             u4301 1443                               u4230 14F9  
                             u4150 0AC8                               u4070 0A6D  
                             u3430 07B2                               u3262 0684  
                             u3182 0576                               u2710 0F90  
                             u2630 0F55                               u2606 0F0B  
                             u2550 0EAF                               u2542 0EA4  
                             u2470 0E49                               u2390 0DB2  
                             u4231 14F8                               u4071 0A6C  
                             u3431 07B1                               u3335 072F  
                             u3271 06AA                               u3263 068B  
                             u3191 059B                               u3183 057D  
                             u2711 0F8F                               u2631 0F54  
                             u2551 0EAE                               u2543 0EAB  
                             u2455 0E39                               u2391 0DB1  
                             u4160 0AE5                               u4400 1631  
                             u3440 07CC                               u3360 074E  
                             u3280 06D4                               u3272 06B1  
                             u3192 05A2                               u2800 0FED  
                             u2720 0F97                               u2640 0F5A  
                             u2560 0EB3                               u2480 0E5D  
                             u4320 1458                               u4161 0AE4  
                             u4065 0A62                               u4401 1630  
                             u3441 07CB                               u3425 0790  
                             u3361 074D                               u3273 06B8  
                             u3193 05A9                               u2801 0FEC  
                             u2721 0F96                               u2641 0F59  
                             u2561 0EB2                               u2481 0E5C  
                             u4321 1457                               u4250 150D  
                             u4170 0B02                               u4090 0A81  
                             u3450 07EA                               u3370 0753  
                             u2810 0FFE                               u2730 0F9D  
                             u2570 0EC2                               u2490 0E6C  
                             u4330 146A                               u4251 150C  
                             u4171 0B01                               u4155 0AC3  
                             u4091 0A80                               u4411 1640  
                             u3451 07E9                               u3435 07AE  
                             u3371 0752                               u3355 073D  
                             u3291 06E0                               u2811 0FFD  
                             u2731 0F9C                               u2571 0EC1  
                             u2491 0E6B                               u4331 1469  
                             u4315 1449                               u2900 12EE  
                             u4180 0B19                               u4420 166B  
                             u4412 1641                               u2820 13C8  
                             u3380 0767                               u3292 06E7  
                             u2740 0FAF                               u2660 0F70  
                             u4245 14FE                               u2901 12ED  
                             u4181 0B18                               u4165 0AE1  
                             u4085 0A70                               u4421 166A  
                             u4413 1646                               u2821 13C7  
                             u3445 07C8                               u3381 0766  
                             u3293 06EE                               u3285 06CF  
                             u2741 0FAE                               u2661 0F6F  
                             u4270 1528                               u4414 1647  
                             u3390 076E                               u2750 0FBE  
                             u2670 0F75                               u2590 0EE7  
                             u4510 15BA                               u4430 155C  
                             u4350 1487                               u4271 1527  
                             u4175 0AFE                               u4415 164C  
                             u3391 076D                               u2671 0F74  
                             u2655 0F65                               u2591 0EE6  
                             u4511 15B9                               u4431 155B  
                             u4351 1486                               u4335 1466  
                             u3800 13F9                               u4416 164D  
                             u4360 15E1                               u2840 13DC  
                             u2760 0FCD                               u2680 0F7F  
                             u4520 15BF                               u4440 1573  
                             u4265 150F                               u3801 13F8  
                             u4425 1667                               u4361 15E0  
                             u2841 13DB                               u2761 0FCC  
                             u2681 0F7E                               u2593 0EE3  
                             u2585 0EC5                               u4521 15BE  
                             u4505 15AC                               u4345 1479  
                             u4290 1546                               u3810 140A  
                             u4370 15FD                               u2770 0FD6  
                             u2690 0F85                               u4450 1589  
                             u4610 16EE                               u4530 1677  
                             u2850 1344                               u4291 1545  
                             u4275 1524                               u3811 1409  
                             u4371 15FC                               u2835 13CF  
                             u2771 0FD5                               u2755 0FB9  
                             u2691 0F84                               u4451 1588  
                             u4611 16ED                               u4531 1676  
                             u2851 1343                               u3900 0960  
                             u4380 1609                               u2780 0FDB  
                             u4460 1590                               u4620 16F4  
                             u4540 167B                               u2860 134A  
                             u4700 0BA7                               u4285 1538  
                             u3901 095F                               u4381 1608  
                             u2781 0FDA                               u4461 158F  
                             u4445 156E                               u4621 16F3  
                             u4605 16E3                               u4541 167A  
                             u2861 1349                               u4701 0BA6  
                             u2870 132A                               u3910 0966  
                             u2790 0FE8                               u4630 16F8  
                             u4550 169B                               u4710 0BEA  
                             u2871 1329                               u3911 0965  
                             u4391 1618                               u2791 0FE7  
                             u4631 16F7                               u4551 169A  
                             u4711 0BE9                               u2880 12D2  
                             u3920 096B                               u4392 1619  
                             u4480 15A2                               u4640 170D  
                             u4800 0CCB                               u4720 0C18  
                             u2881 12D1                               u3921 096A  
                             u4393 161E                               u4481 15A1  
                             u4801 0CCA                               u4721 0C17  
                             u2890 12DB                               u3850 14A1  
                             u3930 098D                               u4394 161F  
                             u4490 15A9                               u4650 171D  
                             u4570 16BC                               u4810 0CE1  
                             u4730 0C43                               u2891 12DA  
                             u3931 098C                               u4395 1624  
                             u4491 15A8                               u4475 1592  
                             u4651 171C                               u4571 16BB  
                             u4811 0CE0                               u4731 0C42  
                             i1l36 1433                               u3860 14C8  
                             u3940 0993                               u4396 1625  
                             u2980 12E4                               u4660 1721  
                             u4820 0CF8                               u4740 0C4B  
                             u4900 002F                               _RCEN 048B  
                             u3861 14C7                               u3941 0992  
                             u2981 12E3                               u4661 1720  
                             u4645 1708                               u4565 16AE  
                             u4821 0CF7                               u4805 0CC7  
                             u4741 0C4A                               u4901 002E  
                             u3790 13EE                               u3870 14D4  
                             u3950 0998                               u4590 16DE  
                             u4670 0B3A                               u4910 003B  
                             u3791 13ED                               u3951 0997  
                             u4591 16DD                               u4671 0B39  
                             u4911 003A                               u3880 14E6  
                             u3960 09B3                               u4840 0D61  
                             u4760 0C89                               u4680 0B59  
                             u4920 006C                               u3881 14E5  
                             u3865 14C4                               u3961 09B2  
                             u4585 16D0                               u4841 0D60  
                             u4761 0C88                               u4681 0B58  
                             u4921 006B                               u3970 09D1  
                             u4850 0D73                               u4770 0C94  
                             u4690 0B99                               u3971 09D0  
                             u4851 0D72                               u4835 0D04  
                             u4771 0C93                               u4755 0C56  
                             u4691 0B98                               u4860 080E  
                             u3980 0A0B                               u4780 0C9F  
                             u4861 080D                               u3981 0A0A  
                             u4781 0C9E                               u4765 0C85  
                             u4925 0068                               u4870 081C  
                             u4790 0CB5                               u4791 0CB4  
                             u4880 084B                               u4785 0C9B  
                             u4937 1356                               u4890 0899  
                             u4875 0817                               u3995 0A0D  
                             u4795 0CB1                               u4891 0898  
                             u4885 0846                               _RSEN 0489  
                 __end_of_I2C_NACK 12DC   __end_of_I2C_Master_RepeatedStart 12CA  
                             _main 134E                               _ftoa 087A  
                 __end_of_I2C_Read 140D                               btemp 007E  
                  __end_of_GY_init 1800                    __end_of_GY_read 049E  
                             start 000C                    ___fldiv@new_exp 003C  
                            ??_ISR 0070                   ?_I2C_Master_Init 0070  
                 ?_I2C_Master_Wait 0070                   ?_I2C_Master_Stop 0070  
                    ___fltol@sign1 0077                    __end_of___fladd 1000  
                            ?_main 0070                              _ACKEN 048C  
                            ?_ftoa 0060                              _ACKDT 048D  
                  __end_of___fldiv 0B2C                    __end_of___flneg 12E7  
                  __end_of___flmul 07FF                    __end_of___flsub 1393  
                  __end_of___fltol 15CB                              _ANSEL 0188  
                  __end_of___lldiv 154F                    __end_of___llmod 1490  
                            _RCREG 001A                              _SPBRG 0099  
                            _PORTA 0005                              _TRISA 0085  
                            _SSPIF 0063                              _TXREG 0019  
                 __end_of_UARTInit 087A                              _Setup 130D  
                  __end_of_dpowers 1038                    __end_of_isdigit 134E  
                            ftoa@f 0060                              ftoa@l 006B  
                __end_of_I2C_Start 133C                              pclath 000A  
                            status 0003                              wtemp0 007E  
                  __end_of_sprintf 0D78                    __initialization 000F  
                     __end_of_main 136F                       __end_of_ftoa 094F  
                        ??_I2C_ACK 0073                             ??_main 00E1  
                           ??_ftoa 0066                  ?_I2C_Master_Start 0070  
                ?_I2C_Master_Write 0070                             ?_Setup 0070  
               ??_I2C_Master_Start 0073                 ??_I2C_Master_Write 0073  
                 ___llmod@dividend 002C                          ??_GY_init 0079  
                        ??_GY_read 00A0                             u210_20 142B  
                           i1l1920 141D                             u210_21 142A  
                           i1l1930 142C                             i1l1922 141E  
                           i1l1914 140D                             i1l1932 1432  
                           i1l1924 1424                             i1l1916 1413  
                           i1l1926 1425                             i1l1918 1417  
                           u211_20 1432                             i1l1928 142B  
                           u211_21 1431                             u207_20 1413  
                           u207_21 1412                             u208_20 141D  
                           u208_21 141C                             u209_20 1424  
                           u209_21 1423                             _SSPADD 0093  
                           _TRISC3 043B                             _TRISC4 043C  
                           _SSPCON 0014                             _SSPBUF 0013  
                 __end_of___xxtofl 172B           _I2C_Master_RepeatedStart 12C1  
                           ___flge 15CB                   I2C_Read@ACK_NACK 0074  
                        ??___fladd 004C                             ___wmul 1393  
                        ??___fldiv 0032                          ??___flneg 0077  
                        ??___flmul 0032                          ??___flsub 0077  
                        ??___fltol 0048                          ??___lldiv 0073  
                        ??___llmod 0079            __size_of_UARTSendString 0057  
                     GY_read@datos 00B2                             ftoa@cp 006F  
                        ?_I2C_NACK 0070                          ??_isdigit 0073  
                        ?_I2C_Read 0070                 __size_of__Umul8_16 0029  
                           saved_w 007E                          ??_sprintf 003A  
                       ___flge@ff1 0020                         ___flge@ff2 0024  
                     ___xxtofl@arg 0026                       ___xxtofl@exp 0025  
                     ___xxtofl@val 0073            __end_of__initialization 0019  
                       ___flneg@f1 0073                         ___fltol@f1 0044  
                   __pcstackCOMMON 0070                      __end_of_Setup 131C  
                        ?_UARTInit 0028                         ??_I2C_NACK 0073  
                       ??_I2C_Read 0073           UARTSendString@max_length 0076  
                          ??_Setup 0073                       sprintf@width 0046  
                       __pbssBANK3 0190                       I2C_Read@Data 0075  
                __end_of__Umul8_16 13E1                         __pmaintext 134E  
                          ?___flge 0020                            ?___wmul 0073  
                       ??_UARTInit 002D                         __pintentry 0004  
                          _I2C_ACK 12CA                            _ACKSTAT 048E  
                        ?___xxtofl 0073                            _SSPCON2 0091  
                          _SSPSTAT 0094                            _GY_init 172B  
                          _GY_read 001D                         __stringtab 1000  
                    ?_UARTSendChar 0070                       I2C_Start@add 0074  
                        _I2C_Start 132C                    __size_of___flge 00A4  
                          ___fladd 0D78                            ___fldiv 094F  
                          ___flneg 12DC                            ___flmul 049E  
                          ___flsub 136F                            ___fltol 154F  
                          ___lldiv 14E7                    __size_of___wmul 0025  
                          ___llmod 143A                     _UARTSendString 1490  
                          __ptext1 130D                            __ptext2 001D  
                          __ptext3 087A                            __ptext4 0B2C  
                          __ptext5 133C                            __ptext6 1393  
                          __ptext7 143A                            __ptext8 166F  
                          __ptext9 154F                       __size_of_ISR 002D  
                          _entrada 007A                            _dpowers 1010  
                          _isdigit 133C                         ??___xxtofl 0020  
         __size_of_I2C_Master_Init 000D           __size_of_I2C_Master_Wait 000D  
         __size_of_I2C_Master_Stop 0009                            _sprintf 0B2C  
                          clrloop0 12A8                      GY_read@entero 00DE  
             end_of_initialization 0019                     ??_UARTSendChar 0073  
                          ftoa@buf 0190                            ftoa@rem 0067  
       ??_I2C_Master_RepeatedStart 0073                         ?_I2C_Start 0070  
        __size_of_I2C_Master_Start 0009          __size_of_I2C_Master_Write 0010  
                  ___lldiv@divisor 0020                    ___lldiv@counter 0078  
                        _RCSTAbits 0018             __end_of_UARTSendString 14E7  
                        _PORTAbits 0005                        ___fladd@grs 0057  
                    ___xxtofl@sign 0024                  __size_of_I2C_NACK 0009  
                        _TRISCbits 0087                  __size_of_I2C_Read 002C  
                      ___fldiv@grs 003E                        ___fldiv@rem 0037  
                      ___flmul@grs 0038                          _TXSTAbits 0098  
                  ?_UARTSendString 0074                     __end_of___flge 166F  
                   __end_of___wmul 13B8                  __size_of_UARTInit 0073  
              start_initialization 000F                        __end_of_ISR 143A  
                       ftoa@status 0064                  ??_I2C_Master_Init 0073  
                ??_I2C_Master_Wait 0073                  ??_I2C_Master_Stop 0073  
                  ___llmod@divisor 0028                        ??_I2C_Start 0074  
                  ___llmod@counter 0030                           ??___flge 0073  
                         ??___wmul 0077                          __Umul8_16 13B8  
                         ?_I2C_ACK 0070               __end_of_UARTSendChar 12F3  
                        ___fladd@a 0048                          ___fladd@b 0044  
                        ___fldiv@a 002A                          ___fldiv@b 002E  
                        ___flmul@a 002E                          ___flmul@b 002A  
                      __pbssCOMMON 007A                          ___flsub@a 0058  
                        ___flsub@b 005C                          ___latbits 0002  
                    __pcstackBANK0 0020                      __pcstackBANK1 00A0  
                __size_of___xxtofl 00BC                           ?_GY_init 0070  
                         ?_GY_read 0070                        sprintf@flag 003F  
                      sprintf@prec 0048                   _I2C_Master_Start 12AF  
                 _I2C_Master_Write 131C                      UARTSendChar@c 0073  
                         ?___fladd 0044                           ?___fldiv 002A  
                         ?___flneg 0073                           ?___flmul 002A  
                         ?___flsub 0058                           ?___fltol 0044  
                         ?___lldiv 0020                           ?___llmod 0028  
                       ?__Umul8_16 0073               I2C_Master_Write@data 0073  
                        __pstrings 1000                           _I2C_NACK 12D3  
                         ?_isdigit 0070                           _I2C_Read 13E1  
                         GY_read@i 00DC                     __size_of_Setup 000F  
                         ?_sprintf 0031                  interrupt_function 0004  
                   ___wmul@product 0077                          clear_ram0 12A7  
                         _PIE1bits 008C                    UARTSendString@i 0020  
                         _PIR1bits 000C                           _UARTInit 0807  
                 __size_of_I2C_ACK 0009                        __stringbase 100F  
                ___wmul@multiplier 0073                   __size_of_GY_init 00D5  
                 __size_of_GY_read 0481                   ??_UARTSendString 0077  
            __size_of_UARTSendChar 000C                         GY_read@buf 00E0  
                     UARTInit@BRGH 002C                        ??__Umul8_16 0075  
__size_of_I2C_Master_RepeatedStart 0009                   __size_of___fladd 0288  
                 __size_of___fldiv 01DD                   __size_of___flneg 000B  
                 __size_of___flmul 0361          ?_I2C_Master_RepeatedStart 0070  
                 __size_of___flsub 0024                   __size_of___fltol 007C  
                 __size_of___lldiv 0068                   __size_of___llmod 0056  
               __end_of__stringtab 1010                        _isdigit$910 0073  
                       sprintf@val 0041                    _I2C_Master_Init 12F3  
                         ___xxtofl 166F                    _I2C_Master_Wait 1300  
                  _I2C_Master_Stop 12B8                   __size_of_isdigit 0012  
                         __ptext10 136F                           __ptext11 0D78  
                         __ptext20 13E1                           __ptext12 12DC  
                         __ptext21 12D3                           __ptext13 049E  
                         __ptext30 1300                           __ptext22 12CA  
                         __ptext14 13B8                           __ptext31 12F3  
                         __ptext23 12C1                           __ptext15 15CB  
                         __ptext32 140D                           __ptext24 172B  
                         __ptext16 094F                           __ptext25 0807  
                         __ptext17 1490                           __ptext26 14E7  
                         __ptext18 12E7                           __ptext27 131C  
                         __ptext19 132C                           __ptext28 12B8  
                         __ptext29 12AF                   __size_of_sprintf 024C  
                     _UARTSendChar 12E7                      __size_of_main 0021  
                    __size_of_ftoa 00D5                     GY_read@guardar 00CE  
         __end_of_I2C_Master_Start 12B8           __end_of_I2C_Master_Write 132C  
                       _INTCONbits 000B                     GY_read@valores 00A4  
                         isdigit@c 0074                  UARTSendString@str 0074  
                         intlevel1 0000                          sprintf@ap 0040  
                        sprintf@sp 0045                   ___lldiv@dividend 0024  
                        stringcode 100A            __end_of_I2C_Master_Init 1300  
          __end_of_I2C_Master_Wait 130D            __end_of_I2C_Master_Stop 12C1  
           __Umul8_16@multiplicand 0073                           sprintf@c 004A  
                         sprintf@f 0031                   ___lldiv@quotient 0074  
                         stringdir 100A                           stringtab 1000  
                      _SSPCON2bits 0091                      ___fladd@signs 0054  
                     ___fladd@aexp 0055                       ___fladd@bexp 0056  
             __Umul8_16@multiplier 0024                  __Umul8_16@product 0020  
